; Listing generated by Microsoft (R) Optimizing Compiler Version 19.32.31332.0 

include listing.inc

INCLUDELIB OLDNAMES

PUBLIC	??_C@_0BC@EOODALEL@Unknown?5exception@		; `string'
PUBLIC	??_C@_0BF@KINCDENJ@bad?5array?5new?5length@	; `string'
PUBLIC	??_C@_0BB@MGNLFLJB@VK_KHR_swapchain@		; `string'
PUBLIC	??_C@_0BJ@MELMCFLN@couldn?8t?5create?5VkDevice@	; `string'
PUBLIC	??_C@_0BA@FOIKENOD@vector?5too?5long@		; `string'
PUBLIC	??_R0?AVruntime_error@std@@@8			; std::runtime_error `RTTI Type Descriptor'
PUBLIC	??_R4exception@std@@6B@				; std::exception::`RTTI Complete Object Locator'
PUBLIC	??_R2bad_array_new_length@std@@8		; std::bad_array_new_length::`RTTI Base Class Array'
PUBLIC	??_R0?AVbad_alloc@std@@@8			; std::bad_alloc `RTTI Type Descriptor'
PUBLIC	??_R4runtime_error@std@@6B@			; std::runtime_error::`RTTI Complete Object Locator'
PUBLIC	??_R2bad_alloc@std@@8				; std::bad_alloc::`RTTI Base Class Array'
PUBLIC	??_R1A@?0A@EA@runtime_error@std@@8		; std::runtime_error::`RTTI Base Class Descriptor at (0,-1,0,64)'
PUBLIC	_TI2?AVruntime_error@std@@
PUBLIC	_CTA3?AVbad_array_new_length@std@@
PUBLIC	??_7bad_array_new_length@std@@6B@		; std::bad_array_new_length::`vftable'
PUBLIC	??_R1A@?0A@EA@exception@std@@8			; std::exception::`RTTI Base Class Descriptor at (0,-1,0,64)'
PUBLIC	??_R1A@?0A@EA@bad_alloc@std@@8			; std::bad_alloc::`RTTI Base Class Descriptor at (0,-1,0,64)'
PUBLIC	??_7bad_alloc@std@@6B@				; std::bad_alloc::`vftable'
PUBLIC	??_R2exception@std@@8				; std::exception::`RTTI Base Class Array'
PUBLIC	_CTA2?AVruntime_error@std@@
PUBLIC	??_7exception@std@@6B@				; std::exception::`vftable'
PUBLIC	??_R3exception@std@@8				; std::exception::`RTTI Class Hierarchy Descriptor'
PUBLIC	_CT??_R0?AVbad_array_new_length@std@@@8??0bad_array_new_length@std@@QEAA@AEBV01@@Z24
PUBLIC	??_7runtime_error@std@@6B@			; std::runtime_error::`vftable'
PUBLIC	?_Fake_alloc@std@@3U_Fake_allocator@1@B		; std::_Fake_alloc
PUBLIC	_CT??_R0?AVruntime_error@std@@@8??0runtime_error@std@@QEAA@AEBV01@@Z24
PUBLIC	??_R4bad_alloc@std@@6B@				; std::bad_alloc::`RTTI Complete Object Locator'
PUBLIC	??_R3bad_array_new_length@std@@8		; std::bad_array_new_length::`RTTI Class Hierarchy Descriptor'
PUBLIC	_CT??_R0?AVbad_alloc@std@@@8??0bad_alloc@std@@QEAA@AEBV01@@Z24
PUBLIC	??_R3bad_alloc@std@@8				; std::bad_alloc::`RTTI Class Hierarchy Descriptor'
PUBLIC	??_R2runtime_error@std@@8			; std::runtime_error::`RTTI Base Class Array'
PUBLIC	??_R4bad_array_new_length@std@@6B@		; std::bad_array_new_length::`RTTI Complete Object Locator'
PUBLIC	??_R1A@?0A@EA@bad_array_new_length@std@@8	; std::bad_array_new_length::`RTTI Base Class Descriptor at (0,-1,0,64)'
PUBLIC	_CT??_R0?AVexception@std@@@8??0exception@std@@QEAA@AEBV01@@Z24
PUBLIC	_TI3?AVbad_array_new_length@std@@
PUBLIC	??_R0?AVexception@std@@@8			; std::exception `RTTI Type Descriptor'
PUBLIC	??_R3runtime_error@std@@8			; std::runtime_error::`RTTI Class Hierarchy Descriptor'
PUBLIC	??_R0?AVbad_array_new_length@std@@@8		; std::bad_array_new_length `RTTI Type Descriptor'
EXTRN	__imp__invalid_parameter_noinfo_noreturn:PROC
EXTRN	??_7type_info@@6B@:BYTE				; type_info::`vftable'
EXTRN	__imp___std_terminate:PROC
EXTRN	??3@YAXPEAX_K@Z:PROC				; operator delete
EXTRN	__imp___std_exception_copy:PROC
EXTRN	__imp_?_Xlength_error@std@@YAXPEBD@Z:PROC
EXTRN	??2@YAPEAX_K@Z:PROC				; operator new
EXTRN	__imp_vkDestroyDevice:PROC
EXTRN	__imp_vkCreateDevice:PROC
EXTRN	__imp___std_exception_destroy:PROC
EXTRN	__security_check_cookie:PROC
EXTRN	__imp___CxxFrameHandler4:PROC
;	COMDAT ??_R0?AVbad_array_new_length@std@@@8
data$r	SEGMENT
??_R0?AVbad_array_new_length@std@@@8 DQ FLAT:??_7type_info@@6B@ ; std::bad_array_new_length `RTTI Type Descriptor'
	DQ	0000000000000000H
	DB	'.?AVbad_array_new_length@std@@', 00H
data$r	ENDS
;	COMDAT ??_R3runtime_error@std@@8
rdata$r	SEGMENT
??_R3runtime_error@std@@8 DD 00H			; std::runtime_error::`RTTI Class Hierarchy Descriptor'
	DD	00H
	DD	02H
	DD	imagerel ??_R2runtime_error@std@@8
rdata$r	ENDS
;	COMDAT ??_R0?AVexception@std@@@8
data$r	SEGMENT
??_R0?AVexception@std@@@8 DQ FLAT:??_7type_info@@6B@	; std::exception `RTTI Type Descriptor'
	DQ	0000000000000000H
	DB	'.?AVexception@std@@', 00H
data$r	ENDS
;	COMDAT _TI3?AVbad_array_new_length@std@@
xdata$x	SEGMENT
_TI3?AVbad_array_new_length@std@@ DD 00H
	DD	imagerel ??1bad_array_new_length@std@@UEAA@XZ
	DD	00H
	DD	imagerel _CTA3?AVbad_array_new_length@std@@
xdata$x	ENDS
;	COMDAT _CT??_R0?AVexception@std@@@8??0exception@std@@QEAA@AEBV01@@Z24
xdata$x	SEGMENT
_CT??_R0?AVexception@std@@@8??0exception@std@@QEAA@AEBV01@@Z24 DD 00H
	DD	imagerel ??_R0?AVexception@std@@@8
	DD	00H
	DD	0ffffffffH
	ORG $+4
	DD	018H
	DD	imagerel ??0exception@std@@QEAA@AEBV01@@Z
xdata$x	ENDS
;	COMDAT ??_R1A@?0A@EA@bad_array_new_length@std@@8
rdata$r	SEGMENT
??_R1A@?0A@EA@bad_array_new_length@std@@8 DD imagerel ??_R0?AVbad_array_new_length@std@@@8 ; std::bad_array_new_length::`RTTI Base Class Descriptor at (0,-1,0,64)'
	DD	02H
	DD	00H
	DD	0ffffffffH
	DD	00H
	DD	040H
	DD	imagerel ??_R3bad_array_new_length@std@@8
rdata$r	ENDS
;	COMDAT ??_R4bad_array_new_length@std@@6B@
rdata$r	SEGMENT
??_R4bad_array_new_length@std@@6B@ DD 01H		; std::bad_array_new_length::`RTTI Complete Object Locator'
	DD	00H
	DD	00H
	DD	imagerel ??_R0?AVbad_array_new_length@std@@@8
	DD	imagerel ??_R3bad_array_new_length@std@@8
	DD	imagerel ??_R4bad_array_new_length@std@@6B@
rdata$r	ENDS
;	COMDAT ??_R2runtime_error@std@@8
rdata$r	SEGMENT
??_R2runtime_error@std@@8 DD imagerel ??_R1A@?0A@EA@runtime_error@std@@8 ; std::runtime_error::`RTTI Base Class Array'
	DD	imagerel ??_R1A@?0A@EA@exception@std@@8
	ORG $+3
rdata$r	ENDS
;	COMDAT ??_R3bad_alloc@std@@8
rdata$r	SEGMENT
??_R3bad_alloc@std@@8 DD 00H				; std::bad_alloc::`RTTI Class Hierarchy Descriptor'
	DD	00H
	DD	02H
	DD	imagerel ??_R2bad_alloc@std@@8
rdata$r	ENDS
;	COMDAT _CT??_R0?AVbad_alloc@std@@@8??0bad_alloc@std@@QEAA@AEBV01@@Z24
xdata$x	SEGMENT
_CT??_R0?AVbad_alloc@std@@@8??0bad_alloc@std@@QEAA@AEBV01@@Z24 DD 010H
	DD	imagerel ??_R0?AVbad_alloc@std@@@8
	DD	00H
	DD	0ffffffffH
	ORG $+4
	DD	018H
	DD	imagerel ??0bad_alloc@std@@QEAA@AEBV01@@Z
xdata$x	ENDS
;	COMDAT ??_R3bad_array_new_length@std@@8
rdata$r	SEGMENT
??_R3bad_array_new_length@std@@8 DD 00H			; std::bad_array_new_length::`RTTI Class Hierarchy Descriptor'
	DD	00H
	DD	03H
	DD	imagerel ??_R2bad_array_new_length@std@@8
rdata$r	ENDS
;	COMDAT ??_R4bad_alloc@std@@6B@
rdata$r	SEGMENT
??_R4bad_alloc@std@@6B@ DD 01H				; std::bad_alloc::`RTTI Complete Object Locator'
	DD	00H
	DD	00H
	DD	imagerel ??_R0?AVbad_alloc@std@@@8
	DD	imagerel ??_R3bad_alloc@std@@8
	DD	imagerel ??_R4bad_alloc@std@@6B@
rdata$r	ENDS
;	COMDAT _CT??_R0?AVruntime_error@std@@@8??0runtime_error@std@@QEAA@AEBV01@@Z24
xdata$x	SEGMENT
_CT??_R0?AVruntime_error@std@@@8??0runtime_error@std@@QEAA@AEBV01@@Z24 DD 00H
	DD	imagerel ??_R0?AVruntime_error@std@@@8
	DD	00H
	DD	0ffffffffH
	ORG $+4
	DD	018H
	DD	imagerel ??0runtime_error@std@@QEAA@AEBV01@@Z
xdata$x	ENDS
;	COMDAT ?_Fake_alloc@std@@3U_Fake_allocator@1@B
CONST	SEGMENT
?_Fake_alloc@std@@3U_Fake_allocator@1@B	ORG $+1		; std::_Fake_alloc
CONST	ENDS
;	COMDAT ??_7runtime_error@std@@6B@
CONST	SEGMENT
??_7runtime_error@std@@6B@ DQ FLAT:??_R4runtime_error@std@@6B@ ; std::runtime_error::`vftable'
	DQ	FLAT:??_Eruntime_error@std@@UEAAPEAXI@Z
	DQ	FLAT:?what@exception@std@@UEBAPEBDXZ
CONST	ENDS
;	COMDAT _CT??_R0?AVbad_array_new_length@std@@@8??0bad_array_new_length@std@@QEAA@AEBV01@@Z24
xdata$x	SEGMENT
_CT??_R0?AVbad_array_new_length@std@@@8??0bad_array_new_length@std@@QEAA@AEBV01@@Z24 DD 00H
	DD	imagerel ??_R0?AVbad_array_new_length@std@@@8
	DD	00H
	DD	0ffffffffH
	ORG $+4
	DD	018H
	DD	imagerel ??0bad_array_new_length@std@@QEAA@AEBV01@@Z
xdata$x	ENDS
;	COMDAT ??_R3exception@std@@8
rdata$r	SEGMENT
??_R3exception@std@@8 DD 00H				; std::exception::`RTTI Class Hierarchy Descriptor'
	DD	00H
	DD	01H
	DD	imagerel ??_R2exception@std@@8
rdata$r	ENDS
;	COMDAT ??_7exception@std@@6B@
CONST	SEGMENT
??_7exception@std@@6B@ DQ FLAT:??_R4exception@std@@6B@	; std::exception::`vftable'
	DQ	FLAT:??_Eexception@std@@UEAAPEAXI@Z
	DQ	FLAT:?what@exception@std@@UEBAPEBDXZ
CONST	ENDS
;	COMDAT _CTA2?AVruntime_error@std@@
xdata$x	SEGMENT
_CTA2?AVruntime_error@std@@ DD 02H
	DD	imagerel _CT??_R0?AVruntime_error@std@@@8??0runtime_error@std@@QEAA@AEBV01@@Z24
	DD	imagerel _CT??_R0?AVexception@std@@@8??0exception@std@@QEAA@AEBV01@@Z24
xdata$x	ENDS
;	COMDAT ??_R2exception@std@@8
rdata$r	SEGMENT
??_R2exception@std@@8 DD imagerel ??_R1A@?0A@EA@exception@std@@8 ; std::exception::`RTTI Base Class Array'
	ORG $+3
rdata$r	ENDS
;	COMDAT ??_7bad_alloc@std@@6B@
CONST	SEGMENT
??_7bad_alloc@std@@6B@ DQ FLAT:??_R4bad_alloc@std@@6B@	; std::bad_alloc::`vftable'
	DQ	FLAT:??_Ebad_alloc@std@@UEAAPEAXI@Z
	DQ	FLAT:?what@exception@std@@UEBAPEBDXZ
CONST	ENDS
;	COMDAT ??_R1A@?0A@EA@bad_alloc@std@@8
rdata$r	SEGMENT
??_R1A@?0A@EA@bad_alloc@std@@8 DD imagerel ??_R0?AVbad_alloc@std@@@8 ; std::bad_alloc::`RTTI Base Class Descriptor at (0,-1,0,64)'
	DD	01H
	DD	00H
	DD	0ffffffffH
	DD	00H
	DD	040H
	DD	imagerel ??_R3bad_alloc@std@@8
rdata$r	ENDS
;	COMDAT ??_R1A@?0A@EA@exception@std@@8
rdata$r	SEGMENT
??_R1A@?0A@EA@exception@std@@8 DD imagerel ??_R0?AVexception@std@@@8 ; std::exception::`RTTI Base Class Descriptor at (0,-1,0,64)'
	DD	00H
	DD	00H
	DD	0ffffffffH
	DD	00H
	DD	040H
	DD	imagerel ??_R3exception@std@@8
rdata$r	ENDS
;	COMDAT ??_7bad_array_new_length@std@@6B@
CONST	SEGMENT
??_7bad_array_new_length@std@@6B@ DQ FLAT:??_R4bad_array_new_length@std@@6B@ ; std::bad_array_new_length::`vftable'
	DQ	FLAT:??_Ebad_array_new_length@std@@UEAAPEAXI@Z
	DQ	FLAT:?what@exception@std@@UEBAPEBDXZ
CONST	ENDS
;	COMDAT _CTA3?AVbad_array_new_length@std@@
xdata$x	SEGMENT
_CTA3?AVbad_array_new_length@std@@ DD 03H
	DD	imagerel _CT??_R0?AVbad_array_new_length@std@@@8??0bad_array_new_length@std@@QEAA@AEBV01@@Z24
	DD	imagerel _CT??_R0?AVbad_alloc@std@@@8??0bad_alloc@std@@QEAA@AEBV01@@Z24
	DD	imagerel _CT??_R0?AVexception@std@@@8??0exception@std@@QEAA@AEBV01@@Z24
xdata$x	ENDS
;	COMDAT _TI2?AVruntime_error@std@@
xdata$x	SEGMENT
_TI2?AVruntime_error@std@@ DD 00H
	DD	imagerel ??1runtime_error@std@@UEAA@XZ
	DD	00H
	DD	imagerel _CTA2?AVruntime_error@std@@
xdata$x	ENDS
;	COMDAT ??_R1A@?0A@EA@runtime_error@std@@8
rdata$r	SEGMENT
??_R1A@?0A@EA@runtime_error@std@@8 DD imagerel ??_R0?AVruntime_error@std@@@8 ; std::runtime_error::`RTTI Base Class Descriptor at (0,-1,0,64)'
	DD	01H
	DD	00H
	DD	0ffffffffH
	DD	00H
	DD	040H
	DD	imagerel ??_R3runtime_error@std@@8
rdata$r	ENDS
;	COMDAT ??_R2bad_alloc@std@@8
rdata$r	SEGMENT
??_R2bad_alloc@std@@8 DD imagerel ??_R1A@?0A@EA@bad_alloc@std@@8 ; std::bad_alloc::`RTTI Base Class Array'
	DD	imagerel ??_R1A@?0A@EA@exception@std@@8
	ORG $+3
rdata$r	ENDS
;	COMDAT ??_R4runtime_error@std@@6B@
rdata$r	SEGMENT
??_R4runtime_error@std@@6B@ DD 01H			; std::runtime_error::`RTTI Complete Object Locator'
	DD	00H
	DD	00H
	DD	imagerel ??_R0?AVruntime_error@std@@@8
	DD	imagerel ??_R3runtime_error@std@@8
	DD	imagerel ??_R4runtime_error@std@@6B@
rdata$r	ENDS
;	COMDAT ??_R0?AVbad_alloc@std@@@8
data$r	SEGMENT
??_R0?AVbad_alloc@std@@@8 DQ FLAT:??_7type_info@@6B@	; std::bad_alloc `RTTI Type Descriptor'
	DQ	0000000000000000H
	DB	'.?AVbad_alloc@std@@', 00H
data$r	ENDS
;	COMDAT ??_R2bad_array_new_length@std@@8
rdata$r	SEGMENT
??_R2bad_array_new_length@std@@8 DD imagerel ??_R1A@?0A@EA@bad_array_new_length@std@@8 ; std::bad_array_new_length::`RTTI Base Class Array'
	DD	imagerel ??_R1A@?0A@EA@bad_alloc@std@@8
	DD	imagerel ??_R1A@?0A@EA@exception@std@@8
	ORG $+3
rdata$r	ENDS
;	COMDAT ??_R4exception@std@@6B@
rdata$r	SEGMENT
??_R4exception@std@@6B@ DD 01H				; std::exception::`RTTI Complete Object Locator'
	DD	00H
	DD	00H
	DD	imagerel ??_R0?AVexception@std@@@8
	DD	imagerel ??_R3exception@std@@8
	DD	imagerel ??_R4exception@std@@6B@
rdata$r	ENDS
;	COMDAT ??_R0?AVruntime_error@std@@@8
data$r	SEGMENT
??_R0?AVruntime_error@std@@@8 DQ FLAT:??_7type_info@@6B@ ; std::runtime_error `RTTI Type Descriptor'
	DQ	0000000000000000H
	DB	'.?AVruntime_error@std@@', 00H
data$r	ENDS
;	COMDAT ??_C@_0BA@FOIKENOD@vector?5too?5long@
CONST	SEGMENT
??_C@_0BA@FOIKENOD@vector?5too?5long@ DB 'vector too long', 00H ; `string'
CONST	ENDS
;	COMDAT ??_C@_0BJ@MELMCFLN@couldn?8t?5create?5VkDevice@
CONST	SEGMENT
??_C@_0BJ@MELMCFLN@couldn?8t?5create?5VkDevice@ DB 'couldn''t create VkDe'
	DB	'vice', 00H					; `string'
CONST	ENDS
;	COMDAT ??_C@_0BB@MGNLFLJB@VK_KHR_swapchain@
CONST	SEGMENT
??_C@_0BB@MGNLFLJB@VK_KHR_swapchain@ DB 'VK_KHR_swapchain', 00H ; `string'
CONST	ENDS
;	COMDAT ??_C@_0BF@KINCDENJ@bad?5array?5new?5length@
CONST	SEGMENT
??_C@_0BF@KINCDENJ@bad?5array?5new?5length@ DB 'bad array new length', 00H ; `string'
CONST	ENDS
;	COMDAT ??_C@_0BC@EOODALEL@Unknown?5exception@
CONST	SEGMENT
??_C@_0BC@EOODALEL@Unknown?5exception@ DB 'Unknown exception', 00H ; `string'
CONST	ENDS
PUBLIC	??$construct@UVkDeviceQueueCreateInfo@@U1@@?$_Default_allocator_traits@V?$allocator@UVkDeviceQueueCreateInfo@@@std@@@std@@SAXAEAV?$allocator@UVkDeviceQueueCreateInfo@@@1@QEAUVkDeviceQueueCreateInfo@@$$QEAU3@@Z ; std::_Default_allocator_traits<std::allocator<VkDeviceQueueCreateInfo> >::construct<VkDeviceQueueCreateInfo,VkDeviceQueueCreateInfo>
PUBLIC	??$forward@UVkDeviceQueueCreateInfo@@@std@@YA$$QEAUVkDeviceQueueCreateInfo@@AEAU1@@Z ; std::forward<VkDeviceQueueCreateInfo>
PUBLIC	??$_Emplace_back@UVkDeviceQueueCreateInfo@@@?$_Uninitialized_backout_al@V?$allocator@UVkDeviceQueueCreateInfo@@@std@@@std@@QEAAX$$QEAUVkDeviceQueueCreateInfo@@@Z ; std::_Uninitialized_backout_al<std::allocator<VkDeviceQueueCreateInfo> >::_Emplace_back<VkDeviceQueueCreateInfo>
PUBLIC	??$_To_address@PEAUVkDeviceQueueCreateInfo@@@std@@YA?A_PAEBQEAUVkDeviceQueueCreateInfo@@@Z ; std::_To_address<VkDeviceQueueCreateInfo *>
PUBLIC	??$_Copy_memmove@PEAUVkDeviceQueueCreateInfo@@PEAU1@@std@@YAPEAUVkDeviceQueueCreateInfo@@PEAU1@00@Z ; std::_Copy_memmove<VkDeviceQueueCreateInfo *,VkDeviceQueueCreateInfo *>
PUBLIC	??$move@AEAUVkDeviceQueueCreateInfo@@@std@@YA$$QEAUVkDeviceQueueCreateInfo@@AEAU1@@Z ; std::move<VkDeviceQueueCreateInfo &>
PUBLIC	??$_Voidify_iter@PEAUVkDeviceQueueCreateInfo@@@std@@YAPEAXPEAUVkDeviceQueueCreateInfo@@@Z ; std::_Voidify_iter<VkDeviceQueueCreateInfo *>
PUBLIC	??$addressof@UVkDeviceQueueCreateInfo@@@std@@YAPEAUVkDeviceQueueCreateInfo@@AEAU1@@Z ; std::addressof<VkDeviceQueueCreateInfo>
PUBLIC	??0?$_Uninitialized_backout_al@V?$allocator@UVkDeviceQueueCreateInfo@@@std@@@std@@QEAA@PEAUVkDeviceQueueCreateInfo@@AEAV?$allocator@UVkDeviceQueueCreateInfo@@@1@@Z ; std::_Uninitialized_backout_al<std::allocator<VkDeviceQueueCreateInfo> >::_Uninitialized_backout_al<std::allocator<VkDeviceQueueCreateInfo> >
PUBLIC	??1?$_Uninitialized_backout_al@V?$allocator@UVkDeviceQueueCreateInfo@@@std@@@std@@QEAA@XZ ; std::_Uninitialized_backout_al<std::allocator<VkDeviceQueueCreateInfo> >::~_Uninitialized_backout_al<std::allocator<VkDeviceQueueCreateInfo> >
PUBLIC	?_Release@?$_Uninitialized_backout_al@V?$allocator@UVkDeviceQueueCreateInfo@@@std@@@std@@QEAAPEAUVkDeviceQueueCreateInfo@@XZ ; std::_Uninitialized_backout_al<std::allocator<VkDeviceQueueCreateInfo> >::_Release
PUBLIC	?__autoclassinit2@?$_Uninitialized_backout_al@V?$allocator@UVkDeviceQueueCreateInfo@@@std@@@std@@QEAAX_K@Z ; std::_Uninitialized_backout_al<std::allocator<VkDeviceQueueCreateInfo> >::__autoclassinit2
PUBLIC	??$_Get_size_of_n@$0CI@@std@@YA_K_K@Z		; std::_Get_size_of_n<40>
PUBLIC	??$_Allocate_manually_vector_aligned@U_Default_allocate_traits@std@@@std@@YAPEAX_K@Z ; std::_Allocate_manually_vector_aligned<std::_Default_allocate_traits>
PUBLIC	??$_Uninitialized_move@PEAUVkDeviceQueueCreateInfo@@V?$allocator@UVkDeviceQueueCreateInfo@@@std@@@std@@YAPEAUVkDeviceQueueCreateInfo@@QEAU1@0PEAU1@AEAV?$allocator@UVkDeviceQueueCreateInfo@@@0@@Z ; std::_Uninitialized_move<VkDeviceQueueCreateInfo *,std::allocator<VkDeviceQueueCreateInfo> >
PUBLIC	??$_Get_unwrapped@AEBQEAUVkDeviceQueueCreateInfo@@@std@@YA?A_TAEBQEAUVkDeviceQueueCreateInfo@@@Z ; std::_Get_unwrapped<VkDeviceQueueCreateInfo * const &>
PUBLIC	??$construct@UVkDeviceQueueCreateInfo@@AEBU1@@?$_Default_allocator_traits@V?$allocator@UVkDeviceQueueCreateInfo@@@std@@@std@@SAXAEAV?$allocator@UVkDeviceQueueCreateInfo@@@1@QEAUVkDeviceQueueCreateInfo@@AEBU3@@Z ; std::_Default_allocator_traits<std::allocator<VkDeviceQueueCreateInfo> >::construct<VkDeviceQueueCreateInfo,VkDeviceQueueCreateInfo const &>
PUBLIC	??$_Unfancy@UVkDeviceQueueCreateInfo@@@std@@YAPEAUVkDeviceQueueCreateInfo@@PEAU1@@Z ; std::_Unfancy<VkDeviceQueueCreateInfo>
PUBLIC	??$_Construct_in_place@UVkDeviceQueueCreateInfo@@AEBU1@@std@@YAXAEAUVkDeviceQueueCreateInfo@@AEBU1@@Z ; std::_Construct_in_place<VkDeviceQueueCreateInfo,VkDeviceQueueCreateInfo const &>
PUBLIC	?_Get_first@?$_Compressed_pair@V?$allocator@UVkDeviceQueueCreateInfo@@@std@@V?$_Vector_val@U?$_Simple_types@UVkDeviceQueueCreateInfo@@@std@@@2@$00@std@@QEBAAEBV?$allocator@UVkDeviceQueueCreateInfo@@@2@XZ ; std::_Compressed_pair<std::allocator<VkDeviceQueueCreateInfo>,std::_Vector_val<std::_Simple_types<VkDeviceQueueCreateInfo> >,1>::_Get_first
PUBLIC	?max_size@?$_Default_allocator_traits@V?$allocator@UVkDeviceQueueCreateInfo@@@std@@@std@@SA_KAEBV?$allocator@UVkDeviceQueueCreateInfo@@@2@@Z ; std::_Default_allocator_traits<std::allocator<VkDeviceQueueCreateInfo> >::max_size
PUBLIC	?capacity@?$vector@UVkDeviceQueueCreateInfo@@V?$allocator@UVkDeviceQueueCreateInfo@@@std@@@std@@QEBA_KXZ ; std::vector<VkDeviceQueueCreateInfo,std::allocator<VkDeviceQueueCreateInfo> >::capacity
PUBLIC	?_Getal@?$vector@UVkDeviceQueueCreateInfo@@V?$allocator@UVkDeviceQueueCreateInfo@@@std@@@std@@AEBAAEBV?$allocator@UVkDeviceQueueCreateInfo@@@2@XZ ; std::vector<VkDeviceQueueCreateInfo,std::allocator<VkDeviceQueueCreateInfo> >::_Getal
PUBLIC	?allocate@?$allocator@UVkDeviceQueueCreateInfo@@@std@@QEAAPEAUVkDeviceQueueCreateInfo@@_K@Z ; std::allocator<VkDeviceQueueCreateInfo>::allocate
PUBLIC	?max_size@?$vector@UVkDeviceQueueCreateInfo@@V?$allocator@UVkDeviceQueueCreateInfo@@@std@@@std@@QEBA_KXZ ; std::vector<VkDeviceQueueCreateInfo,std::allocator<VkDeviceQueueCreateInfo> >::max_size
PUBLIC	?_Calculate_growth@?$vector@UVkDeviceQueueCreateInfo@@V?$allocator@UVkDeviceQueueCreateInfo@@@std@@@std@@AEBA_K_K@Z ; std::vector<VkDeviceQueueCreateInfo,std::allocator<VkDeviceQueueCreateInfo> >::_Calculate_growth
PUBLIC	?_Change_array@?$vector@UVkDeviceQueueCreateInfo@@V?$allocator@UVkDeviceQueueCreateInfo@@@std@@@std@@AEAAXQEAUVkDeviceQueueCreateInfo@@_K1@Z ; std::vector<VkDeviceQueueCreateInfo,std::allocator<VkDeviceQueueCreateInfo> >::_Change_array
PUBLIC	?_Xlength@?$vector@UVkDeviceQueueCreateInfo@@V?$allocator@UVkDeviceQueueCreateInfo@@@std@@@std@@CAXXZ ; std::vector<VkDeviceQueueCreateInfo,std::allocator<VkDeviceQueueCreateInfo> >::_Xlength
PUBLIC	?_Orphan_range@?$vector@UVkDeviceQueueCreateInfo@@V?$allocator@UVkDeviceQueueCreateInfo@@@std@@@std@@AEBAXPEAUVkDeviceQueueCreateInfo@@0@Z ; std::vector<VkDeviceQueueCreateInfo,std::allocator<VkDeviceQueueCreateInfo> >::_Orphan_range
PUBLIC	??$_Allocate@$0BA@U_Default_allocate_traits@std@@$0A@@std@@YAPEAX_K@Z ; std::_Allocate<16,std::_Default_allocate_traits,0>
PUBLIC	??$min@_K@std@@YAAEB_KAEB_K0@Z			; std::min<unsigned __int64>
PUBLIC	??$_Emplace_reallocate@AEBUVkDeviceQueueCreateInfo@@@?$vector@UVkDeviceQueueCreateInfo@@V?$allocator@UVkDeviceQueueCreateInfo@@@std@@@std@@AEAAPEAUVkDeviceQueueCreateInfo@@QEAU2@AEBU2@@Z ; std::vector<VkDeviceQueueCreateInfo,std::allocator<VkDeviceQueueCreateInfo> >::_Emplace_reallocate<VkDeviceQueueCreateInfo const &>
PUBLIC	??$_Emplace_back_with_unused_capacity@AEBUVkDeviceQueueCreateInfo@@@?$vector@UVkDeviceQueueCreateInfo@@V?$allocator@UVkDeviceQueueCreateInfo@@@std@@@std@@AEAAAEAUVkDeviceQueueCreateInfo@@AEBU2@@Z ; std::vector<VkDeviceQueueCreateInfo,std::allocator<VkDeviceQueueCreateInfo> >::_Emplace_back_with_unused_capacity<VkDeviceQueueCreateInfo const &>
PUBLIC	??0?$allocator@UVkDeviceQueueCreateInfo@@@std@@QEAA@XZ ; std::allocator<VkDeviceQueueCreateInfo>::allocator<VkDeviceQueueCreateInfo>
PUBLIC	??0?$_Vector_val@U?$_Simple_types@UVkDeviceQueueCreateInfo@@@std@@@std@@QEAA@XZ ; std::_Vector_val<std::_Simple_types<VkDeviceQueueCreateInfo> >::_Vector_val<std::_Simple_types<VkDeviceQueueCreateInfo> >
PUBLIC	??$_Deallocate@$0BA@$0A@@std@@YAXPEAX_K@Z	; std::_Deallocate<16,0>
PUBLIC	??$_Destroy_range@V?$allocator@UVkDeviceQueueCreateInfo@@@std@@@std@@YAXPEAUVkDeviceQueueCreateInfo@@QEAU1@AEAV?$allocator@UVkDeviceQueueCreateInfo@@@0@@Z ; std::_Destroy_range<std::allocator<VkDeviceQueueCreateInfo> >
PUBLIC	??$?0$$V@?$_Compressed_pair@V?$allocator@UVkDeviceQueueCreateInfo@@@std@@V?$_Vector_val@U?$_Simple_types@UVkDeviceQueueCreateInfo@@@std@@@2@$00@std@@QEAA@U_Zero_then_variadic_args_t@1@@Z ; std::_Compressed_pair<std::allocator<VkDeviceQueueCreateInfo>,std::_Vector_val<std::_Simple_types<VkDeviceQueueCreateInfo> >,1>::_Compressed_pair<std::allocator<VkDeviceQueueCreateInfo>,std::_Vector_val<std::_Simple_types<VkDeviceQueueCreateInfo> >,1><>
PUBLIC	??$_Emplace_one_at_back@AEBUVkDeviceQueueCreateInfo@@@?$vector@UVkDeviceQueueCreateInfo@@V?$allocator@UVkDeviceQueueCreateInfo@@@std@@@std@@AEAAAEAUVkDeviceQueueCreateInfo@@AEBU2@@Z ; std::vector<VkDeviceQueueCreateInfo,std::allocator<VkDeviceQueueCreateInfo> >::_Emplace_one_at_back<VkDeviceQueueCreateInfo const &>
PUBLIC	??$forward@AEBUVkDeviceQueueCreateInfo@@@std@@YAAEBUVkDeviceQueueCreateInfo@@AEBU1@@Z ; std::forward<VkDeviceQueueCreateInfo const &>
PUBLIC	??$_Unfancy_maybe_null@UVkDeviceQueueCreateInfo@@@std@@YAPEAUVkDeviceQueueCreateInfo@@PEAU1@@Z ; std::_Unfancy_maybe_null<VkDeviceQueueCreateInfo>
PUBLIC	?_Get_first@?$_Compressed_pair@V?$allocator@UVkDeviceQueueCreateInfo@@@std@@V?$_Vector_val@U?$_Simple_types@UVkDeviceQueueCreateInfo@@@std@@@2@$00@std@@QEAAAEAV?$allocator@UVkDeviceQueueCreateInfo@@@2@XZ ; std::_Compressed_pair<std::allocator<VkDeviceQueueCreateInfo>,std::_Vector_val<std::_Simple_types<VkDeviceQueueCreateInfo> >,1>::_Get_first
PUBLIC	?deallocate@?$allocator@UVkDeviceQueueCreateInfo@@@std@@QEAAXQEAUVkDeviceQueueCreateInfo@@_K@Z ; std::allocator<VkDeviceQueueCreateInfo>::deallocate
PUBLIC	?_Getal@?$vector@UVkDeviceQueueCreateInfo@@V?$allocator@UVkDeviceQueueCreateInfo@@@std@@@std@@AEAAAEAV?$allocator@UVkDeviceQueueCreateInfo@@@2@XZ ; std::vector<VkDeviceQueueCreateInfo,std::allocator<VkDeviceQueueCreateInfo> >::_Getal
PUBLIC	?_Tidy@?$vector@UVkDeviceQueueCreateInfo@@V?$allocator@UVkDeviceQueueCreateInfo@@@std@@@std@@AEAAXXZ ; std::vector<VkDeviceQueueCreateInfo,std::allocator<VkDeviceQueueCreateInfo> >::_Tidy
PUBLIC	?size@?$array@PEBD$00@std@@QEBA_KXZ		; std::array<char const *,1>::size
PUBLIC	?data@?$array@PEBD$00@std@@QEBAPEBQEBDXZ	; std::array<char const *,1>::data
PUBLIC	??0?$vector@UVkDeviceQueueCreateInfo@@V?$allocator@UVkDeviceQueueCreateInfo@@@std@@@std@@QEAA@XZ ; std::vector<VkDeviceQueueCreateInfo,std::allocator<VkDeviceQueueCreateInfo> >::vector<VkDeviceQueueCreateInfo,std::allocator<VkDeviceQueueCreateInfo> >
PUBLIC	??1?$vector@UVkDeviceQueueCreateInfo@@V?$allocator@UVkDeviceQueueCreateInfo@@@std@@@std@@QEAA@XZ ; std::vector<VkDeviceQueueCreateInfo,std::allocator<VkDeviceQueueCreateInfo> >::~vector<VkDeviceQueueCreateInfo,std::allocator<VkDeviceQueueCreateInfo> >
PUBLIC	??$emplace_back@AEBUVkDeviceQueueCreateInfo@@@?$vector@UVkDeviceQueueCreateInfo@@V?$allocator@UVkDeviceQueueCreateInfo@@@std@@@std@@QEAA?A_TAEBUVkDeviceQueueCreateInfo@@@Z ; std::vector<VkDeviceQueueCreateInfo,std::allocator<VkDeviceQueueCreateInfo> >::emplace_back<VkDeviceQueueCreateInfo const &>
PUBLIC	?push_back@?$vector@UVkDeviceQueueCreateInfo@@V?$allocator@UVkDeviceQueueCreateInfo@@@std@@@std@@QEAAXAEBUVkDeviceQueueCreateInfo@@@Z ; std::vector<VkDeviceQueueCreateInfo,std::allocator<VkDeviceQueueCreateInfo> >::push_back
PUBLIC	?data@?$vector@UVkDeviceQueueCreateInfo@@V?$allocator@UVkDeviceQueueCreateInfo@@@std@@@std@@QEAAPEAUVkDeviceQueueCreateInfo@@XZ ; std::vector<VkDeviceQueueCreateInfo,std::allocator<VkDeviceQueueCreateInfo> >::data
PUBLIC	?size@?$vector@UVkDeviceQueueCreateInfo@@V?$allocator@UVkDeviceQueueCreateInfo@@@std@@@std@@QEBA_KXZ ; std::vector<VkDeviceQueueCreateInfo,std::allocator<VkDeviceQueueCreateInfo> >::size
PUBLIC	??1Device@cow@@QEAA@XZ				; cow::Device::~Device
PUBLIC	?__autoclassinit2@?$vector@UVkDeviceQueueCreateInfo@@V?$allocator@UVkDeviceQueueCreateInfo@@@std@@@std@@QEAAX_K@Z ; std::vector<VkDeviceQueueCreateInfo,std::allocator<VkDeviceQueueCreateInfo> >::__autoclassinit2
PUBLIC	??0Device@cow@@QEAA@PEAUVkPhysicalDevice_T@@PEAII@Z ; cow::Device::Device
PUBLIC	??0runtime_error@std@@QEAA@AEBV01@@Z		; std::runtime_error::runtime_error
PUBLIC	??1runtime_error@std@@UEAA@XZ			; std::runtime_error::~runtime_error
PUBLIC	??_Gruntime_error@std@@UEAAPEAXI@Z		; std::runtime_error::`scalar deleting destructor'
PUBLIC	??0runtime_error@std@@QEAA@PEBD@Z		; std::runtime_error::runtime_error
PUBLIC	?_Alloc_proxy@_Container_base0@std@@QEAAXAEBU_Fake_allocator@2@@Z ; std::_Container_base0::_Alloc_proxy
PUBLIC	?_Orphan_all@_Container_base0@std@@QEAAXXZ	; std::_Container_base0::_Orphan_all
PUBLIC	?_Adjust_manually_vector_aligned@std@@YAXAEAPEAXAEA_K@Z ; std::_Adjust_manually_vector_aligned
PUBLIC	?_Allocate@_Default_allocate_traits@std@@SAPEAX_K@Z ; std::_Default_allocate_traits::_Allocate
PUBLIC	?max@?$numeric_limits@_J@std@@SA_JXZ		; std::numeric_limits<__int64>::max
PUBLIC	??0bad_alloc@std@@QEAA@AEBV01@@Z		; std::bad_alloc::bad_alloc
PUBLIC	??0bad_array_new_length@std@@QEAA@AEBV01@@Z	; std::bad_array_new_length::bad_array_new_length
PUBLIC	?_Throw_bad_array_new_length@std@@YAXXZ		; std::_Throw_bad_array_new_length
PUBLIC	??1bad_array_new_length@std@@UEAA@XZ		; std::bad_array_new_length::~bad_array_new_length
PUBLIC	??_Gbad_array_new_length@std@@UEAAPEAXI@Z	; std::bad_array_new_length::`scalar deleting destructor'
PUBLIC	??0bad_array_new_length@std@@QEAA@XZ		; std::bad_array_new_length::bad_array_new_length
PUBLIC	??1bad_alloc@std@@UEAA@XZ			; std::bad_alloc::~bad_alloc
PUBLIC	??_Gbad_alloc@std@@UEAAPEAXI@Z			; std::bad_alloc::`scalar deleting destructor'
PUBLIC	??0bad_alloc@std@@AEAA@QEBD@Z			; std::bad_alloc::bad_alloc
PUBLIC	??_Gexception@std@@UEAAPEAXI@Z			; std::exception::`scalar deleting destructor'
PUBLIC	?what@exception@std@@UEBAPEBDXZ			; std::exception::what
PUBLIC	??1exception@std@@UEAA@XZ			; std::exception::~exception
PUBLIC	??0exception@std@@QEAA@AEBV01@@Z		; std::exception::exception
PUBLIC	??0exception@std@@QEAA@QEBDH@Z			; std::exception::exception
PUBLIC	??0exception@std@@QEAA@QEBD@Z			; std::exception::exception
PUBLIC	??2@YAPEAX_KPEAX@Z				; operator new
EXTRN	__CxxFrameHandler4:PROC
EXTRN	??_Eexception@std@@UEAAPEAXI@Z:PROC		; std::exception::`vector deleting destructor'
EXTRN	??_Ebad_alloc@std@@UEAAPEAXI@Z:PROC		; std::bad_alloc::`vector deleting destructor'
EXTRN	??_Eruntime_error@std@@UEAAPEAXI@Z:PROC		; std::runtime_error::`vector deleting destructor'
EXTRN	??_Ebad_array_new_length@std@@UEAAPEAXI@Z:PROC	; std::bad_array_new_length::`vector deleting destructor'
EXTRN	_CxxThrowException:PROC
EXTRN	__GSHandlerCheck:PROC
EXTRN	__GSHandlerCheck_EH4:PROC
EXTRN	memcmp:PROC
EXTRN	memcpy:PROC
EXTRN	memmove:PROC
EXTRN	memset:PROC
EXTRN	__security_cookie:QWORD
EXTRN	_fltused:DWORD
;	COMDAT pdata
pdata	SEGMENT
$pdata$??$_Copy_memmove@PEAUVkDeviceQueueCreateInfo@@PEAU1@@std@@YAPEAUVkDeviceQueueCreateInfo@@PEAU1@00@Z DD imagerel $LN4@Copy_memmo
	DD	imagerel $LN4@Copy_memmo+48
	DD	imagerel $unwind$??$_Copy_memmove@PEAUVkDeviceQueueCreateInfo@@PEAU1@@std@@YAPEAUVkDeviceQueueCreateInfo@@PEAU1@00@Z
pdata	ENDS
;	COMDAT pdata
pdata	SEGMENT
$pdata$??$_Get_size_of_n@$0CI@@std@@YA_K_K@Z DD imagerel $LN7@Get_size_o
	DD	imagerel $LN7@Get_size_o+38
	DD	imagerel $unwind$??$_Get_size_of_n@$0CI@@std@@YA_K_K@Z
pdata	ENDS
;	COMDAT pdata
pdata	SEGMENT
$pdata$??$_Allocate_manually_vector_aligned@U_Default_allocate_traits@std@@@std@@YAPEAX_K@Z DD imagerel $LN17@Allocate_m
	DD	imagerel $LN17@Allocate_m+59
	DD	imagerel $unwind$??$_Allocate_manually_vector_aligned@U_Default_allocate_traits@std@@@std@@YAPEAX_K@Z
pdata	ENDS
;	COMDAT pdata
pdata	SEGMENT
$pdata$??$_Uninitialized_move@PEAUVkDeviceQueueCreateInfo@@V?$allocator@UVkDeviceQueueCreateInfo@@@std@@@std@@YAPEAUVkDeviceQueueCreateInfo@@QEAU1@0PEAU1@AEAV?$allocator@UVkDeviceQueueCreateInfo@@@0@@Z DD imagerel $LN20@Uninitiali
	DD	imagerel $LN20@Uninitiali+79
	DD	imagerel $unwind$??$_Uninitialized_move@PEAUVkDeviceQueueCreateInfo@@V?$allocator@UVkDeviceQueueCreateInfo@@@std@@@std@@YAPEAUVkDeviceQueueCreateInfo@@QEAU1@0PEAU1@AEAV?$allocator@UVkDeviceQueueCreateInfo@@@0@@Z
pdata	ENDS
;	COMDAT pdata
pdata	SEGMENT
$pdata$?allocate@?$allocator@UVkDeviceQueueCreateInfo@@@std@@QEAAPEAUVkDeviceQueueCreateInfo@@_K@Z DD imagerel $LN31@allocate
	DD	imagerel $LN31@allocate+116
	DD	imagerel $unwind$?allocate@?$allocator@UVkDeviceQueueCreateInfo@@@std@@QEAAPEAUVkDeviceQueueCreateInfo@@_K@Z
pdata	ENDS
;	COMDAT pdata
pdata	SEGMENT
$pdata$?_Change_array@?$vector@UVkDeviceQueueCreateInfo@@V?$allocator@UVkDeviceQueueCreateInfo@@@std@@@std@@AEAAXQEAUVkDeviceQueueCreateInfo@@_K1@Z DD imagerel $LN25@Change_arr
	DD	imagerel $LN25@Change_arr+177
	DD	imagerel $unwind$?_Change_array@?$vector@UVkDeviceQueueCreateInfo@@V?$allocator@UVkDeviceQueueCreateInfo@@@std@@@std@@AEAAXQEAUVkDeviceQueueCreateInfo@@_K1@Z
pdata	ENDS
;	COMDAT pdata
pdata	SEGMENT
$pdata$?_Xlength@?$vector@UVkDeviceQueueCreateInfo@@V?$allocator@UVkDeviceQueueCreateInfo@@@std@@@std@@CAXXZ DD imagerel $LN4@Xlength
	DD	imagerel $LN4@Xlength+18
	DD	imagerel $unwind$?_Xlength@?$vector@UVkDeviceQueueCreateInfo@@V?$allocator@UVkDeviceQueueCreateInfo@@@std@@@std@@CAXXZ
pdata	ENDS
;	COMDAT pdata
pdata	SEGMENT
$pdata$??$_Allocate@$0BA@U_Default_allocate_traits@std@@$0A@@std@@YAPEAX_K@Z DD imagerel $LN24@Allocate
	DD	imagerel $LN24@Allocate+89
	DD	imagerel $unwind$??$_Allocate@$0BA@U_Default_allocate_traits@std@@$0A@@std@@YAPEAX_K@Z
pdata	ENDS
;	COMDAT pdata
pdata	SEGMENT
$pdata$??$_Emplace_reallocate@AEBUVkDeviceQueueCreateInfo@@@?$vector@UVkDeviceQueueCreateInfo@@V?$allocator@UVkDeviceQueueCreateInfo@@@std@@@std@@AEAAPEAUVkDeviceQueueCreateInfo@@QEAU2@AEBU2@@Z DD imagerel $LN131@Emplace_re
	DD	imagerel $LN131@Emplace_re+116
	DD	imagerel $unwind$??$_Emplace_reallocate@AEBUVkDeviceQueueCreateInfo@@@?$vector@UVkDeviceQueueCreateInfo@@V?$allocator@UVkDeviceQueueCreateInfo@@@std@@@std@@AEAAPEAUVkDeviceQueueCreateInfo@@QEAU2@AEBU2@@Z
pdata	ENDS
;	COMDAT pdata
pdata	SEGMENT
$pdata$3$??$_Emplace_reallocate@AEBUVkDeviceQueueCreateInfo@@@?$vector@UVkDeviceQueueCreateInfo@@V?$allocator@UVkDeviceQueueCreateInfo@@@std@@@std@@AEAAPEAUVkDeviceQueueCreateInfo@@QEAU2@AEBU2@@Z DD imagerel $LN131@Emplace_re+116
	DD	imagerel $LN131@Emplace_re+519
	DD	imagerel $chain$3$??$_Emplace_reallocate@AEBUVkDeviceQueueCreateInfo@@@?$vector@UVkDeviceQueueCreateInfo@@V?$allocator@UVkDeviceQueueCreateInfo@@@std@@@std@@AEAAPEAUVkDeviceQueueCreateInfo@@QEAU2@AEBU2@@Z
pdata	ENDS
;	COMDAT pdata
pdata	SEGMENT
$pdata$5$??$_Emplace_reallocate@AEBUVkDeviceQueueCreateInfo@@@?$vector@UVkDeviceQueueCreateInfo@@V?$allocator@UVkDeviceQueueCreateInfo@@@std@@@std@@AEAAPEAUVkDeviceQueueCreateInfo@@QEAU2@AEBU2@@Z DD imagerel $LN131@Emplace_re+519
	DD	imagerel $LN131@Emplace_re+526
	DD	imagerel $chain$5$??$_Emplace_reallocate@AEBUVkDeviceQueueCreateInfo@@@?$vector@UVkDeviceQueueCreateInfo@@V?$allocator@UVkDeviceQueueCreateInfo@@@std@@@std@@AEAAPEAUVkDeviceQueueCreateInfo@@QEAU2@AEBU2@@Z
pdata	ENDS
;	COMDAT pdata
pdata	SEGMENT
$pdata$6$??$_Emplace_reallocate@AEBUVkDeviceQueueCreateInfo@@@?$vector@UVkDeviceQueueCreateInfo@@V?$allocator@UVkDeviceQueueCreateInfo@@@std@@@std@@AEAAPEAUVkDeviceQueueCreateInfo@@QEAU2@AEBU2@@Z DD imagerel $LN131@Emplace_re+526
	DD	imagerel $LN131@Emplace_re+532
	DD	imagerel $chain$6$??$_Emplace_reallocate@AEBUVkDeviceQueueCreateInfo@@@?$vector@UVkDeviceQueueCreateInfo@@V?$allocator@UVkDeviceQueueCreateInfo@@@std@@@std@@AEAAPEAUVkDeviceQueueCreateInfo@@QEAU2@AEBU2@@Z
pdata	ENDS
;	COMDAT pdata
pdata	SEGMENT
$pdata$7$??$_Emplace_reallocate@AEBUVkDeviceQueueCreateInfo@@@?$vector@UVkDeviceQueueCreateInfo@@V?$allocator@UVkDeviceQueueCreateInfo@@@std@@@std@@AEAAPEAUVkDeviceQueueCreateInfo@@QEAU2@AEBU2@@Z DD imagerel $LN131@Emplace_re+532
	DD	imagerel $LN131@Emplace_re+538
	DD	imagerel $chain$7$??$_Emplace_reallocate@AEBUVkDeviceQueueCreateInfo@@@?$vector@UVkDeviceQueueCreateInfo@@V?$allocator@UVkDeviceQueueCreateInfo@@@std@@@std@@AEAAPEAUVkDeviceQueueCreateInfo@@QEAU2@AEBU2@@Z
pdata	ENDS
;	COMDAT pdata
pdata	SEGMENT
$pdata$??$_Deallocate@$0BA@$0A@@std@@YAXPEAX_K@Z DD imagerel $LN18@Deallocate
	DD	imagerel $LN18@Deallocate+53
	DD	imagerel $unwind$??$_Deallocate@$0BA@$0A@@std@@YAXPEAX_K@Z
pdata	ENDS
;	COMDAT pdata
pdata	SEGMENT
$pdata$?deallocate@?$allocator@UVkDeviceQueueCreateInfo@@@std@@QEAAXQEAUVkDeviceQueueCreateInfo@@_K@Z DD imagerel $LN21@deallocate
	DD	imagerel $LN21@deallocate+67
	DD	imagerel $unwind$?deallocate@?$allocator@UVkDeviceQueueCreateInfo@@@std@@QEAAXQEAUVkDeviceQueueCreateInfo@@_K@Z
pdata	ENDS
;	COMDAT pdata
pdata	SEGMENT
$pdata$?_Tidy@?$vector@UVkDeviceQueueCreateInfo@@V?$allocator@UVkDeviceQueueCreateInfo@@@std@@@std@@AEAAXXZ DD imagerel $LN25@Tidy
	DD	imagerel $LN25@Tidy+123
	DD	imagerel $unwind$?_Tidy@?$vector@UVkDeviceQueueCreateInfo@@V?$allocator@UVkDeviceQueueCreateInfo@@@std@@@std@@AEAAXXZ
pdata	ENDS
;	COMDAT pdata
pdata	SEGMENT
$pdata$??1?$vector@UVkDeviceQueueCreateInfo@@V?$allocator@UVkDeviceQueueCreateInfo@@@std@@@std@@QEAA@XZ DD imagerel $LN28@vector
	DD	imagerel $LN28@vector+123
	DD	imagerel $unwind$??1?$vector@UVkDeviceQueueCreateInfo@@V?$allocator@UVkDeviceQueueCreateInfo@@@std@@@std@@QEAA@XZ
pdata	ENDS
;	COMDAT pdata
pdata	SEGMENT
$pdata$??0Device@cow@@QEAA@PEAUVkPhysicalDevice_T@@PEAII@Z DD imagerel $LN62@Device
	DD	imagerel $LN62@Device+281
	DD	imagerel $unwind$??0Device@cow@@QEAA@PEAUVkPhysicalDevice_T@@PEAII@Z
pdata	ENDS
;	COMDAT pdata
pdata	SEGMENT
$pdata$??0runtime_error@std@@QEAA@AEBV01@@Z DD imagerel $LN7@runtime_er
	DD	imagerel $LN7@runtime_er+61
	DD	imagerel $unwind$??0runtime_error@std@@QEAA@AEBV01@@Z
pdata	ENDS
;	COMDAT pdata
pdata	SEGMENT
$pdata$??_Gruntime_error@std@@UEAAPEAXI@Z DD imagerel $LN12@scalar
	DD	imagerel $LN12@scalar+67
	DD	imagerel $unwind$??_Gruntime_error@std@@UEAAPEAXI@Z
pdata	ENDS
;	COMDAT pdata
pdata	SEGMENT
$pdata$??0runtime_error@std@@QEAA@PEBD@Z DD imagerel $LN7@runtime_er
	DD	imagerel $LN7@runtime_er+100
	DD	imagerel $unwind$??0runtime_error@std@@QEAA@PEBD@Z
pdata	ENDS
;	COMDAT pdata
pdata	SEGMENT
$pdata$?_Adjust_manually_vector_aligned@std@@YAXAEAPEAXAEA_K@Z DD imagerel $LN13@Adjust_man
	DD	imagerel $LN13@Adjust_man+43
	DD	imagerel $unwind$?_Adjust_manually_vector_aligned@std@@YAXAEAPEAXAEA_K@Z
pdata	ENDS
;	COMDAT pdata
pdata	SEGMENT
$pdata$??0bad_alloc@std@@QEAA@AEBV01@@Z DD imagerel $LN7@bad_alloc
	DD	imagerel $LN7@bad_alloc+61
	DD	imagerel $unwind$??0bad_alloc@std@@QEAA@AEBV01@@Z
pdata	ENDS
;	COMDAT pdata
pdata	SEGMENT
$pdata$??0bad_array_new_length@std@@QEAA@AEBV01@@Z DD imagerel $LN10@bad_array_
	DD	imagerel $LN10@bad_array_+61
	DD	imagerel $unwind$??0bad_array_new_length@std@@QEAA@AEBV01@@Z
pdata	ENDS
;	COMDAT pdata
pdata	SEGMENT
$pdata$?_Throw_bad_array_new_length@std@@YAXXZ DD imagerel $LN4@Throw_bad_
	DD	imagerel $LN4@Throw_bad_+32
	DD	imagerel $unwind$?_Throw_bad_array_new_length@std@@YAXXZ
pdata	ENDS
;	COMDAT pdata
pdata	SEGMENT
$pdata$??_Gbad_array_new_length@std@@UEAAPEAXI@Z DD imagerel $LN15@scalar
	DD	imagerel $LN15@scalar+67
	DD	imagerel $unwind$??_Gbad_array_new_length@std@@UEAAPEAXI@Z
pdata	ENDS
;	COMDAT pdata
pdata	SEGMENT
$pdata$??_Gbad_alloc@std@@UEAAPEAXI@Z DD imagerel $LN12@scalar
	DD	imagerel $LN12@scalar+67
	DD	imagerel $unwind$??_Gbad_alloc@std@@UEAAPEAXI@Z
pdata	ENDS
;	COMDAT pdata
pdata	SEGMENT
$pdata$??_Gexception@std@@UEAAPEAXI@Z DD imagerel $LN9@scalar
	DD	imagerel $LN9@scalar+67
	DD	imagerel $unwind$??_Gexception@std@@UEAAPEAXI@Z
pdata	ENDS
;	COMDAT pdata
pdata	SEGMENT
$pdata$??0exception@std@@QEAA@AEBV01@@Z DD imagerel $LN5@exception
	DD	imagerel $LN5@exception+51
	DD	imagerel $unwind$??0exception@std@@QEAA@AEBV01@@Z
pdata	ENDS
;	COMDAT pdata
pdata	SEGMENT
$pdata$??0exception@std@@QEAA@QEBD@Z DD imagerel $LN5@exception
	DD	imagerel $LN5@exception+90
	DD	imagerel $unwind$??0exception@std@@QEAA@QEBD@Z
;	COMDAT xdata
xdata	SEGMENT
$unwind$??0exception@std@@QEAA@QEBD@Z DQ 03002720600021519r ; 1.99122e-77
	DD	imagerel __GSHandlerCheck
	DD	030H
xdata	ENDS
;	COMDAT xdata
xdata	SEGMENT
$unwind$??0exception@std@@QEAA@AEBV01@@Z DQ 03002320600020601r ; 1.96423e-77
xdata	ENDS
;	COMDAT xdata
xdata	SEGMENT
$unwind$??_Gexception@std@@UEAAPEAXI@Z DQ 00006340a00040a01r ; 8.62672e-309
	DD	07006320aH
xdata	ENDS
;	COMDAT xdata
xdata	SEGMENT
$unwind$??_Gbad_alloc@std@@UEAAPEAXI@Z DQ 00006340a00040a01r ; 8.62672e-309
	DD	07006320aH
xdata	ENDS
;	COMDAT xdata
xdata	SEGMENT
$unwind$??_Gbad_array_new_length@std@@UEAAPEAXI@Z DQ 00006340a00040a01r ; 8.62672e-309
	DD	07006320aH
xdata	ENDS
;	COMDAT xdata
xdata	SEGMENT
$unwind$?_Throw_bad_array_new_length@std@@YAXXZ DQ 00000820400010401r ; 7.06285e-310
xdata	ENDS
;	COMDAT xdata
xdata	SEGMENT
$unwind$??0bad_array_new_length@std@@QEAA@AEBV01@@Z DQ 03002320600020601r ; 1.96423e-77
xdata	ENDS
;	COMDAT xdata
xdata	SEGMENT
$unwind$??0bad_alloc@std@@QEAA@AEBV01@@Z DQ 03002320600020601r ; 1.96423e-77
xdata	ENDS
;	COMDAT xdata
xdata	SEGMENT
$unwind$?_Adjust_manually_vector_aligned@std@@YAXAEAPEAXAEA_K@Z DQ 00000420400010401r ; 3.58617e-310
xdata	ENDS
;	COMDAT xdata
xdata	SEGMENT
$unwind$??0runtime_error@std@@QEAA@PEBD@Z DQ 03002720600021519r ; 1.99122e-77
	DD	imagerel __GSHandlerCheck
	DD	030H
xdata	ENDS
;	COMDAT xdata
xdata	SEGMENT
$unwind$??_Gruntime_error@std@@UEAAPEAXI@Z DQ 00006340a00040a01r ; 8.62672e-309
	DD	07006320aH
xdata	ENDS
;	COMDAT xdata
xdata	SEGMENT
$unwind$??0runtime_error@std@@QEAA@AEBV01@@Z DQ 03002320600020601r ; 1.96423e-77
xdata	ENDS
;	COMDAT xdata
xdata	SEGMENT
$ip2state$??0Device@cow@@QEAA@PEAUVkPhysicalDevice_T@@PEAII@Z DD 037104H
	DW	026eH
xdata	ENDS
;	COMDAT xdata
xdata	SEGMENT
$stateUnwindMap$??0Device@cow@@QEAA@PEAUVkPhysicalDevice_T@@PEAII@Z DW 0a02H
	DD	imagerel ??1?$vector@UVkDeviceQueueCreateInfo@@V?$allocator@UVkDeviceQueueCreateInfo@@@std@@@std@@QEAA@XZ
	DW	0241H
xdata	ENDS
;	COMDAT xdata
xdata	SEGMENT
$cppxdata$??0Device@cow@@QEAA@PEAUVkPhysicalDevice_T@@PEAII@Z DB 028H
	DD	imagerel $stateUnwindMap$??0Device@cow@@QEAA@PEAUVkPhysicalDevice_T@@PEAII@Z
	DD	imagerel $ip2state$??0Device@cow@@QEAA@PEAUVkPhysicalDevice_T@@PEAII@Z
xdata	ENDS
;	COMDAT xdata
xdata	SEGMENT
$unwind$??0Device@cow@@QEAA@PEAUVkPhysicalDevice_T@@PEAII@Z DQ 00039641200072419r ; 1.41242e-307
	DQ	00034011200383412r		; 1.11277e-307
	DD	0700bH
	DD	imagerel __GSHandlerCheck_EH4
	DD	imagerel $cppxdata$??0Device@cow@@QEAA@PEAUVkPhysicalDevice_T@@PEAII@Z
	DD	0192H
xdata	ENDS
;	COMDAT xdata
xdata	SEGMENT
$unwind$??1?$vector@UVkDeviceQueueCreateInfo@@V?$allocator@UVkDeviceQueueCreateInfo@@@std@@@std@@QEAA@XZ DQ 03002320600020601r ; 1.96423e-77
xdata	ENDS
;	COMDAT xdata
xdata	SEGMENT
$unwind$?_Tidy@?$vector@UVkDeviceQueueCreateInfo@@V?$allocator@UVkDeviceQueueCreateInfo@@@std@@@std@@AEAAXXZ DQ 03002320600020601r ; 1.96423e-77
xdata	ENDS
;	COMDAT xdata
xdata	SEGMENT
$unwind$?deallocate@?$allocator@UVkDeviceQueueCreateInfo@@@std@@QEAAXQEAUVkDeviceQueueCreateInfo@@_K@Z DQ 00000420400010401r ; 3.58617e-310
xdata	ENDS
;	COMDAT xdata
xdata	SEGMENT
$unwind$??$_Deallocate@$0BA@$0A@@std@@YAXPEAX_K@Z DQ 00000420400010401r ; 3.58617e-310
xdata	ENDS
;	COMDAT xdata
xdata	SEGMENT
$chain$7$??$_Emplace_reallocate@AEBUVkDeviceQueueCreateInfo@@@?$vector@UVkDeviceQueueCreateInfo@@V?$allocator@UVkDeviceQueueCreateInfo@@@std@@@std@@AEAAPEAUVkDeviceQueueCreateInfo@@QEAU2@AEBU2@@Z DQ 00004e40000080021r ; 6.80125e-309
	DQ	00006540000056400r		; 8.80034e-309
	DD	0e3400H
	DD	imagerel $LN131@Emplace_re
	DD	imagerel $LN131@Emplace_re+116
	DD	imagerel $unwind$??$_Emplace_reallocate@AEBUVkDeviceQueueCreateInfo@@@?$vector@UVkDeviceQueueCreateInfo@@V?$allocator@UVkDeviceQueueCreateInfo@@@std@@@std@@AEAAPEAUVkDeviceQueueCreateInfo@@QEAU2@AEBU2@@Z
xdata	ENDS
;	COMDAT xdata
xdata	SEGMENT
$chain$6$??$_Emplace_reallocate@AEBUVkDeviceQueueCreateInfo@@@?$vector@UVkDeviceQueueCreateInfo@@V?$allocator@UVkDeviceQueueCreateInfo@@@std@@@std@@AEAAPEAUVkDeviceQueueCreateInfo@@QEAU2@AEBU2@@Z DD 021H
	DD	imagerel $LN131@Emplace_re
	DD	imagerel $LN131@Emplace_re+116
	DD	imagerel $unwind$??$_Emplace_reallocate@AEBUVkDeviceQueueCreateInfo@@@?$vector@UVkDeviceQueueCreateInfo@@V?$allocator@UVkDeviceQueueCreateInfo@@@std@@@std@@AEAAPEAUVkDeviceQueueCreateInfo@@QEAU2@AEBU2@@Z
xdata	ENDS
;	COMDAT xdata
xdata	SEGMENT
$chain$5$??$_Emplace_reallocate@AEBUVkDeviceQueueCreateInfo@@@?$vector@UVkDeviceQueueCreateInfo@@V?$allocator@UVkDeviceQueueCreateInfo@@@std@@@std@@AEAAPEAUVkDeviceQueueCreateInfo@@QEAU2@AEBU2@@Z DQ 00004e40000080021r ; 6.80125e-309
	DQ	00006540000056400r		; 8.80034e-309
	DD	0e3400H
	DD	imagerel $LN131@Emplace_re
	DD	imagerel $LN131@Emplace_re+116
	DD	imagerel $unwind$??$_Emplace_reallocate@AEBUVkDeviceQueueCreateInfo@@@?$vector@UVkDeviceQueueCreateInfo@@V?$allocator@UVkDeviceQueueCreateInfo@@@std@@@std@@AEAAPEAUVkDeviceQueueCreateInfo@@QEAU2@AEBU2@@Z
xdata	ENDS
;	COMDAT xdata
xdata	SEGMENT
$chain$3$??$_Emplace_reallocate@AEBUVkDeviceQueueCreateInfo@@@?$vector@UVkDeviceQueueCreateInfo@@V?$allocator@UVkDeviceQueueCreateInfo@@@std@@@std@@AEAAPEAUVkDeviceQueueCreateInfo@@QEAU2@AEBU2@@Z DQ 00004e41400081421r ; 6.80168e-309
	DQ	00006540a0005640fr		; 8.80055e-309
	DD	0e3405H
	DD	imagerel $LN131@Emplace_re
	DD	imagerel $LN131@Emplace_re+116
	DD	imagerel $unwind$??$_Emplace_reallocate@AEBUVkDeviceQueueCreateInfo@@@?$vector@UVkDeviceQueueCreateInfo@@V?$allocator@UVkDeviceQueueCreateInfo@@@std@@@std@@AEAAPEAUVkDeviceQueueCreateInfo@@QEAU2@AEBU2@@Z
xdata	ENDS
;	COMDAT xdata
xdata	SEGMENT
$unwind$??$_Emplace_reallocate@AEBUVkDeviceQueueCreateInfo@@@?$vector@UVkDeviceQueueCreateInfo@@V?$allocator@UVkDeviceQueueCreateInfo@@@std@@@std@@AEAAPEAUVkDeviceQueueCreateInfo@@QEAU2@AEBU2@@Z DQ 0f008620c00050c01r ; -4.73188e+231
	DQ	000007002c004d006r		; 6.08477e-310
xdata	ENDS
;	COMDAT xdata
xdata	SEGMENT
$unwind$??$_Allocate@$0BA@U_Default_allocate_traits@std@@$0A@@std@@YAPEAX_K@Z DQ 00000420400010401r ; 3.58617e-310
xdata	ENDS
;	COMDAT xdata
xdata	SEGMENT
$unwind$?_Xlength@?$vector@UVkDeviceQueueCreateInfo@@V?$allocator@UVkDeviceQueueCreateInfo@@@std@@@std@@CAXXZ DQ 00000420400010401r ; 3.58617e-310
xdata	ENDS
;	COMDAT xdata
xdata	SEGMENT
$unwind$?_Change_array@?$vector@UVkDeviceQueueCreateInfo@@V?$allocator@UVkDeviceQueueCreateInfo@@@std@@@std@@AEAAXQEAUVkDeviceQueueCreateInfo@@_K1@Z DQ 00009741500081501r ; 1.31466e-308
	DQ	00007341500086415r		; 1.00176e-308
	DD	0e0113215H
xdata	ENDS
;	COMDAT xdata
xdata	SEGMENT
$unwind$?allocate@?$allocator@UVkDeviceQueueCreateInfo@@@std@@QEAAPEAUVkDeviceQueueCreateInfo@@_K@Z DQ 00000420400010401r ; 3.58617e-310
xdata	ENDS
;	COMDAT xdata
xdata	SEGMENT
$unwind$??$_Uninitialized_move@PEAUVkDeviceQueueCreateInfo@@V?$allocator@UVkDeviceQueueCreateInfo@@@std@@@std@@YAPEAUVkDeviceQueueCreateInfo@@QEAU1@0PEAU1@AEAV?$allocator@UVkDeviceQueueCreateInfo@@@0@@Z DQ 00009340a00040a01r ; 1.27987e-308
	DD	07006320aH
xdata	ENDS
;	COMDAT xdata
xdata	SEGMENT
$unwind$??$_Allocate_manually_vector_aligned@U_Default_allocate_traits@std@@@std@@YAPEAX_K@Z DQ 00000420400010401r ; 3.58617e-310
xdata	ENDS
;	COMDAT xdata
xdata	SEGMENT
$unwind$??$_Get_size_of_n@$0CI@@std@@YA_K_K@Z DQ 00000420400010401r ; 3.58617e-310
xdata	ENDS
;	COMDAT xdata
xdata	SEGMENT
$unwind$??$_Copy_memmove@PEAUVkDeviceQueueCreateInfo@@PEAU1@@std@@YAPEAUVkDeviceQueueCreateInfo@@PEAU1@00@Z DQ 00009340a00040a01r ; 1.27987e-308
	DD	07006320aH
xdata	ENDS
END
