; Listing generated by Microsoft (R) Optimizing Compiler Version 19.32.31332.0 

include listing.inc

INCLUDELIB OLDNAMES

PUBLIC	??_C@_0BM@LGHMGEMH@VK_LAYER_KHRONOS_validation@	; `string'
PUBLIC	??_C@_0P@IENCOMCD@VK_KHR_surface@		; `string'
PUBLIC	??_C@_06MNAPODND@vk_app@			; `string'
PUBLIC	??_C@_03HPADHAHE@N?1A@				; `string'
PUBLIC	??_C@_0BL@KEOADLBH@couldn?8t?5create?5VkInstance@ ; `string'
EXTRN	__imp_vkEnumerateInstanceExtensionProperties:PROC
EXTRN	__imp_vkDestroyInstance:PROC
EXTRN	__imp_vkEnumeratePhysicalDevices:PROC
EXTRN	__imp_vkEnumeratePhysicalDeviceGroups:PROC
EXTRN	__imp_calloc:PROC
EXTRN	__imp_vkCreateInstance:PROC
;	COMDAT ??_C@_0BL@KEOADLBH@couldn?8t?5create?5VkInstance@
CONST	SEGMENT
??_C@_0BL@KEOADLBH@couldn?8t?5create?5VkInstance@ DB 'couldn''t create Vk'
	DB	'Instance', 00H				; `string'
CONST	ENDS
;	COMDAT ??_C@_03HPADHAHE@N?1A@
CONST	SEGMENT
??_C@_03HPADHAHE@N?1A@ DB 'N/A', 00H			; `string'
CONST	ENDS
;	COMDAT ??_C@_06MNAPODND@vk_app@
CONST	SEGMENT
??_C@_06MNAPODND@vk_app@ DB 'vk_app', 00H		; `string'
CONST	ENDS
;	COMDAT ??_C@_0P@IENCOMCD@VK_KHR_surface@
CONST	SEGMENT
??_C@_0P@IENCOMCD@VK_KHR_surface@ DB 'VK_KHR_surface', 00H ; `string'
CONST	ENDS
;	COMDAT ??_C@_0BM@LGHMGEMH@VK_LAYER_KHRONOS_validation@
CONST	SEGMENT
??_C@_0BM@LGHMGEMH@VK_LAYER_KHRONOS_validation@ DB 'VK_LAYER_KHRONOS_vali'
	DB	'dation', 00H				; `string'
PUBLIC	??$?0$$T@?$_Tuple_val@PEAPEAUVkPhysicalDevice_T@@@std@@QEAA@$$QEA$$T@Z ; std::_Tuple_val<VkPhysicalDevice_T * *>::_Tuple_val<VkPhysicalDevice_T * *><std::nullptr_t>
PUBLIC	??$_Pair_get@AEA$$TU?$pair@H$$T@std@@@std@@YAAEA$$TAEAU?$pair@H$$T@0@U?$integral_constant@_K$00@0@@Z ; std::_Pair_get<std::nullptr_t &,std::pair<int,std::nullptr_t> >
PUBLIC	??$_Pair_get@AEAHU?$pair@H$$T@std@@@std@@YAAEAHAEAU?$pair@H$$T@0@U?$integral_constant@_K$0A@@0@@Z ; std::_Pair_get<int &,std::pair<int,std::nullptr_t> >
PUBLIC	??$?0H@?$_Tuple_val@I@std@@QEAA@$$QEAH@Z	; std::_Tuple_val<unsigned int>::_Tuple_val<unsigned int><int>
PUBLIC	??$?0U_Exact_args_t@std@@$$T$$V$0A@@?$tuple@PEAPEAUVkPhysicalDevice_T@@@std@@QEAA@U_Exact_args_t@1@$$QEA$$T@Z ; std::tuple<VkPhysicalDevice_T * *>::tuple<VkPhysicalDevice_T * *><std::_Exact_args_t,std::nullptr_t,0>
PUBLIC	??$forward@$$QEA$$T@std@@YA$$QEA$$TAEA$$T@Z	; std::forward<std::nullptr_t &&>
PUBLIC	??$forward@$$QEAH@std@@YA$$QEAHAEAH@Z		; std::forward<int &&>
PUBLIC	??$get@$00H$$T@std@@YAAEA$$TAEAU?$pair@H$$T@0@@Z ; std::get<1,int,std::nullptr_t>
PUBLIC	??$get@$0A@H$$T@std@@YAAEAHAEAU?$pair@H$$T@0@@Z	; std::get<0,int,std::nullptr_t>
PUBLIC	??$?0AEAPEAPEAUVkPhysicalDevice_T@@@?$_Tuple_val@PEAPEAUVkPhysicalDevice_T@@@std@@QEAA@AEAPEAPEAUVkPhysicalDevice_T@@@Z ; std::_Tuple_val<VkPhysicalDevice_T * *>::_Tuple_val<VkPhysicalDevice_T * *><VkPhysicalDevice_T * * &>
PUBLIC	??$?0U_Exact_args_t@std@@$0A@@?$tuple@$$V@std@@QEAA@U_Exact_args_t@1@@Z ; std::tuple<>::tuple<><std::_Exact_args_t,0>
PUBLIC	??$?0U_Exact_args_t@std@@H$$T$0A@@?$tuple@IPEAPEAUVkPhysicalDevice_T@@@std@@QEAA@U_Exact_args_t@1@$$QEAH$$QEA$$T@Z ; std::tuple<unsigned int,VkPhysicalDevice_T * *>::tuple<unsigned int,VkPhysicalDevice_T * *><std::_Exact_args_t,int,std::nullptr_t,0>
PUBLIC	??$get@$00H$$T@std@@YA$$QEA$$T$$QEAU?$pair@H$$T@0@@Z ; std::get<1,int,std::nullptr_t>
PUBLIC	??$get@$0A@H$$T@std@@YA$$QEAH$$QEAU?$pair@H$$T@0@@Z ; std::get<0,int,std::nullptr_t>
PUBLIC	??$?0AEAI@?$_Tuple_val@I@std@@QEAA@AEAI@Z	; std::_Tuple_val<unsigned int>::_Tuple_val<unsigned int><unsigned int &>
PUBLIC	??$?0U_Exact_args_t@std@@AEAPEAPEAUVkPhysicalDevice_T@@$$V$0A@@?$tuple@PEAPEAUVkPhysicalDevice_T@@@std@@QEAA@U_Exact_args_t@1@AEAPEAPEAUVkPhysicalDevice_T@@@Z ; std::tuple<VkPhysicalDevice_T * *>::tuple<VkPhysicalDevice_T * *><std::_Exact_args_t,VkPhysicalDevice_T * * &,0>
PUBLIC	??$?0U_Unpack_tuple_t@std@@U?$pair@H$$T@1@$0A@$00$0A@@?$tuple@IPEAPEAUVkPhysicalDevice_T@@@std@@QEAA@U_Unpack_tuple_t@1@$$QEAU?$pair@H$$T@1@U?$integer_sequence@_K$0A@$00@1@@Z ; std::tuple<unsigned int,VkPhysicalDevice_T * *>::tuple<unsigned int,VkPhysicalDevice_T * *><std::_Unpack_tuple_t,std::pair<int,std::nullptr_t>,0,1,0>
PUBLIC	??$forward@U?$pair@H$$T@std@@@std@@YA$$QEAU?$pair@H$$T@0@AEAU10@@Z ; std::forward<std::pair<int,std::nullptr_t> >
PUBLIC	??$?0U_Exact_args_t@std@@AEAIAEAPEAPEAUVkPhysicalDevice_T@@$0A@@?$tuple@IPEAPEAUVkPhysicalDevice_T@@@std@@QEAA@U_Exact_args_t@1@AEAIAEAPEAPEAUVkPhysicalDevice_T@@@Z ; std::tuple<unsigned int,VkPhysicalDevice_T * *>::tuple<unsigned int,VkPhysicalDevice_T * *><std::_Exact_args_t,unsigned int &,VkPhysicalDevice_T * * &,0>
PUBLIC	??$forward@AEAPEAPEAUVkPhysicalDevice_T@@@std@@YAAEAPEAPEAUVkPhysicalDevice_T@@AEAPEAPEAU1@@Z ; std::forward<VkPhysicalDevice_T * * &>
PUBLIC	??$forward@AEAI@std@@YAAEAIAEAI@Z		; std::forward<unsigned int &>
PUBLIC	??$?0U_Unpack_tuple_t@std@@U?$pair@H$$T@1@$0A@@?$tuple@IPEAPEAUVkPhysicalDevice_T@@@std@@QEAA@U_Unpack_tuple_t@1@$$QEAU?$pair@H$$T@1@@Z ; std::tuple<unsigned int,VkPhysicalDevice_T * *>::tuple<unsigned int,VkPhysicalDevice_T * *><std::_Unpack_tuple_t,std::pair<int,std::nullptr_t>,0>
PUBLIC	??$move@AEAU?$pair@H$$T@std@@@std@@YA$$QEAU?$pair@H$$T@0@AEAU10@@Z ; std::move<std::pair<int,std::nullptr_t> &>
PUBLIC	??$?0H$$T$0A@@?$pair@H$$T@std@@QEAA@$$QEAH$$QEA$$T@Z ; std::pair<int,std::nullptr_t>::pair<int,std::nullptr_t><int,std::nullptr_t,0>
PUBLIC	??$forward@$$T@std@@YA$$QEA$$TAEA$$T@Z		; std::forward<std::nullptr_t>
PUBLIC	??$forward@H@std@@YA$$QEAHAEAH@Z		; std::forward<int>
PUBLIC	??$?0AEAIAEAPEAPEAUVkPhysicalDevice_T@@$0A@@?$tuple@IPEAPEAUVkPhysicalDevice_T@@@std@@QEAA@AEAIAEAPEAPEAUVkPhysicalDevice_T@@@Z ; std::tuple<unsigned int,VkPhysicalDevice_T * *>::tuple<unsigned int,VkPhysicalDevice_T * *><unsigned int &,VkPhysicalDevice_T * * &,0>
PUBLIC	??$?0H$$T$0A@@?$tuple@IPEAPEAUVkPhysicalDevice_T@@@std@@QEAA@$$QEAU?$pair@H$$T@1@@Z ; std::tuple<unsigned int,VkPhysicalDevice_T * *>::tuple<unsigned int,VkPhysicalDevice_T * *><int,std::nullptr_t,0>
PUBLIC	??$make_pair@H$$T@std@@YA?AU?$pair@H$$T@0@$$QEAH$$QEA$$T@Z ; std::make_pair<int,std::nullptr_t>
PUBLIC	?data@?$array@PEBD$00@std@@QEAAPEAPEBDXZ	; std::array<char const *,1>::data
PUBLIC	?enumeratePhysicalDevices@Instance@cow@@QEBA?AV?$tuple@IPEAPEAUVkPhysicalDevice_T@@@std@@XZ ; cow::Instance::enumeratePhysicalDevices
PUBLIC	??1Instance@cow@@QEAA@XZ			; cow::Instance::~Instance
PUBLIC	??0Instance@cow@@QEAA@XZ			; cow::Instance::Instance
;	COMDAT pdata
pdata	SEGMENT
$pdata$?enumeratePhysicalDevices@Instance@cow@@QEBA?AV?$tuple@IPEAPEAUVkPhysicalDevice_T@@@std@@XZ DD imagerel $LN35@enumerateP
	DD	imagerel $LN35@enumerateP+153
	DD	imagerel $unwind$?enumeratePhysicalDevices@Instance@cow@@QEBA?AV?$tuple@IPEAPEAUVkPhysicalDevice_T@@@std@@XZ
pdata	ENDS
;	COMDAT pdata
pdata	SEGMENT
$pdata$??0Instance@cow@@QEAA@XZ DD imagerel $LN9@Instance
	DD	imagerel $LN9@Instance+247
	DD	imagerel $unwind$??0Instance@cow@@QEAA@XZ
;	COMDAT xdata
xdata	SEGMENT
$unwind$??0Instance@cow@@QEAA@XZ DQ 0001d341200052019r ; 4.06123e-308
	DQ	000005006001a0112r		; 4.34712e-310
	DD	imagerel __GSHandlerCheck
	DD	0c0H
xdata	ENDS
;	COMDAT xdata
xdata	SEGMENT
$unwind$?enumeratePhysicalDevices@Instance@cow@@QEBA?AV?$tuple@IPEAPEAUVkPhysicalDevice_T@@@std@@XZ DQ 0000b640f00061e19r ; 1.58409e-308
	DQ	0700b520f000a340fr		; 5.30195e+231
	DD	imagerel __GSHandlerCheck
	DD	028H
END
