; Listing generated by Microsoft (R) Optimizing Compiler Version 19.32.31332.0 

include listing.inc

INCLUDELIB OLDNAMES

PUBLIC	??_C@_0BA@JFNIOLAK@string?5too?5long@		; `string'
PUBLIC	??_C@_0BB@GCADKGJO@map?1set?5too?5long@		; `string'
PUBLIC	??_C@_0CJ@GBINOMED@failed?5to?5find?5a?5gpu?5with?5vulka@ ; `string'
PUBLIC	??_C@_04MEMAJGDJ@name@				; `string'
EXTRN	glfwWindowShouldClose:PROC
EXTRN	__imp_vkDestroySurfaceKHR:PROC
EXTRN	__imp_free:PROC
EXTRN	__imp_vkEnumerateDeviceExtensionProperties:PROC
EXTRN	__imp_vkGetPhysicalDeviceSurfacePresentModesKHR:PROC
EXTRN	__imp_vkGetPhysicalDeviceSurfaceCapabilitiesKHR:PROC
EXTRN	__imp_vkGetPhysicalDeviceFeatures:PROC
EXTRN	glfwPollEvents:PROC
EXTRN	__imp_vkGetPhysicalDeviceSurfaceFormatsKHR:PROC
;	COMDAT ??_C@_04MEMAJGDJ@name@
CONST	SEGMENT
??_C@_04MEMAJGDJ@name@ DB 'name', 00H			; `string'
CONST	ENDS
;	COMDAT ??_C@_0CJ@GBINOMED@failed?5to?5find?5a?5gpu?5with?5vulka@
CONST	SEGMENT
??_C@_0CJ@GBINOMED@failed?5to?5find?5a?5gpu?5with?5vulka@ DB 'failed to f'
	DB	'ind a gpu with vulkan support', 00H		; `string'
CONST	ENDS
;	COMDAT ??_C@_0BB@GCADKGJO@map?1set?5too?5long@
CONST	SEGMENT
??_C@_0BB@GCADKGJO@map?1set?5too?5long@ DB 'map/set too long', 00H ; `string'
CONST	ENDS
;	COMDAT ??_C@_0BA@JFNIOLAK@string?5too?5long@
CONST	SEGMENT
??_C@_0BA@JFNIOLAK@string?5too?5long@ DB 'string too long', 00H ; `string'
PUBLIC	??$_Voidify_iter@PEAV?$basic_string@DU?$char_traits@D@std@@V?$allocator@D@2@@std@@@std@@YAPEAXPEAV?$basic_string@DU?$char_traits@D@std@@V?$allocator@D@2@@0@@Z ; std::_Voidify_iter<std::basic_string<char,std::char_traits<char>,std::allocator<char> > *>
PUBLIC	??$_Voidify_iter@PEAUVkSurfaceFormatKHR@@@std@@YAPEAXPEAUVkSurfaceFormatKHR@@@Z ; std::_Voidify_iter<VkSurfaceFormatKHR *>
PUBLIC	??$construct@UVkSurfaceFormatKHR@@U1@@?$_Default_allocator_traits@V?$allocator@UVkSurfaceFormatKHR@@@std@@@std@@SAXAEAV?$allocator@UVkSurfaceFormatKHR@@@1@QEAUVkSurfaceFormatKHR@@$$QEAU3@@Z ; std::_Default_allocator_traits<std::allocator<VkSurfaceFormatKHR> >::construct<VkSurfaceFormatKHR,VkSurfaceFormatKHR>
PUBLIC	??$forward@UVkSurfaceFormatKHR@@@std@@YA$$QEAUVkSurfaceFormatKHR@@AEAU1@@Z ; std::forward<VkSurfaceFormatKHR>
PUBLIC	??$_Voidify_iter@PEAW4VkPresentModeKHR@@@std@@YAPEAXPEAW4VkPresentModeKHR@@@Z ; std::_Voidify_iter<enum VkPresentModeKHR *>
PUBLIC	??$construct@W4VkPresentModeKHR@@W41@@?$_Default_allocator_traits@V?$allocator@W4VkPresentModeKHR@@@std@@@std@@SAXAEAV?$allocator@W4VkPresentModeKHR@@@1@QEAW4VkPresentModeKHR@@$$QEAW43@@Z ; std::_Default_allocator_traits<std::allocator<enum VkPresentModeKHR> >::construct<enum VkPresentModeKHR,enum VkPresentModeKHR>
PUBLIC	??$forward@W4VkPresentModeKHR@@@std@@YA$$QEAW4VkPresentModeKHR@@AEAW41@@Z ; std::forward<enum VkPresentModeKHR>
PUBLIC	??$_Voidify_iter@PEAUVkExtensionProperties@@@std@@YAPEAXPEAUVkExtensionProperties@@@Z ; std::_Voidify_iter<VkExtensionProperties *>
PUBLIC	??$_Lower_bound_duplicate@V?$basic_string@DU?$char_traits@D@std@@V?$allocator@D@2@@std@@@?$_Tree@V?$_Tset_traits@V?$basic_string@DU?$char_traits@D@std@@V?$allocator@D@2@@std@@U?$less@V?$basic_string@DU?$char_traits@D@std@@V?$allocator@D@2@@std@@@2@V?$allocator@V?$basic_string@DU?$char_traits@D@std@@V?$allocator@D@2@@std@@@2@$0A@@std@@@std@@IEBA_NQEAU?$_Tree_node@V?$basic_string@DU?$char_traits@D@std@@V?$allocator@D@2@@std@@PEAX@1@AEBV?$basic_string@DU?$char_traits@D@std@@V?$allocator@D@2@@1@@Z ; std::_Tree<std::_Tset_traits<std::basic_string<char,std::char_traits<char>,std::allocator<char> >,std::less<std::basic_string<char,std::char_traits<char>,std::allocator<char> > >,std::allocator<std::basic_string<char,std::char_traits<char>,std::allocator<char> > >,0> >::_Lower_bound_duplicate<std::basic_string<char,std::char_traits<char>,std::allocator<char> > >
PUBLIC	??$_Find_lower_bound@V?$basic_string@DU?$char_traits@D@std@@V?$allocator@D@2@@std@@@?$_Tree@V?$_Tset_traits@V?$basic_string@DU?$char_traits@D@std@@V?$allocator@D@2@@std@@U?$less@V?$basic_string@DU?$char_traits@D@std@@V?$allocator@D@2@@std@@@2@V?$allocator@V?$basic_string@DU?$char_traits@D@std@@V?$allocator@D@2@@std@@@2@$0A@@std@@@std@@IEBA?AU?$_Tree_find_result@PEAU?$_Tree_node@V?$basic_string@DU?$char_traits@D@std@@V?$allocator@D@2@@std@@PEAX@std@@@1@AEBV?$basic_string@DU?$char_traits@D@std@@V?$allocator@D@2@@1@@Z ; std::_Tree<std::_Tset_traits<std::basic_string<char,std::char_traits<char>,std::allocator<char> >,std::less<std::basic_string<char,std::char_traits<char>,std::allocator<char> > >,std::allocator<std::basic_string<char,std::char_traits<char>,std::allocator<char> > >,0> >::_Find_lower_bound<std::basic_string<char,std::char_traits<char>,std::allocator<char> > >
PUBLIC	??$_Construct_in_place@PEAU?$_Tree_node@V?$basic_string@DU?$char_traits@D@std@@V?$allocator@D@2@@std@@PEAX@std@@AEAPEAU12@@std@@YAXAEAPEAU?$_Tree_node@V?$basic_string@DU?$char_traits@D@std@@V?$allocator@D@2@@std@@PEAX@0@0@Z ; std::_Construct_in_place<std::_Tree_node<std::basic_string<char,std::char_traits<char>,std::allocator<char> >,void *> *,std::_Tree_node<std::basic_string<char,std::char_traits<char>,std::allocator<char> >,void *> * &>
PUBLIC	??$construct@V?$basic_string@DU?$char_traits@D@std@@V?$allocator@D@2@@std@@AEBQEBD@?$_Default_allocator_traits@V?$allocator@U?$_Tree_node@V?$basic_string@DU?$char_traits@D@std@@V?$allocator@D@2@@std@@PEAX@std@@@std@@@std@@SAXAEAV?$allocator@U?$_Tree_node@V?$basic_string@DU?$char_traits@D@std@@V?$allocator@D@2@@std@@PEAX@std@@@1@QEAV?$basic_string@DU?$char_traits@D@std@@V?$allocator@D@2@@1@AEBQEBD@Z ; std::_Default_allocator_traits<std::allocator<std::_Tree_node<std::basic_string<char,std::char_traits<char>,std::allocator<char> >,void *> > >::construct<std::basic_string<char,std::char_traits<char>,std::allocator<char> >,char const * const &>
PUBLIC	??0?$_Alloc_construct_ptr@V?$allocator@U?$_Tree_node@V?$basic_string@DU?$char_traits@D@std@@V?$allocator@D@2@@std@@PEAX@std@@@std@@@std@@QEAA@AEAV?$allocator@U?$_Tree_node@V?$basic_string@DU?$char_traits@D@std@@V?$allocator@D@2@@std@@PEAX@std@@@1@@Z ; std::_Alloc_construct_ptr<std::allocator<std::_Tree_node<std::basic_string<char,std::char_traits<char>,std::allocator<char> >,void *> > >::_Alloc_construct_ptr<std::allocator<std::_Tree_node<std::basic_string<char,std::char_traits<char>,std::allocator<char> >,void *> > >
PUBLIC	?_Allocate@?$_Alloc_construct_ptr@V?$allocator@U?$_Tree_node@V?$basic_string@DU?$char_traits@D@std@@V?$allocator@D@2@@std@@PEAX@std@@@std@@@std@@QEAAXXZ ; std::_Alloc_construct_ptr<std::allocator<std::_Tree_node<std::basic_string<char,std::char_traits<char>,std::allocator<char> >,void *> > >::_Allocate
PUBLIC	??F?$_Tree_unchecked_const_iterator@V?$_Tree_val@U?$_Tree_simple_types@V?$basic_string@DU?$char_traits@D@std@@V?$allocator@D@2@@std@@@std@@@std@@U_Iterator_base0@2@@std@@QEAAAEAV01@XZ ; std::_Tree_unchecked_const_iterator<std::_Tree_val<std::_Tree_simple_types<std::basic_string<char,std::char_traits<char>,std::allocator<char> > > >,std::_Iterator_base0>::operator--
PUBLIC	??0?$_Tree_temp_node_alloc@V?$allocator@U?$_Tree_node@V?$basic_string@DU?$char_traits@D@std@@V?$allocator@D@2@@std@@PEAX@std@@@std@@@std@@QEAA@AEAV?$allocator@U?$_Tree_node@V?$basic_string@DU?$char_traits@D@std@@V?$allocator@D@2@@std@@PEAX@std@@@1@@Z ; std::_Tree_temp_node_alloc<std::allocator<std::_Tree_node<std::basic_string<char,std::char_traits<char>,std::allocator<char> >,void *> > >::_Tree_temp_node_alloc<std::allocator<std::_Tree_node<std::basic_string<char,std::char_traits<char>,std::allocator<char> >,void *> > >
PUBLIC	??$exchange@PEAU?$_Tree_node@V?$basic_string@DU?$char_traits@D@std@@V?$allocator@D@2@@std@@PEAX@std@@$$T@std@@YAPEAU?$_Tree_node@V?$basic_string@DU?$char_traits@D@std@@V?$allocator@D@2@@std@@PEAX@0@AEAPEAU10@$$QEA$$T@Z ; std::exchange<std::_Tree_node<std::basic_string<char,std::char_traits<char>,std::allocator<char> >,void *> *,std::nullptr_t>
PUBLIC	??$forward@AEBQEAU?$_Tree_node@V?$basic_string@DU?$char_traits@D@std@@V?$allocator@D@2@@std@@PEAX@std@@@std@@YAAEBQEAU?$_Tree_node@V?$basic_string@DU?$char_traits@D@std@@V?$allocator@D@2@@std@@PEAX@0@AEBQEAU10@@Z ; std::forward<std::_Tree_node<std::basic_string<char,std::char_traits<char>,std::allocator<char> >,void *> * const &>
PUBLIC	??$_Voidify_iter@PEAPEAU?$_Tree_node@V?$basic_string@DU?$char_traits@D@std@@V?$allocator@D@2@@std@@PEAX@std@@@std@@YAPEAXPEAPEAU?$_Tree_node@V?$basic_string@DU?$char_traits@D@std@@V?$allocator@D@2@@std@@PEAX@0@@Z ; std::_Voidify_iter<std::_Tree_node<std::basic_string<char,std::char_traits<char>,std::allocator<char> >,void *> * *>
PUBLIC	??$addressof@PEAU?$_Tree_node@V?$basic_string@DU?$char_traits@D@std@@V?$allocator@D@2@@std@@PEAX@std@@@std@@YAPEAPEAU?$_Tree_node@V?$basic_string@DU?$char_traits@D@std@@V?$allocator@D@2@@std@@PEAX@0@AEAPEAU10@@Z ; std::addressof<std::_Tree_node<std::basic_string<char,std::char_traits<char>,std::allocator<char> >,void *> *>
PUBLIC	??$construct@UVkSurfaceFormatKHR@@$$V@?$_Default_allocator_traits@V?$allocator@UVkSurfaceFormatKHR@@@std@@@std@@SAXAEAV?$allocator@UVkSurfaceFormatKHR@@@1@QEAUVkSurfaceFormatKHR@@@Z ; std::_Default_allocator_traits<std::allocator<VkSurfaceFormatKHR> >::construct<VkSurfaceFormatKHR>
PUBLIC	??$_Emplace_back@UVkSurfaceFormatKHR@@@?$_Uninitialized_backout_al@V?$allocator@UVkSurfaceFormatKHR@@@std@@@std@@QEAAX$$QEAUVkSurfaceFormatKHR@@@Z ; std::_Uninitialized_backout_al<std::allocator<VkSurfaceFormatKHR> >::_Emplace_back<VkSurfaceFormatKHR>
PUBLIC	??$_To_address@PEAUVkSurfaceFormatKHR@@@std@@YA?A_PAEBQEAUVkSurfaceFormatKHR@@@Z ; std::_To_address<VkSurfaceFormatKHR *>
PUBLIC	??$_Copy_memmove@PEAUVkSurfaceFormatKHR@@PEAU1@@std@@YAPEAUVkSurfaceFormatKHR@@PEAU1@00@Z ; std::_Copy_memmove<VkSurfaceFormatKHR *,VkSurfaceFormatKHR *>
PUBLIC	??$_Unfancy@UVkSurfaceFormatKHR@@@std@@YAPEAUVkSurfaceFormatKHR@@PEAU1@@Z ; std::_Unfancy<VkSurfaceFormatKHR>
PUBLIC	??$move@AEAUVkSurfaceFormatKHR@@@std@@YA$$QEAUVkSurfaceFormatKHR@@AEAU1@@Z ; std::move<VkSurfaceFormatKHR &>
PUBLIC	??$construct@W4VkPresentModeKHR@@$$V@?$_Default_allocator_traits@V?$allocator@W4VkPresentModeKHR@@@std@@@std@@SAXAEAV?$allocator@W4VkPresentModeKHR@@@1@QEAW4VkPresentModeKHR@@@Z ; std::_Default_allocator_traits<std::allocator<enum VkPresentModeKHR> >::construct<enum VkPresentModeKHR>
PUBLIC	??$_Emplace_back@W4VkPresentModeKHR@@@?$_Uninitialized_backout_al@V?$allocator@W4VkPresentModeKHR@@@std@@@std@@QEAAX$$QEAW4VkPresentModeKHR@@@Z ; std::_Uninitialized_backout_al<std::allocator<enum VkPresentModeKHR> >::_Emplace_back<enum VkPresentModeKHR>
PUBLIC	??$_Copy_memmove@PEAW4VkPresentModeKHR@@PEAW41@@std@@YAPEAW4VkPresentModeKHR@@PEAW41@00@Z ; std::_Copy_memmove<enum VkPresentModeKHR *,enum VkPresentModeKHR *>
PUBLIC	??$move@AEAW4VkPresentModeKHR@@@std@@YA$$QEAW4VkPresentModeKHR@@AEAW41@@Z ; std::move<enum VkPresentModeKHR &>
PUBLIC	??$construct@UVkExtensionProperties@@$$V@?$_Default_allocator_traits@V?$allocator@UVkExtensionProperties@@@std@@@std@@SAXAEAV?$allocator@UVkExtensionProperties@@@1@QEAUVkExtensionProperties@@@Z ; std::_Default_allocator_traits<std::allocator<VkExtensionProperties> >::construct<VkExtensionProperties>
PUBLIC	??$_Unfancy@UVkExtensionProperties@@@std@@YAPEAUVkExtensionProperties@@PEAU1@@Z ; std::_Unfancy<VkExtensionProperties>
PUBLIC	??$_Find_hint@V?$basic_string@DU?$char_traits@D@std@@V?$allocator@D@2@@std@@@?$_Tree@V?$_Tset_traits@V?$basic_string@DU?$char_traits@D@std@@V?$allocator@D@2@@std@@U?$less@V?$basic_string@DU?$char_traits@D@std@@V?$allocator@D@2@@std@@@2@V?$allocator@V?$basic_string@DU?$char_traits@D@std@@V?$allocator@D@2@@std@@@2@$0A@@std@@@std@@IEBA?AU?$_Tree_find_hint_result@PEAU?$_Tree_node@V?$basic_string@DU?$char_traits@D@std@@V?$allocator@D@2@@std@@PEAX@std@@@1@QEAU?$_Tree_node@V?$basic_string@DU?$char_traits@D@std@@V?$allocator@D@2@@std@@PEAX@1@AEBV?$basic_string@DU?$char_traits@D@std@@V?$allocator@D@2@@1@@Z ; std::_Tree<std::_Tset_traits<std::basic_string<char,std::char_traits<char>,std::allocator<char> >,std::less<std::basic_string<char,std::char_traits<char>,std::allocator<char> > >,std::allocator<std::basic_string<char,std::char_traits<char>,std::allocator<char> > >,0> >::_Find_hint<std::basic_string<char,std::char_traits<char>,std::allocator<char> > >
PUBLIC	??$?0AEBQEBD@?$_Tree_temp_node@V?$allocator@U?$_Tree_node@V?$basic_string@DU?$char_traits@D@std@@V?$allocator@D@2@@std@@PEAX@std@@@std@@@std@@QEAA@AEAV?$allocator@U?$_Tree_node@V?$basic_string@DU?$char_traits@D@std@@V?$allocator@D@2@@std@@PEAX@std@@@1@PEAU?$_Tree_node@V?$basic_string@DU?$char_traits@D@std@@V?$allocator@D@2@@std@@PEAX@1@AEBQEBD@Z ; std::_Tree_temp_node<std::allocator<std::_Tree_node<std::basic_string<char,std::char_traits<char>,std::allocator<char> >,void *> > >::_Tree_temp_node<std::allocator<std::_Tree_node<std::basic_string<char,std::char_traits<char>,std::allocator<char> >,void *> > ><char const * const &>
PUBLIC	??$forward@AEBQEBD@std@@YAAEBQEBDAEBQEBD@Z	; std::forward<char const * const &>
PUBLIC	?_Get_first@?$_Compressed_pair@V?$allocator@U?$_Tree_node@V?$basic_string@DU?$char_traits@D@std@@V?$allocator@D@2@@std@@PEAX@std@@@std@@V?$_Tree_val@U?$_Tree_simple_types@V?$basic_string@DU?$char_traits@D@std@@V?$allocator@D@2@@std@@@std@@@2@$00@std@@QEBAAEBV?$allocator@U?$_Tree_node@V?$basic_string@DU?$char_traits@D@std@@V?$allocator@D@2@@std@@PEAX@std@@@2@XZ ; std::_Compressed_pair<std::allocator<std::_Tree_node<std::basic_string<char,std::char_traits<char>,std::allocator<char> >,void *> >,std::_Tree_val<std::_Tree_simple_types<std::basic_string<char,std::char_traits<char>,std::allocator<char> > > >,1>::_Get_first
PUBLIC	?deallocate@?$allocator@U?$_Tree_node@V?$basic_string@DU?$char_traits@D@std@@V?$allocator@D@2@@std@@PEAX@std@@@std@@QEAAXQEAU?$_Tree_node@V?$basic_string@DU?$char_traits@D@std@@V?$allocator@D@2@@std@@PEAX@2@_K@Z ; std::allocator<std::_Tree_node<std::basic_string<char,std::char_traits<char>,std::allocator<char> >,void *> >::deallocate
PUBLIC	?max_size@?$_Default_allocator_traits@V?$allocator@U?$_Tree_node@V?$basic_string@DU?$char_traits@D@std@@V?$allocator@D@2@@std@@PEAX@std@@@std@@@std@@SA_KAEBV?$allocator@U?$_Tree_node@V?$basic_string@DU?$char_traits@D@std@@V?$allocator@D@2@@std@@PEAX@std@@@2@@Z ; std::_Default_allocator_traits<std::allocator<std::_Tree_node<std::basic_string<char,std::char_traits<char>,std::allocator<char> >,void *> > >::max_size
PUBLIC	?_Getal@?$_Tree@V?$_Tset_traits@V?$basic_string@DU?$char_traits@D@std@@V?$allocator@D@2@@std@@U?$less@V?$basic_string@DU?$char_traits@D@std@@V?$allocator@D@2@@std@@@2@V?$allocator@V?$basic_string@DU?$char_traits@D@std@@V?$allocator@D@2@@std@@@2@$0A@@std@@@std@@IEBAAEBV?$allocator@U?$_Tree_node@V?$basic_string@DU?$char_traits@D@std@@V?$allocator@D@2@@std@@PEAX@std@@@2@XZ ; std::_Tree<std::_Tset_traits<std::basic_string<char,std::char_traits<char>,std::allocator<char> >,std::less<std::basic_string<char,std::char_traits<char>,std::allocator<char> > >,std::allocator<std::basic_string<char,std::char_traits<char>,std::allocator<char> > >,0> >::_Getal
PUBLIC	?max_size@?$_Tree@V?$_Tset_traits@V?$basic_string@DU?$char_traits@D@std@@V?$allocator@D@2@@std@@U?$less@V?$basic_string@DU?$char_traits@D@std@@V?$allocator@D@2@@std@@@2@V?$allocator@V?$basic_string@DU?$char_traits@D@std@@V?$allocator@D@2@@std@@@2@$0A@@std@@@std@@QEBA_KXZ ; std::_Tree<std::_Tset_traits<std::basic_string<char,std::char_traits<char>,std::allocator<char> >,std::less<std::basic_string<char,std::char_traits<char>,std::allocator<char> > >,std::allocator<std::basic_string<char,std::char_traits<char>,std::allocator<char> > >,0> >::max_size
PUBLIC	??1?$_Alloc_construct_ptr@V?$allocator@U?$_Tree_node@V?$basic_string@DU?$char_traits@D@std@@V?$allocator@D@2@@std@@PEAX@std@@@std@@@std@@QEAA@XZ ; std::_Alloc_construct_ptr<std::allocator<std::_Tree_node<std::basic_string<char,std::char_traits<char>,std::allocator<char> >,void *> > >::~_Alloc_construct_ptr<std::allocator<std::_Tree_node<std::basic_string<char,std::char_traits<char>,std::allocator<char> >,void *> > >
PUBLIC	??1?$_Tree_temp_node_alloc@V?$allocator@U?$_Tree_node@V?$basic_string@DU?$char_traits@D@std@@V?$allocator@D@2@@std@@PEAX@std@@@std@@@std@@QEAA@XZ ; std::_Tree_temp_node_alloc<std::allocator<std::_Tree_node<std::basic_string<char,std::char_traits<char>,std::allocator<char> >,void *> > >::~_Tree_temp_node_alloc<std::allocator<std::_Tree_node<std::basic_string<char,std::char_traits<char>,std::allocator<char> >,void *> > >
PUBLIC	??0?$allocator@U?$_Tree_node@V?$basic_string@DU?$char_traits@D@std@@V?$allocator@D@2@@std@@PEAX@std@@@std@@QEAA@XZ ; std::allocator<std::_Tree_node<std::basic_string<char,std::char_traits<char>,std::allocator<char> >,void *> >::allocator<std::_Tree_node<std::basic_string<char,std::char_traits<char>,std::allocator<char> >,void *> >
PUBLIC	?_Check_grow_by_1@?$_Tree@V?$_Tset_traits@V?$basic_string@DU?$char_traits@D@std@@V?$allocator@D@2@@std@@U?$less@V?$basic_string@DU?$char_traits@D@std@@V?$allocator@D@2@@std@@@2@V?$allocator@V?$basic_string@DU?$char_traits@D@std@@V?$allocator@D@2@@std@@@2@$0A@@std@@@std@@IEAAXXZ ; std::_Tree<std::_Tset_traits<std::basic_string<char,std::char_traits<char>,std::allocator<char> >,std::less<std::basic_string<char,std::char_traits<char>,std::allocator<char> > >,std::allocator<std::basic_string<char,std::char_traits<char>,std::allocator<char> > >,0> >::_Check_grow_by_1
PUBLIC	??0?$_Tree_val@U?$_Tree_simple_types@V?$basic_string@DU?$char_traits@D@std@@V?$allocator@D@2@@std@@@std@@@std@@QEAA@XZ ; std::_Tree_val<std::_Tree_simple_types<std::basic_string<char,std::char_traits<char>,std::allocator<char> > > >::_Tree_val<std::_Tree_simple_types<std::basic_string<char,std::char_traits<char>,std::allocator<char> > > >
PUBLIC	?_Insert_node@?$_Tree_val@U?$_Tree_simple_types@V?$basic_string@DU?$char_traits@D@std@@V?$allocator@D@2@@std@@@std@@@std@@QEAAPEAU?$_Tree_node@V?$basic_string@DU?$char_traits@D@std@@V?$allocator@D@2@@std@@PEAX@2@U?$_Tree_id@PEAU?$_Tree_node@V?$basic_string@DU?$char_traits@D@std@@V?$allocator@D@2@@std@@PEAX@std@@@2@QEAU32@@Z ; std::_Tree_val<std::_Tree_simple_types<std::basic_string<char,std::char_traits<char>,std::allocator<char> > > >::_Insert_node
PUBLIC	?_Release@?$_Alloc_construct_ptr@V?$allocator@U?$_Tree_node@V?$basic_string@DU?$char_traits@D@std@@V?$allocator@D@2@@std@@PEAX@std@@@std@@@std@@QEAAPEAU?$_Tree_node@V?$basic_string@DU?$char_traits@D@std@@V?$allocator@D@2@@std@@PEAX@2@XZ ; std::_Alloc_construct_ptr<std::allocator<std::_Tree_node<std::basic_string<char,std::char_traits<char>,std::allocator<char> >,void *> > >::_Release
PUBLIC	??1?$_Tree_temp_node@V?$allocator@U?$_Tree_node@V?$basic_string@DU?$char_traits@D@std@@V?$allocator@D@2@@std@@PEAX@std@@@std@@@std@@QEAA@XZ ; std::_Tree_temp_node<std::allocator<std::_Tree_node<std::basic_string<char,std::char_traits<char>,std::allocator<char> >,void *> > >::~_Tree_temp_node<std::allocator<std::_Tree_node<std::basic_string<char,std::char_traits<char>,std::allocator<char> >,void *> > >
PUBLIC	??$_Get_size_of_n@$07@std@@YA_K_K@Z		; std::_Get_size_of_n<8>
PUBLIC	??$_Get_size_of_n@$0EA@@std@@YA_K_K@Z		; std::_Get_size_of_n<64>
PUBLIC	??$_Construct_in_place@PEAU?$_Tree_node@V?$basic_string@DU?$char_traits@D@std@@V?$allocator@D@2@@std@@PEAX@std@@AEBQEAU12@@std@@YAXAEAPEAU?$_Tree_node@V?$basic_string@DU?$char_traits@D@std@@V?$allocator@D@2@@std@@PEAX@0@AEBQEAU10@@Z ; std::_Construct_in_place<std::_Tree_node<std::basic_string<char,std::char_traits<char>,std::allocator<char> >,void *> *,std::_Tree_node<std::basic_string<char,std::char_traits<char>,std::allocator<char> >,void *> * const &>
PUBLIC	??$forward@U_Zero_then_variadic_args_t@std@@@std@@YA$$QEAU_Zero_then_variadic_args_t@0@AEAU10@@Z ; std::forward<std::_Zero_then_variadic_args_t>
PUBLIC	??$forward@AEBU?$less@V?$basic_string@DU?$char_traits@D@std@@V?$allocator@D@2@@std@@@std@@@std@@YAAEBU?$less@V?$basic_string@DU?$char_traits@D@std@@V?$allocator@D@2@@std@@@0@AEBU10@@Z ; std::forward<std::less<std::basic_string<char,std::char_traits<char>,std::allocator<char> > > const &>
PUBLIC	??$_Emplace_back@$$V@?$_Uninitialized_backout_al@V?$allocator@UVkSurfaceFormatKHR@@@std@@@std@@QEAAXXZ ; std::_Uninitialized_backout_al<std::allocator<VkSurfaceFormatKHR> >::_Emplace_back<>
PUBLIC	??$_Uninitialized_move@PEAUVkSurfaceFormatKHR@@V?$allocator@UVkSurfaceFormatKHR@@@std@@@std@@YAPEAUVkSurfaceFormatKHR@@QEAU1@0PEAU1@AEAV?$allocator@UVkSurfaceFormatKHR@@@0@@Z ; std::_Uninitialized_move<VkSurfaceFormatKHR *,std::allocator<VkSurfaceFormatKHR> >
PUBLIC	??$_Get_unwrapped@AEBQEAUVkSurfaceFormatKHR@@@std@@YA?A_TAEBQEAUVkSurfaceFormatKHR@@@Z ; std::_Get_unwrapped<VkSurfaceFormatKHR * const &>
PUBLIC	??$_Emplace_back@$$V@?$_Uninitialized_backout_al@V?$allocator@W4VkPresentModeKHR@@@std@@@std@@QEAAXXZ ; std::_Uninitialized_backout_al<std::allocator<enum VkPresentModeKHR> >::_Emplace_back<>
PUBLIC	??$_To_address@PEAW4VkPresentModeKHR@@@std@@YA?A_PAEBQEAW4VkPresentModeKHR@@@Z ; std::_To_address<enum VkPresentModeKHR *>
PUBLIC	??$_Zero_range@PEAW4VkPresentModeKHR@@@std@@YAPEAW4VkPresentModeKHR@@QEAW41@0@Z ; std::_Zero_range<enum VkPresentModeKHR *>
PUBLIC	??$_Unfancy@W4VkPresentModeKHR@@@std@@YAPEAW4VkPresentModeKHR@@PEAW41@@Z ; std::_Unfancy<enum VkPresentModeKHR>
PUBLIC	??$_Uninitialized_move@PEAW4VkPresentModeKHR@@V?$allocator@W4VkPresentModeKHR@@@std@@@std@@YAPEAW4VkPresentModeKHR@@QEAW41@0PEAW41@AEAV?$allocator@W4VkPresentModeKHR@@@0@@Z ; std::_Uninitialized_move<enum VkPresentModeKHR *,std::allocator<enum VkPresentModeKHR> >
PUBLIC	??$_Get_unwrapped@AEBQEAW4VkPresentModeKHR@@@std@@YA?A_TAEBQEAW4VkPresentModeKHR@@@Z ; std::_Get_unwrapped<enum VkPresentModeKHR * const &>
PUBLIC	??$_Emplace_back@$$V@?$_Uninitialized_backout_al@V?$allocator@UVkExtensionProperties@@@std@@@std@@QEAAXXZ ; std::_Uninitialized_backout_al<std::allocator<VkExtensionProperties> >::_Emplace_back<>
PUBLIC	??$_Destroy_in_place@PEAU?$_Tree_node@V?$basic_string@DU?$char_traits@D@std@@V?$allocator@D@2@@std@@PEAX@std@@@std@@YAXAEAPEAU?$_Tree_node@V?$basic_string@DU?$char_traits@D@std@@V?$allocator@D@2@@std@@PEAX@0@@Z ; std::_Destroy_in_place<std::_Tree_node<std::basic_string<char,std::char_traits<char>,std::allocator<char> >,void *> *>
PUBLIC	??$forward@AEAPEAU?$_Tree_node@V?$basic_string@DU?$char_traits@D@std@@V?$allocator@D@2@@std@@PEAX@std@@@std@@YAAEAPEAU?$_Tree_node@V?$basic_string@DU?$char_traits@D@std@@V?$allocator@D@2@@std@@PEAX@0@AEAPEAU10@@Z ; std::forward<std::_Tree_node<std::basic_string<char,std::char_traits<char>,std::allocator<char> >,void *> * &>
PUBLIC	??$_Emplace_hint@AEBQEBD@?$_Tree@V?$_Tset_traits@V?$basic_string@DU?$char_traits@D@std@@V?$allocator@D@2@@std@@U?$less@V?$basic_string@DU?$char_traits@D@std@@V?$allocator@D@2@@std@@@2@V?$allocator@V?$basic_string@DU?$char_traits@D@std@@V?$allocator@D@2@@std@@@2@$0A@@std@@@std@@IEAAPEAU?$_Tree_node@V?$basic_string@DU?$char_traits@D@std@@V?$allocator@D@2@@std@@PEAX@1@QEAU21@AEBQEBD@Z ; std::_Tree<std::_Tset_traits<std::basic_string<char,std::char_traits<char>,std::allocator<char> >,std::less<std::basic_string<char,std::char_traits<char>,std::allocator<char> > >,std::allocator<std::basic_string<char,std::char_traits<char>,std::allocator<char> > >,0> >::_Emplace_hint<char const * const &>
PUBLIC	??$_Adl_verify_range@V?$_Array_const_iterator@PEBD$00@std@@V12@@std@@YAXAEBV?$_Array_const_iterator@PEBD$00@0@0@Z ; std::_Adl_verify_range<std::_Array_const_iterator<char const *,1>,std::_Array_const_iterator<char const *,1> >
PUBLIC	??$?0$$V@?$_Compressed_pair@V?$allocator@U?$_Tree_node@V?$basic_string@DU?$char_traits@D@std@@V?$allocator@D@2@@std@@PEAX@std@@@std@@V?$_Tree_val@U?$_Tree_simple_types@V?$basic_string@DU?$char_traits@D@std@@V?$allocator@D@2@@std@@@std@@@2@$00@std@@QEAA@U_Zero_then_variadic_args_t@1@@Z ; std::_Compressed_pair<std::allocator<std::_Tree_node<std::basic_string<char,std::char_traits<char>,std::allocator<char> >,void *> >,std::_Tree_val<std::_Tree_simple_types<std::basic_string<char,std::char_traits<char>,std::allocator<char> > > >,1>::_Compressed_pair<std::allocator<std::_Tree_node<std::basic_string<char,std::char_traits<char>,std::allocator<char> >,void *> >,std::_Tree_val<std::_Tree_simple_types<std::basic_string<char,std::char_traits<char>,std::allocator<char> > > >,1><>
PUBLIC	?_Get_first@?$_Compressed_pair@V?$allocator@UVkSurfaceFormatKHR@@@std@@V?$_Vector_val@U?$_Simple_types@UVkSurfaceFormatKHR@@@std@@@2@$00@std@@QEBAAEBV?$allocator@UVkSurfaceFormatKHR@@@2@XZ ; std::_Compressed_pair<std::allocator<VkSurfaceFormatKHR>,std::_Vector_val<std::_Simple_types<VkSurfaceFormatKHR> >,1>::_Get_first
PUBLIC	?_Get_first@?$_Compressed_pair@V?$allocator@W4VkPresentModeKHR@@@std@@V?$_Vector_val@U?$_Simple_types@W4VkPresentModeKHR@@@std@@@2@$00@std@@QEBAAEBV?$allocator@W4VkPresentModeKHR@@@2@XZ ; std::_Compressed_pair<std::allocator<enum VkPresentModeKHR>,std::_Vector_val<std::_Simple_types<enum VkPresentModeKHR> >,1>::_Get_first
PUBLIC	?max_size@?$_Default_allocator_traits@V?$allocator@UVkSurfaceFormatKHR@@@std@@@std@@SA_KAEBV?$allocator@UVkSurfaceFormatKHR@@@2@@Z ; std::_Default_allocator_traits<std::allocator<VkSurfaceFormatKHR> >::max_size
PUBLIC	?capacity@?$vector@UVkSurfaceFormatKHR@@V?$allocator@UVkSurfaceFormatKHR@@@std@@@std@@QEBA_KXZ ; std::vector<VkSurfaceFormatKHR,std::allocator<VkSurfaceFormatKHR> >::capacity
PUBLIC	?_Getal@?$vector@UVkSurfaceFormatKHR@@V?$allocator@UVkSurfaceFormatKHR@@@std@@@std@@AEBAAEBV?$allocator@UVkSurfaceFormatKHR@@@2@XZ ; std::vector<VkSurfaceFormatKHR,std::allocator<VkSurfaceFormatKHR> >::_Getal
PUBLIC	?max_size@?$_Default_allocator_traits@V?$allocator@W4VkPresentModeKHR@@@std@@@std@@SA_KAEBV?$allocator@W4VkPresentModeKHR@@@2@@Z ; std::_Default_allocator_traits<std::allocator<enum VkPresentModeKHR> >::max_size
PUBLIC	?capacity@?$vector@W4VkPresentModeKHR@@V?$allocator@W4VkPresentModeKHR@@@std@@@std@@QEBA_KXZ ; std::vector<enum VkPresentModeKHR,std::allocator<enum VkPresentModeKHR> >::capacity
PUBLIC	?_Getal@?$vector@W4VkPresentModeKHR@@V?$allocator@W4VkPresentModeKHR@@@std@@@std@@AEBAAEBV?$allocator@W4VkPresentModeKHR@@@2@XZ ; std::vector<enum VkPresentModeKHR,std::allocator<enum VkPresentModeKHR> >::_Getal
PUBLIC	?allocate@?$allocator@UVkSurfaceFormatKHR@@@std@@QEAAPEAUVkSurfaceFormatKHR@@_K@Z ; std::allocator<VkSurfaceFormatKHR>::allocate
PUBLIC	?max_size@?$vector@UVkSurfaceFormatKHR@@V?$allocator@UVkSurfaceFormatKHR@@@std@@@std@@QEBA_KXZ ; std::vector<VkSurfaceFormatKHR,std::allocator<VkSurfaceFormatKHR> >::max_size
PUBLIC	?_Calculate_growth@?$vector@UVkSurfaceFormatKHR@@V?$allocator@UVkSurfaceFormatKHR@@@std@@@std@@AEBA_K_K@Z ; std::vector<VkSurfaceFormatKHR,std::allocator<VkSurfaceFormatKHR> >::_Calculate_growth
PUBLIC	?_Change_array@?$vector@UVkSurfaceFormatKHR@@V?$allocator@UVkSurfaceFormatKHR@@@std@@@std@@AEAAXQEAUVkSurfaceFormatKHR@@_K1@Z ; std::vector<VkSurfaceFormatKHR,std::allocator<VkSurfaceFormatKHR> >::_Change_array
PUBLIC	?_Xlength@?$vector@UVkSurfaceFormatKHR@@V?$allocator@UVkSurfaceFormatKHR@@@std@@@std@@CAXXZ ; std::vector<VkSurfaceFormatKHR,std::allocator<VkSurfaceFormatKHR> >::_Xlength
PUBLIC	?allocate@?$allocator@W4VkPresentModeKHR@@@std@@QEAAPEAW4VkPresentModeKHR@@_K@Z ; std::allocator<enum VkPresentModeKHR>::allocate
PUBLIC	?max_size@?$vector@W4VkPresentModeKHR@@V?$allocator@W4VkPresentModeKHR@@@std@@@std@@QEBA_KXZ ; std::vector<enum VkPresentModeKHR,std::allocator<enum VkPresentModeKHR> >::max_size
PUBLIC	?_Calculate_growth@?$vector@W4VkPresentModeKHR@@V?$allocator@W4VkPresentModeKHR@@@std@@@std@@AEBA_K_K@Z ; std::vector<enum VkPresentModeKHR,std::allocator<enum VkPresentModeKHR> >::_Calculate_growth
PUBLIC	?_Change_array@?$vector@W4VkPresentModeKHR@@V?$allocator@W4VkPresentModeKHR@@@std@@@std@@AEAAXQEAW4VkPresentModeKHR@@_K1@Z ; std::vector<enum VkPresentModeKHR,std::allocator<enum VkPresentModeKHR> >::_Change_array
PUBLIC	?_Xlength@?$vector@W4VkPresentModeKHR@@V?$allocator@W4VkPresentModeKHR@@@std@@@std@@CAXXZ ; std::vector<enum VkPresentModeKHR,std::allocator<enum VkPresentModeKHR> >::_Xlength
PUBLIC	?allocate@?$allocator@U?$_Tree_node@V?$basic_string@DU?$char_traits@D@std@@V?$allocator@D@2@@std@@PEAX@std@@@std@@QEAAPEAU?$_Tree_node@V?$basic_string@DU?$char_traits@D@std@@V?$allocator@D@2@@std@@PEAX@2@_K@Z ; std::allocator<std::_Tree_node<std::basic_string<char,std::char_traits<char>,std::allocator<char> >,void *> >::allocate
PUBLIC	?deallocate@?$_Default_allocator_traits@V?$allocator@U?$_Tree_node@V?$basic_string@DU?$char_traits@D@std@@V?$allocator@D@2@@std@@PEAX@std@@@std@@@std@@SAXAEAV?$allocator@U?$_Tree_node@V?$basic_string@DU?$char_traits@D@std@@V?$allocator@D@2@@std@@PEAX@std@@@2@QEAU?$_Tree_node@V?$basic_string@DU?$char_traits@D@std@@V?$allocator@D@2@@std@@PEAX@2@_K@Z ; std::_Default_allocator_traits<std::allocator<std::_Tree_node<std::basic_string<char,std::char_traits<char>,std::allocator<char> >,void *> > >::deallocate
PUBLIC	?_Unwrapped@?$_Array_const_iterator@PEBD$00@std@@QEBAPEBQEBDXZ ; std::_Array_const_iterator<char const *,1>::_Unwrapped
PUBLIC	??0?$_Uninitialized_backout_al@V?$allocator@UVkExtensionProperties@@@std@@@std@@QEAA@PEAUVkExtensionProperties@@AEAV?$allocator@UVkExtensionProperties@@@1@@Z ; std::_Uninitialized_backout_al<std::allocator<VkExtensionProperties> >::_Uninitialized_backout_al<std::allocator<VkExtensionProperties> >
PUBLIC	??1?$_Uninitialized_backout_al@V?$allocator@UVkExtensionProperties@@@std@@@std@@QEAA@XZ ; std::_Uninitialized_backout_al<std::allocator<VkExtensionProperties> >::~_Uninitialized_backout_al<std::allocator<VkExtensionProperties> >
PUBLIC	?_Release@?$_Uninitialized_backout_al@V?$allocator@UVkExtensionProperties@@@std@@@std@@QEAAPEAUVkExtensionProperties@@XZ ; std::_Uninitialized_backout_al<std::allocator<VkExtensionProperties> >::_Release
PUBLIC	??0?$_Uninitialized_backout_al@V?$allocator@W4VkPresentModeKHR@@@std@@@std@@QEAA@PEAW4VkPresentModeKHR@@AEAV?$allocator@W4VkPresentModeKHR@@@1@@Z ; std::_Uninitialized_backout_al<std::allocator<enum VkPresentModeKHR> >::_Uninitialized_backout_al<std::allocator<enum VkPresentModeKHR> >
PUBLIC	??1?$_Uninitialized_backout_al@V?$allocator@W4VkPresentModeKHR@@@std@@@std@@QEAA@XZ ; std::_Uninitialized_backout_al<std::allocator<enum VkPresentModeKHR> >::~_Uninitialized_backout_al<std::allocator<enum VkPresentModeKHR> >
PUBLIC	?_Release@?$_Uninitialized_backout_al@V?$allocator@W4VkPresentModeKHR@@@std@@@std@@QEAAPEAW4VkPresentModeKHR@@XZ ; std::_Uninitialized_backout_al<std::allocator<enum VkPresentModeKHR> >::_Release
PUBLIC	??0?$_Uninitialized_backout_al@V?$allocator@UVkSurfaceFormatKHR@@@std@@@std@@QEAA@PEAUVkSurfaceFormatKHR@@AEAV?$allocator@UVkSurfaceFormatKHR@@@1@@Z ; std::_Uninitialized_backout_al<std::allocator<VkSurfaceFormatKHR> >::_Uninitialized_backout_al<std::allocator<VkSurfaceFormatKHR> >
PUBLIC	??1?$_Uninitialized_backout_al@V?$allocator@UVkSurfaceFormatKHR@@@std@@@std@@QEAA@XZ ; std::_Uninitialized_backout_al<std::allocator<VkSurfaceFormatKHR> >::~_Uninitialized_backout_al<std::allocator<VkSurfaceFormatKHR> >
PUBLIC	?_Release@?$_Uninitialized_backout_al@V?$allocator@UVkSurfaceFormatKHR@@@std@@@std@@QEAAPEAUVkSurfaceFormatKHR@@XZ ; std::_Uninitialized_backout_al<std::allocator<VkSurfaceFormatKHR> >::_Release
PUBLIC	??_G?$basic_string@DU?$char_traits@D@std@@V?$allocator@D@2@@std@@QEAAPEAXI@Z ; std::basic_string<char,std::char_traits<char>,std::allocator<char> >::`scalar deleting destructor'
PUBLIC	?__autoclassinit2@?$_Uninitialized_backout_al@V?$allocator@UVkSurfaceFormatKHR@@@std@@@std@@QEAAX_K@Z ; std::_Uninitialized_backout_al<std::allocator<VkSurfaceFormatKHR> >::__autoclassinit2
PUBLIC	?__autoclassinit2@?$_Uninitialized_backout_al@V?$allocator@W4VkPresentModeKHR@@@std@@@std@@QEAAX_K@Z ; std::_Uninitialized_backout_al<std::allocator<enum VkPresentModeKHR> >::__autoclassinit2
PUBLIC	?__autoclassinit2@?$_Uninitialized_backout_al@V?$allocator@UVkExtensionProperties@@@std@@@std@@QEAAX_K@Z ; std::_Uninitialized_backout_al<std::allocator<VkExtensionProperties> >::__autoclassinit2
PUBLIC	??$_Get_size_of_n@$0BAE@@std@@YA_K_K@Z		; std::_Get_size_of_n<260>
PUBLIC	??$_Buyheadnode@V?$allocator@U?$_Tree_node@V?$basic_string@DU?$char_traits@D@std@@V?$allocator@D@2@@std@@PEAX@std@@@std@@@?$_Tree_node@V?$basic_string@DU?$char_traits@D@std@@V?$allocator@D@2@@std@@PEAX@std@@SAPEAU01@AEAV?$allocator@U?$_Tree_node@V?$basic_string@DU?$char_traits@D@std@@V?$allocator@D@2@@std@@PEAX@std@@@1@@Z ; std::_Tree_node<std::basic_string<char,std::char_traits<char>,std::allocator<char> >,void *>::_Buyheadnode<std::allocator<std::_Tree_node<std::basic_string<char,std::char_traits<char>,std::allocator<char> >,void *> > >
PUBLIC	??$_Get_size_of_n@$03@std@@YA_K_K@Z		; std::_Get_size_of_n<4>
PUBLIC	??$?0AEBU?$less@V?$basic_string@DU?$char_traits@D@std@@V?$allocator@D@2@@std@@@std@@U_Zero_then_variadic_args_t@1@@?$_Compressed_pair@U?$less@V?$basic_string@DU?$char_traits@D@std@@V?$allocator@D@2@@std@@@std@@V?$_Compressed_pair@V?$allocator@U?$_Tree_node@V?$basic_string@DU?$char_traits@D@std@@V?$allocator@D@2@@std@@PEAX@std@@@std@@V?$_Tree_val@U?$_Tree_simple_types@V?$basic_string@DU?$char_traits@D@std@@V?$allocator@D@2@@std@@@std@@@2@$00@2@$00@std@@QEAA@U_One_then_variadic_args_t@1@AEBU?$less@V?$basic_string@DU?$char_traits@D@std@@V?$allocator@D@2@@std@@@1@$$QEAU_Zero_then_variadic_args_t@1@@Z ; std::_Compressed_pair<std::less<std::basic_string<char,std::char_traits<char>,std::allocator<char> > >,std::_Compressed_pair<std::allocator<std::_Tree_node<std::basic_string<char,std::char_traits<char>,std::allocator<char> >,void *> >,std::_Tree_val<std::_Tree_simple_types<std::basic_string<char,std::char_traits<char>,std::allocator<char> > > >,1>,1>::_Compressed_pair<std::less<std::basic_string<char,std::char_traits<char>,std::allocator<char> > >,std::_Compressed_pair<std::allocator<std::_Tree_node<std::basic_string<char,std::char_traits<char>,std::allocator<char> >,void *> >,std::_Tree_val<std::_Tree_simple_types<std::basic_string<char,std::char_traits<char>,std::allocator<char> > > >,1>,1><std::less<std::basic_string<char,std::char_traits<char>,std::allocator<char> > > const &,std::_Zero_then_variadic_args_t>
PUBLIC	??$?MDU?$char_traits@D@std@@V?$allocator@D@1@@std@@YA_NAEBV?$basic_string@DU?$char_traits@D@std@@V?$allocator@D@2@@0@0@Z ; std::operator<<char,std::char_traits<char>,std::allocator<char> >
PUBLIC	??$move@AEAD@std@@YA$$QEADAEAD@Z		; std::move<char &>
PUBLIC	??$destroy@V?$basic_string@DU?$char_traits@D@std@@V?$allocator@D@2@@std@@@?$_Default_allocator_traits@V?$allocator@U?$_Tree_node@V?$basic_string@DU?$char_traits@D@std@@V?$allocator@D@2@@std@@PEAX@std@@@std@@@std@@SAXAEAV?$allocator@U?$_Tree_node@V?$basic_string@DU?$char_traits@D@std@@V?$allocator@D@2@@std@@PEAX@std@@@1@QEAV?$basic_string@DU?$char_traits@D@std@@V?$allocator@D@2@@1@@Z ; std::_Default_allocator_traits<std::allocator<std::_Tree_node<std::basic_string<char,std::char_traits<char>,std::allocator<char> >,void *> > >::destroy<std::basic_string<char,std::char_traits<char>,std::allocator<char> > >
PUBLIC	??$exchange@PEAU?$_Tree_node@V?$basic_string@DU?$char_traits@D@std@@V?$allocator@D@2@@std@@PEAX@std@@AEAPEAU12@@std@@YAPEAU?$_Tree_node@V?$basic_string@DU?$char_traits@D@std@@V?$allocator@D@2@@std@@PEAX@0@AEAPEAU10@0@Z ; std::exchange<std::_Tree_node<std::basic_string<char,std::char_traits<char>,std::allocator<char> >,void *> *,std::_Tree_node<std::basic_string<char,std::char_traits<char>,std::allocator<char> >,void *> * &>
PUBLIC	??$forward@AEBQEAD@std@@YAAEBQEADAEBQEAD@Z	; std::forward<char * const &>
PUBLIC	??$_Voidify_iter@PEAPEAD@std@@YAPEAXPEAPEAD@Z	; std::_Voidify_iter<char * *>
PUBLIC	??$addressof@PEAD@std@@YAPEAPEADAEAPEAD@Z	; std::addressof<char *>
PUBLIC	??$_Adl_verify_range@V?$_Tree_unchecked_const_iterator@V?$_Tree_val@U?$_Tree_simple_types@V?$basic_string@DU?$char_traits@D@std@@V?$allocator@D@2@@std@@@std@@@std@@U_Iterator_base0@2@@std@@V12@@std@@YAXAEBV?$_Tree_unchecked_const_iterator@V?$_Tree_val@U?$_Tree_simple_types@V?$basic_string@DU?$char_traits@D@std@@V?$allocator@D@2@@std@@@std@@@std@@U_Iterator_base0@2@@0@0@Z ; std::_Adl_verify_range<std::_Tree_unchecked_const_iterator<std::_Tree_val<std::_Tree_simple_types<std::basic_string<char,std::char_traits<char>,std::allocator<char> > > >,std::_Iterator_base0>,std::_Tree_unchecked_const_iterator<std::_Tree_val<std::_Tree_simple_types<std::basic_string<char,std::char_traits<char>,std::allocator<char> > > >,std::_Iterator_base0> >
PUBLIC	??$forward@PEAUVkSurfaceFormatKHR@@@std@@YA$$QEAPEAUVkSurfaceFormatKHR@@AEAPEAU1@@Z ; std::forward<VkSurfaceFormatKHR *>
PUBLIC	??$forward@V?$allocator@UVkSurfaceFormatKHR@@@std@@@std@@YA$$QEAV?$allocator@UVkSurfaceFormatKHR@@@0@AEAV10@@Z ; std::forward<std::allocator<VkSurfaceFormatKHR> >
PUBLIC	??$_Uninitialized_value_construct_n@V?$allocator@UVkSurfaceFormatKHR@@@std@@@std@@YAPEAUVkSurfaceFormatKHR@@PEAU1@_KAEAV?$allocator@UVkSurfaceFormatKHR@@@0@@Z ; std::_Uninitialized_value_construct_n<std::allocator<VkSurfaceFormatKHR> >
PUBLIC	??$_Resize_reallocate@U_Value_init_tag@std@@@?$vector@UVkSurfaceFormatKHR@@V?$allocator@UVkSurfaceFormatKHR@@@std@@@std@@AEAAX_KAEBU_Value_init_tag@1@@Z ; std::vector<VkSurfaceFormatKHR,std::allocator<VkSurfaceFormatKHR> >::_Resize_reallocate<std::_Value_init_tag>
PUBLIC	??$forward@PEAW4VkPresentModeKHR@@@std@@YA$$QEAPEAW4VkPresentModeKHR@@AEAPEAW41@@Z ; std::forward<enum VkPresentModeKHR *>
PUBLIC	??$forward@V?$allocator@W4VkPresentModeKHR@@@std@@@std@@YA$$QEAV?$allocator@W4VkPresentModeKHR@@@0@AEAV10@@Z ; std::forward<std::allocator<enum VkPresentModeKHR> >
PUBLIC	??$_Uninitialized_value_construct_n@V?$allocator@W4VkPresentModeKHR@@@std@@@std@@YAPEAW4VkPresentModeKHR@@PEAW41@_KAEAV?$allocator@W4VkPresentModeKHR@@@0@@Z ; std::_Uninitialized_value_construct_n<std::allocator<enum VkPresentModeKHR> >
PUBLIC	??$_Resize_reallocate@U_Value_init_tag@std@@@?$vector@W4VkPresentModeKHR@@V?$allocator@W4VkPresentModeKHR@@@std@@@std@@AEAAX_KAEBU_Value_init_tag@1@@Z ; std::vector<enum VkPresentModeKHR,std::allocator<enum VkPresentModeKHR> >::_Resize_reallocate<std::_Value_init_tag>
PUBLIC	??$_Uninitialized_value_construct_n@V?$allocator@UVkExtensionProperties@@@std@@@std@@YAPEAUVkExtensionProperties@@PEAU1@_KAEAV?$allocator@UVkExtensionProperties@@@0@@Z ; std::_Uninitialized_value_construct_n<std::allocator<VkExtensionProperties> >
PUBLIC	??$forward@AEBV?$allocator@UVkExtensionProperties@@@std@@@std@@YAAEBV?$allocator@UVkExtensionProperties@@@0@AEBV10@@Z ; std::forward<std::allocator<VkExtensionProperties> const &>
PUBLIC	??$_Freenode0@V?$allocator@U?$_Tree_node@V?$basic_string@DU?$char_traits@D@std@@V?$allocator@D@2@@std@@PEAX@std@@@std@@@?$_Tree_node@V?$basic_string@DU?$char_traits@D@std@@V?$allocator@D@2@@std@@PEAX@std@@SAXAEAV?$allocator@U?$_Tree_node@V?$basic_string@DU?$char_traits@D@std@@V?$allocator@D@2@@std@@PEAX@std@@@1@PEAU01@@Z ; std::_Tree_node<std::basic_string<char,std::char_traits<char>,std::allocator<char> >,void *>::_Freenode0<std::allocator<std::_Tree_node<std::basic_string<char,std::char_traits<char>,std::allocator<char> >,void *> > >
PUBLIC	??$?0AEAPEAU?$_Tree_node@V?$basic_string@DU?$char_traits@D@std@@V?$allocator@D@2@@std@@PEAX@std@@AEAPEAU01@$0A@@?$pair@PEAU?$_Tree_node@V?$basic_string@DU?$char_traits@D@std@@V?$allocator@D@2@@std@@PEAX@std@@PEAU12@@std@@QEAA@AEAPEAU?$_Tree_node@V?$basic_string@DU?$char_traits@D@std@@V?$allocator@D@2@@std@@PEAX@1@0@Z ; std::pair<std::_Tree_node<std::basic_string<char,std::char_traits<char>,std::allocator<char> >,void *> *,std::_Tree_node<std::basic_string<char,std::char_traits<char>,std::allocator<char> >,void *> *>::pair<std::_Tree_node<std::basic_string<char,std::char_traits<char>,std::allocator<char> >,void *> *,std::_Tree_node<std::basic_string<char,std::char_traits<char>,std::allocator<char> >,void *> *><std::_Tree_node<std::basic_string<char,std::char_traits<char>,std::allocator<char> >,void *> * &,std::_Tree_node<std::basic_string<char,std::char_traits<char>,std::allocator<char> >,void *> * &,0>
PUBLIC	??$_Get_unwrapped@AEAV?$_Array_const_iterator@PEBD$00@std@@@std@@YA?A_TAEAV?$_Array_const_iterator@PEBD$00@0@@Z ; std::_Get_unwrapped<std::_Array_const_iterator<char const *,1> &>
PUBLIC	??$insert@V?$_Array_const_iterator@PEBD$00@std@@@?$_Tree@V?$_Tset_traits@V?$basic_string@DU?$char_traits@D@std@@V?$allocator@D@2@@std@@U?$less@V?$basic_string@DU?$char_traits@D@std@@V?$allocator@D@2@@std@@@2@V?$allocator@V?$basic_string@DU?$char_traits@D@std@@V?$allocator@D@2@@std@@@2@$0A@@std@@@std@@QEAAXV?$_Array_const_iterator@PEBD$00@1@0@Z ; std::_Tree<std::_Tset_traits<std::basic_string<char,std::char_traits<char>,std::allocator<char> >,std::less<std::basic_string<char,std::char_traits<char>,std::allocator<char> > >,std::allocator<std::basic_string<char,std::char_traits<char>,std::allocator<char> > >,0> >::insert<std::_Array_const_iterator<char const *,1> >
PUBLIC	?_Get_first@?$_Compressed_pair@V?$allocator@UVkExtensionProperties@@@std@@V?$_Vector_val@U?$_Simple_types@UVkExtensionProperties@@@std@@@2@$00@std@@QEBAAEBV?$allocator@UVkExtensionProperties@@@2@XZ ; std::_Compressed_pair<std::allocator<VkExtensionProperties>,std::_Vector_val<std::_Simple_types<VkExtensionProperties> >,1>::_Get_first
PUBLIC	?allocate@?$allocator@UVkExtensionProperties@@@std@@QEAAPEAUVkExtensionProperties@@_K@Z ; std::allocator<VkExtensionProperties>::allocate
PUBLIC	?max_size@?$_Default_allocator_traits@V?$allocator@UVkExtensionProperties@@@std@@@std@@SA_KAEBV?$allocator@UVkExtensionProperties@@@2@@Z ; std::_Default_allocator_traits<std::allocator<VkExtensionProperties> >::max_size
PUBLIC	?_Getal@?$vector@UVkExtensionProperties@@V?$allocator@UVkExtensionProperties@@@std@@@std@@AEBAAEBV?$allocator@UVkExtensionProperties@@@2@XZ ; std::vector<VkExtensionProperties,std::allocator<VkExtensionProperties> >::_Getal
PUBLIC	??0_Bxty@?$_String_val@U?$_Simple_types@D@std@@@std@@QEAA@XZ ; std::_String_val<std::_Simple_types<char> >::_Bxty::_Bxty
PUBLIC	?_Calculate_growth@?$basic_string@DU?$char_traits@D@std@@V?$allocator@D@2@@std@@CA_K_K00@Z ; std::basic_string<char,std::char_traits<char>,std::allocator<char> >::_Calculate_growth
PUBLIC	?max_size@?$vector@UVkExtensionProperties@@V?$allocator@UVkExtensionProperties@@@std@@@std@@QEBA_KXZ ; std::vector<VkExtensionProperties,std::allocator<VkExtensionProperties> >::max_size
PUBLIC	?_Buy_raw@?$vector@UVkExtensionProperties@@V?$allocator@UVkExtensionProperties@@@std@@@std@@AEAAX_K@Z ; std::vector<VkExtensionProperties,std::allocator<VkExtensionProperties> >::_Buy_raw
PUBLIC	?_Xlength@?$vector@UVkExtensionProperties@@V?$allocator@UVkExtensionProperties@@@std@@@std@@CAXXZ ; std::vector<VkExtensionProperties,std::allocator<VkExtensionProperties> >::_Xlength
PUBLIC	?_Alloc_sentinel_and_proxy@?$_Tree@V?$_Tset_traits@V?$basic_string@DU?$char_traits@D@std@@V?$allocator@D@2@@std@@U?$less@V?$basic_string@DU?$char_traits@D@std@@V?$allocator@D@2@@std@@@2@V?$allocator@V?$basic_string@DU?$char_traits@D@std@@V?$allocator@D@2@@std@@@2@$0A@@std@@@std@@IEAAXXZ ; std::_Tree<std::_Tset_traits<std::basic_string<char,std::char_traits<char>,std::allocator<char> >,std::less<std::basic_string<char,std::char_traits<char>,std::allocator<char> > >,std::allocator<std::basic_string<char,std::char_traits<char>,std::allocator<char> > >,0> >::_Alloc_sentinel_and_proxy
PUBLIC	?_Get_first@?$_Compressed_pair@U?$less@V?$basic_string@DU?$char_traits@D@std@@V?$allocator@D@2@@std@@@std@@V?$_Compressed_pair@V?$allocator@U?$_Tree_node@V?$basic_string@DU?$char_traits@D@std@@V?$allocator@D@2@@std@@PEAX@std@@@std@@V?$_Tree_val@U?$_Tree_simple_types@V?$basic_string@DU?$char_traits@D@std@@V?$allocator@D@2@@std@@@std@@@2@$00@2@$00@std@@QEBAAEBU?$less@V?$basic_string@DU?$char_traits@D@std@@V?$allocator@D@2@@std@@@2@XZ ; std::_Compressed_pair<std::less<std::basic_string<char,std::char_traits<char>,std::allocator<char> > >,std::_Compressed_pair<std::allocator<std::_Tree_node<std::basic_string<char,std::char_traits<char>,std::allocator<char> >,void *> >,std::_Tree_val<std::_Tree_simple_types<std::basic_string<char,std::char_traits<char>,std::allocator<char> > > >,1>,1>::_Get_first
PUBLIC	??0?$allocator@D@std@@QEAA@XZ			; std::allocator<char>::allocator<char>
PUBLIC	?compare@?$_Narrow_char_traits@DH@std@@SAHQEBD0_K@Z ; std::_Narrow_char_traits<char,int>::compare
PUBLIC	??0?$_String_val@U?$_Simple_types@D@std@@@std@@QEAA@XZ ; std::_String_val<std::_Simple_types<char> >::_String_val<std::_Simple_types<char> >
PUBLIC	?_Calculate_growth@?$basic_string@DU?$char_traits@D@std@@V?$allocator@D@2@@std@@AEBA_K_K@Z ; std::basic_string<char,std::char_traits<char>,std::allocator<char> >::_Calculate_growth
PUBLIC	??0?$allocator@UVkSurfaceFormatKHR@@@std@@QEAA@XZ ; std::allocator<VkSurfaceFormatKHR>::allocator<VkSurfaceFormatKHR>
PUBLIC	?_Orphan_range@?$vector@UVkSurfaceFormatKHR@@V?$allocator@UVkSurfaceFormatKHR@@@std@@@std@@AEBAXPEAUVkSurfaceFormatKHR@@0@Z ; std::vector<VkSurfaceFormatKHR,std::allocator<VkSurfaceFormatKHR> >::_Orphan_range
PUBLIC	??0?$_Vector_val@U?$_Simple_types@UVkSurfaceFormatKHR@@@std@@@std@@QEAA@XZ ; std::_Vector_val<std::_Simple_types<VkSurfaceFormatKHR> >::_Vector_val<std::_Simple_types<VkSurfaceFormatKHR> >
PUBLIC	??0?$_Vector_val@U?$_Simple_types@UVkSurfaceFormatKHR@@@std@@@std@@QEAA@PEAUVkSurfaceFormatKHR@@00@Z ; std::_Vector_val<std::_Simple_types<VkSurfaceFormatKHR> >::_Vector_val<std::_Simple_types<VkSurfaceFormatKHR> >
PUBLIC	??0?$allocator@W4VkPresentModeKHR@@@std@@QEAA@XZ ; std::allocator<enum VkPresentModeKHR>::allocator<enum VkPresentModeKHR>
PUBLIC	?_Orphan_range@?$vector@W4VkPresentModeKHR@@V?$allocator@W4VkPresentModeKHR@@@std@@@std@@AEBAXPEAW4VkPresentModeKHR@@0@Z ; std::vector<enum VkPresentModeKHR,std::allocator<enum VkPresentModeKHR> >::_Orphan_range
PUBLIC	??0?$_Vector_val@U?$_Simple_types@W4VkPresentModeKHR@@@std@@@std@@QEAA@XZ ; std::_Vector_val<std::_Simple_types<enum VkPresentModeKHR> >::_Vector_val<std::_Simple_types<enum VkPresentModeKHR> >
PUBLIC	??0?$_Vector_val@U?$_Simple_types@W4VkPresentModeKHR@@@std@@@std@@QEAA@PEAW4VkPresentModeKHR@@00@Z ; std::_Vector_val<std::_Simple_types<enum VkPresentModeKHR> >::_Vector_val<std::_Simple_types<enum VkPresentModeKHR> >
PUBLIC	?_Buy_nonzero@?$vector@UVkExtensionProperties@@V?$allocator@UVkExtensionProperties@@@std@@@std@@AEAAX_K@Z ; std::vector<VkExtensionProperties,std::allocator<VkExtensionProperties> >::_Buy_nonzero
PUBLIC	??0?$_Vector_val@U?$_Simple_types@UVkExtensionProperties@@@std@@@std@@QEAA@XZ ; std::_Vector_val<std::_Simple_types<VkExtensionProperties> >::_Vector_val<std::_Simple_types<VkExtensionProperties> >
PUBLIC	?_Kfn@?$_Tset_traits@V?$basic_string@DU?$char_traits@D@std@@V?$allocator@D@2@@std@@U?$less@V?$basic_string@DU?$char_traits@D@std@@V?$allocator@D@2@@std@@@2@V?$allocator@V?$basic_string@DU?$char_traits@D@std@@V?$allocator@D@2@@std@@@2@$0A@@std@@SAAEBV?$basic_string@DU?$char_traits@D@std@@V?$allocator@D@2@@2@AEBV32@@Z ; std::_Tset_traits<std::basic_string<char,std::char_traits<char>,std::allocator<char> >,std::less<std::basic_string<char,std::char_traits<char>,std::allocator<char> > >,std::allocator<std::basic_string<char,std::char_traits<char>,std::allocator<char> > >,0>::_Kfn
PUBLIC	??0?$_Tree@V?$_Tset_traits@V?$basic_string@DU?$char_traits@D@std@@V?$allocator@D@2@@std@@U?$less@V?$basic_string@DU?$char_traits@D@std@@V?$allocator@D@2@@std@@@2@V?$allocator@V?$basic_string@DU?$char_traits@D@std@@V?$allocator@D@2@@std@@@2@$0A@@std@@@std@@QEAA@AEBU?$less@V?$basic_string@DU?$char_traits@D@std@@V?$allocator@D@2@@std@@@1@@Z ; std::_Tree<std::_Tset_traits<std::basic_string<char,std::char_traits<char>,std::allocator<char> >,std::less<std::basic_string<char,std::char_traits<char>,std::allocator<char> > >,std::allocator<std::basic_string<char,std::char_traits<char>,std::allocator<char> > >,0> >::_Tree<std::_Tset_traits<std::basic_string<char,std::char_traits<char>,std::allocator<char> >,std::less<std::basic_string<char,std::char_traits<char>,std::allocator<char> > >,std::allocator<std::basic_string<char,std::char_traits<char>,std::allocator<char> > >,0> >
PUBLIC	?_Getcomp@?$_Tree@V?$_Tset_traits@V?$basic_string@DU?$char_traits@D@std@@V?$allocator@D@2@@std@@U?$less@V?$basic_string@DU?$char_traits@D@std@@V?$allocator@D@2@@std@@@2@V?$allocator@V?$basic_string@DU?$char_traits@D@std@@V?$allocator@D@2@@std@@@2@$0A@@std@@@std@@IEBAAEBU?$less@V?$basic_string@DU?$char_traits@D@std@@V?$allocator@D@2@@std@@@2@XZ ; std::_Tree<std::_Tset_traits<std::basic_string<char,std::char_traits<char>,std::allocator<char> >,std::less<std::basic_string<char,std::char_traits<char>,std::allocator<char> > >,std::allocator<std::basic_string<char,std::char_traits<char>,std::allocator<char> > >,0> >::_Getcomp
PUBLIC	??R?$less@V?$basic_string@DU?$char_traits@D@std@@V?$allocator@D@2@@std@@@std@@QEBA_NAEBV?$basic_string@DU?$char_traits@D@std@@V?$allocator@D@2@@1@0@Z ; std::less<std::basic_string<char,std::char_traits<char>,std::allocator<char> > >::operator()
PUBLIC	??1?$_Tidy_guard@V?$vector@UVkExtensionProperties@@V?$allocator@UVkExtensionProperties@@@std@@@std@@@std@@QEAA@XZ ; std::_Tidy_guard<std::vector<VkExtensionProperties,std::allocator<VkExtensionProperties> > >::~_Tidy_guard<std::vector<VkExtensionProperties,std::allocator<VkExtensionProperties> > >
PUBLIC	??$swap@D$0A@@std@@YAXAEAD0@Z			; std::swap<char,0>
PUBLIC	??$_Freenode@V?$allocator@U?$_Tree_node@V?$basic_string@DU?$char_traits@D@std@@V?$allocator@D@2@@std@@PEAX@std@@@std@@@?$_Tree_node@V?$basic_string@DU?$char_traits@D@std@@V?$allocator@D@2@@std@@PEAX@std@@SAXAEAV?$allocator@U?$_Tree_node@V?$basic_string@DU?$char_traits@D@std@@V?$allocator@D@2@@std@@PEAX@std@@@1@PEAU01@@Z ; std::_Tree_node<std::basic_string<char,std::char_traits<char>,std::allocator<char> >,void *>::_Freenode<std::allocator<std::_Tree_node<std::basic_string<char,std::char_traits<char>,std::allocator<char> >,void *> > >
PUBLIC	??$_Erase_tree@V?$allocator@U?$_Tree_node@V?$basic_string@DU?$char_traits@D@std@@V?$allocator@D@2@@std@@PEAX@std@@@std@@@?$_Tree_val@U?$_Tree_simple_types@V?$basic_string@DU?$char_traits@D@std@@V?$allocator@D@2@@std@@@std@@@std@@QEAAXAEAV?$allocator@U?$_Tree_node@V?$basic_string@DU?$char_traits@D@std@@V?$allocator@D@2@@std@@PEAX@std@@@1@PEAU?$_Tree_node@V?$basic_string@DU?$char_traits@D@std@@V?$allocator@D@2@@std@@PEAX@1@@Z ; std::_Tree_val<std::_Tree_simple_types<std::basic_string<char,std::char_traits<char>,std::allocator<char> > > >::_Erase_tree<std::allocator<std::_Tree_node<std::basic_string<char,std::char_traits<char>,std::allocator<char> >,void *> > >
PUBLIC	??$_Get_size_of_n@$00@std@@YA_K_K@Z		; std::_Get_size_of_n<1>
PUBLIC	??$addressof@V?$basic_string@DU?$char_traits@D@std@@V?$allocator@D@2@@std@@@std@@YAPEAV?$basic_string@DU?$char_traits@D@std@@V?$allocator@D@2@@0@AEAV10@@Z ; std::addressof<std::basic_string<char,std::char_traits<char>,std::allocator<char> > >
PUBLIC	??$_Unfancy@D@std@@YAPEADPEAD@Z			; std::_Unfancy<char>
PUBLIC	??$_Construct_in_place@PEADAEBQEAD@std@@YAXAEAPEADAEBQEAD@Z ; std::_Construct_in_place<char *,char * const &>
PUBLIC	??$_Reallocate_for@V<lambda_1>@?1??assign@?$basic_string@DU?$char_traits@D@std@@V?$allocator@D@2@@std@@QEAAAEAV34@QEBD_K@Z@PEBD@?$basic_string@DU?$char_traits@D@std@@V?$allocator@D@2@@std@@AEAAAEAV01@_KV<lambda_1>@?1??assign@01@QEAAAEAV01@QEBD0@Z@PEBD@Z ; std::basic_string<char,std::char_traits<char>,std::allocator<char> >::_Reallocate_for<`std::basic_string<char,std::char_traits<char>,std::allocator<char> >::assign'::`2'::<lambda_1>,char const *>
PUBLIC	??$_Destroy_in_place@PEAD@std@@YAXAEAPEAD@Z	; std::_Destroy_in_place<char *>
PUBLIC	??$_Destroy_range@V?$allocator@UVkSurfaceFormatKHR@@@std@@@std@@YAXPEAUVkSurfaceFormatKHR@@QEAU1@AEAV?$allocator@UVkSurfaceFormatKHR@@@0@@Z ; std::_Destroy_range<std::allocator<VkSurfaceFormatKHR> >
PUBLIC	??$_Destroy_range@V?$allocator@W4VkPresentModeKHR@@@std@@@std@@YAXPEAW4VkPresentModeKHR@@QEAW41@AEAV?$allocator@W4VkPresentModeKHR@@@0@@Z ; std::_Destroy_range<std::allocator<enum VkPresentModeKHR> >
PUBLIC	??$_Destroy_range@V?$allocator@UVkExtensionProperties@@@std@@@std@@YAXPEAUVkExtensionProperties@@QEAU1@AEAV?$allocator@UVkExtensionProperties@@@0@@Z ; std::_Destroy_range<std::allocator<VkExtensionProperties> >
PUBLIC	??$_Get_unwrapped@AEAV?$_Tree_unchecked_const_iterator@V?$_Tree_val@U?$_Tree_simple_types@V?$basic_string@DU?$char_traits@D@std@@V?$allocator@D@2@@std@@@std@@@std@@U_Iterator_base0@2@@std@@@std@@YA?A_TAEAV?$_Tree_unchecked_const_iterator@V?$_Tree_val@U?$_Tree_simple_types@V?$basic_string@DU?$char_traits@D@std@@V?$allocator@D@2@@std@@@std@@@std@@U_Iterator_base0@2@@0@@Z ; std::_Get_unwrapped<std::_Tree_unchecked_const_iterator<std::_Tree_val<std::_Tree_simple_types<std::basic_string<char,std::char_traits<char>,std::allocator<char> > > >,std::_Iterator_base0> &>
PUBLIC	??$distance@V?$_Tree_unchecked_const_iterator@V?$_Tree_val@U?$_Tree_simple_types@V?$basic_string@DU?$char_traits@D@std@@V?$allocator@D@2@@std@@@std@@@std@@U_Iterator_base0@2@@std@@@std@@YA_JV?$_Tree_unchecked_const_iterator@V?$_Tree_val@U?$_Tree_simple_types@V?$basic_string@DU?$char_traits@D@std@@V?$allocator@D@2@@std@@@std@@@std@@U_Iterator_base0@2@@0@0@Z ; std::distance<std::_Tree_unchecked_const_iterator<std::_Tree_val<std::_Tree_simple_types<std::basic_string<char,std::char_traits<char>,std::allocator<char> > > >,std::_Iterator_base0> >
PUBLIC	??$addressof@V?$_Tree_val@U?$_Tree_simple_types@V?$basic_string@DU?$char_traits@D@std@@V?$allocator@D@2@@std@@@std@@@std@@@std@@YAPEAV?$_Tree_val@U?$_Tree_simple_types@V?$basic_string@DU?$char_traits@D@std@@V?$allocator@D@2@@std@@@std@@@0@AEAV10@@Z ; std::addressof<std::_Tree_val<std::_Tree_simple_types<std::basic_string<char,std::char_traits<char>,std::allocator<char> > > > >
PUBLIC	??$addressof@$$CBV?$_Tree_val@U?$_Tree_simple_types@V?$basic_string@DU?$char_traits@D@std@@V?$allocator@D@2@@std@@@std@@@std@@@std@@YAPEBV?$_Tree_val@U?$_Tree_simple_types@V?$basic_string@DU?$char_traits@D@std@@V?$allocator@D@2@@std@@@std@@@0@AEBV10@@Z ; std::addressof<std::_Tree_val<std::_Tree_simple_types<std::basic_string<char,std::char_traits<char>,std::allocator<char> > > > const >
PUBLIC	??$?0$$V@?$_Compressed_pair@V?$allocator@D@std@@V?$_String_val@U?$_Simple_types@D@std@@@2@$00@std@@QEAA@U_Zero_then_variadic_args_t@1@@Z ; std::_Compressed_pair<std::allocator<char>,std::_String_val<std::_Simple_types<char> >,1>::_Compressed_pair<std::allocator<char>,std::_String_val<std::_Simple_types<char> >,1><>
PUBLIC	??$_Convert_size@_K@std@@YA_K_K@Z		; std::_Convert_size<unsigned __int64>
PUBLIC	??$_Traits_compare@U?$char_traits@D@std@@@std@@YAHQEBD_K01@Z ; std::_Traits_compare<std::char_traits<char> >
PUBLIC	??$?0$$V@?$_Compressed_pair@V?$allocator@UVkSurfaceFormatKHR@@@std@@V?$_Vector_val@U?$_Simple_types@UVkSurfaceFormatKHR@@@std@@@2@$00@std@@QEAA@U_Zero_then_variadic_args_t@1@@Z ; std::_Compressed_pair<std::allocator<VkSurfaceFormatKHR>,std::_Vector_val<std::_Simple_types<VkSurfaceFormatKHR> >,1>::_Compressed_pair<std::allocator<VkSurfaceFormatKHR>,std::_Vector_val<std::_Simple_types<VkSurfaceFormatKHR> >,1><>
PUBLIC	??$?0V?$allocator@UVkSurfaceFormatKHR@@@std@@PEAUVkSurfaceFormatKHR@@PEAU2@PEAU2@@?$_Compressed_pair@V?$allocator@UVkSurfaceFormatKHR@@@std@@V?$_Vector_val@U?$_Simple_types@UVkSurfaceFormatKHR@@@std@@@2@$00@std@@QEAA@U_One_then_variadic_args_t@1@$$QEAV?$allocator@UVkSurfaceFormatKHR@@@1@$$QEAPEAUVkSurfaceFormatKHR@@22@Z ; std::_Compressed_pair<std::allocator<VkSurfaceFormatKHR>,std::_Vector_val<std::_Simple_types<VkSurfaceFormatKHR> >,1>::_Compressed_pair<std::allocator<VkSurfaceFormatKHR>,std::_Vector_val<std::_Simple_types<VkSurfaceFormatKHR> >,1><std::allocator<VkSurfaceFormatKHR>,VkSurfaceFormatKHR *,VkSurfaceFormatKHR *,VkSurfaceFormatKHR *>
PUBLIC	??$exchange@PEAUVkSurfaceFormatKHR@@$$T@std@@YAPEAUVkSurfaceFormatKHR@@AEAPEAU1@$$QEA$$T@Z ; std::exchange<VkSurfaceFormatKHR *,std::nullptr_t>
PUBLIC	??$move@AEAV?$allocator@UVkSurfaceFormatKHR@@@std@@@std@@YA$$QEAV?$allocator@UVkSurfaceFormatKHR@@@0@AEAV10@@Z ; std::move<std::allocator<VkSurfaceFormatKHR> &>
PUBLIC	??$_Resize@U_Value_init_tag@std@@@?$vector@UVkSurfaceFormatKHR@@V?$allocator@UVkSurfaceFormatKHR@@@std@@@std@@AEAAX_KAEBU_Value_init_tag@1@@Z ; std::vector<VkSurfaceFormatKHR,std::allocator<VkSurfaceFormatKHR> >::_Resize<std::_Value_init_tag>
PUBLIC	??$_Unfancy_maybe_null@UVkSurfaceFormatKHR@@@std@@YAPEAUVkSurfaceFormatKHR@@PEAU1@@Z ; std::_Unfancy_maybe_null<VkSurfaceFormatKHR>
PUBLIC	??$?0$$V@?$_Compressed_pair@V?$allocator@W4VkPresentModeKHR@@@std@@V?$_Vector_val@U?$_Simple_types@W4VkPresentModeKHR@@@std@@@2@$00@std@@QEAA@U_Zero_then_variadic_args_t@1@@Z ; std::_Compressed_pair<std::allocator<enum VkPresentModeKHR>,std::_Vector_val<std::_Simple_types<enum VkPresentModeKHR> >,1>::_Compressed_pair<std::allocator<enum VkPresentModeKHR>,std::_Vector_val<std::_Simple_types<enum VkPresentModeKHR> >,1><>
PUBLIC	??$?0V?$allocator@W4VkPresentModeKHR@@@std@@PEAW4VkPresentModeKHR@@PEAW42@PEAW42@@?$_Compressed_pair@V?$allocator@W4VkPresentModeKHR@@@std@@V?$_Vector_val@U?$_Simple_types@W4VkPresentModeKHR@@@std@@@2@$00@std@@QEAA@U_One_then_variadic_args_t@1@$$QEAV?$allocator@W4VkPresentModeKHR@@@1@$$QEAPEAW4VkPresentModeKHR@@22@Z ; std::_Compressed_pair<std::allocator<enum VkPresentModeKHR>,std::_Vector_val<std::_Simple_types<enum VkPresentModeKHR> >,1>::_Compressed_pair<std::allocator<enum VkPresentModeKHR>,std::_Vector_val<std::_Simple_types<enum VkPresentModeKHR> >,1><std::allocator<enum VkPresentModeKHR>,enum VkPresentModeKHR *,enum VkPresentModeKHR *,enum VkPresentModeKHR *>
PUBLIC	??$exchange@PEAW4VkPresentModeKHR@@$$T@std@@YAPEAW4VkPresentModeKHR@@AEAPEAW41@$$QEA$$T@Z ; std::exchange<enum VkPresentModeKHR *,std::nullptr_t>
PUBLIC	??$move@AEAV?$allocator@W4VkPresentModeKHR@@@std@@@std@@YA$$QEAV?$allocator@W4VkPresentModeKHR@@@0@AEAV10@@Z ; std::move<std::allocator<enum VkPresentModeKHR> &>
PUBLIC	??$_Resize@U_Value_init_tag@std@@@?$vector@W4VkPresentModeKHR@@V?$allocator@W4VkPresentModeKHR@@@std@@@std@@AEAAX_KAEBU_Value_init_tag@1@@Z ; std::vector<enum VkPresentModeKHR,std::allocator<enum VkPresentModeKHR> >::_Resize<std::_Value_init_tag>
PUBLIC	??$_Unfancy_maybe_null@W4VkPresentModeKHR@@@std@@YAPEAW4VkPresentModeKHR@@PEAW41@@Z ; std::_Unfancy_maybe_null<enum VkPresentModeKHR>
PUBLIC	??$_Construct_n@$$V@?$vector@UVkExtensionProperties@@V?$allocator@UVkExtensionProperties@@@std@@@std@@AEAAX_K@Z ; std::vector<VkExtensionProperties,std::allocator<VkExtensionProperties> >::_Construct_n<>
PUBLIC	??$?0AEBV?$allocator@UVkExtensionProperties@@@std@@$$V@?$_Compressed_pair@V?$allocator@UVkExtensionProperties@@@std@@V?$_Vector_val@U?$_Simple_types@UVkExtensionProperties@@@std@@@2@$00@std@@QEAA@U_One_then_variadic_args_t@1@AEBV?$allocator@UVkExtensionProperties@@@1@@Z ; std::_Compressed_pair<std::allocator<VkExtensionProperties>,std::_Vector_val<std::_Simple_types<VkExtensionProperties> >,1>::_Compressed_pair<std::allocator<VkExtensionProperties>,std::_Vector_val<std::_Simple_types<VkExtensionProperties> >,1><std::allocator<VkExtensionProperties> const &>
PUBLIC	??$_Unfancy_maybe_null@UVkExtensionProperties@@@std@@YAPEAUVkExtensionProperties@@PEAU1@@Z ; std::_Unfancy_maybe_null<VkExtensionProperties>
PUBLIC	??$_Erase_head@V?$allocator@U?$_Tree_node@V?$basic_string@DU?$char_traits@D@std@@V?$allocator@D@2@@std@@PEAX@std@@@std@@@?$_Tree_val@U?$_Tree_simple_types@V?$basic_string@DU?$char_traits@D@std@@V?$allocator@D@2@@std@@@std@@@std@@QEAAXAEAV?$allocator@U?$_Tree_node@V?$basic_string@DU?$char_traits@D@std@@V?$allocator@D@2@@std@@PEAX@std@@@1@@Z ; std::_Tree_val<std::_Tree_simple_types<std::basic_string<char,std::char_traits<char>,std::allocator<char> > > >::_Erase_head<std::allocator<std::_Tree_node<std::basic_string<char,std::char_traits<char>,std::allocator<char> >,void *> > >
PUBLIC	??$_Eqrange@V?$basic_string@DU?$char_traits@D@std@@V?$allocator@D@2@@std@@@?$_Tree@V?$_Tset_traits@V?$basic_string@DU?$char_traits@D@std@@V?$allocator@D@2@@std@@U?$less@V?$basic_string@DU?$char_traits@D@std@@V?$allocator@D@2@@std@@@2@V?$allocator@V?$basic_string@DU?$char_traits@D@std@@V?$allocator@D@2@@std@@@2@$0A@@std@@@std@@IEBA?AU?$pair@PEAU?$_Tree_node@V?$basic_string@DU?$char_traits@D@std@@V?$allocator@D@2@@std@@PEAX@std@@PEAU12@@1@AEBV?$basic_string@DU?$char_traits@D@std@@V?$allocator@D@2@@1@@Z ; std::_Tree<std::_Tset_traits<std::basic_string<char,std::char_traits<char>,std::allocator<char> >,std::less<std::basic_string<char,std::char_traits<char>,std::allocator<char> > >,std::allocator<std::basic_string<char,std::char_traits<char>,std::allocator<char> > >,0> >::_Eqrange<std::basic_string<char,std::char_traits<char>,std::allocator<char> > >
PUBLIC	??$?0V?$_Array_const_iterator@PEBD$00@std@@@?$set@V?$basic_string@DU?$char_traits@D@std@@V?$allocator@D@2@@std@@U?$less@V?$basic_string@DU?$char_traits@D@std@@V?$allocator@D@2@@std@@@2@V?$allocator@V?$basic_string@DU?$char_traits@D@std@@V?$allocator@D@2@@std@@@2@@std@@QEAA@V?$_Array_const_iterator@PEBD$00@1@0@Z ; std::set<std::basic_string<char,std::char_traits<char>,std::allocator<char> >,std::less<std::basic_string<char,std::char_traits<char>,std::allocator<char> > >,std::allocator<std::basic_string<char,std::char_traits<char>,std::allocator<char> > > >::set<std::basic_string<char,std::char_traits<char>,std::allocator<char> >,std::less<std::basic_string<char,std::char_traits<char>,std::allocator<char> > >,std::allocator<std::basic_string<char,std::char_traits<char>,std::allocator<char> > > ><std::_Array_const_iterator<char const *,1> >
PUBLIC	??$get@$00IPEAPEAUVkPhysicalDevice_T@@@std@@YA$$QEAPEAPEAUVkPhysicalDevice_T@@$$QEAV?$tuple@IPEAPEAUVkPhysicalDevice_T@@@0@@Z ; std::get<1,unsigned int,VkPhysicalDevice_T * *>
PUBLIC	??$get@$0A@IPEAPEAUVkPhysicalDevice_T@@@std@@YA$$QEAI$$QEAV?$tuple@IPEAPEAUVkPhysicalDevice_T@@@0@@Z ; std::get<0,unsigned int,VkPhysicalDevice_T * *>
PUBLIC	??$<move>@AEAV?$tuple@IPEAPEAUVkPhysicalDevice_T@@@std@@@@YA$$QEAV?$tuple@IPEAPEAUVkPhysicalDevice_T@@@std@@AEAV01@@Z ; <move><std::tuple<unsigned int,VkPhysicalDevice_T * *> &>
PUBLIC	?_Max@?$_Tree_val@U?$_Tree_simple_types@V?$basic_string@DU?$char_traits@D@std@@V?$allocator@D@2@@std@@@std@@@std@@SAPEAU?$_Tree_node@V?$basic_string@DU?$char_traits@D@std@@V?$allocator@D@2@@std@@PEAX@2@PEAU32@@Z ; std::_Tree_val<std::_Tree_simple_types<std::basic_string<char,std::char_traits<char>,std::allocator<char> > > >::_Max
PUBLIC	?_Min@?$_Tree_val@U?$_Tree_simple_types@V?$basic_string@DU?$char_traits@D@std@@V?$allocator@D@2@@std@@@std@@@std@@SAPEAU?$_Tree_node@V?$basic_string@DU?$char_traits@D@std@@V?$allocator@D@2@@std@@PEAX@2@PEAU32@@Z ; std::_Tree_val<std::_Tree_simple_types<std::basic_string<char,std::char_traits<char>,std::allocator<char> > > >::_Min
PUBLIC	?_Lrotate@?$_Tree_val@U?$_Tree_simple_types@V?$basic_string@DU?$char_traits@D@std@@V?$allocator@D@2@@std@@@std@@@std@@QEAAXPEAU?$_Tree_node@V?$basic_string@DU?$char_traits@D@std@@V?$allocator@D@2@@std@@PEAX@2@@Z ; std::_Tree_val<std::_Tree_simple_types<std::basic_string<char,std::char_traits<char>,std::allocator<char> > > >::_Lrotate
PUBLIC	?_Rrotate@?$_Tree_val@U?$_Tree_simple_types@V?$basic_string@DU?$char_traits@D@std@@V?$allocator@D@2@@std@@@std@@@std@@QEAAXPEAU?$_Tree_node@V?$basic_string@DU?$char_traits@D@std@@V?$allocator@D@2@@std@@PEAX@2@@Z ; std::_Tree_val<std::_Tree_simple_types<std::basic_string<char,std::char_traits<char>,std::allocator<char> > > >::_Rrotate
PUBLIC	?_Extract@?$_Tree_val@U?$_Tree_simple_types@V?$basic_string@DU?$char_traits@D@std@@V?$allocator@D@2@@std@@@std@@@std@@QEAAPEAU?$_Tree_node@V?$basic_string@DU?$char_traits@D@std@@V?$allocator@D@2@@std@@PEAX@2@V?$_Tree_unchecked_const_iterator@V?$_Tree_val@U?$_Tree_simple_types@V?$basic_string@DU?$char_traits@D@std@@V?$allocator@D@2@@std@@@std@@@std@@U_Iterator_base0@2@@2@@Z ; std::_Tree_val<std::_Tree_simple_types<std::basic_string<char,std::char_traits<char>,std::allocator<char> > > >::_Extract
PUBLIC	?_Orphan_ptr@?$_Tree_val@U?$_Tree_simple_types@V?$basic_string@DU?$char_traits@D@std@@V?$allocator@D@2@@std@@@std@@@std@@QEAAXQEAU?$_Tree_node@V?$basic_string@DU?$char_traits@D@std@@V?$allocator@D@2@@std@@PEAX@2@@Z ; std::_Tree_val<std::_Tree_simple_types<std::basic_string<char,std::char_traits<char>,std::allocator<char> > > >::_Orphan_ptr
PUBLIC	??E?$_Tree_unchecked_const_iterator@V?$_Tree_val@U?$_Tree_simple_types@V?$basic_string@DU?$char_traits@D@std@@V?$allocator@D@2@@std@@@std@@@std@@U_Iterator_base0@2@@std@@QEAAAEAV01@XZ ; std::_Tree_unchecked_const_iterator<std::_Tree_val<std::_Tree_simple_types<std::basic_string<char,std::char_traits<char>,std::allocator<char> > > >,std::_Iterator_base0>::operator++
PUBLIC	?max_size@?$_Default_allocator_traits@V?$allocator@D@std@@@std@@SA_KAEBV?$allocator@D@2@@Z ; std::_Default_allocator_traits<std::allocator<char> >::max_size
PUBLIC	?_Get_first@?$_Compressed_pair@V?$allocator@UVkExtensionProperties@@@std@@V?$_Vector_val@U?$_Simple_types@UVkExtensionProperties@@@std@@@2@$00@std@@QEAAAEAV?$allocator@UVkExtensionProperties@@@2@XZ ; std::_Compressed_pair<std::allocator<VkExtensionProperties>,std::_Vector_val<std::_Simple_types<VkExtensionProperties> >,1>::_Get_first
PUBLIC	?_Unchecked_begin@?$_Tree@V?$_Tset_traits@V?$basic_string@DU?$char_traits@D@std@@V?$allocator@D@2@@std@@U?$less@V?$basic_string@DU?$char_traits@D@std@@V?$allocator@D@2@@std@@@2@V?$allocator@V?$basic_string@DU?$char_traits@D@std@@V?$allocator@D@2@@std@@@2@$0A@@std@@@std@@QEAA?AV?$_Tree_unchecked_const_iterator@V?$_Tree_val@U?$_Tree_simple_types@V?$basic_string@DU?$char_traits@D@std@@V?$allocator@D@2@@std@@@std@@@std@@U_Iterator_base0@2@@2@XZ ; std::_Tree<std::_Tset_traits<std::basic_string<char,std::char_traits<char>,std::allocator<char> >,std::less<std::basic_string<char,std::char_traits<char>,std::allocator<char> > >,std::allocator<std::basic_string<char,std::char_traits<char>,std::allocator<char> > >,0> >::_Unchecked_begin
PUBLIC	?_Erase_unchecked@?$_Tree@V?$_Tset_traits@V?$basic_string@DU?$char_traits@D@std@@V?$allocator@D@2@@std@@U?$less@V?$basic_string@DU?$char_traits@D@std@@V?$allocator@D@2@@std@@@2@V?$allocator@V?$basic_string@DU?$char_traits@D@std@@V?$allocator@D@2@@std@@@2@$0A@@std@@@std@@AEAAPEAU?$_Tree_node@V?$basic_string@DU?$char_traits@D@std@@V?$allocator@D@2@@std@@PEAX@2@V?$_Tree_unchecked_const_iterator@V?$_Tree_val@U?$_Tree_simple_types@V?$basic_string@DU?$char_traits@D@std@@V?$allocator@D@2@@std@@@std@@@std@@U_Iterator_base0@2@@2@@Z ; std::_Tree<std::_Tset_traits<std::basic_string<char,std::char_traits<char>,std::allocator<char> >,std::less<std::basic_string<char,std::char_traits<char>,std::allocator<char> > >,std::allocator<std::basic_string<char,std::char_traits<char>,std::allocator<char> > >,0> >::_Erase_unchecked
PUBLIC	?clear@?$_Tree@V?$_Tset_traits@V?$basic_string@DU?$char_traits@D@std@@V?$allocator@D@2@@std@@U?$less@V?$basic_string@DU?$char_traits@D@std@@V?$allocator@D@2@@std@@@2@V?$allocator@V?$basic_string@DU?$char_traits@D@std@@V?$allocator@D@2@@std@@@2@$0A@@std@@@std@@QEAAXXZ ; std::_Tree<std::_Tset_traits<std::basic_string<char,std::char_traits<char>,std::allocator<char> >,std::less<std::basic_string<char,std::char_traits<char>,std::allocator<char> > >,std::allocator<std::basic_string<char,std::char_traits<char>,std::allocator<char> > >,0> >::clear
PUBLIC	??E?$_Tree_unchecked_const_iterator@V?$_Tree_val@U?$_Tree_simple_types@V?$basic_string@DU?$char_traits@D@std@@V?$allocator@D@2@@std@@@std@@@std@@U_Iterator_base0@2@@std@@QEAA?AV01@H@Z ; std::_Tree_unchecked_const_iterator<std::_Tree_val<std::_Tree_simple_types<std::basic_string<char,std::char_traits<char>,std::allocator<char> > > >,std::_Iterator_base0>::operator++
PUBLIC	??8?$_Tree_unchecked_const_iterator@V?$_Tree_val@U?$_Tree_simple_types@V?$basic_string@DU?$char_traits@D@std@@V?$allocator@D@2@@std@@@std@@@std@@U_Iterator_base0@2@@std@@QEBA_NAEBV01@@Z ; std::_Tree_unchecked_const_iterator<std::_Tree_val<std::_Tree_simple_types<std::basic_string<char,std::char_traits<char>,std::allocator<char> > > >,std::_Iterator_base0>::operator==
PUBLIC	??9?$_Tree_unchecked_const_iterator@V?$_Tree_val@U?$_Tree_simple_types@V?$basic_string@DU?$char_traits@D@std@@V?$allocator@D@2@@std@@@std@@@std@@U_Iterator_base0@2@@std@@QEBA_NAEBV01@@Z ; std::_Tree_unchecked_const_iterator<std::_Tree_val<std::_Tree_simple_types<std::basic_string<char,std::char_traits<char>,std::allocator<char> > > >,std::_Iterator_base0>::operator!=
PUBLIC	?deallocate@?$allocator@D@std@@QEAAXQEAD_K@Z	; std::allocator<char>::deallocate
PUBLIC	?allocate@?$allocator@D@std@@QEAAPEAD_K@Z	; std::allocator<char>::allocate
PUBLIC	?move@?$_Char_traits@DH@std@@SAPEADQEADQEBD_K@Z	; std::_Char_traits<char,int>::move
PUBLIC	?assign@?$_Narrow_char_traits@DH@std@@SAXAEADAEBD@Z ; std::_Narrow_char_traits<char,int>::assign
PUBLIC	?_Myptr@?$_String_val@U?$_Simple_types@D@std@@@std@@QEAAPEADXZ ; std::_String_val<std::_Simple_types<char> >::_Myptr
PUBLIC	?_Large_string_engaged@?$_String_val@U?$_Simple_types@D@std@@@std@@QEBA_NXZ ; std::_String_val<std::_Simple_types<char> >::_Large_string_engaged
PUBLIC	?max_size@?$basic_string@DU?$char_traits@D@std@@V?$allocator@D@2@@std@@QEBA_KXZ ; std::basic_string<char,std::char_traits<char>,std::allocator<char> >::max_size
PUBLIC	?_Get_first@?$_Compressed_pair@V?$allocator@D@std@@V?$_String_val@U?$_Simple_types@D@std@@@2@$00@std@@QEAAAEAV?$allocator@D@2@XZ ; std::_Compressed_pair<std::allocator<char>,std::_String_val<std::_Simple_types<char> >,1>::_Get_first
PUBLIC	?_Get_first@?$_Compressed_pair@V?$allocator@D@std@@V?$_String_val@U?$_Simple_types@D@std@@@2@$00@std@@QEBAAEBV?$allocator@D@2@XZ ; std::_Compressed_pair<std::allocator<char>,std::_String_val<std::_Simple_types<char> >,1>::_Get_first
PUBLIC	?deallocate@?$allocator@UVkSurfaceFormatKHR@@@std@@QEAAXQEAUVkSurfaceFormatKHR@@_K@Z ; std::allocator<VkSurfaceFormatKHR>::deallocate
PUBLIC	?_Get_first@?$_Compressed_pair@V?$allocator@UVkSurfaceFormatKHR@@@std@@V?$_Vector_val@U?$_Simple_types@UVkSurfaceFormatKHR@@@std@@@2@$00@std@@QEAAAEAV?$allocator@UVkSurfaceFormatKHR@@@2@XZ ; std::_Compressed_pair<std::allocator<VkSurfaceFormatKHR>,std::_Vector_val<std::_Simple_types<VkSurfaceFormatKHR> >,1>::_Get_first
PUBLIC	?deallocate@?$allocator@W4VkPresentModeKHR@@@std@@QEAAXQEAW4VkPresentModeKHR@@_K@Z ; std::allocator<enum VkPresentModeKHR>::deallocate
PUBLIC	?_Get_first@?$_Compressed_pair@V?$allocator@W4VkPresentModeKHR@@@std@@V?$_Vector_val@U?$_Simple_types@W4VkPresentModeKHR@@@std@@@2@$00@std@@QEAAAEAV?$allocator@W4VkPresentModeKHR@@@2@XZ ; std::_Compressed_pair<std::allocator<enum VkPresentModeKHR>,std::_Vector_val<std::_Simple_types<enum VkPresentModeKHR> >,1>::_Get_first
PUBLIC	??$max@_K@std@@YAAEB_KAEB_K0@Z			; std::max<unsigned __int64>
PUBLIC	?deallocate@?$allocator@UVkExtensionProperties@@@std@@QEAAXQEAUVkExtensionProperties@@_K@Z ; std::allocator<VkExtensionProperties>::deallocate
PUBLIC	?_Getal@?$vector@UVkExtensionProperties@@V?$allocator@UVkExtensionProperties@@@std@@@std@@AEAAAEAV?$allocator@UVkExtensionProperties@@@2@XZ ; std::vector<VkExtensionProperties,std::allocator<VkExtensionProperties> >::_Getal
PUBLIC	?_Erase_unchecked@?$_Tree@V?$_Tset_traits@V?$basic_string@DU?$char_traits@D@std@@V?$allocator@D@2@@std@@U?$less@V?$basic_string@DU?$char_traits@D@std@@V?$allocator@D@2@@std@@@2@V?$allocator@V?$basic_string@DU?$char_traits@D@std@@V?$allocator@D@2@@std@@@2@$0A@@std@@@std@@AEAAPEAU?$_Tree_node@V?$basic_string@DU?$char_traits@D@std@@V?$allocator@D@2@@std@@PEAX@2@V?$_Tree_unchecked_const_iterator@V?$_Tree_val@U?$_Tree_simple_types@V?$basic_string@DU?$char_traits@D@std@@V?$allocator@D@2@@std@@@std@@@std@@U_Iterator_base0@2@@2@0@Z ; std::_Tree<std::_Tset_traits<std::basic_string<char,std::char_traits<char>,std::allocator<char> >,std::less<std::basic_string<char,std::char_traits<char>,std::allocator<char> > >,std::allocator<std::basic_string<char,std::char_traits<char>,std::allocator<char> > >,0> >::_Erase_unchecked
PUBLIC	?_Get_first@?$_Compressed_pair@V?$allocator@U?$_Tree_node@V?$basic_string@DU?$char_traits@D@std@@V?$allocator@D@2@@std@@PEAX@std@@@std@@V?$_Tree_val@U?$_Tree_simple_types@V?$basic_string@DU?$char_traits@D@std@@V?$allocator@D@2@@std@@@std@@@2@$00@std@@QEAAAEAV?$allocator@U?$_Tree_node@V?$basic_string@DU?$char_traits@D@std@@V?$allocator@D@2@@std@@PEAX@std@@@2@XZ ; std::_Compressed_pair<std::allocator<std::_Tree_node<std::basic_string<char,std::char_traits<char>,std::allocator<char> >,void *> >,std::_Tree_val<std::_Tree_simple_types<std::basic_string<char,std::char_traits<char>,std::allocator<char> > > >,1>::_Get_first
PUBLIC	??0?$_Tree_unchecked_const_iterator@V?$_Tree_val@U?$_Tree_simple_types@V?$basic_string@DU?$char_traits@D@std@@V?$allocator@D@2@@std@@@std@@@std@@U_Iterator_base0@2@@std@@QEAA@PEAU?$_Tree_node@V?$basic_string@DU?$char_traits@D@std@@V?$allocator@D@2@@std@@PEAX@1@PEBV?$_Tree_val@U?$_Tree_simple_types@V?$basic_string@DU?$char_traits@D@std@@V?$allocator@D@2@@std@@@std@@@1@@Z ; std::_Tree_unchecked_const_iterator<std::_Tree_val<std::_Tree_simple_types<std::basic_string<char,std::char_traits<char>,std::allocator<char> > > >,std::_Iterator_base0>::_Tree_unchecked_const_iterator<std::_Tree_val<std::_Tree_simple_types<std::basic_string<char,std::char_traits<char>,std::allocator<char> > > >,std::_Iterator_base0>
PUBLIC	?__autoclassinit2@?$_Tree_unchecked_const_iterator@V?$_Tree_val@U?$_Tree_simple_types@V?$basic_string@DU?$char_traits@D@std@@V?$allocator@D@2@@std@@@std@@@std@@U_Iterator_base0@2@@std@@QEAAX_K@Z ; std::_Tree_unchecked_const_iterator<std::_Tree_val<std::_Tree_simple_types<std::basic_string<char,std::char_traits<char>,std::allocator<char> > > >,std::_Iterator_base0>::__autoclassinit2
PUBLIC	?copy@?$_Char_traits@DH@std@@SAPEADQEADQEBD_K@Z	; std::_Char_traits<char,int>::copy
PUBLIC	?length@?$_Narrow_char_traits@DH@std@@SA_KQEBD@Z ; std::_Narrow_char_traits<char,int>::length
PUBLIC	?_Myptr@?$_String_val@U?$_Simple_types@D@std@@@std@@QEBAPEBDXZ ; std::_String_val<std::_Simple_types<char> >::_Myptr
PUBLIC	??1_Bxty@?$_String_val@U?$_Simple_types@D@std@@@std@@QEAA@XZ ; std::_String_val<std::_Simple_types<char> >::_Bxty::~_Bxty
PUBLIC	??R<lambda_1>@?1??assign@?$basic_string@DU?$char_traits@D@std@@V?$allocator@D@2@@std@@QEAAAEAV23@QEBD_K@Z@QEBA@QEAD10@Z ; `std::basic_string<char,std::char_traits<char>,std::allocator<char> >::assign'::`2'::<lambda_1>::operator()
PUBLIC	?assign@?$basic_string@DU?$char_traits@D@std@@V?$allocator@D@2@@std@@QEAAAEAV12@QEBD_K@Z ; std::basic_string<char,std::char_traits<char>,std::allocator<char> >::assign
PUBLIC	?assign@?$basic_string@DU?$char_traits@D@std@@V?$allocator@D@2@@std@@QEAAAEAV12@QEBD@Z ; std::basic_string<char,std::char_traits<char>,std::allocator<char> >::assign
PUBLIC	?_Tidy_init@?$basic_string@DU?$char_traits@D@std@@V?$allocator@D@2@@std@@AEAAXXZ ; std::basic_string<char,std::char_traits<char>,std::allocator<char> >::_Tidy_init
PUBLIC	?_Tidy_deallocate@?$basic_string@DU?$char_traits@D@std@@V?$allocator@D@2@@std@@AEAAXXZ ; std::basic_string<char,std::char_traits<char>,std::allocator<char> >::_Tidy_deallocate
PUBLIC	?_Getal@?$basic_string@DU?$char_traits@D@std@@V?$allocator@D@2@@std@@AEAAAEAV?$allocator@D@2@XZ ; std::basic_string<char,std::char_traits<char>,std::allocator<char> >::_Getal
PUBLIC	?_Getal@?$basic_string@DU?$char_traits@D@std@@V?$allocator@D@2@@std@@AEBAAEBV?$allocator@D@2@XZ ; std::basic_string<char,std::char_traits<char>,std::allocator<char> >::_Getal
PUBLIC	?_Tidy@?$vector@UVkSurfaceFormatKHR@@V?$allocator@UVkSurfaceFormatKHR@@@std@@@std@@AEAAXXZ ; std::vector<VkSurfaceFormatKHR,std::allocator<VkSurfaceFormatKHR> >::_Tidy
PUBLIC	?_Getal@?$vector@UVkSurfaceFormatKHR@@V?$allocator@UVkSurfaceFormatKHR@@@std@@@std@@AEAAAEAV?$allocator@UVkSurfaceFormatKHR@@@2@XZ ; std::vector<VkSurfaceFormatKHR,std::allocator<VkSurfaceFormatKHR> >::_Getal
PUBLIC	?_Tidy@?$vector@W4VkPresentModeKHR@@V?$allocator@W4VkPresentModeKHR@@@std@@@std@@AEAAXXZ ; std::vector<enum VkPresentModeKHR,std::allocator<enum VkPresentModeKHR> >::_Tidy
PUBLIC	?_Getal@?$vector@W4VkPresentModeKHR@@V?$allocator@W4VkPresentModeKHR@@@std@@@std@@AEAAAEAV?$allocator@W4VkPresentModeKHR@@@2@XZ ; std::vector<enum VkPresentModeKHR,std::allocator<enum VkPresentModeKHR> >::_Getal
PUBLIC	?_Tidy@?$vector@UVkExtensionProperties@@V?$allocator@UVkExtensionProperties@@@std@@@std@@AEAAXXZ ; std::vector<VkExtensionProperties,std::allocator<VkExtensionProperties> >::_Tidy
PUBLIC	?_Erase@?$_Tree@V?$_Tset_traits@V?$basic_string@DU?$char_traits@D@std@@V?$allocator@D@2@@std@@U?$less@V?$basic_string@DU?$char_traits@D@std@@V?$allocator@D@2@@std@@@2@V?$allocator@V?$basic_string@DU?$char_traits@D@std@@V?$allocator@D@2@@std@@@2@$0A@@std@@@std@@AEAA_KU?$pair@PEAU?$_Tree_node@V?$basic_string@DU?$char_traits@D@std@@V?$allocator@D@2@@std@@PEAX@std@@PEAU12@@2@@Z ; std::_Tree<std::_Tset_traits<std::basic_string<char,std::char_traits<char>,std::allocator<char> >,std::less<std::basic_string<char,std::char_traits<char>,std::allocator<char> > >,std::allocator<std::basic_string<char,std::char_traits<char>,std::allocator<char> > >,0> >::_Erase
PUBLIC	?_Getal@?$_Tree@V?$_Tset_traits@V?$basic_string@DU?$char_traits@D@std@@V?$allocator@D@2@@std@@U?$less@V?$basic_string@DU?$char_traits@D@std@@V?$allocator@D@2@@std@@@2@V?$allocator@V?$basic_string@DU?$char_traits@D@std@@V?$allocator@D@2@@std@@@2@$0A@@std@@@std@@IEAAAEAV?$allocator@U?$_Tree_node@V?$basic_string@DU?$char_traits@D@std@@V?$allocator@D@2@@std@@PEAX@std@@@2@XZ ; std::_Tree<std::_Tset_traits<std::basic_string<char,std::char_traits<char>,std::allocator<char> >,std::less<std::basic_string<char,std::char_traits<char>,std::allocator<char> > >,std::allocator<std::basic_string<char,std::char_traits<char>,std::allocator<char> > >,0> >::_Getal
PUBLIC	?_Get_scary@?$_Tree@V?$_Tset_traits@V?$basic_string@DU?$char_traits@D@std@@V?$allocator@D@2@@std@@U?$less@V?$basic_string@DU?$char_traits@D@std@@V?$allocator@D@2@@std@@@2@V?$allocator@V?$basic_string@DU?$char_traits@D@std@@V?$allocator@D@2@@std@@@2@$0A@@std@@@std@@IEAAPEAV?$_Tree_val@U?$_Tree_simple_types@V?$basic_string@DU?$char_traits@D@std@@V?$allocator@D@2@@std@@@std@@@2@XZ ; std::_Tree<std::_Tset_traits<std::basic_string<char,std::char_traits<char>,std::allocator<char> >,std::less<std::basic_string<char,std::char_traits<char>,std::allocator<char> > >,std::allocator<std::basic_string<char,std::char_traits<char>,std::allocator<char> > >,0> >::_Get_scary
PUBLIC	?_Get_scary@?$_Tree@V?$_Tset_traits@V?$basic_string@DU?$char_traits@D@std@@V?$allocator@D@2@@std@@U?$less@V?$basic_string@DU?$char_traits@D@std@@V?$allocator@D@2@@std@@@2@V?$allocator@V?$basic_string@DU?$char_traits@D@std@@V?$allocator@D@2@@std@@@2@$0A@@std@@@std@@IEBAPEBV?$_Tree_val@U?$_Tree_simple_types@V?$basic_string@DU?$char_traits@D@std@@V?$allocator@D@2@@std@@@std@@@2@XZ ; std::_Tree<std::_Tset_traits<std::basic_string<char,std::char_traits<char>,std::allocator<char> >,std::less<std::basic_string<char,std::char_traits<char>,std::allocator<char> > >,std::allocator<std::basic_string<char,std::char_traits<char>,std::allocator<char> > >,0> >::_Get_scary
PUBLIC	??0?$_Array_const_iterator@PEBD$00@std@@QEAA@PEBQEBD_K@Z ; std::_Array_const_iterator<char const *,1>::_Array_const_iterator<char const *,1>
PUBLIC	??1?$_String_val@U?$_Simple_types@D@std@@@std@@QEAA@XZ ; std::_String_val<std::_Simple_types<char> >::~_String_val<std::_Simple_types<char> >
PUBLIC	??1?$_Compressed_pair@V?$allocator@D@std@@V?$_String_val@U?$_Simple_types@D@std@@@2@$00@std@@QEAA@XZ ; std::_Compressed_pair<std::allocator<char>,std::_String_val<std::_Simple_types<char> >,1>::~_Compressed_pair<std::allocator<char>,std::_String_val<std::_Simple_types<char> >,1>
PUBLIC	??0?$basic_string@DU?$char_traits@D@std@@V?$allocator@D@2@@std@@QEAA@QEBD@Z ; std::basic_string<char,std::char_traits<char>,std::allocator<char> >::basic_string<char,std::char_traits<char>,std::allocator<char> >
PUBLIC	??1?$basic_string@DU?$char_traits@D@std@@V?$allocator@D@2@@std@@QEAA@XZ ; std::basic_string<char,std::char_traits<char>,std::allocator<char> >::~basic_string<char,std::char_traits<char>,std::allocator<char> >
PUBLIC	?compare@?$basic_string@DU?$char_traits@D@std@@V?$allocator@D@2@@std@@QEBAHAEBV12@@Z ; std::basic_string<char,std::char_traits<char>,std::allocator<char> >::compare
PUBLIC	??0?$vector@UVkSurfaceFormatKHR@@V?$allocator@UVkSurfaceFormatKHR@@@std@@@std@@QEAA@XZ ; std::vector<VkSurfaceFormatKHR,std::allocator<VkSurfaceFormatKHR> >::vector<VkSurfaceFormatKHR,std::allocator<VkSurfaceFormatKHR> >
PUBLIC	??0?$vector@UVkSurfaceFormatKHR@@V?$allocator@UVkSurfaceFormatKHR@@@std@@@std@@QEAA@$$QEAV01@@Z ; std::vector<VkSurfaceFormatKHR,std::allocator<VkSurfaceFormatKHR> >::vector<VkSurfaceFormatKHR,std::allocator<VkSurfaceFormatKHR> >
PUBLIC	??1?$vector@UVkSurfaceFormatKHR@@V?$allocator@UVkSurfaceFormatKHR@@@std@@@std@@QEAA@XZ ; std::vector<VkSurfaceFormatKHR,std::allocator<VkSurfaceFormatKHR> >::~vector<VkSurfaceFormatKHR,std::allocator<VkSurfaceFormatKHR> >
PUBLIC	?resize@?$vector@UVkSurfaceFormatKHR@@V?$allocator@UVkSurfaceFormatKHR@@@std@@@std@@QEAAX_K@Z ; std::vector<VkSurfaceFormatKHR,std::allocator<VkSurfaceFormatKHR> >::resize
PUBLIC	?data@?$vector@UVkSurfaceFormatKHR@@V?$allocator@UVkSurfaceFormatKHR@@@std@@@std@@QEAAPEAUVkSurfaceFormatKHR@@XZ ; std::vector<VkSurfaceFormatKHR,std::allocator<VkSurfaceFormatKHR> >::data
PUBLIC	?empty@?$vector@UVkSurfaceFormatKHR@@V?$allocator@UVkSurfaceFormatKHR@@@std@@@std@@QEBA_NXZ ; std::vector<VkSurfaceFormatKHR,std::allocator<VkSurfaceFormatKHR> >::empty
PUBLIC	??0?$vector@W4VkPresentModeKHR@@V?$allocator@W4VkPresentModeKHR@@@std@@@std@@QEAA@XZ ; std::vector<enum VkPresentModeKHR,std::allocator<enum VkPresentModeKHR> >::vector<enum VkPresentModeKHR,std::allocator<enum VkPresentModeKHR> >
PUBLIC	??0?$vector@W4VkPresentModeKHR@@V?$allocator@W4VkPresentModeKHR@@@std@@@std@@QEAA@$$QEAV01@@Z ; std::vector<enum VkPresentModeKHR,std::allocator<enum VkPresentModeKHR> >::vector<enum VkPresentModeKHR,std::allocator<enum VkPresentModeKHR> >
PUBLIC	??1?$vector@W4VkPresentModeKHR@@V?$allocator@W4VkPresentModeKHR@@@std@@@std@@QEAA@XZ ; std::vector<enum VkPresentModeKHR,std::allocator<enum VkPresentModeKHR> >::~vector<enum VkPresentModeKHR,std::allocator<enum VkPresentModeKHR> >
PUBLIC	?resize@?$vector@W4VkPresentModeKHR@@V?$allocator@W4VkPresentModeKHR@@@std@@@std@@QEAAX_K@Z ; std::vector<enum VkPresentModeKHR,std::allocator<enum VkPresentModeKHR> >::resize
PUBLIC	?data@?$vector@W4VkPresentModeKHR@@V?$allocator@W4VkPresentModeKHR@@@std@@@std@@QEAAPEAW4VkPresentModeKHR@@XZ ; std::vector<enum VkPresentModeKHR,std::allocator<enum VkPresentModeKHR> >::data
PUBLIC	?empty@?$vector@W4VkPresentModeKHR@@V?$allocator@W4VkPresentModeKHR@@@std@@@std@@QEBA_NXZ ; std::vector<enum VkPresentModeKHR,std::allocator<enum VkPresentModeKHR> >::empty
PUBLIC	?begin@?$array@PEBD$00@std@@QEBA?AV?$_Array_const_iterator@PEBD$00@2@XZ ; std::array<char const *,1>::begin
PUBLIC	?end@?$array@PEBD$00@std@@QEBA?AV?$_Array_const_iterator@PEBD$00@2@XZ ; std::array<char const *,1>::end
PUBLIC	??0?$allocator@UVkExtensionProperties@@@std@@QEAA@XZ ; std::allocator<VkExtensionProperties>::allocator<VkExtensionProperties>
PUBLIC	??0?$vector@UVkExtensionProperties@@V?$allocator@UVkExtensionProperties@@@std@@@std@@QEAA@_KAEBV?$allocator@UVkExtensionProperties@@@1@@Z ; std::vector<VkExtensionProperties,std::allocator<VkExtensionProperties> >::vector<VkExtensionProperties,std::allocator<VkExtensionProperties> >
PUBLIC	??1?$vector@UVkExtensionProperties@@V?$allocator@UVkExtensionProperties@@@std@@@std@@QEAA@XZ ; std::vector<VkExtensionProperties,std::allocator<VkExtensionProperties> >::~vector<VkExtensionProperties,std::allocator<VkExtensionProperties> >
PUBLIC	?data@?$vector@UVkExtensionProperties@@V?$allocator@UVkExtensionProperties@@@std@@@std@@QEAAPEAUVkExtensionProperties@@XZ ; std::vector<VkExtensionProperties,std::allocator<VkExtensionProperties> >::data
PUBLIC	?_Unchecked_begin@?$vector@UVkExtensionProperties@@V?$allocator@UVkExtensionProperties@@@std@@@std@@QEAAPEAUVkExtensionProperties@@XZ ; std::vector<VkExtensionProperties,std::allocator<VkExtensionProperties> >::_Unchecked_begin
PUBLIC	?_Unchecked_end@?$vector@UVkExtensionProperties@@V?$allocator@UVkExtensionProperties@@@std@@@std@@QEAAPEAUVkExtensionProperties@@XZ ; std::vector<VkExtensionProperties,std::allocator<VkExtensionProperties> >::_Unchecked_end
PUBLIC	??1?$_Tree@V?$_Tset_traits@V?$basic_string@DU?$char_traits@D@std@@V?$allocator@D@2@@std@@U?$less@V?$basic_string@DU?$char_traits@D@std@@V?$allocator@D@2@@std@@@2@V?$allocator@V?$basic_string@DU?$char_traits@D@std@@V?$allocator@D@2@@std@@@2@$0A@@std@@@std@@QEAA@XZ ; std::_Tree<std::_Tset_traits<std::basic_string<char,std::char_traits<char>,std::allocator<char> >,std::less<std::basic_string<char,std::char_traits<char>,std::allocator<char> > >,std::allocator<std::basic_string<char,std::char_traits<char>,std::allocator<char> > >,0> >::~_Tree<std::_Tset_traits<std::basic_string<char,std::char_traits<char>,std::allocator<char> >,std::less<std::basic_string<char,std::char_traits<char>,std::allocator<char> > >,std::allocator<std::basic_string<char,std::char_traits<char>,std::allocator<char> > >,0> >
PUBLIC	?empty@?$_Tree@V?$_Tset_traits@V?$basic_string@DU?$char_traits@D@std@@V?$allocator@D@2@@std@@U?$less@V?$basic_string@DU?$char_traits@D@std@@V?$allocator@D@2@@std@@@2@V?$allocator@V?$basic_string@DU?$char_traits@D@std@@V?$allocator@D@2@@std@@@2@$0A@@std@@@std@@QEBA_NXZ ; std::_Tree<std::_Tset_traits<std::basic_string<char,std::char_traits<char>,std::allocator<char> >,std::less<std::basic_string<char,std::char_traits<char>,std::allocator<char> > >,std::allocator<std::basic_string<char,std::char_traits<char>,std::allocator<char> > >,0> >::empty
PUBLIC	?erase@?$_Tree@V?$_Tset_traits@V?$basic_string@DU?$char_traits@D@std@@V?$allocator@D@2@@std@@U?$less@V?$basic_string@DU?$char_traits@D@std@@V?$allocator@D@2@@std@@@2@V?$allocator@V?$basic_string@DU?$char_traits@D@std@@V?$allocator@D@2@@std@@@2@$0A@@std@@@std@@QEAA_KAEBV?$basic_string@DU?$char_traits@D@std@@V?$allocator@D@2@@2@@Z ; std::_Tree<std::_Tset_traits<std::basic_string<char,std::char_traits<char>,std::allocator<char> >,std::less<std::basic_string<char,std::char_traits<char>,std::allocator<char> > >,std::allocator<std::basic_string<char,std::char_traits<char>,std::allocator<char> > >,0> >::erase
PUBLIC	?__autoclassinit2@Apparatus@cow@@QEAAX_K@Z	; cow::Apparatus::__autoclassinit2
PUBLIC	?__autoclassinit2@Window@cow@@QEAAX_K@Z		; cow::Window::__autoclassinit2
PUBLIC	main
PUBLIC	?deviceSuitable@Apparatus@cow@@AEAA_NPEAUVkPhysicalDevice_T@@@Z ; cow::Apparatus::deviceSuitable
PUBLIC	??0SwapChainSupportDetails@cow@@QEAA@$$QEAU01@@Z ; cow::SwapChainSupportDetails::SwapChainSupportDetails
PUBLIC	??1SwapChainSupportDetails@cow@@QEAA@XZ		; cow::SwapChainSupportDetails::~SwapChainSupportDetails
PUBLIC	??0SwapChainSupportDetails@cow@@QEAA@XZ		; cow::SwapChainSupportDetails::SwapChainSupportDetails
PUBLIC	?querySwapChainSupport@Apparatus@cow@@AEAA?AUSwapChainSupportDetails@2@PEAUVkPhysicalDevice_T@@@Z ; cow::Apparatus::querySwapChainSupport
PUBLIC	?__autoclassinit2@?$set@V?$basic_string@DU?$char_traits@D@std@@V?$allocator@D@2@@std@@U?$less@V?$basic_string@DU?$char_traits@D@std@@V?$allocator@D@2@@std@@@2@V?$allocator@V?$basic_string@DU?$char_traits@D@std@@V?$allocator@D@2@@std@@@2@@std@@QEAAX_K@Z ; std::set<std::basic_string<char,std::char_traits<char>,std::allocator<char> >,std::less<std::basic_string<char,std::char_traits<char>,std::allocator<char> > >,std::allocator<std::basic_string<char,std::char_traits<char>,std::allocator<char> > > >::__autoclassinit2
PUBLIC	??1?$set@V?$basic_string@DU?$char_traits@D@std@@V?$allocator@D@2@@std@@U?$less@V?$basic_string@DU?$char_traits@D@std@@V?$allocator@D@2@@std@@@2@V?$allocator@V?$basic_string@DU?$char_traits@D@std@@V?$allocator@D@2@@std@@@2@@std@@QEAA@XZ ; std::set<std::basic_string<char,std::char_traits<char>,std::allocator<char> >,std::less<std::basic_string<char,std::char_traits<char>,std::allocator<char> > >,std::allocator<std::basic_string<char,std::char_traits<char>,std::allocator<char> > > >::~set<std::basic_string<char,std::char_traits<char>,std::allocator<char> >,std::less<std::basic_string<char,std::char_traits<char>,std::allocator<char> > >,std::allocator<std::basic_string<char,std::char_traits<char>,std::allocator<char> > > >
PUBLIC	?__autoclassinit2@?$vector@UVkExtensionProperties@@V?$allocator@UVkExtensionProperties@@@std@@@std@@QEAAX_K@Z ; std::vector<VkExtensionProperties,std::allocator<VkExtensionProperties> >::__autoclassinit2
PUBLIC	?deviceExtensionSupport@Apparatus@cow@@AEAA_NPEAUVkPhysicalDevice_T@@@Z ; cow::Apparatus::deviceExtensionSupport
PUBLIC	?createSurface_and_findPhysicalDevice@Apparatus@cow@@AEAAPEAUVkPhysicalDevice_T@@PEAVWindow@2@@Z ; cow::Apparatus::createSurface_and_findPhysicalDevice
PUBLIC	??1Apparatus@cow@@QEAA@XZ			; cow::Apparatus::~Apparatus
PUBLIC	??0Apparatus@cow@@QEAA@AEAVWindow@1@@Z		; cow::Apparatus::Apparatus
PUBLIC	?_Throw_tree_length_error@std@@YAXXZ		; std::_Throw_tree_length_error
PUBLIC	?shouldClose@Window@cow@@QEBA_NXZ		; cow::Window::shouldClose
PUBLIC	?get@Instance@cow@@QEBAPEAUVkInstance_T@@XZ	; cow::Instance::get
PUBLIC	?_Xlen_string@std@@YAXXZ			; std::_Xlen_string
PUBLIC	?_Release@_Fake_proxy_ptr_impl@std@@QEAAXXZ	; std::_Fake_proxy_ptr_impl::_Release
PUBLIC	??0_Fake_proxy_ptr_impl@std@@QEAA@AEBU_Fake_allocator@1@AEBU_Container_base0@1@@Z ; std::_Fake_proxy_ptr_impl::_Fake_proxy_ptr_impl
PUBLIC	?_Adopt@_Iterator_base0@std@@QEAAXPEBX@Z	; std::_Iterator_base0::_Adopt
PUBLIC	?_Swap_proxy_and_iterators@_Container_base0@std@@QEAAXAEAU12@@Z ; std::_Container_base0::_Swap_proxy_and_iterators
;	COMDAT pdata
pdata	SEGMENT
$pdata$??$_Lower_bound_duplicate@V?$basic_string@DU?$char_traits@D@std@@V?$allocator@D@2@@std@@@?$_Tree@V?$_Tset_traits@V?$basic_string@DU?$char_traits@D@std@@V?$allocator@D@2@@std@@U?$less@V?$basic_string@DU?$char_traits@D@std@@V?$allocator@D@2@@std@@@2@V?$allocator@V?$basic_string@DU?$char_traits@D@std@@V?$allocator@D@2@@std@@@2@$0A@@std@@@std@@IEBA_NQEAU?$_Tree_node@V?$basic_string@DU?$char_traits@D@std@@V?$allocator@D@2@@std@@PEAX@1@AEBV?$basic_string@DU?$char_traits@D@std@@V?$allocator@D@2@@1@@Z DD imagerel $LN34@Lower_boun
	DD	imagerel $LN34@Lower_boun+106
	DD	imagerel $unwind$??$_Lower_bound_duplicate@V?$basic_string@DU?$char_traits@D@std@@V?$allocator@D@2@@std@@@?$_Tree@V?$_Tset_traits@V?$basic_string@DU?$char_traits@D@std@@V?$allocator@D@2@@std@@U?$less@V?$basic_string@DU?$char_traits@D@std@@V?$allocator@D@2@@std@@@2@V?$allocator@V?$basic_string@DU?$char_traits@D@std@@V?$allocator@D@2@@std@@@2@$0A@@std@@@std@@IEBA_NQEAU?$_Tree_node@V?$basic_string@DU?$char_traits@D@std@@V?$allocator@D@2@@std@@PEAX@1@AEBV?$basic_string@DU?$char_traits@D@std@@V?$allocator@D@2@@1@@Z
pdata	ENDS
;	COMDAT pdata
pdata	SEGMENT
$pdata$??$_Find_lower_bound@V?$basic_string@DU?$char_traits@D@std@@V?$allocator@D@2@@std@@@?$_Tree@V?$_Tset_traits@V?$basic_string@DU?$char_traits@D@std@@V?$allocator@D@2@@std@@U?$less@V?$basic_string@DU?$char_traits@D@std@@V?$allocator@D@2@@std@@@2@V?$allocator@V?$basic_string@DU?$char_traits@D@std@@V?$allocator@D@2@@std@@@2@$0A@@std@@@std@@IEBA?AU?$_Tree_find_result@PEAU?$_Tree_node@V?$basic_string@DU?$char_traits@D@std@@V?$allocator@D@2@@std@@PEAX@std@@@1@AEBV?$basic_string@DU?$char_traits@D@std@@V?$allocator@D@2@@1@@Z DD imagerel $LN39@Find_lower
	DD	imagerel $LN39@Find_lower+49
	DD	imagerel $unwind$??$_Find_lower_bound@V?$basic_string@DU?$char_traits@D@std@@V?$allocator@D@2@@std@@@?$_Tree@V?$_Tset_traits@V?$basic_string@DU?$char_traits@D@std@@V?$allocator@D@2@@std@@U?$less@V?$basic_string@DU?$char_traits@D@std@@V?$allocator@D@2@@std@@@2@V?$allocator@V?$basic_string@DU?$char_traits@D@std@@V?$allocator@D@2@@std@@@2@$0A@@std@@@std@@IEBA?AU?$_Tree_find_result@PEAU?$_Tree_node@V?$basic_string@DU?$char_traits@D@std@@V?$allocator@D@2@@std@@PEAX@std@@@1@AEBV?$basic_string@DU?$char_traits@D@std@@V?$allocator@D@2@@1@@Z
pdata	ENDS
;	COMDAT pdata
pdata	SEGMENT
$pdata$1$??$_Find_lower_bound@V?$basic_string@DU?$char_traits@D@std@@V?$allocator@D@2@@std@@@?$_Tree@V?$_Tset_traits@V?$basic_string@DU?$char_traits@D@std@@V?$allocator@D@2@@std@@U?$less@V?$basic_string@DU?$char_traits@D@std@@V?$allocator@D@2@@std@@@2@V?$allocator@V?$basic_string@DU?$char_traits@D@std@@V?$allocator@D@2@@std@@@2@$0A@@std@@@std@@IEBA?AU?$_Tree_find_result@PEAU?$_Tree_node@V?$basic_string@DU?$char_traits@D@std@@V?$allocator@D@2@@std@@PEAX@std@@@1@AEBV?$basic_string@DU?$char_traits@D@std@@V?$allocator@D@2@@1@@Z DD imagerel $LN39@Find_lower+49
	DD	imagerel $LN39@Find_lower+153
	DD	imagerel $chain$1$??$_Find_lower_bound@V?$basic_string@DU?$char_traits@D@std@@V?$allocator@D@2@@std@@@?$_Tree@V?$_Tset_traits@V?$basic_string@DU?$char_traits@D@std@@V?$allocator@D@2@@std@@U?$less@V?$basic_string@DU?$char_traits@D@std@@V?$allocator@D@2@@std@@@2@V?$allocator@V?$basic_string@DU?$char_traits@D@std@@V?$allocator@D@2@@std@@@2@$0A@@std@@@std@@IEBA?AU?$_Tree_find_result@PEAU?$_Tree_node@V?$basic_string@DU?$char_traits@D@std@@V?$allocator@D@2@@std@@PEAX@std@@@1@AEBV?$basic_string@DU?$char_traits@D@std@@V?$allocator@D@2@@1@@Z
pdata	ENDS
;	COMDAT pdata
pdata	SEGMENT
$pdata$2$??$_Find_lower_bound@V?$basic_string@DU?$char_traits@D@std@@V?$allocator@D@2@@std@@@?$_Tree@V?$_Tset_traits@V?$basic_string@DU?$char_traits@D@std@@V?$allocator@D@2@@std@@U?$less@V?$basic_string@DU?$char_traits@D@std@@V?$allocator@D@2@@std@@@2@V?$allocator@V?$basic_string@DU?$char_traits@D@std@@V?$allocator@D@2@@std@@@2@$0A@@std@@@std@@IEBA?AU?$_Tree_find_result@PEAU?$_Tree_node@V?$basic_string@DU?$char_traits@D@std@@V?$allocator@D@2@@std@@PEAX@std@@@1@AEBV?$basic_string@DU?$char_traits@D@std@@V?$allocator@D@2@@1@@Z DD imagerel $LN39@Find_lower+153
	DD	imagerel $LN39@Find_lower+170
	DD	imagerel $chain$2$??$_Find_lower_bound@V?$basic_string@DU?$char_traits@D@std@@V?$allocator@D@2@@std@@@?$_Tree@V?$_Tset_traits@V?$basic_string@DU?$char_traits@D@std@@V?$allocator@D@2@@std@@U?$less@V?$basic_string@DU?$char_traits@D@std@@V?$allocator@D@2@@std@@@2@V?$allocator@V?$basic_string@DU?$char_traits@D@std@@V?$allocator@D@2@@std@@@2@$0A@@std@@@std@@IEBA?AU?$_Tree_find_result@PEAU?$_Tree_node@V?$basic_string@DU?$char_traits@D@std@@V?$allocator@D@2@@std@@PEAX@std@@@1@AEBV?$basic_string@DU?$char_traits@D@std@@V?$allocator@D@2@@1@@Z
pdata	ENDS
;	COMDAT pdata
pdata	SEGMENT
$pdata$3$??$_Find_lower_bound@V?$basic_string@DU?$char_traits@D@std@@V?$allocator@D@2@@std@@@?$_Tree@V?$_Tset_traits@V?$basic_string@DU?$char_traits@D@std@@V?$allocator@D@2@@std@@U?$less@V?$basic_string@DU?$char_traits@D@std@@V?$allocator@D@2@@std@@@2@V?$allocator@V?$basic_string@DU?$char_traits@D@std@@V?$allocator@D@2@@std@@@2@$0A@@std@@@std@@IEBA?AU?$_Tree_find_result@PEAU?$_Tree_node@V?$basic_string@DU?$char_traits@D@std@@V?$allocator@D@2@@std@@PEAX@std@@@1@AEBV?$basic_string@DU?$char_traits@D@std@@V?$allocator@D@2@@1@@Z DD imagerel $LN39@Find_lower+170
	DD	imagerel $LN39@Find_lower+185
	DD	imagerel $chain$3$??$_Find_lower_bound@V?$basic_string@DU?$char_traits@D@std@@V?$allocator@D@2@@std@@@?$_Tree@V?$_Tset_traits@V?$basic_string@DU?$char_traits@D@std@@V?$allocator@D@2@@std@@U?$less@V?$basic_string@DU?$char_traits@D@std@@V?$allocator@D@2@@std@@@2@V?$allocator@V?$basic_string@DU?$char_traits@D@std@@V?$allocator@D@2@@std@@@2@$0A@@std@@@std@@IEBA?AU?$_Tree_find_result@PEAU?$_Tree_node@V?$basic_string@DU?$char_traits@D@std@@V?$allocator@D@2@@std@@PEAX@std@@@1@AEBV?$basic_string@DU?$char_traits@D@std@@V?$allocator@D@2@@1@@Z
pdata	ENDS
;	COMDAT pdata
pdata	SEGMENT
$pdata$?_Allocate@?$_Alloc_construct_ptr@V?$allocator@U?$_Tree_node@V?$basic_string@DU?$char_traits@D@std@@V?$allocator@D@2@@std@@PEAX@std@@@std@@@std@@QEAAXXZ DD imagerel $LN28@Allocate
	DD	imagerel $LN28@Allocate+37
	DD	imagerel $unwind$?_Allocate@?$_Alloc_construct_ptr@V?$allocator@U?$_Tree_node@V?$basic_string@DU?$char_traits@D@std@@V?$allocator@D@2@@std@@PEAX@std@@@std@@@std@@QEAAXXZ
pdata	ENDS
;	COMDAT pdata
pdata	SEGMENT
$pdata$??0?$_Tree_temp_node_alloc@V?$allocator@U?$_Tree_node@V?$basic_string@DU?$char_traits@D@std@@V?$allocator@D@2@@std@@PEAX@std@@@std@@@std@@QEAA@AEAV?$allocator@U?$_Tree_node@V?$basic_string@DU?$char_traits@D@std@@V?$allocator@D@2@@std@@PEAX@std@@@1@@Z DD imagerel $LN35@Tree_temp_
	DD	imagerel $LN35@Tree_temp_+43
	DD	imagerel $unwind$??0?$_Tree_temp_node_alloc@V?$allocator@U?$_Tree_node@V?$basic_string@DU?$char_traits@D@std@@V?$allocator@D@2@@std@@PEAX@std@@@std@@@std@@QEAA@AEAV?$allocator@U?$_Tree_node@V?$basic_string@DU?$char_traits@D@std@@V?$allocator@D@2@@std@@PEAX@std@@@1@@Z
pdata	ENDS
;	COMDAT pdata
pdata	SEGMENT
$pdata$??$_Copy_memmove@PEAUVkSurfaceFormatKHR@@PEAU1@@std@@YAPEAUVkSurfaceFormatKHR@@PEAU1@00@Z DD imagerel $LN4@Copy_memmo
	DD	imagerel $LN4@Copy_memmo+48
	DD	imagerel $unwind$??$_Copy_memmove@PEAUVkSurfaceFormatKHR@@PEAU1@@std@@YAPEAUVkSurfaceFormatKHR@@PEAU1@00@Z
pdata	ENDS
;	COMDAT pdata
pdata	SEGMENT
$pdata$??$_Copy_memmove@PEAW4VkPresentModeKHR@@PEAW41@@std@@YAPEAW4VkPresentModeKHR@@PEAW41@00@Z DD imagerel $LN4@Copy_memmo
	DD	imagerel $LN4@Copy_memmo+48
	DD	imagerel $unwind$??$_Copy_memmove@PEAW4VkPresentModeKHR@@PEAW41@@std@@YAPEAW4VkPresentModeKHR@@PEAW41@00@Z
pdata	ENDS
;	COMDAT pdata
pdata	SEGMENT
$pdata$??$_Find_hint@V?$basic_string@DU?$char_traits@D@std@@V?$allocator@D@2@@std@@@?$_Tree@V?$_Tset_traits@V?$basic_string@DU?$char_traits@D@std@@V?$allocator@D@2@@std@@U?$less@V?$basic_string@DU?$char_traits@D@std@@V?$allocator@D@2@@std@@@2@V?$allocator@V?$basic_string@DU?$char_traits@D@std@@V?$allocator@D@2@@std@@@2@$0A@@std@@@std@@IEBA?AU?$_Tree_find_hint_result@PEAU?$_Tree_node@V?$basic_string@DU?$char_traits@D@std@@V?$allocator@D@2@@std@@PEAX@std@@@1@QEAU?$_Tree_node@V?$basic_string@DU?$char_traits@D@std@@V?$allocator@D@2@@std@@PEAX@1@AEBV?$basic_string@DU?$char_traits@D@std@@V?$allocator@D@2@@1@@Z DD imagerel $LN301@Find_hint
	DD	imagerel $LN301@Find_hint+1132
	DD	imagerel $unwind$??$_Find_hint@V?$basic_string@DU?$char_traits@D@std@@V?$allocator@D@2@@std@@@?$_Tree@V?$_Tset_traits@V?$basic_string@DU?$char_traits@D@std@@V?$allocator@D@2@@std@@U?$less@V?$basic_string@DU?$char_traits@D@std@@V?$allocator@D@2@@std@@@2@V?$allocator@V?$basic_string@DU?$char_traits@D@std@@V?$allocator@D@2@@std@@@2@$0A@@std@@@std@@IEBA?AU?$_Tree_find_hint_result@PEAU?$_Tree_node@V?$basic_string@DU?$char_traits@D@std@@V?$allocator@D@2@@std@@PEAX@std@@@1@QEAU?$_Tree_node@V?$basic_string@DU?$char_traits@D@std@@V?$allocator@D@2@@std@@PEAX@1@AEBV?$basic_string@DU?$char_traits@D@std@@V?$allocator@D@2@@1@@Z
pdata	ENDS
;	COMDAT pdata
pdata	SEGMENT
$pdata$??$?0AEBQEBD@?$_Tree_temp_node@V?$allocator@U?$_Tree_node@V?$basic_string@DU?$char_traits@D@std@@V?$allocator@D@2@@std@@PEAX@std@@@std@@@std@@QEAA@AEAV?$allocator@U?$_Tree_node@V?$basic_string@DU?$char_traits@D@std@@V?$allocator@D@2@@std@@PEAX@std@@@1@PEAU?$_Tree_node@V?$basic_string@DU?$char_traits@D@std@@V?$allocator@D@2@@std@@PEAX@1@AEBQEBD@Z DD imagerel $LN64@allocator
	DD	imagerel $LN64@allocator+150
	DD	imagerel $unwind$??$?0AEBQEBD@?$_Tree_temp_node@V?$allocator@U?$_Tree_node@V?$basic_string@DU?$char_traits@D@std@@V?$allocator@D@2@@std@@PEAX@std@@@std@@@std@@QEAA@AEAV?$allocator@U?$_Tree_node@V?$basic_string@DU?$char_traits@D@std@@V?$allocator@D@2@@std@@PEAX@std@@@1@PEAU?$_Tree_node@V?$basic_string@DU?$char_traits@D@std@@V?$allocator@D@2@@std@@PEAX@1@AEBQEBD@Z
pdata	ENDS
;	COMDAT pdata
pdata	SEGMENT
$pdata$?_Check_grow_by_1@?$_Tree@V?$_Tset_traits@V?$basic_string@DU?$char_traits@D@std@@V?$allocator@D@2@@std@@U?$less@V?$basic_string@DU?$char_traits@D@std@@V?$allocator@D@2@@std@@@2@V?$allocator@V?$basic_string@DU?$char_traits@D@std@@V?$allocator@D@2@@std@@@2@$0A@@std@@@std@@IEAAXXZ DD imagerel $LN7@Check_grow
	DD	imagerel $LN7@Check_grow+31
	DD	imagerel $unwind$?_Check_grow_by_1@?$_Tree@V?$_Tset_traits@V?$basic_string@DU?$char_traits@D@std@@V?$allocator@D@2@@std@@U?$less@V?$basic_string@DU?$char_traits@D@std@@V?$allocator@D@2@@std@@@2@V?$allocator@V?$basic_string@DU?$char_traits@D@std@@V?$allocator@D@2@@std@@@2@$0A@@std@@@std@@IEAAXXZ
pdata	ENDS
;	COMDAT pdata
pdata	SEGMENT
$pdata$??1?$_Tree_temp_node@V?$allocator@U?$_Tree_node@V?$basic_string@DU?$char_traits@D@std@@V?$allocator@D@2@@std@@PEAX@std@@@std@@@std@@QEAA@XZ DD imagerel $LN67@Tree_temp_
	DD	imagerel $LN67@Tree_temp_+134
	DD	imagerel $unwind$??1?$_Tree_temp_node@V?$allocator@U?$_Tree_node@V?$basic_string@DU?$char_traits@D@std@@V?$allocator@D@2@@std@@PEAX@std@@@std@@@std@@QEAA@XZ
pdata	ENDS
;	COMDAT pdata
pdata	SEGMENT
$pdata$??$_Get_size_of_n@$07@std@@YA_K_K@Z DD imagerel $LN7@Get_size_o
	DD	imagerel $LN7@Get_size_o+38
	DD	imagerel $unwind$??$_Get_size_of_n@$07@std@@YA_K_K@Z
pdata	ENDS
;	COMDAT pdata
pdata	SEGMENT
$pdata$??$_Uninitialized_move@PEAUVkSurfaceFormatKHR@@V?$allocator@UVkSurfaceFormatKHR@@@std@@@std@@YAPEAUVkSurfaceFormatKHR@@QEAU1@0PEAU1@AEAV?$allocator@UVkSurfaceFormatKHR@@@0@@Z DD imagerel $LN18@Uninitiali
	DD	imagerel $LN18@Uninitiali+52
	DD	imagerel $unwind$??$_Uninitialized_move@PEAUVkSurfaceFormatKHR@@V?$allocator@UVkSurfaceFormatKHR@@@std@@@std@@YAPEAUVkSurfaceFormatKHR@@QEAU1@0PEAU1@AEAV?$allocator@UVkSurfaceFormatKHR@@@0@@Z
pdata	ENDS
;	COMDAT pdata
pdata	SEGMENT
$pdata$??$_Zero_range@PEAW4VkPresentModeKHR@@@std@@YAPEAW4VkPresentModeKHR@@QEAW41@0@Z DD imagerel $LN4@Zero_range
	DD	imagerel $LN4@Zero_range+31
	DD	imagerel $unwind$??$_Zero_range@PEAW4VkPresentModeKHR@@@std@@YAPEAW4VkPresentModeKHR@@QEAW41@0@Z
pdata	ENDS
;	COMDAT pdata
pdata	SEGMENT
$pdata$??$_Uninitialized_move@PEAW4VkPresentModeKHR@@V?$allocator@W4VkPresentModeKHR@@@std@@@std@@YAPEAW4VkPresentModeKHR@@QEAW41@0PEAW41@AEAV?$allocator@W4VkPresentModeKHR@@@0@@Z DD imagerel $LN18@Uninitiali
	DD	imagerel $LN18@Uninitiali+52
	DD	imagerel $unwind$??$_Uninitialized_move@PEAW4VkPresentModeKHR@@V?$allocator@W4VkPresentModeKHR@@@std@@@std@@YAPEAW4VkPresentModeKHR@@QEAW41@0PEAW41@AEAV?$allocator@W4VkPresentModeKHR@@@0@@Z
pdata	ENDS
;	COMDAT pdata
pdata	SEGMENT
$pdata$??$_Emplace_back@$$V@?$_Uninitialized_backout_al@V?$allocator@UVkExtensionProperties@@@std@@@std@@QEAAXXZ DD imagerel $LN6@Emplace_ba
	DD	imagerel $LN6@Emplace_ba+40
	DD	imagerel $unwind$??$_Emplace_back@$$V@?$_Uninitialized_backout_al@V?$allocator@UVkExtensionProperties@@@std@@@std@@QEAAXXZ
pdata	ENDS
;	COMDAT pdata
pdata	SEGMENT
$pdata$??$_Emplace_hint@AEBQEBD@?$_Tree@V?$_Tset_traits@V?$basic_string@DU?$char_traits@D@std@@V?$allocator@D@2@@std@@U?$less@V?$basic_string@DU?$char_traits@D@std@@V?$allocator@D@2@@std@@@2@V?$allocator@V?$basic_string@DU?$char_traits@D@std@@V?$allocator@D@2@@std@@@2@$0A@@std@@@std@@IEAAPEAU?$_Tree_node@V?$basic_string@DU?$char_traits@D@std@@V?$allocator@D@2@@std@@PEAX@1@QEAU21@AEBQEBD@Z DD imagerel $LN200@Emplace_hi
	DD	imagerel $LN200@Emplace_hi+347
	DD	imagerel $unwind$??$_Emplace_hint@AEBQEBD@?$_Tree@V?$_Tset_traits@V?$basic_string@DU?$char_traits@D@std@@V?$allocator@D@2@@std@@U?$less@V?$basic_string@DU?$char_traits@D@std@@V?$allocator@D@2@@std@@@2@V?$allocator@V?$basic_string@DU?$char_traits@D@std@@V?$allocator@D@2@@std@@@2@$0A@@std@@@std@@IEAAPEAU?$_Tree_node@V?$basic_string@DU?$char_traits@D@std@@V?$allocator@D@2@@std@@PEAX@1@QEAU21@AEBQEBD@Z
pdata	ENDS
;	COMDAT pdata
pdata	SEGMENT
$pdata$?allocate@?$allocator@UVkSurfaceFormatKHR@@@std@@QEAAPEAUVkSurfaceFormatKHR@@_K@Z DD imagerel $LN31@allocate
	DD	imagerel $LN31@allocate+112
	DD	imagerel $unwind$?allocate@?$allocator@UVkSurfaceFormatKHR@@@std@@QEAAPEAUVkSurfaceFormatKHR@@_K@Z
pdata	ENDS
;	COMDAT pdata
pdata	SEGMENT
$pdata$?_Change_array@?$vector@UVkSurfaceFormatKHR@@V?$allocator@UVkSurfaceFormatKHR@@@std@@@std@@AEAAXQEAUVkSurfaceFormatKHR@@_K1@Z DD imagerel $LN25@Change_arr
	DD	imagerel $LN25@Change_arr+136
	DD	imagerel $unwind$?_Change_array@?$vector@UVkSurfaceFormatKHR@@V?$allocator@UVkSurfaceFormatKHR@@@std@@@std@@AEAAXQEAUVkSurfaceFormatKHR@@_K1@Z
pdata	ENDS
;	COMDAT pdata
pdata	SEGMENT
$pdata$?_Xlength@?$vector@UVkSurfaceFormatKHR@@V?$allocator@UVkSurfaceFormatKHR@@@std@@@std@@CAXXZ DD imagerel $LN4@Xlength
	DD	imagerel $LN4@Xlength+18
	DD	imagerel $unwind$?_Xlength@?$vector@UVkSurfaceFormatKHR@@V?$allocator@UVkSurfaceFormatKHR@@@std@@@std@@CAXXZ
pdata	ENDS
;	COMDAT pdata
pdata	SEGMENT
$pdata$?allocate@?$allocator@W4VkPresentModeKHR@@@std@@QEAAPEAW4VkPresentModeKHR@@_K@Z DD imagerel $LN31@allocate
	DD	imagerel $LN31@allocate+112
	DD	imagerel $unwind$?allocate@?$allocator@W4VkPresentModeKHR@@@std@@QEAAPEAW4VkPresentModeKHR@@_K@Z
pdata	ENDS
;	COMDAT pdata
pdata	SEGMENT
$pdata$?_Change_array@?$vector@W4VkPresentModeKHR@@V?$allocator@W4VkPresentModeKHR@@@std@@@std@@AEAAXQEAW4VkPresentModeKHR@@_K1@Z DD imagerel $LN25@Change_arr
	DD	imagerel $LN25@Change_arr+136
	DD	imagerel $unwind$?_Change_array@?$vector@W4VkPresentModeKHR@@V?$allocator@W4VkPresentModeKHR@@@std@@@std@@AEAAXQEAW4VkPresentModeKHR@@_K1@Z
pdata	ENDS
;	COMDAT pdata
pdata	SEGMENT
$pdata$?_Xlength@?$vector@W4VkPresentModeKHR@@V?$allocator@W4VkPresentModeKHR@@@std@@@std@@CAXXZ DD imagerel $LN4@Xlength
	DD	imagerel $LN4@Xlength+18
	DD	imagerel $unwind$?_Xlength@?$vector@W4VkPresentModeKHR@@V?$allocator@W4VkPresentModeKHR@@@std@@@std@@CAXXZ
pdata	ENDS
;	COMDAT pdata
pdata	SEGMENT
$pdata$??_G?$basic_string@DU?$char_traits@D@std@@V?$allocator@D@2@@std@@QEAAPEAXI@Z DD imagerel $LN35@scalar
	DD	imagerel $LN35@scalar+98
	DD	imagerel $unwind$??_G?$basic_string@DU?$char_traits@D@std@@V?$allocator@D@2@@std@@QEAAPEAXI@Z
pdata	ENDS
;	COMDAT pdata
pdata	SEGMENT
$pdata$??$_Get_size_of_n@$0BAE@@std@@YA_K_K@Z DD imagerel $LN7@Get_size_o
	DD	imagerel $LN7@Get_size_o+37
	DD	imagerel $unwind$??$_Get_size_of_n@$0BAE@@std@@YA_K_K@Z
pdata	ENDS
;	COMDAT pdata
pdata	SEGMENT
$pdata$??$_Buyheadnode@V?$allocator@U?$_Tree_node@V?$basic_string@DU?$char_traits@D@std@@V?$allocator@D@2@@std@@PEAX@std@@@std@@@?$_Tree_node@V?$basic_string@DU?$char_traits@D@std@@V?$allocator@D@2@@std@@PEAX@std@@SAPEAU01@AEAV?$allocator@U?$_Tree_node@V?$basic_string@DU?$char_traits@D@std@@V?$allocator@D@2@@std@@PEAX@std@@@1@@Z DD imagerel $LN28@Buyheadnod
	DD	imagerel $LN28@Buyheadnod+36
	DD	imagerel $unwind$??$_Buyheadnode@V?$allocator@U?$_Tree_node@V?$basic_string@DU?$char_traits@D@std@@V?$allocator@D@2@@std@@PEAX@std@@@std@@@?$_Tree_node@V?$basic_string@DU?$char_traits@D@std@@V?$allocator@D@2@@std@@PEAX@std@@SAPEAU01@AEAV?$allocator@U?$_Tree_node@V?$basic_string@DU?$char_traits@D@std@@V?$allocator@D@2@@std@@PEAX@std@@@1@@Z
pdata	ENDS
;	COMDAT pdata
pdata	SEGMENT
$pdata$??$_Get_size_of_n@$03@std@@YA_K_K@Z DD imagerel $LN7@Get_size_o
	DD	imagerel $LN7@Get_size_o+38
	DD	imagerel $unwind$??$_Get_size_of_n@$03@std@@YA_K_K@Z
pdata	ENDS
;	COMDAT pdata
pdata	SEGMENT
$pdata$??$?MDU?$char_traits@D@std@@V?$allocator@D@1@@std@@YA_NAEBV?$basic_string@DU?$char_traits@D@std@@V?$allocator@D@2@@0@0@Z DD imagerel $LN26@operator
	DD	imagerel $LN26@operator+100
	DD	imagerel $unwind$??$?MDU?$char_traits@D@std@@V?$allocator@D@1@@std@@YA_NAEBV?$basic_string@DU?$char_traits@D@std@@V?$allocator@D@2@@0@0@Z
pdata	ENDS
;	COMDAT pdata
pdata	SEGMENT
$pdata$??$destroy@V?$basic_string@DU?$char_traits@D@std@@V?$allocator@D@2@@std@@@?$_Default_allocator_traits@V?$allocator@U?$_Tree_node@V?$basic_string@DU?$char_traits@D@std@@V?$allocator@D@2@@std@@PEAX@std@@@std@@@std@@SAXAEAV?$allocator@U?$_Tree_node@V?$basic_string@DU?$char_traits@D@std@@V?$allocator@D@2@@std@@PEAX@std@@@1@QEAV?$basic_string@DU?$char_traits@D@std@@V?$allocator@D@2@@1@@Z DD imagerel $LN38@destroy
	DD	imagerel $LN38@destroy+95
	DD	imagerel $unwind$??$destroy@V?$basic_string@DU?$char_traits@D@std@@V?$allocator@D@2@@std@@@?$_Default_allocator_traits@V?$allocator@U?$_Tree_node@V?$basic_string@DU?$char_traits@D@std@@V?$allocator@D@2@@std@@PEAX@std@@@std@@@std@@SAXAEAV?$allocator@U?$_Tree_node@V?$basic_string@DU?$char_traits@D@std@@V?$allocator@D@2@@std@@PEAX@std@@@1@QEAV?$basic_string@DU?$char_traits@D@std@@V?$allocator@D@2@@1@@Z
pdata	ENDS
;	COMDAT pdata
pdata	SEGMENT
$pdata$??$_Uninitialized_value_construct_n@V?$allocator@UVkSurfaceFormatKHR@@@std@@@std@@YAPEAUVkSurfaceFormatKHR@@PEAU1@_KAEAV?$allocator@UVkSurfaceFormatKHR@@@0@@Z DD imagerel $LN23@Uninitiali
	DD	imagerel $LN23@Uninitiali+65
	DD	imagerel $unwind$??$_Uninitialized_value_construct_n@V?$allocator@UVkSurfaceFormatKHR@@@std@@@std@@YAPEAUVkSurfaceFormatKHR@@PEAU1@_KAEAV?$allocator@UVkSurfaceFormatKHR@@@0@@Z
pdata	ENDS
;	COMDAT pdata
pdata	SEGMENT
$pdata$??$_Resize_reallocate@U_Value_init_tag@std@@@?$vector@UVkSurfaceFormatKHR@@V?$allocator@UVkSurfaceFormatKHR@@@std@@@std@@AEAAX_KAEBU_Value_init_tag@1@@Z DD imagerel $LN108@Resize_rea
	DD	imagerel $LN108@Resize_rea+32
	DD	imagerel $unwind$??$_Resize_reallocate@U_Value_init_tag@std@@@?$vector@UVkSurfaceFormatKHR@@V?$allocator@UVkSurfaceFormatKHR@@@std@@@std@@AEAAX_KAEBU_Value_init_tag@1@@Z
pdata	ENDS
;	COMDAT pdata
pdata	SEGMENT
$pdata$2$??$_Resize_reallocate@U_Value_init_tag@std@@@?$vector@UVkSurfaceFormatKHR@@V?$allocator@UVkSurfaceFormatKHR@@@std@@@std@@AEAAX_KAEBU_Value_init_tag@1@@Z DD imagerel $LN108@Resize_rea+32
	DD	imagerel $LN108@Resize_rea+334
	DD	imagerel $chain$2$??$_Resize_reallocate@U_Value_init_tag@std@@@?$vector@UVkSurfaceFormatKHR@@V?$allocator@UVkSurfaceFormatKHR@@@std@@@std@@AEAAX_KAEBU_Value_init_tag@1@@Z
pdata	ENDS
;	COMDAT pdata
pdata	SEGMENT
$pdata$4$??$_Resize_reallocate@U_Value_init_tag@std@@@?$vector@UVkSurfaceFormatKHR@@V?$allocator@UVkSurfaceFormatKHR@@@std@@@std@@AEAAX_KAEBU_Value_init_tag@1@@Z DD imagerel $LN108@Resize_rea+334
	DD	imagerel $LN108@Resize_rea+341
	DD	imagerel $chain$4$??$_Resize_reallocate@U_Value_init_tag@std@@@?$vector@UVkSurfaceFormatKHR@@V?$allocator@UVkSurfaceFormatKHR@@@std@@@std@@AEAAX_KAEBU_Value_init_tag@1@@Z
pdata	ENDS
;	COMDAT pdata
pdata	SEGMENT
$pdata$5$??$_Resize_reallocate@U_Value_init_tag@std@@@?$vector@UVkSurfaceFormatKHR@@V?$allocator@UVkSurfaceFormatKHR@@@std@@@std@@AEAAX_KAEBU_Value_init_tag@1@@Z DD imagerel $LN108@Resize_rea+341
	DD	imagerel $LN108@Resize_rea+347
	DD	imagerel $chain$5$??$_Resize_reallocate@U_Value_init_tag@std@@@?$vector@UVkSurfaceFormatKHR@@V?$allocator@UVkSurfaceFormatKHR@@@std@@@std@@AEAAX_KAEBU_Value_init_tag@1@@Z
pdata	ENDS
;	COMDAT pdata
pdata	SEGMENT
$pdata$6$??$_Resize_reallocate@U_Value_init_tag@std@@@?$vector@UVkSurfaceFormatKHR@@V?$allocator@UVkSurfaceFormatKHR@@@std@@@std@@AEAAX_KAEBU_Value_init_tag@1@@Z DD imagerel $LN108@Resize_rea+347
	DD	imagerel $LN108@Resize_rea+353
	DD	imagerel $chain$6$??$_Resize_reallocate@U_Value_init_tag@std@@@?$vector@UVkSurfaceFormatKHR@@V?$allocator@UVkSurfaceFormatKHR@@@std@@@std@@AEAAX_KAEBU_Value_init_tag@1@@Z
pdata	ENDS
;	COMDAT pdata
pdata	SEGMENT
$pdata$??$_Uninitialized_value_construct_n@V?$allocator@W4VkPresentModeKHR@@@std@@@std@@YAPEAW4VkPresentModeKHR@@PEAW41@_KAEAV?$allocator@W4VkPresentModeKHR@@@0@@Z DD imagerel $LN20@Uninitiali
	DD	imagerel $LN20@Uninitiali+46
	DD	imagerel $unwind$??$_Uninitialized_value_construct_n@V?$allocator@W4VkPresentModeKHR@@@std@@@std@@YAPEAW4VkPresentModeKHR@@PEAW41@_KAEAV?$allocator@W4VkPresentModeKHR@@@0@@Z
pdata	ENDS
;	COMDAT pdata
pdata	SEGMENT
$pdata$??$_Resize_reallocate@U_Value_init_tag@std@@@?$vector@W4VkPresentModeKHR@@V?$allocator@W4VkPresentModeKHR@@@std@@@std@@AEAAX_KAEBU_Value_init_tag@1@@Z DD imagerel $LN106@Resize_rea
	DD	imagerel $LN106@Resize_rea+32
	DD	imagerel $unwind$??$_Resize_reallocate@U_Value_init_tag@std@@@?$vector@W4VkPresentModeKHR@@V?$allocator@W4VkPresentModeKHR@@@std@@@std@@AEAAX_KAEBU_Value_init_tag@1@@Z
pdata	ENDS
;	COMDAT pdata
pdata	SEGMENT
$pdata$2$??$_Resize_reallocate@U_Value_init_tag@std@@@?$vector@W4VkPresentModeKHR@@V?$allocator@W4VkPresentModeKHR@@@std@@@std@@AEAAX_KAEBU_Value_init_tag@1@@Z DD imagerel $LN106@Resize_rea+32
	DD	imagerel $LN106@Resize_rea+328
	DD	imagerel $chain$2$??$_Resize_reallocate@U_Value_init_tag@std@@@?$vector@W4VkPresentModeKHR@@V?$allocator@W4VkPresentModeKHR@@@std@@@std@@AEAAX_KAEBU_Value_init_tag@1@@Z
pdata	ENDS
;	COMDAT pdata
pdata	SEGMENT
$pdata$4$??$_Resize_reallocate@U_Value_init_tag@std@@@?$vector@W4VkPresentModeKHR@@V?$allocator@W4VkPresentModeKHR@@@std@@@std@@AEAAX_KAEBU_Value_init_tag@1@@Z DD imagerel $LN106@Resize_rea+328
	DD	imagerel $LN106@Resize_rea+335
	DD	imagerel $chain$4$??$_Resize_reallocate@U_Value_init_tag@std@@@?$vector@W4VkPresentModeKHR@@V?$allocator@W4VkPresentModeKHR@@@std@@@std@@AEAAX_KAEBU_Value_init_tag@1@@Z
pdata	ENDS
;	COMDAT pdata
pdata	SEGMENT
$pdata$5$??$_Resize_reallocate@U_Value_init_tag@std@@@?$vector@W4VkPresentModeKHR@@V?$allocator@W4VkPresentModeKHR@@@std@@@std@@AEAAX_KAEBU_Value_init_tag@1@@Z DD imagerel $LN106@Resize_rea+335
	DD	imagerel $LN106@Resize_rea+341
	DD	imagerel $chain$5$??$_Resize_reallocate@U_Value_init_tag@std@@@?$vector@W4VkPresentModeKHR@@V?$allocator@W4VkPresentModeKHR@@@std@@@std@@AEAAX_KAEBU_Value_init_tag@1@@Z
pdata	ENDS
;	COMDAT pdata
pdata	SEGMENT
$pdata$6$??$_Resize_reallocate@U_Value_init_tag@std@@@?$vector@W4VkPresentModeKHR@@V?$allocator@W4VkPresentModeKHR@@@std@@@std@@AEAAX_KAEBU_Value_init_tag@1@@Z DD imagerel $LN106@Resize_rea+341
	DD	imagerel $LN106@Resize_rea+347
	DD	imagerel $chain$6$??$_Resize_reallocate@U_Value_init_tag@std@@@?$vector@W4VkPresentModeKHR@@V?$allocator@W4VkPresentModeKHR@@@std@@@std@@AEAAX_KAEBU_Value_init_tag@1@@Z
pdata	ENDS
;	COMDAT pdata
pdata	SEGMENT
$pdata$??$_Uninitialized_value_construct_n@V?$allocator@UVkExtensionProperties@@@std@@@std@@YAPEAUVkExtensionProperties@@PEAU1@_KAEAV?$allocator@UVkExtensionProperties@@@0@@Z DD imagerel $LN23@Uninitiali
	DD	imagerel $LN23@Uninitiali+14
	DD	imagerel $unwind$??$_Uninitialized_value_construct_n@V?$allocator@UVkExtensionProperties@@@std@@@std@@YAPEAUVkExtensionProperties@@PEAU1@_KAEAV?$allocator@UVkExtensionProperties@@@0@@Z
pdata	ENDS
;	COMDAT pdata
pdata	SEGMENT
$pdata$0$??$_Uninitialized_value_construct_n@V?$allocator@UVkExtensionProperties@@@std@@@std@@YAPEAUVkExtensionProperties@@PEAU1@_KAEAV?$allocator@UVkExtensionProperties@@@0@@Z DD imagerel $LN23@Uninitiali+14
	DD	imagerel $LN23@Uninitiali+51
	DD	imagerel $chain$0$??$_Uninitialized_value_construct_n@V?$allocator@UVkExtensionProperties@@@std@@@std@@YAPEAUVkExtensionProperties@@PEAU1@_KAEAV?$allocator@UVkExtensionProperties@@@0@@Z
pdata	ENDS
;	COMDAT pdata
pdata	SEGMENT
$pdata$1$??$_Uninitialized_value_construct_n@V?$allocator@UVkExtensionProperties@@@std@@@std@@YAPEAUVkExtensionProperties@@PEAU1@_KAEAV?$allocator@UVkExtensionProperties@@@0@@Z DD imagerel $LN23@Uninitiali+51
	DD	imagerel $LN23@Uninitiali+60
	DD	imagerel $chain$1$??$_Uninitialized_value_construct_n@V?$allocator@UVkExtensionProperties@@@std@@@std@@YAPEAUVkExtensionProperties@@PEAU1@_KAEAV?$allocator@UVkExtensionProperties@@@0@@Z
pdata	ENDS
;	COMDAT pdata
pdata	SEGMENT
$pdata$??$insert@V?$_Array_const_iterator@PEBD$00@std@@@?$_Tree@V?$_Tset_traits@V?$basic_string@DU?$char_traits@D@std@@V?$allocator@D@2@@std@@U?$less@V?$basic_string@DU?$char_traits@D@std@@V?$allocator@D@2@@std@@@2@V?$allocator@V?$basic_string@DU?$char_traits@D@std@@V?$allocator@D@2@@std@@@2@$0A@@std@@@std@@QEAAXV?$_Array_const_iterator@PEBD$00@1@0@Z DD imagerel $LN212@insert
	DD	imagerel $LN212@insert+389
	DD	imagerel $unwind$??$insert@V?$_Array_const_iterator@PEBD$00@std@@@?$_Tree@V?$_Tset_traits@V?$basic_string@DU?$char_traits@D@std@@V?$allocator@D@2@@std@@U?$less@V?$basic_string@DU?$char_traits@D@std@@V?$allocator@D@2@@std@@@2@V?$allocator@V?$basic_string@DU?$char_traits@D@std@@V?$allocator@D@2@@std@@@2@$0A@@std@@@std@@QEAAXV?$_Array_const_iterator@PEBD$00@1@0@Z
pdata	ENDS
;	COMDAT pdata
pdata	SEGMENT
$pdata$?allocate@?$allocator@UVkExtensionProperties@@@std@@QEAAPEAUVkExtensionProperties@@_K@Z DD imagerel $LN31@allocate
	DD	imagerel $LN31@allocate+111
	DD	imagerel $unwind$?allocate@?$allocator@UVkExtensionProperties@@@std@@QEAAPEAUVkExtensionProperties@@_K@Z
pdata	ENDS
;	COMDAT pdata
pdata	SEGMENT
$pdata$?_Buy_raw@?$vector@UVkExtensionProperties@@V?$allocator@UVkExtensionProperties@@@std@@@std@@AEAAX_K@Z DD imagerel $LN34@Buy_raw
	DD	imagerel $LN34@Buy_raw+135
	DD	imagerel $unwind$?_Buy_raw@?$vector@UVkExtensionProperties@@V?$allocator@UVkExtensionProperties@@@std@@@std@@AEAAX_K@Z
pdata	ENDS
;	COMDAT pdata
pdata	SEGMENT
$pdata$?_Xlength@?$vector@UVkExtensionProperties@@V?$allocator@UVkExtensionProperties@@@std@@@std@@CAXXZ DD imagerel $LN4@Xlength
	DD	imagerel $LN4@Xlength+18
	DD	imagerel $unwind$?_Xlength@?$vector@UVkExtensionProperties@@V?$allocator@UVkExtensionProperties@@@std@@@std@@CAXXZ
pdata	ENDS
;	COMDAT pdata
pdata	SEGMENT
$pdata$?_Alloc_sentinel_and_proxy@?$_Tree@V?$_Tset_traits@V?$basic_string@DU?$char_traits@D@std@@V?$allocator@D@2@@std@@U?$less@V?$basic_string@DU?$char_traits@D@std@@V?$allocator@D@2@@std@@@2@V?$allocator@V?$basic_string@DU?$char_traits@D@std@@V?$allocator@D@2@@std@@@2@$0A@@std@@@std@@IEAAXXZ DD imagerel $LN31@Alloc_sent
	DD	imagerel $LN31@Alloc_sent+45
	DD	imagerel $unwind$?_Alloc_sentinel_and_proxy@?$_Tree@V?$_Tset_traits@V?$basic_string@DU?$char_traits@D@std@@V?$allocator@D@2@@std@@U?$less@V?$basic_string@DU?$char_traits@D@std@@V?$allocator@D@2@@std@@@2@V?$allocator@V?$basic_string@DU?$char_traits@D@std@@V?$allocator@D@2@@std@@@2@$0A@@std@@@std@@IEAAXXZ
pdata	ENDS
;	COMDAT pdata
pdata	SEGMENT
$pdata$?_Buy_nonzero@?$vector@UVkExtensionProperties@@V?$allocator@UVkExtensionProperties@@@std@@@std@@AEAAX_K@Z DD imagerel $LN39@Buy_nonzer
	DD	imagerel $LN39@Buy_nonzer+24
	DD	imagerel $unwind$?_Buy_nonzero@?$vector@UVkExtensionProperties@@V?$allocator@UVkExtensionProperties@@@std@@@std@@AEAAX_K@Z
pdata	ENDS
;	COMDAT pdata
pdata	SEGMENT
$pdata$0$?_Buy_nonzero@?$vector@UVkExtensionProperties@@V?$allocator@UVkExtensionProperties@@@std@@@std@@AEAAX_K@Z DD imagerel $LN39@Buy_nonzer+24
	DD	imagerel $LN39@Buy_nonzer+130
	DD	imagerel $chain$0$?_Buy_nonzero@?$vector@UVkExtensionProperties@@V?$allocator@UVkExtensionProperties@@@std@@@std@@AEAAX_K@Z
pdata	ENDS
;	COMDAT pdata
pdata	SEGMENT
$pdata$1$?_Buy_nonzero@?$vector@UVkExtensionProperties@@V?$allocator@UVkExtensionProperties@@@std@@@std@@AEAAX_K@Z DD imagerel $LN39@Buy_nonzer+130
	DD	imagerel $LN39@Buy_nonzer+136
	DD	imagerel $chain$1$?_Buy_nonzero@?$vector@UVkExtensionProperties@@V?$allocator@UVkExtensionProperties@@@std@@@std@@AEAAX_K@Z
pdata	ENDS
;	COMDAT pdata
pdata	SEGMENT
$pdata$2$?_Buy_nonzero@?$vector@UVkExtensionProperties@@V?$allocator@UVkExtensionProperties@@@std@@@std@@AEAAX_K@Z DD imagerel $LN39@Buy_nonzer+136
	DD	imagerel $LN39@Buy_nonzer+142
	DD	imagerel $chain$2$?_Buy_nonzero@?$vector@UVkExtensionProperties@@V?$allocator@UVkExtensionProperties@@@std@@@std@@AEAAX_K@Z
pdata	ENDS
;	COMDAT pdata
pdata	SEGMENT
$pdata$??0?$_Tree@V?$_Tset_traits@V?$basic_string@DU?$char_traits@D@std@@V?$allocator@D@2@@std@@U?$less@V?$basic_string@DU?$char_traits@D@std@@V?$allocator@D@2@@std@@@2@V?$allocator@V?$basic_string@DU?$char_traits@D@std@@V?$allocator@D@2@@std@@@2@$0A@@std@@@std@@QEAA@AEBU?$less@V?$basic_string@DU?$char_traits@D@std@@V?$allocator@D@2@@std@@@1@@Z DD imagerel $LN41@Tree
	DD	imagerel $LN41@Tree+55
	DD	imagerel $unwind$??0?$_Tree@V?$_Tset_traits@V?$basic_string@DU?$char_traits@D@std@@V?$allocator@D@2@@std@@U?$less@V?$basic_string@DU?$char_traits@D@std@@V?$allocator@D@2@@std@@@2@V?$allocator@V?$basic_string@DU?$char_traits@D@std@@V?$allocator@D@2@@std@@@2@$0A@@std@@@std@@QEAA@AEBU?$less@V?$basic_string@DU?$char_traits@D@std@@V?$allocator@D@2@@std@@@1@@Z
pdata	ENDS
;	COMDAT pdata
pdata	SEGMENT
$pdata$??R?$less@V?$basic_string@DU?$char_traits@D@std@@V?$allocator@D@2@@std@@@std@@QEBA_NAEBV?$basic_string@DU?$char_traits@D@std@@V?$allocator@D@2@@1@0@Z DD imagerel $LN28@operator
	DD	imagerel $LN28@operator+112
	DD	imagerel $unwind$??R?$less@V?$basic_string@DU?$char_traits@D@std@@V?$allocator@D@2@@std@@@std@@QEBA_NAEBV?$basic_string@DU?$char_traits@D@std@@V?$allocator@D@2@@1@0@Z
pdata	ENDS
;	COMDAT pdata
pdata	SEGMENT
$pdata$??$_Freenode@V?$allocator@U?$_Tree_node@V?$basic_string@DU?$char_traits@D@std@@V?$allocator@D@2@@std@@PEAX@std@@@std@@@?$_Tree_node@V?$basic_string@DU?$char_traits@D@std@@V?$allocator@D@2@@std@@PEAX@std@@SAXAEAV?$allocator@U?$_Tree_node@V?$basic_string@DU?$char_traits@D@std@@V?$allocator@D@2@@std@@PEAX@std@@@1@PEAU01@@Z DD imagerel $LN61@Freenode
	DD	imagerel $LN61@Freenode+109
	DD	imagerel $unwind$??$_Freenode@V?$allocator@U?$_Tree_node@V?$basic_string@DU?$char_traits@D@std@@V?$allocator@D@2@@std@@PEAX@std@@@std@@@?$_Tree_node@V?$basic_string@DU?$char_traits@D@std@@V?$allocator@D@2@@std@@PEAX@std@@SAXAEAV?$allocator@U?$_Tree_node@V?$basic_string@DU?$char_traits@D@std@@V?$allocator@D@2@@std@@PEAX@std@@@1@PEAU01@@Z
pdata	ENDS
;	COMDAT pdata
pdata	SEGMENT
$pdata$??$_Erase_tree@V?$allocator@U?$_Tree_node@V?$basic_string@DU?$char_traits@D@std@@V?$allocator@D@2@@std@@PEAX@std@@@std@@@?$_Tree_val@U?$_Tree_simple_types@V?$basic_string@DU?$char_traits@D@std@@V?$allocator@D@2@@std@@@std@@@std@@QEAAXAEAV?$allocator@U?$_Tree_node@V?$basic_string@DU?$char_traits@D@std@@V?$allocator@D@2@@std@@PEAX@std@@@1@PEAU?$_Tree_node@V?$basic_string@DU?$char_traits@D@std@@V?$allocator@D@2@@std@@PEAX@1@@Z DD imagerel $LN75@Erase_tree
	DD	imagerel $LN75@Erase_tree+28
	DD	imagerel $unwind$??$_Erase_tree@V?$allocator@U?$_Tree_node@V?$basic_string@DU?$char_traits@D@std@@V?$allocator@D@2@@std@@PEAX@std@@@std@@@?$_Tree_val@U?$_Tree_simple_types@V?$basic_string@DU?$char_traits@D@std@@V?$allocator@D@2@@std@@@std@@@std@@QEAAXAEAV?$allocator@U?$_Tree_node@V?$basic_string@DU?$char_traits@D@std@@V?$allocator@D@2@@std@@PEAX@std@@@1@PEAU?$_Tree_node@V?$basic_string@DU?$char_traits@D@std@@V?$allocator@D@2@@std@@PEAX@1@@Z
pdata	ENDS
;	COMDAT pdata
pdata	SEGMENT
$pdata$1$??$_Erase_tree@V?$allocator@U?$_Tree_node@V?$basic_string@DU?$char_traits@D@std@@V?$allocator@D@2@@std@@PEAX@std@@@std@@@?$_Tree_val@U?$_Tree_simple_types@V?$basic_string@DU?$char_traits@D@std@@V?$allocator@D@2@@std@@@std@@@std@@QEAAXAEAV?$allocator@U?$_Tree_node@V?$basic_string@DU?$char_traits@D@std@@V?$allocator@D@2@@std@@PEAX@std@@@1@PEAU?$_Tree_node@V?$basic_string@DU?$char_traits@D@std@@V?$allocator@D@2@@std@@PEAX@1@@Z DD imagerel $LN75@Erase_tree+28
	DD	imagerel $LN75@Erase_tree+169
	DD	imagerel $chain$1$??$_Erase_tree@V?$allocator@U?$_Tree_node@V?$basic_string@DU?$char_traits@D@std@@V?$allocator@D@2@@std@@PEAX@std@@@std@@@?$_Tree_val@U?$_Tree_simple_types@V?$basic_string@DU?$char_traits@D@std@@V?$allocator@D@2@@std@@@std@@@std@@QEAAXAEAV?$allocator@U?$_Tree_node@V?$basic_string@DU?$char_traits@D@std@@V?$allocator@D@2@@std@@PEAX@std@@@1@PEAU?$_Tree_node@V?$basic_string@DU?$char_traits@D@std@@V?$allocator@D@2@@std@@PEAX@1@@Z
pdata	ENDS
;	COMDAT pdata
pdata	SEGMENT
$pdata$2$??$_Erase_tree@V?$allocator@U?$_Tree_node@V?$basic_string@DU?$char_traits@D@std@@V?$allocator@D@2@@std@@PEAX@std@@@std@@@?$_Tree_val@U?$_Tree_simple_types@V?$basic_string@DU?$char_traits@D@std@@V?$allocator@D@2@@std@@@std@@@std@@QEAAXAEAV?$allocator@U?$_Tree_node@V?$basic_string@DU?$char_traits@D@std@@V?$allocator@D@2@@std@@PEAX@std@@@1@PEAU?$_Tree_node@V?$basic_string@DU?$char_traits@D@std@@V?$allocator@D@2@@std@@PEAX@1@@Z DD imagerel $LN75@Erase_tree+169
	DD	imagerel $LN75@Erase_tree+177
	DD	imagerel $chain$2$??$_Erase_tree@V?$allocator@U?$_Tree_node@V?$basic_string@DU?$char_traits@D@std@@V?$allocator@D@2@@std@@PEAX@std@@@std@@@?$_Tree_val@U?$_Tree_simple_types@V?$basic_string@DU?$char_traits@D@std@@V?$allocator@D@2@@std@@@std@@@std@@QEAAXAEAV?$allocator@U?$_Tree_node@V?$basic_string@DU?$char_traits@D@std@@V?$allocator@D@2@@std@@PEAX@std@@@1@PEAU?$_Tree_node@V?$basic_string@DU?$char_traits@D@std@@V?$allocator@D@2@@std@@PEAX@1@@Z
pdata	ENDS
;	COMDAT pdata
pdata	SEGMENT
$pdata$3$??$_Erase_tree@V?$allocator@U?$_Tree_node@V?$basic_string@DU?$char_traits@D@std@@V?$allocator@D@2@@std@@PEAX@std@@@std@@@?$_Tree_val@U?$_Tree_simple_types@V?$basic_string@DU?$char_traits@D@std@@V?$allocator@D@2@@std@@@std@@@std@@QEAAXAEAV?$allocator@U?$_Tree_node@V?$basic_string@DU?$char_traits@D@std@@V?$allocator@D@2@@std@@PEAX@std@@@1@PEAU?$_Tree_node@V?$basic_string@DU?$char_traits@D@std@@V?$allocator@D@2@@std@@PEAX@1@@Z DD imagerel $LN75@Erase_tree+177
	DD	imagerel $LN75@Erase_tree+184
	DD	imagerel $chain$3$??$_Erase_tree@V?$allocator@U?$_Tree_node@V?$basic_string@DU?$char_traits@D@std@@V?$allocator@D@2@@std@@PEAX@std@@@std@@@?$_Tree_val@U?$_Tree_simple_types@V?$basic_string@DU?$char_traits@D@std@@V?$allocator@D@2@@std@@@std@@@std@@QEAAXAEAV?$allocator@U?$_Tree_node@V?$basic_string@DU?$char_traits@D@std@@V?$allocator@D@2@@std@@PEAX@std@@@1@PEAU?$_Tree_node@V?$basic_string@DU?$char_traits@D@std@@V?$allocator@D@2@@std@@PEAX@1@@Z
pdata	ENDS
;	COMDAT pdata
pdata	SEGMENT
$pdata$??$_Reallocate_for@V<lambda_1>@?1??assign@?$basic_string@DU?$char_traits@D@std@@V?$allocator@D@2@@std@@QEAAAEAV34@QEBD_K@Z@PEBD@?$basic_string@DU?$char_traits@D@std@@V?$allocator@D@2@@std@@AEAAAEAV01@_KV<lambda_1>@?1??assign@01@QEAAAEAV01@QEBD0@Z@PEBD@Z DD imagerel $LN66@Reallocate
	DD	imagerel $LN66@Reallocate+43
	DD	imagerel $unwind$??$_Reallocate_for@V<lambda_1>@?1??assign@?$basic_string@DU?$char_traits@D@std@@V?$allocator@D@2@@std@@QEAAAEAV34@QEBD_K@Z@PEBD@?$basic_string@DU?$char_traits@D@std@@V?$allocator@D@2@@std@@AEAAAEAV01@_KV<lambda_1>@?1??assign@01@QEAAAEAV01@QEBD0@Z@PEBD@Z
pdata	ENDS
;	COMDAT pdata
pdata	SEGMENT
$pdata$1$??$_Reallocate_for@V<lambda_1>@?1??assign@?$basic_string@DU?$char_traits@D@std@@V?$allocator@D@2@@std@@QEAAAEAV34@QEBD_K@Z@PEBD@?$basic_string@DU?$char_traits@D@std@@V?$allocator@D@2@@std@@AEAAAEAV01@_KV<lambda_1>@?1??assign@01@QEAAAEAV01@QEBD0@Z@PEBD@Z DD imagerel $LN66@Reallocate+43
	DD	imagerel $LN66@Reallocate+286
	DD	imagerel $chain$1$??$_Reallocate_for@V<lambda_1>@?1??assign@?$basic_string@DU?$char_traits@D@std@@V?$allocator@D@2@@std@@QEAAAEAV34@QEBD_K@Z@PEBD@?$basic_string@DU?$char_traits@D@std@@V?$allocator@D@2@@std@@AEAAAEAV01@_KV<lambda_1>@?1??assign@01@QEAAAEAV01@QEBD0@Z@PEBD@Z
pdata	ENDS
;	COMDAT pdata
pdata	SEGMENT
$pdata$3$??$_Reallocate_for@V<lambda_1>@?1??assign@?$basic_string@DU?$char_traits@D@std@@V?$allocator@D@2@@std@@QEAAAEAV34@QEBD_K@Z@PEBD@?$basic_string@DU?$char_traits@D@std@@V?$allocator@D@2@@std@@AEAAAEAV01@_KV<lambda_1>@?1??assign@01@QEAAAEAV01@QEBD0@Z@PEBD@Z DD imagerel $LN66@Reallocate+286
	DD	imagerel $LN66@Reallocate+299
	DD	imagerel $chain$3$??$_Reallocate_for@V<lambda_1>@?1??assign@?$basic_string@DU?$char_traits@D@std@@V?$allocator@D@2@@std@@QEAAAEAV34@QEBD_K@Z@PEBD@?$basic_string@DU?$char_traits@D@std@@V?$allocator@D@2@@std@@AEAAAEAV01@_KV<lambda_1>@?1??assign@01@QEAAAEAV01@QEBD0@Z@PEBD@Z
pdata	ENDS
;	COMDAT pdata
pdata	SEGMENT
$pdata$4$??$_Reallocate_for@V<lambda_1>@?1??assign@?$basic_string@DU?$char_traits@D@std@@V?$allocator@D@2@@std@@QEAAAEAV34@QEBD_K@Z@PEBD@?$basic_string@DU?$char_traits@D@std@@V?$allocator@D@2@@std@@AEAAAEAV01@_KV<lambda_1>@?1??assign@01@QEAAAEAV01@QEBD0@Z@PEBD@Z DD imagerel $LN66@Reallocate+299
	DD	imagerel $LN66@Reallocate+305
	DD	imagerel $chain$4$??$_Reallocate_for@V<lambda_1>@?1??assign@?$basic_string@DU?$char_traits@D@std@@V?$allocator@D@2@@std@@QEAAAEAV34@QEBD_K@Z@PEBD@?$basic_string@DU?$char_traits@D@std@@V?$allocator@D@2@@std@@AEAAAEAV01@_KV<lambda_1>@?1??assign@01@QEAAAEAV01@QEBD0@Z@PEBD@Z
pdata	ENDS
;	COMDAT pdata
pdata	SEGMENT
$pdata$??$_Traits_compare@U?$char_traits@D@std@@@std@@YAHQEBD_K01@Z DD imagerel $LN12@Traits_com
	DD	imagerel $LN12@Traits_com+81
	DD	imagerel $unwind$??$_Traits_compare@U?$char_traits@D@std@@@std@@YAHQEBD_K01@Z
pdata	ENDS
;	COMDAT pdata
pdata	SEGMENT
$pdata$??$_Resize@U_Value_init_tag@std@@@?$vector@UVkSurfaceFormatKHR@@V?$allocator@UVkSurfaceFormatKHR@@@std@@@std@@AEAAX_KAEBU_Value_init_tag@1@@Z DD imagerel $LN27@Resize
	DD	imagerel $LN27@Resize+158
	DD	imagerel $unwind$??$_Resize@U_Value_init_tag@std@@@?$vector@UVkSurfaceFormatKHR@@V?$allocator@UVkSurfaceFormatKHR@@@std@@@std@@AEAAX_KAEBU_Value_init_tag@1@@Z
pdata	ENDS
;	COMDAT pdata
pdata	SEGMENT
$pdata$??$_Resize@U_Value_init_tag@std@@@?$vector@W4VkPresentModeKHR@@V?$allocator@W4VkPresentModeKHR@@@std@@@std@@AEAAX_KAEBU_Value_init_tag@1@@Z DD imagerel $LN26@Resize
	DD	imagerel $LN26@Resize+93
	DD	imagerel $unwind$??$_Resize@U_Value_init_tag@std@@@?$vector@W4VkPresentModeKHR@@V?$allocator@W4VkPresentModeKHR@@@std@@@std@@AEAAX_KAEBU_Value_init_tag@1@@Z
pdata	ENDS
;	COMDAT pdata
pdata	SEGMENT
$pdata$0$??$_Resize@U_Value_init_tag@std@@@?$vector@W4VkPresentModeKHR@@V?$allocator@W4VkPresentModeKHR@@@std@@@std@@AEAAX_KAEBU_Value_init_tag@1@@Z DD imagerel $LN26@Resize+93
	DD	imagerel $LN26@Resize+132
	DD	imagerel $chain$0$??$_Resize@U_Value_init_tag@std@@@?$vector@W4VkPresentModeKHR@@V?$allocator@W4VkPresentModeKHR@@@std@@@std@@AEAAX_KAEBU_Value_init_tag@1@@Z
pdata	ENDS
;	COMDAT pdata
pdata	SEGMENT
$pdata$1$??$_Resize@U_Value_init_tag@std@@@?$vector@W4VkPresentModeKHR@@V?$allocator@W4VkPresentModeKHR@@@std@@@std@@AEAAX_KAEBU_Value_init_tag@1@@Z DD imagerel $LN26@Resize+132
	DD	imagerel $LN26@Resize+143
	DD	imagerel $chain$1$??$_Resize@U_Value_init_tag@std@@@?$vector@W4VkPresentModeKHR@@V?$allocator@W4VkPresentModeKHR@@@std@@@std@@AEAAX_KAEBU_Value_init_tag@1@@Z
pdata	ENDS
;	COMDAT pdata
pdata	SEGMENT
$pdata$??$_Construct_n@$$V@?$vector@UVkExtensionProperties@@V?$allocator@UVkExtensionProperties@@@std@@@std@@AEAAX_K@Z DD imagerel $LN74@Construct_
	DD	imagerel $LN74@Construct_+36
	DD	imagerel $unwind$??$_Construct_n@$$V@?$vector@UVkExtensionProperties@@V?$allocator@UVkExtensionProperties@@@std@@@std@@AEAAX_K@Z
pdata	ENDS
;	COMDAT pdata
pdata	SEGMENT
$pdata$3$??$_Construct_n@$$V@?$vector@UVkExtensionProperties@@V?$allocator@UVkExtensionProperties@@@std@@@std@@AEAAX_K@Z DD imagerel $LN74@Construct_+36
	DD	imagerel $LN74@Construct_+191
	DD	imagerel $chain$3$??$_Construct_n@$$V@?$vector@UVkExtensionProperties@@V?$allocator@UVkExtensionProperties@@@std@@@std@@AEAAX_K@Z
pdata	ENDS
;	COMDAT pdata
pdata	SEGMENT
$pdata$4$??$_Construct_n@$$V@?$vector@UVkExtensionProperties@@V?$allocator@UVkExtensionProperties@@@std@@@std@@AEAAX_K@Z DD imagerel $LN74@Construct_+191
	DD	imagerel $LN74@Construct_+192
	DD	imagerel $chain$4$??$_Construct_n@$$V@?$vector@UVkExtensionProperties@@V?$allocator@UVkExtensionProperties@@@std@@@std@@AEAAX_K@Z
pdata	ENDS
;	COMDAT pdata
pdata	SEGMENT
$pdata$5$??$_Construct_n@$$V@?$vector@UVkExtensionProperties@@V?$allocator@UVkExtensionProperties@@@std@@@std@@AEAAX_K@Z DD imagerel $LN74@Construct_+192
	DD	imagerel $LN74@Construct_+198
	DD	imagerel $chain$5$??$_Construct_n@$$V@?$vector@UVkExtensionProperties@@V?$allocator@UVkExtensionProperties@@@std@@@std@@AEAAX_K@Z
pdata	ENDS
;	COMDAT pdata
pdata	SEGMENT
$pdata$6$??$_Construct_n@$$V@?$vector@UVkExtensionProperties@@V?$allocator@UVkExtensionProperties@@@std@@@std@@AEAAX_K@Z DD imagerel $LN74@Construct_+198
	DD	imagerel $LN74@Construct_+204
	DD	imagerel $chain$6$??$_Construct_n@$$V@?$vector@UVkExtensionProperties@@V?$allocator@UVkExtensionProperties@@@std@@@std@@AEAAX_K@Z
pdata	ENDS
;	COMDAT pdata
pdata	SEGMENT
$pdata$??$_Erase_head@V?$allocator@U?$_Tree_node@V?$basic_string@DU?$char_traits@D@std@@V?$allocator@D@2@@std@@PEAX@std@@@std@@@?$_Tree_val@U?$_Tree_simple_types@V?$basic_string@DU?$char_traits@D@std@@V?$allocator@D@2@@std@@@std@@@std@@QEAAXAEAV?$allocator@U?$_Tree_node@V?$basic_string@DU?$char_traits@D@std@@V?$allocator@D@2@@std@@PEAX@std@@@1@@Z DD imagerel $LN26@Erase_head
	DD	imagerel $LN26@Erase_head+39
	DD	imagerel $unwind$??$_Erase_head@V?$allocator@U?$_Tree_node@V?$basic_string@DU?$char_traits@D@std@@V?$allocator@D@2@@std@@PEAX@std@@@std@@@?$_Tree_val@U?$_Tree_simple_types@V?$basic_string@DU?$char_traits@D@std@@V?$allocator@D@2@@std@@@std@@@std@@QEAAXAEAV?$allocator@U?$_Tree_node@V?$basic_string@DU?$char_traits@D@std@@V?$allocator@D@2@@std@@PEAX@std@@@1@@Z
pdata	ENDS
;	COMDAT pdata
pdata	SEGMENT
$pdata$??$_Eqrange@V?$basic_string@DU?$char_traits@D@std@@V?$allocator@D@2@@std@@@?$_Tree@V?$_Tset_traits@V?$basic_string@DU?$char_traits@D@std@@V?$allocator@D@2@@std@@U?$less@V?$basic_string@DU?$char_traits@D@std@@V?$allocator@D@2@@std@@@2@V?$allocator@V?$basic_string@DU?$char_traits@D@std@@V?$allocator@D@2@@std@@@2@$0A@@std@@@std@@IEBA?AU?$pair@PEAU?$_Tree_node@V?$basic_string@DU?$char_traits@D@std@@V?$allocator@D@2@@std@@PEAX@std@@PEAU12@@1@AEBV?$basic_string@DU?$char_traits@D@std@@V?$allocator@D@2@@1@@Z DD imagerel $LN109@Eqrange
	DD	imagerel $LN109@Eqrange+402
	DD	imagerel $unwind$??$_Eqrange@V?$basic_string@DU?$char_traits@D@std@@V?$allocator@D@2@@std@@@?$_Tree@V?$_Tset_traits@V?$basic_string@DU?$char_traits@D@std@@V?$allocator@D@2@@std@@U?$less@V?$basic_string@DU?$char_traits@D@std@@V?$allocator@D@2@@std@@@2@V?$allocator@V?$basic_string@DU?$char_traits@D@std@@V?$allocator@D@2@@std@@@2@$0A@@std@@@std@@IEBA?AU?$pair@PEAU?$_Tree_node@V?$basic_string@DU?$char_traits@D@std@@V?$allocator@D@2@@std@@PEAX@std@@PEAU12@@1@AEBV?$basic_string@DU?$char_traits@D@std@@V?$allocator@D@2@@1@@Z
pdata	ENDS
;	COMDAT pdata
pdata	SEGMENT
$pdata$??$?0V?$_Array_const_iterator@PEBD$00@std@@@?$set@V?$basic_string@DU?$char_traits@D@std@@V?$allocator@D@2@@std@@U?$less@V?$basic_string@DU?$char_traits@D@std@@V?$allocator@D@2@@std@@@2@V?$allocator@V?$basic_string@DU?$char_traits@D@std@@V?$allocator@D@2@@std@@@2@@std@@QEAA@V?$_Array_const_iterator@PEBD$00@1@0@Z DD imagerel $LN253@allocator
	DD	imagerel $LN253@allocator+447
	DD	imagerel $unwind$??$?0V?$_Array_const_iterator@PEBD$00@std@@@?$set@V?$basic_string@DU?$char_traits@D@std@@V?$allocator@D@2@@std@@U?$less@V?$basic_string@DU?$char_traits@D@std@@V?$allocator@D@2@@std@@@2@V?$allocator@V?$basic_string@DU?$char_traits@D@std@@V?$allocator@D@2@@std@@@2@@std@@QEAA@V?$_Array_const_iterator@PEBD$00@1@0@Z
pdata	ENDS
;	COMDAT pdata
pdata	SEGMENT
$pdata$?_Extract@?$_Tree_val@U?$_Tree_simple_types@V?$basic_string@DU?$char_traits@D@std@@V?$allocator@D@2@@std@@@std@@@std@@QEAAPEAU?$_Tree_node@V?$basic_string@DU?$char_traits@D@std@@V?$allocator@D@2@@std@@PEAX@2@V?$_Tree_unchecked_const_iterator@V?$_Tree_val@U?$_Tree_simple_types@V?$basic_string@DU?$char_traits@D@std@@V?$allocator@D@2@@std@@@std@@@std@@U_Iterator_base0@2@@2@@Z DD imagerel $LN145@Extract
	DD	imagerel $LN145@Extract+435
	DD	imagerel $unwind$?_Extract@?$_Tree_val@U?$_Tree_simple_types@V?$basic_string@DU?$char_traits@D@std@@V?$allocator@D@2@@std@@@std@@@std@@QEAAPEAU?$_Tree_node@V?$basic_string@DU?$char_traits@D@std@@V?$allocator@D@2@@std@@PEAX@2@V?$_Tree_unchecked_const_iterator@V?$_Tree_val@U?$_Tree_simple_types@V?$basic_string@DU?$char_traits@D@std@@V?$allocator@D@2@@std@@@std@@@std@@U_Iterator_base0@2@@2@@Z
pdata	ENDS
;	COMDAT pdata
pdata	SEGMENT
$pdata$0$?_Extract@?$_Tree_val@U?$_Tree_simple_types@V?$basic_string@DU?$char_traits@D@std@@V?$allocator@D@2@@std@@@std@@@std@@QEAAPEAU?$_Tree_node@V?$basic_string@DU?$char_traits@D@std@@V?$allocator@D@2@@std@@PEAX@2@V?$_Tree_unchecked_const_iterator@V?$_Tree_val@U?$_Tree_simple_types@V?$basic_string@DU?$char_traits@D@std@@V?$allocator@D@2@@std@@@std@@@std@@U_Iterator_base0@2@@2@@Z DD imagerel $LN145@Extract+435
	DD	imagerel $LN145@Extract+1214
	DD	imagerel $chain$0$?_Extract@?$_Tree_val@U?$_Tree_simple_types@V?$basic_string@DU?$char_traits@D@std@@V?$allocator@D@2@@std@@@std@@@std@@QEAAPEAU?$_Tree_node@V?$basic_string@DU?$char_traits@D@std@@V?$allocator@D@2@@std@@PEAX@2@V?$_Tree_unchecked_const_iterator@V?$_Tree_val@U?$_Tree_simple_types@V?$basic_string@DU?$char_traits@D@std@@V?$allocator@D@2@@std@@@std@@@std@@U_Iterator_base0@2@@2@@Z
pdata	ENDS
;	COMDAT pdata
pdata	SEGMENT
$pdata$1$?_Extract@?$_Tree_val@U?$_Tree_simple_types@V?$basic_string@DU?$char_traits@D@std@@V?$allocator@D@2@@std@@@std@@@std@@QEAAPEAU?$_Tree_node@V?$basic_string@DU?$char_traits@D@std@@V?$allocator@D@2@@std@@PEAX@2@V?$_Tree_unchecked_const_iterator@V?$_Tree_val@U?$_Tree_simple_types@V?$basic_string@DU?$char_traits@D@std@@V?$allocator@D@2@@std@@@std@@@std@@U_Iterator_base0@2@@2@@Z DD imagerel $LN145@Extract+1214
	DD	imagerel $LN145@Extract+1245
	DD	imagerel $chain$1$?_Extract@?$_Tree_val@U?$_Tree_simple_types@V?$basic_string@DU?$char_traits@D@std@@V?$allocator@D@2@@std@@@std@@@std@@QEAAPEAU?$_Tree_node@V?$basic_string@DU?$char_traits@D@std@@V?$allocator@D@2@@std@@PEAX@2@V?$_Tree_unchecked_const_iterator@V?$_Tree_val@U?$_Tree_simple_types@V?$basic_string@DU?$char_traits@D@std@@V?$allocator@D@2@@std@@@std@@@std@@U_Iterator_base0@2@@2@@Z
pdata	ENDS
;	COMDAT pdata
pdata	SEGMENT
$pdata$?_Erase_unchecked@?$_Tree@V?$_Tset_traits@V?$basic_string@DU?$char_traits@D@std@@V?$allocator@D@2@@std@@U?$less@V?$basic_string@DU?$char_traits@D@std@@V?$allocator@D@2@@std@@@2@V?$allocator@V?$basic_string@DU?$char_traits@D@std@@V?$allocator@D@2@@std@@@2@$0A@@std@@@std@@AEAAPEAU?$_Tree_node@V?$basic_string@DU?$char_traits@D@std@@V?$allocator@D@2@@std@@PEAX@2@V?$_Tree_unchecked_const_iterator@V?$_Tree_val@U?$_Tree_simple_types@V?$basic_string@DU?$char_traits@D@std@@V?$allocator@D@2@@std@@@std@@@std@@U_Iterator_base0@2@@2@@Z DD imagerel $LN85@Erase_unch
	DD	imagerel $LN85@Erase_unch+196
	DD	imagerel $unwind$?_Erase_unchecked@?$_Tree@V?$_Tset_traits@V?$basic_string@DU?$char_traits@D@std@@V?$allocator@D@2@@std@@U?$less@V?$basic_string@DU?$char_traits@D@std@@V?$allocator@D@2@@std@@@2@V?$allocator@V?$basic_string@DU?$char_traits@D@std@@V?$allocator@D@2@@std@@@2@$0A@@std@@@std@@AEAAPEAU?$_Tree_node@V?$basic_string@DU?$char_traits@D@std@@V?$allocator@D@2@@std@@PEAX@2@V?$_Tree_unchecked_const_iterator@V?$_Tree_val@U?$_Tree_simple_types@V?$basic_string@DU?$char_traits@D@std@@V?$allocator@D@2@@std@@@std@@@std@@U_Iterator_base0@2@@2@@Z
pdata	ENDS
;	COMDAT pdata
pdata	SEGMENT
$pdata$?clear@?$_Tree@V?$_Tset_traits@V?$basic_string@DU?$char_traits@D@std@@V?$allocator@D@2@@std@@U?$less@V?$basic_string@DU?$char_traits@D@std@@V?$allocator@D@2@@std@@@2@V?$allocator@V?$basic_string@DU?$char_traits@D@std@@V?$allocator@D@2@@std@@@2@$0A@@std@@@std@@QEAAXXZ DD imagerel $LN5@clear
	DD	imagerel $LN5@clear+58
	DD	imagerel $unwind$?clear@?$_Tree@V?$_Tset_traits@V?$basic_string@DU?$char_traits@D@std@@V?$allocator@D@2@@std@@U?$less@V?$basic_string@DU?$char_traits@D@std@@V?$allocator@D@2@@std@@@2@V?$allocator@V?$basic_string@DU?$char_traits@D@std@@V?$allocator@D@2@@std@@@2@$0A@@std@@@std@@QEAAXXZ
pdata	ENDS
;	COMDAT pdata
pdata	SEGMENT
$pdata$?deallocate@?$allocator@D@std@@QEAAXQEAD_K@Z DD imagerel $LN21@deallocate
	DD	imagerel $LN21@deallocate+62
	DD	imagerel $unwind$?deallocate@?$allocator@D@std@@QEAAXQEAD_K@Z
pdata	ENDS
;	COMDAT pdata
pdata	SEGMENT
$pdata$?allocate@?$allocator@D@std@@QEAAPEAD_K@Z DD imagerel $LN27@allocate
	DD	imagerel $LN27@allocate+89
	DD	imagerel $unwind$?allocate@?$allocator@D@std@@QEAAPEAD_K@Z
pdata	ENDS
;	COMDAT pdata
pdata	SEGMENT
$pdata$?move@?$_Char_traits@DH@std@@SAPEADQEADQEBD_K@Z DD imagerel $LN5@move
	DD	imagerel $LN5@move+23
	DD	imagerel $unwind$?move@?$_Char_traits@DH@std@@SAPEADQEADQEBD_K@Z
pdata	ENDS
;	COMDAT pdata
pdata	SEGMENT
$pdata$?deallocate@?$allocator@UVkSurfaceFormatKHR@@@std@@QEAAXQEAUVkSurfaceFormatKHR@@_K@Z DD imagerel $LN21@deallocate
	DD	imagerel $LN21@deallocate+67
	DD	imagerel $unwind$?deallocate@?$allocator@UVkSurfaceFormatKHR@@@std@@QEAAXQEAUVkSurfaceFormatKHR@@_K@Z
pdata	ENDS
;	COMDAT pdata
pdata	SEGMENT
$pdata$?deallocate@?$allocator@W4VkPresentModeKHR@@@std@@QEAAXQEAW4VkPresentModeKHR@@_K@Z DD imagerel $LN21@deallocate
	DD	imagerel $LN21@deallocate+67
	DD	imagerel $unwind$?deallocate@?$allocator@W4VkPresentModeKHR@@@std@@QEAAXQEAW4VkPresentModeKHR@@_K@Z
pdata	ENDS
;	COMDAT pdata
pdata	SEGMENT
$pdata$?deallocate@?$allocator@UVkExtensionProperties@@@std@@QEAAXQEAUVkExtensionProperties@@_K@Z DD imagerel $LN21@deallocate
	DD	imagerel $LN21@deallocate+66
	DD	imagerel $unwind$?deallocate@?$allocator@UVkExtensionProperties@@@std@@QEAAXQEAUVkExtensionProperties@@_K@Z
pdata	ENDS
;	COMDAT pdata
pdata	SEGMENT
$pdata$?_Erase_unchecked@?$_Tree@V?$_Tset_traits@V?$basic_string@DU?$char_traits@D@std@@V?$allocator@D@2@@std@@U?$less@V?$basic_string@DU?$char_traits@D@std@@V?$allocator@D@2@@std@@@2@V?$allocator@V?$basic_string@DU?$char_traits@D@std@@V?$allocator@D@2@@std@@@2@$0A@@std@@@std@@AEAAPEAU?$_Tree_node@V?$basic_string@DU?$char_traits@D@std@@V?$allocator@D@2@@std@@PEAX@2@V?$_Tree_unchecked_const_iterator@V?$_Tree_val@U?$_Tree_simple_types@V?$basic_string@DU?$char_traits@D@std@@V?$allocator@D@2@@std@@@std@@@std@@U_Iterator_base0@2@@2@0@Z DD imagerel $LN133@Erase_unch
	DD	imagerel $LN133@Erase_unch+384
	DD	imagerel $unwind$?_Erase_unchecked@?$_Tree@V?$_Tset_traits@V?$basic_string@DU?$char_traits@D@std@@V?$allocator@D@2@@std@@U?$less@V?$basic_string@DU?$char_traits@D@std@@V?$allocator@D@2@@std@@@2@V?$allocator@V?$basic_string@DU?$char_traits@D@std@@V?$allocator@D@2@@std@@@2@$0A@@std@@@std@@AEAAPEAU?$_Tree_node@V?$basic_string@DU?$char_traits@D@std@@V?$allocator@D@2@@std@@PEAX@2@V?$_Tree_unchecked_const_iterator@V?$_Tree_val@U?$_Tree_simple_types@V?$basic_string@DU?$char_traits@D@std@@V?$allocator@D@2@@std@@@std@@@std@@U_Iterator_base0@2@@2@0@Z
pdata	ENDS
;	COMDAT pdata
pdata	SEGMENT
$pdata$?copy@?$_Char_traits@DH@std@@SAPEADQEADQEBD_K@Z DD imagerel $LN5@copy
	DD	imagerel $LN5@copy+23
	DD	imagerel $unwind$?copy@?$_Char_traits@DH@std@@SAPEADQEADQEBD_K@Z
pdata	ENDS
;	COMDAT pdata
pdata	SEGMENT
$pdata$??R<lambda_1>@?1??assign@?$basic_string@DU?$char_traits@D@std@@V?$allocator@D@2@@std@@QEAAAEAV23@QEBD_K@Z@QEBA@QEAD10@Z DD imagerel $LN7@operator
	DD	imagerel $LN7@operator+42
	DD	imagerel $unwind$??R<lambda_1>@?1??assign@?$basic_string@DU?$char_traits@D@std@@V?$allocator@D@2@@std@@QEAAAEAV23@QEBD_K@Z@QEBA@QEAD10@Z
pdata	ENDS
;	COMDAT pdata
pdata	SEGMENT
$pdata$?assign@?$basic_string@DU?$char_traits@D@std@@V?$allocator@D@2@@std@@QEAAAEAV12@QEBD_K@Z DD imagerel $LN77@assign
	DD	imagerel $LN77@assign+139
	DD	imagerel $unwind$?assign@?$basic_string@DU?$char_traits@D@std@@V?$allocator@D@2@@std@@QEAAAEAV12@QEBD_K@Z
pdata	ENDS
;	COMDAT pdata
pdata	SEGMENT
$pdata$0$?assign@?$basic_string@DU?$char_traits@D@std@@V?$allocator@D@2@@std@@QEAAAEAV12@QEBD_K@Z DD imagerel $LN77@assign+139
	DD	imagerel $LN77@assign+330
	DD	imagerel $chain$0$?assign@?$basic_string@DU?$char_traits@D@std@@V?$allocator@D@2@@std@@QEAAAEAV12@QEBD_K@Z
pdata	ENDS
;	COMDAT pdata
pdata	SEGMENT
$pdata$2$?assign@?$basic_string@DU?$char_traits@D@std@@V?$allocator@D@2@@std@@QEAAAEAV12@QEBD_K@Z DD imagerel $LN77@assign+330
	DD	imagerel $LN77@assign+343
	DD	imagerel $chain$2$?assign@?$basic_string@DU?$char_traits@D@std@@V?$allocator@D@2@@std@@QEAAAEAV12@QEBD_K@Z
pdata	ENDS
;	COMDAT pdata
pdata	SEGMENT
$pdata$3$?assign@?$basic_string@DU?$char_traits@D@std@@V?$allocator@D@2@@std@@QEAAAEAV12@QEBD_K@Z DD imagerel $LN77@assign+343
	DD	imagerel $LN77@assign+349
	DD	imagerel $chain$3$?assign@?$basic_string@DU?$char_traits@D@std@@V?$allocator@D@2@@std@@QEAAAEAV12@QEBD_K@Z
pdata	ENDS
;	COMDAT pdata
pdata	SEGMENT
$pdata$?_Tidy_deallocate@?$basic_string@DU?$char_traits@D@std@@V?$allocator@D@2@@std@@AEAAXXZ DD imagerel $LN27@Tidy_deall
	DD	imagerel $LN27@Tidy_deall+95
	DD	imagerel $unwind$?_Tidy_deallocate@?$basic_string@DU?$char_traits@D@std@@V?$allocator@D@2@@std@@AEAAXXZ
pdata	ENDS
;	COMDAT pdata
pdata	SEGMENT
$pdata$?_Tidy@?$vector@UVkSurfaceFormatKHR@@V?$allocator@UVkSurfaceFormatKHR@@@std@@@std@@AEAAXXZ DD imagerel $LN25@Tidy
	DD	imagerel $LN25@Tidy+92
	DD	imagerel $unwind$?_Tidy@?$vector@UVkSurfaceFormatKHR@@V?$allocator@UVkSurfaceFormatKHR@@@std@@@std@@AEAAXXZ
pdata	ENDS
;	COMDAT pdata
pdata	SEGMENT
$pdata$?_Tidy@?$vector@W4VkPresentModeKHR@@V?$allocator@W4VkPresentModeKHR@@@std@@@std@@AEAAXXZ DD imagerel $LN25@Tidy
	DD	imagerel $LN25@Tidy+92
	DD	imagerel $unwind$?_Tidy@?$vector@W4VkPresentModeKHR@@V?$allocator@W4VkPresentModeKHR@@@std@@@std@@AEAAXXZ
pdata	ENDS
;	COMDAT pdata
pdata	SEGMENT
$pdata$?_Tidy@?$vector@UVkExtensionProperties@@V?$allocator@UVkExtensionProperties@@@std@@@std@@AEAAXXZ DD imagerel $LN25@Tidy
	DD	imagerel $LN25@Tidy+122
	DD	imagerel $unwind$?_Tidy@?$vector@UVkExtensionProperties@@V?$allocator@UVkExtensionProperties@@@std@@@std@@AEAAXXZ
pdata	ENDS
;	COMDAT pdata
pdata	SEGMENT
$pdata$?_Erase@?$_Tree@V?$_Tset_traits@V?$basic_string@DU?$char_traits@D@std@@V?$allocator@D@2@@std@@U?$less@V?$basic_string@DU?$char_traits@D@std@@V?$allocator@D@2@@std@@@2@V?$allocator@V?$basic_string@DU?$char_traits@D@std@@V?$allocator@D@2@@std@@@2@$0A@@std@@@std@@AEAA_KU?$pair@PEAU?$_Tree_node@V?$basic_string@DU?$char_traits@D@std@@V?$allocator@D@2@@std@@PEAX@std@@PEAU12@@2@@Z DD imagerel $LN49@Erase
	DD	imagerel $LN49@Erase+162
	DD	imagerel $unwind$?_Erase@?$_Tree@V?$_Tset_traits@V?$basic_string@DU?$char_traits@D@std@@V?$allocator@D@2@@std@@U?$less@V?$basic_string@DU?$char_traits@D@std@@V?$allocator@D@2@@std@@@2@V?$allocator@V?$basic_string@DU?$char_traits@D@std@@V?$allocator@D@2@@std@@@2@$0A@@std@@@std@@AEAA_KU?$pair@PEAU?$_Tree_node@V?$basic_string@DU?$char_traits@D@std@@V?$allocator@D@2@@std@@PEAX@std@@PEAU12@@2@@Z
pdata	ENDS
;	COMDAT pdata
pdata	SEGMENT
$pdata$??0?$basic_string@DU?$char_traits@D@std@@V?$allocator@D@2@@std@@QEAA@QEBD@Z DD imagerel $LN20@basic_stri
	DD	imagerel $LN20@basic_stri+56
	DD	imagerel $unwind$??0?$basic_string@DU?$char_traits@D@std@@V?$allocator@D@2@@std@@QEAA@QEBD@Z
pdata	ENDS
;	COMDAT pdata
pdata	SEGMENT
$pdata$??1?$basic_string@DU?$char_traits@D@std@@V?$allocator@D@2@@std@@QEAA@XZ DD imagerel $LN30@basic_stri
	DD	imagerel $LN30@basic_stri+95
	DD	imagerel $unwind$??1?$basic_string@DU?$char_traits@D@std@@V?$allocator@D@2@@std@@QEAA@XZ
pdata	ENDS
;	COMDAT pdata
pdata	SEGMENT
$pdata$?compare@?$basic_string@DU?$char_traits@D@std@@V?$allocator@D@2@@std@@QEBAHAEBV12@@Z DD imagerel $LN24@compare
	DD	imagerel $LN24@compare+97
	DD	imagerel $unwind$?compare@?$basic_string@DU?$char_traits@D@std@@V?$allocator@D@2@@std@@QEBAHAEBV12@@Z
pdata	ENDS
;	COMDAT pdata
pdata	SEGMENT
$pdata$??1?$vector@UVkSurfaceFormatKHR@@V?$allocator@UVkSurfaceFormatKHR@@@std@@@std@@QEAA@XZ DD imagerel $LN28@vector
	DD	imagerel $LN28@vector+92
	DD	imagerel $unwind$??1?$vector@UVkSurfaceFormatKHR@@V?$allocator@UVkSurfaceFormatKHR@@@std@@@std@@QEAA@XZ
pdata	ENDS
;	COMDAT pdata
pdata	SEGMENT
$pdata$?resize@?$vector@UVkSurfaceFormatKHR@@V?$allocator@UVkSurfaceFormatKHR@@@std@@@std@@QEAAX_K@Z DD imagerel $LN29@resize
	DD	imagerel $LN29@resize+158
	DD	imagerel $unwind$?resize@?$vector@UVkSurfaceFormatKHR@@V?$allocator@UVkSurfaceFormatKHR@@@std@@@std@@QEAAX_K@Z
pdata	ENDS
;	COMDAT pdata
pdata	SEGMENT
$pdata$??1?$vector@W4VkPresentModeKHR@@V?$allocator@W4VkPresentModeKHR@@@std@@@std@@QEAA@XZ DD imagerel $LN28@vector
	DD	imagerel $LN28@vector+92
	DD	imagerel $unwind$??1?$vector@W4VkPresentModeKHR@@V?$allocator@W4VkPresentModeKHR@@@std@@@std@@QEAA@XZ
pdata	ENDS
;	COMDAT pdata
pdata	SEGMENT
$pdata$?resize@?$vector@W4VkPresentModeKHR@@V?$allocator@W4VkPresentModeKHR@@@std@@@std@@QEAAX_K@Z DD imagerel $LN28@resize
	DD	imagerel $LN28@resize+93
	DD	imagerel $unwind$?resize@?$vector@W4VkPresentModeKHR@@V?$allocator@W4VkPresentModeKHR@@@std@@@std@@QEAAX_K@Z
pdata	ENDS
;	COMDAT pdata
pdata	SEGMENT
$pdata$0$?resize@?$vector@W4VkPresentModeKHR@@V?$allocator@W4VkPresentModeKHR@@@std@@@std@@QEAAX_K@Z DD imagerel $LN28@resize+93
	DD	imagerel $LN28@resize+132
	DD	imagerel $chain$0$?resize@?$vector@W4VkPresentModeKHR@@V?$allocator@W4VkPresentModeKHR@@@std@@@std@@QEAAX_K@Z
pdata	ENDS
;	COMDAT pdata
pdata	SEGMENT
$pdata$1$?resize@?$vector@W4VkPresentModeKHR@@V?$allocator@W4VkPresentModeKHR@@@std@@@std@@QEAAX_K@Z DD imagerel $LN28@resize+132
	DD	imagerel $LN28@resize+143
	DD	imagerel $chain$1$?resize@?$vector@W4VkPresentModeKHR@@V?$allocator@W4VkPresentModeKHR@@@std@@@std@@QEAAX_K@Z
pdata	ENDS
;	COMDAT pdata
pdata	SEGMENT
$pdata$??0?$vector@UVkExtensionProperties@@V?$allocator@UVkExtensionProperties@@@std@@@std@@QEAA@_KAEBV?$allocator@UVkExtensionProperties@@@1@@Z DD imagerel $LN75@vector
	DD	imagerel $LN75@vector+191
	DD	imagerel $unwind$??0?$vector@UVkExtensionProperties@@V?$allocator@UVkExtensionProperties@@@std@@@std@@QEAA@_KAEBV?$allocator@UVkExtensionProperties@@@1@@Z
pdata	ENDS
;	COMDAT pdata
pdata	SEGMENT
$pdata$??1?$_Tree@V?$_Tset_traits@V?$basic_string@DU?$char_traits@D@std@@V?$allocator@D@2@@std@@U?$less@V?$basic_string@DU?$char_traits@D@std@@V?$allocator@D@2@@std@@@2@V?$allocator@V?$basic_string@DU?$char_traits@D@std@@V?$allocator@D@2@@std@@@2@$0A@@std@@@std@@QEAA@XZ DD imagerel $LN29@Tree
	DD	imagerel $LN29@Tree+42
	DD	imagerel $unwind$??1?$_Tree@V?$_Tset_traits@V?$basic_string@DU?$char_traits@D@std@@V?$allocator@D@2@@std@@U?$less@V?$basic_string@DU?$char_traits@D@std@@V?$allocator@D@2@@std@@@2@V?$allocator@V?$basic_string@DU?$char_traits@D@std@@V?$allocator@D@2@@std@@@2@$0A@@std@@@std@@QEAA@XZ
pdata	ENDS
;	COMDAT pdata
pdata	SEGMENT
$pdata$?erase@?$_Tree@V?$_Tset_traits@V?$basic_string@DU?$char_traits@D@std@@V?$allocator@D@2@@std@@U?$less@V?$basic_string@DU?$char_traits@D@std@@V?$allocator@D@2@@std@@@2@V?$allocator@V?$basic_string@DU?$char_traits@D@std@@V?$allocator@D@2@@std@@@2@$0A@@std@@@std@@QEAA_KAEBV?$basic_string@DU?$char_traits@D@std@@V?$allocator@D@2@@2@@Z DD imagerel $LN51@erase
	DD	imagerel $LN51@erase+170
	DD	imagerel $unwind$?erase@?$_Tree@V?$_Tset_traits@V?$basic_string@DU?$char_traits@D@std@@V?$allocator@D@2@@std@@U?$less@V?$basic_string@DU?$char_traits@D@std@@V?$allocator@D@2@@std@@@2@V?$allocator@V?$basic_string@DU?$char_traits@D@std@@V?$allocator@D@2@@std@@@2@$0A@@std@@@std@@QEAA_KAEBV?$basic_string@DU?$char_traits@D@std@@V?$allocator@D@2@@2@@Z
pdata	ENDS
;	COMDAT pdata
pdata	SEGMENT
$pdata$main DD	imagerel $LN103@main
	DD	imagerel $LN103@main+663
	DD	imagerel $unwind$main
pdata	ENDS
;	COMDAT pdata
pdata	SEGMENT
$pdata$?deviceSuitable@Apparatus@cow@@AEAA_NPEAUVkPhysicalDevice_T@@@Z DD imagerel $LN70@deviceSuit
	DD	imagerel $LN70@deviceSuit+343
	DD	imagerel $unwind$?deviceSuitable@Apparatus@cow@@AEAA_NPEAUVkPhysicalDevice_T@@@Z
pdata	ENDS
;	COMDAT pdata
pdata	SEGMENT
$pdata$??1SwapChainSupportDetails@cow@@QEAA@XZ DD imagerel $LN55@SwapChainS
	DD	imagerel $LN55@SwapChainS+173
	DD	imagerel $unwind$??1SwapChainSupportDetails@cow@@QEAA@XZ
pdata	ENDS
;	COMDAT pdata
pdata	SEGMENT
$pdata$?querySwapChainSupport@Apparatus@cow@@AEAA?AUSwapChainSupportDetails@2@PEAUVkPhysicalDevice_T@@@Z DD imagerel $LN75@querySwapC
	DD	imagerel $LN75@querySwapC+429
	DD	imagerel $unwind$?querySwapChainSupport@Apparatus@cow@@AEAA?AUSwapChainSupportDetails@2@PEAUVkPhysicalDevice_T@@@Z
pdata	ENDS
;	COMDAT pdata
pdata	SEGMENT
$pdata$?dtor$0@?0??querySwapChainSupport@Apparatus@cow@@AEAA?AUSwapChainSupportDetails@2@PEAUVkPhysicalDevice_T@@@Z@4HA DD imagerel ?dtor$0@?0??querySwapChainSupport@Apparatus@cow@@AEAA?AUSwapChainSupportDetails@2@PEAUVkPhysicalDevice_T@@@Z@4HA
	DD	imagerel ?dtor$0@?0??querySwapChainSupport@Apparatus@cow@@AEAA?AUSwapChainSupportDetails@2@PEAUVkPhysicalDevice_T@@@Z@4HA+38
	DD	imagerel $unwind$?dtor$0@?0??querySwapChainSupport@Apparatus@cow@@AEAA?AUSwapChainSupportDetails@2@PEAUVkPhysicalDevice_T@@@Z@4HA
pdata	ENDS
;	COMDAT pdata
pdata	SEGMENT
$pdata$??1?$set@V?$basic_string@DU?$char_traits@D@std@@V?$allocator@D@2@@std@@U?$less@V?$basic_string@DU?$char_traits@D@std@@V?$allocator@D@2@@std@@@2@V?$allocator@V?$basic_string@DU?$char_traits@D@std@@V?$allocator@D@2@@std@@@2@@std@@QEAA@XZ DD imagerel $LN32@set
	DD	imagerel $LN32@set+42
	DD	imagerel $unwind$??1?$set@V?$basic_string@DU?$char_traits@D@std@@V?$allocator@D@2@@std@@U?$less@V?$basic_string@DU?$char_traits@D@std@@V?$allocator@D@2@@std@@@2@V?$allocator@V?$basic_string@DU?$char_traits@D@std@@V?$allocator@D@2@@std@@@2@@std@@QEAA@XZ
pdata	ENDS
;	COMDAT pdata
pdata	SEGMENT
$pdata$?deviceExtensionSupport@Apparatus@cow@@AEAA_NPEAUVkPhysicalDevice_T@@@Z DD imagerel $LN229@deviceExte
	DD	imagerel $LN229@deviceExte+562
	DD	imagerel $unwind$?deviceExtensionSupport@Apparatus@cow@@AEAA_NPEAUVkPhysicalDevice_T@@@Z
pdata	ENDS
;	COMDAT pdata
pdata	SEGMENT
$pdata$?createSurface_and_findPhysicalDevice@Apparatus@cow@@AEAAPEAUVkPhysicalDevice_T@@PEAVWindow@2@@Z DD imagerel $LN128@createSurf
	DD	imagerel $LN128@createSurf+78
	DD	imagerel $unwind$?createSurface_and_findPhysicalDevice@Apparatus@cow@@AEAAPEAUVkPhysicalDevice_T@@PEAVWindow@2@@Z
pdata	ENDS
;	COMDAT pdata
pdata	SEGMENT
$pdata$5$?createSurface_and_findPhysicalDevice@Apparatus@cow@@AEAAPEAUVkPhysicalDevice_T@@PEAVWindow@2@@Z DD imagerel $LN128@createSurf+78
	DD	imagerel $LN128@createSurf+578
	DD	imagerel $chain$5$?createSurface_and_findPhysicalDevice@Apparatus@cow@@AEAAPEAUVkPhysicalDevice_T@@PEAVWindow@2@@Z
pdata	ENDS
;	COMDAT pdata
pdata	SEGMENT
$pdata$7$?createSurface_and_findPhysicalDevice@Apparatus@cow@@AEAAPEAUVkPhysicalDevice_T@@PEAVWindow@2@@Z DD imagerel $LN128@createSurf+578
	DD	imagerel $LN128@createSurf+620
	DD	imagerel $chain$7$?createSurface_and_findPhysicalDevice@Apparatus@cow@@AEAAPEAUVkPhysicalDevice_T@@PEAVWindow@2@@Z
pdata	ENDS
;	COMDAT pdata
pdata	SEGMENT
$pdata$8$?createSurface_and_findPhysicalDevice@Apparatus@cow@@AEAAPEAUVkPhysicalDevice_T@@PEAVWindow@2@@Z DD imagerel $LN128@createSurf+620
	DD	imagerel $LN128@createSurf+655
	DD	imagerel $chain$8$?createSurface_and_findPhysicalDevice@Apparatus@cow@@AEAAPEAUVkPhysicalDevice_T@@PEAVWindow@2@@Z
pdata	ENDS
;	COMDAT pdata
pdata	SEGMENT
$pdata$??1Apparatus@cow@@QEAA@XZ DD imagerel $LN9@Apparatus
	DD	imagerel $LN9@Apparatus+54
	DD	imagerel $unwind$??1Apparatus@cow@@QEAA@XZ
pdata	ENDS
;	COMDAT pdata
pdata	SEGMENT
$pdata$??0Apparatus@cow@@QEAA@AEAVWindow@1@@Z DD imagerel $LN73@Apparatus
	DD	imagerel $LN73@Apparatus+493
	DD	imagerel $unwind$??0Apparatus@cow@@QEAA@AEAVWindow@1@@Z
pdata	ENDS
;	COMDAT pdata
pdata	SEGMENT
$pdata$?_Throw_tree_length_error@std@@YAXXZ DD imagerel $LN4@Throw_tree
	DD	imagerel $LN4@Throw_tree+18
	DD	imagerel $unwind$?_Throw_tree_length_error@std@@YAXXZ
pdata	ENDS
;	COMDAT pdata
pdata	SEGMENT
$pdata$?shouldClose@Window@cow@@QEBA_NXZ DD imagerel $LN4@shouldClos
	DD	imagerel $LN4@shouldClos+23
	DD	imagerel $unwind$?shouldClose@Window@cow@@QEBA_NXZ
pdata	ENDS
;	COMDAT pdata
pdata	SEGMENT
$pdata$?_Xlen_string@std@@YAXXZ DD imagerel $LN4@Xlen_strin
	DD	imagerel $LN4@Xlen_strin+18
	DD	imagerel $unwind$?_Xlen_string@std@@YAXXZ
;	COMDAT xdata
xdata	SEGMENT
$unwind$?_Xlen_string@std@@YAXXZ DQ 00000420400010401r ; 3.58617e-310
xdata	ENDS
;	COMDAT xdata
xdata	SEGMENT
$unwind$?shouldClose@Window@cow@@QEBA_NXZ DQ 00000420400010401r ; 3.58617e-310
xdata	ENDS
;	COMDAT xdata
xdata	SEGMENT
$unwind$?_Throw_tree_length_error@std@@YAXXZ DQ 00000420400010401r ; 3.58617e-310
xdata	ENDS
;	COMDAT xdata
xdata	SEGMENT
$ip2state$??0Apparatus@cow@@QEAA@AEAVWindow@1@@Z DQ 07000029d02039d08r ; 3.10702e+231
	DW	04204H
	DB	00H
xdata	ENDS
;	COMDAT xdata
xdata	SEGMENT
$stateUnwindMap$??0Apparatus@cow@@QEAA@AEAVWindow@1@@Z DW 0c04H
	DD	imagerel ??1Instance@cow@@QEAA@XZ
	DW	03240H
	DD	imagerel ??1?$vector@UVkDeviceQueueCreateInfo@@V?$allocator@UVkDeviceQueueCreateInfo@@@std@@@std@@QEAA@XZ
	DW	02e1H
xdata	ENDS
;	COMDAT xdata
xdata	SEGMENT
$cppxdata$??0Apparatus@cow@@QEAA@AEAVWindow@1@@Z DB 028H
	DD	imagerel $stateUnwindMap$??0Apparatus@cow@@QEAA@AEAVWindow@1@@Z
	DD	imagerel $ip2state$??0Apparatus@cow@@QEAA@AEAVWindow@1@@Z
xdata	ENDS
;	COMDAT xdata
xdata	SEGMENT
$unwind$??0Apparatus@cow@@QEAA@AEAVWindow@1@@Z DQ 0003f641d00092e19r ; 1.74619e-307
	DQ	00038011d003e341dr		; 1.33529e-307
	DQ	00000500b700ce00er		; 4.34827e-310
	DD	imagerel __GSHandlerCheck_EH4
	DD	imagerel $cppxdata$??0Apparatus@cow@@QEAA@AEAVWindow@1@@Z
	DD	01b2H
xdata	ENDS
;	COMDAT xdata
xdata	SEGMENT
$unwind$??1Apparatus@cow@@QEAA@XZ DQ 03002320600020601r ; 1.96423e-77
xdata	ENDS
;	COMDAT xdata
xdata	SEGMENT
$chain$8$?createSurface_and_findPhysicalDevice@Apparatus@cow@@AEAAPEAUVkPhysicalDevice_T@@PEAVWindow@2@@Z DD 021H
	DD	imagerel $LN128@createSurf
	DD	imagerel $LN128@createSurf+78
	DD	imagerel $unwind$?createSurface_and_findPhysicalDevice@Apparatus@cow@@AEAAPEAUVkPhysicalDevice_T@@PEAVWindow@2@@Z
xdata	ENDS
;	COMDAT xdata
xdata	SEGMENT
$chain$7$?createSurface_and_findPhysicalDevice@Apparatus@cow@@AEAAPEAUVkPhysicalDevice_T@@PEAVWindow@2@@Z DQ 00036f400000c0021r ; 1.27681e-307
	DQ	00038d4000037e400r		; 1.38111e-307
	DQ	0003a74000039c400r		; 1.4715e-307
	DD	0406400H
	DD	imagerel $LN128@createSurf
	DD	imagerel $LN128@createSurf+78
	DD	imagerel $unwind$?createSurface_and_findPhysicalDevice@Apparatus@cow@@AEAAPEAUVkPhysicalDevice_T@@PEAVWindow@2@@Z
xdata	ENDS
;	COMDAT xdata
xdata	SEGMENT
$chain$5$?createSurface_and_findPhysicalDevice@Apparatus@cow@@AEAAPEAUVkPhysicalDevice_T@@PEAVWindow@2@@Z DQ 00036f478000c7821r ; 1.27691e-307
	DQ	0004064680037e470r		; 1.82369e-307
	DQ	00039c4130038d41br		; 1.43328e-307
	DD	03a7408H
	DD	imagerel $LN128@createSurf
	DD	imagerel $LN128@createSurf+78
	DD	imagerel $unwind$?createSurface_and_findPhysicalDevice@Apparatus@cow@@AEAAPEAUVkPhysicalDevice_T@@PEAVWindow@2@@Z
xdata	ENDS
;	COMDAT xdata
xdata	SEGMENT
$unwind$?createSurface_and_findPhysicalDevice@Apparatus@cow@@AEAAPEAUVkPhysicalDevice_T@@PEAVWindow@2@@Z DQ 0003b011200042319r ; 1.50216e-307
	DD	050023003H
	DD	imagerel __GSHandlerCheck
	DD	01a0H
xdata	ENDS
;	COMDAT xdata
xdata	SEGMENT
$ip2state$?deviceExtensionSupport@Apparatus@cow@@AEAA_NPEAUVkPhysicalDevice_T@@@Z DQ 0045802ca0002010ar ; 9.85536e-288
	DD	06e02031dH
	DB	00H
xdata	ENDS
;	COMDAT xdata
xdata	SEGMENT
$stateUnwindMap$?deviceExtensionSupport@Apparatus@cow@@AEAA_NPEAUVkPhysicalDevice_T@@@Z DW 0a04H
	DD	imagerel ??1?$vector@UVkExtensionProperties@@V?$allocator@UVkExtensionProperties@@@std@@@std@@QEAA@XZ
	DW	032e0H
	DD	imagerel ??1?$set@V?$basic_string@DU?$char_traits@D@std@@V?$allocator@D@2@@std@@U?$less@V?$basic_string@DU?$char_traits@D@std@@V?$allocator@D@2@@std@@@2@V?$allocator@V?$basic_string@DU?$char_traits@D@std@@V?$allocator@D@2@@std@@@2@@std@@QEAA@XZ
	DB	0c0H
xdata	ENDS
;	COMDAT xdata
xdata	SEGMENT
$cppxdata$?deviceExtensionSupport@Apparatus@cow@@AEAA_NPEAUVkPhysicalDevice_T@@@Z DB 028H
	DD	imagerel $stateUnwindMap$?deviceExtensionSupport@Apparatus@cow@@AEAA_NPEAUVkPhysicalDevice_T@@@Z
	DD	imagerel $ip2state$?deviceExtensionSupport@Apparatus@cow@@AEAA_NPEAUVkPhysicalDevice_T@@@Z
xdata	ENDS
;	COMDAT xdata
xdata	SEGMENT
$unwind$?deviceExtensionSupport@Apparatus@cow@@AEAA_NPEAUVkPhysicalDevice_T@@@Z DQ 00018641a00092819r ; 3.39199e-308
	DQ	00012011a0016341ar		; 2.50381e-308
	DQ	00000500b700ce00er		; 4.34827e-310
	DD	imagerel __GSHandlerCheck_EH4
	DD	imagerel $cppxdata$?deviceExtensionSupport@Apparatus@cow@@AEAA_NPEAUVkPhysicalDevice_T@@@Z
	DD	08aH
xdata	ENDS
;	COMDAT xdata
xdata	SEGMENT
$unwind$??1?$set@V?$basic_string@DU?$char_traits@D@std@@V?$allocator@D@2@@std@@U?$less@V?$basic_string@DU?$char_traits@D@std@@V?$allocator@D@2@@std@@@2@V?$allocator@V?$basic_string@DU?$char_traits@D@std@@V?$allocator@D@2@@std@@@2@@std@@QEAA@XZ DQ 03002320600020601r ; 1.96423e-77
xdata	ENDS
;	COMDAT xdata
xdata	SEGMENT
$unwind$?dtor$0@?0??querySwapChainSupport@Apparatus@cow@@AEAA?AUSwapChainSupportDetails@2@PEAUVkPhysicalDevice_T@@@Z@4HA DQ 05002320600020601r ; 2.6336e+77
xdata	ENDS
;	COMDAT xdata
xdata	SEGMENT
$ip2state$?querySwapChainSupport@Apparatus@cow@@AEAA?AUSwapChainSupportDetails@2@PEAUVkPhysicalDevice_T@@@Z DD 0202ed02H
xdata	ENDS
;	COMDAT xdata
xdata	SEGMENT
$stateUnwindMap$?querySwapChainSupport@Apparatus@cow@@AEAA?AUSwapChainSupportDetails@2@PEAUVkPhysicalDevice_T@@@Z DW 0e02H
	DD	imagerel ?dtor$0@?0??querySwapChainSupport@Apparatus@cow@@AEAA?AUSwapChainSupportDetails@2@PEAUVkPhysicalDevice_T@@@Z@4HA
xdata	ENDS
;	COMDAT xdata
xdata	SEGMENT
$cppxdata$?querySwapChainSupport@Apparatus@cow@@AEAA?AUSwapChainSupportDetails@2@PEAUVkPhysicalDevice_T@@@Z DB 028H
	DD	imagerel $stateUnwindMap$?querySwapChainSupport@Apparatus@cow@@AEAA?AUSwapChainSupportDetails@2@PEAUVkPhysicalDevice_T@@@Z
	DD	imagerel $ip2state$?querySwapChainSupport@Apparatus@cow@@AEAA?AUSwapChainSupportDetails@2@PEAUVkPhysicalDevice_T@@@Z
xdata	ENDS
;	COMDAT xdata
xdata	SEGMENT
$unwind$?querySwapChainSupport@Apparatus@cow@@AEAA?AUSwapChainSupportDetails@2@PEAUVkPhysicalDevice_T@@@Z DQ 0f00b920f00081e19r ; -5.35047e+231
	DQ	060047005d007e009r		; 3.42529e+154
	DD	030025003H
	DD	imagerel __GSHandlerCheck_EH4
	DD	imagerel $cppxdata$?querySwapChainSupport@Apparatus@cow@@AEAA?AUSwapChainSupportDetails@2@PEAUVkPhysicalDevice_T@@@Z
	DD	04aH
xdata	ENDS
;	COMDAT xdata
xdata	SEGMENT
$unwind$??1SwapChainSupportDetails@cow@@QEAA@XZ DQ 00007340a00040a01r ; 1.00174e-308
	DD	07006320aH
xdata	ENDS
;	COMDAT xdata
xdata	SEGMENT
$unwind$?deviceSuitable@Apparatus@cow@@AEAA_NPEAUVkPhysicalDevice_T@@@Z DQ 00036340f00072119r ; 1.2351e-307
	DQ	0600770080030010fr		; 3.92809e+154
	DD	05006H
	DD	imagerel __GSHandlerCheck
	DD	0170H
xdata	ENDS
;	COMDAT xdata
xdata	SEGMENT
$ip2state$main DQ 06e0003fd0404e108r		; 7.23652e+221
	DW	04606H
	DB	02H
xdata	ENDS
;	COMDAT xdata
xdata	SEGMENT
$stateUnwindMap$main DW 0a06H
	DD	imagerel ??1Window@cow@@QEAA@XZ
	DW	0581H
	DB	03aH
	DD	imagerel ??1Instance@cow@@QEAA@XZ
	DW	0501H
	DB	03aH
	DD	imagerel ??1?$vector@UVkDeviceQueueCreateInfo@@V?$allocator@UVkDeviceQueueCreateInfo@@@std@@@std@@QEAA@XZ
	DW	05e1H
xdata	ENDS
;	COMDAT xdata
xdata	SEGMENT
$cppxdata$main DB 028H
	DD	imagerel $stateUnwindMap$main
	DD	imagerel $ip2state$main
xdata	ENDS
;	COMDAT xdata
xdata	SEGMENT
$unwind$main DQ	00053741a00072b19r		; 4.32855e-307
	DQ	00050011a0052341ar		; 3.56108e-307
	DD	0500bH
	DD	imagerel __GSHandlerCheck_EH4
	DD	imagerel $cppxdata$main
	DD	0272H
xdata	ENDS
;	COMDAT xdata
xdata	SEGMENT
$unwind$?erase@?$_Tree@V?$_Tset_traits@V?$basic_string@DU?$char_traits@D@std@@V?$allocator@D@2@@std@@U?$less@V?$basic_string@DU?$char_traits@D@std@@V?$allocator@D@2@@std@@@2@V?$allocator@V?$basic_string@DU?$char_traits@D@std@@V?$allocator@D@2@@std@@@2@$0A@@std@@@std@@QEAA_KAEBV?$basic_string@DU?$char_traits@D@std@@V?$allocator@D@2@@2@@Z DQ 0000a340a00040a01r ; 1.41894e-308
	DD	07006520aH
xdata	ENDS
;	COMDAT xdata
xdata	SEGMENT
$unwind$??1?$_Tree@V?$_Tset_traits@V?$basic_string@DU?$char_traits@D@std@@V?$allocator@D@2@@std@@U?$less@V?$basic_string@DU?$char_traits@D@std@@V?$allocator@D@2@@std@@@2@V?$allocator@V?$basic_string@DU?$char_traits@D@std@@V?$allocator@D@2@@std@@@2@$0A@@std@@@std@@QEAA@XZ DQ 03002320600020601r ; 1.96423e-77
xdata	ENDS
;	COMDAT xdata
xdata	SEGMENT
$unwind$??0?$vector@UVkExtensionProperties@@V?$allocator@UVkExtensionProperties@@@std@@@std@@QEAA@_KAEBV?$allocator@UVkExtensionProperties@@@1@@Z DQ 0000a340d00060d01r ; 1.41895e-308
	DQ	060067007e009320dr		; 3.76049e+154
xdata	ENDS
;	COMDAT xdata
xdata	SEGMENT
$chain$1$?resize@?$vector@W4VkPresentModeKHR@@V?$allocator@W4VkPresentModeKHR@@@std@@@std@@QEAAX_K@Z DD 021H
	DD	imagerel $LN28@resize
	DD	imagerel $LN28@resize+93
	DD	imagerel $unwind$?resize@?$vector@W4VkPresentModeKHR@@V?$allocator@W4VkPresentModeKHR@@@std@@@std@@QEAAX_K@Z
xdata	ENDS
;	COMDAT xdata
xdata	SEGMENT
$chain$0$?resize@?$vector@W4VkPresentModeKHR@@V?$allocator@W4VkPresentModeKHR@@@std@@@std@@QEAAX_K@Z DQ 00008340500020521r ; 1.1408e-308
	DD	imagerel $LN28@resize
	DD	imagerel $LN28@resize+93
	DD	imagerel $unwind$?resize@?$vector@W4VkPresentModeKHR@@V?$allocator@W4VkPresentModeKHR@@@std@@@std@@QEAAX_K@Z
xdata	ENDS
;	COMDAT xdata
xdata	SEGMENT
$unwind$?resize@?$vector@W4VkPresentModeKHR@@V?$allocator@W4VkPresentModeKHR@@@std@@@std@@QEAAX_K@Z DQ 00009640a00040a01r ; 1.30595e-308
	DD	07006320aH
xdata	ENDS
;	COMDAT xdata
xdata	SEGMENT
$unwind$??1?$vector@W4VkPresentModeKHR@@V?$allocator@W4VkPresentModeKHR@@@std@@@std@@QEAA@XZ DQ 03002320600020601r ; 1.96423e-77
xdata	ENDS
;	COMDAT xdata
xdata	SEGMENT
$unwind$?resize@?$vector@UVkSurfaceFormatKHR@@V?$allocator@UVkSurfaceFormatKHR@@@std@@@std@@QEAAX_K@Z DQ 00009640f00060f01r ; 1.30596e-308
	DQ	0700b320f0008340fr		; 5.2777e+231
xdata	ENDS
;	COMDAT xdata
xdata	SEGMENT
$unwind$??1?$vector@UVkSurfaceFormatKHR@@V?$allocator@UVkSurfaceFormatKHR@@@std@@@std@@QEAA@XZ DQ 03002320600020601r ; 1.96423e-77
xdata	ENDS
;	COMDAT xdata
xdata	SEGMENT
$unwind$?compare@?$basic_string@DU?$char_traits@D@std@@V?$allocator@D@2@@std@@QEBAHAEBV12@@Z DQ 00006340a00040a01r ; 8.62672e-309
	DD	07006320aH
xdata	ENDS
;	COMDAT xdata
xdata	SEGMENT
$unwind$??1?$basic_string@DU?$char_traits@D@std@@V?$allocator@D@2@@std@@QEAA@XZ DQ 03002320600020601r ; 1.96423e-77
xdata	ENDS
;	COMDAT xdata
xdata	SEGMENT
$unwind$??0?$basic_string@DU?$char_traits@D@std@@V?$allocator@D@2@@std@@QEAA@QEBD@Z DQ 03002320600020601r ; 1.96423e-77
xdata	ENDS
;	COMDAT xdata
xdata	SEGMENT
$unwind$?_Erase@?$_Tree@V?$_Tset_traits@V?$basic_string@DU?$char_traits@D@std@@V?$allocator@D@2@@std@@U?$less@V?$basic_string@DU?$char_traits@D@std@@V?$allocator@D@2@@std@@@2@V?$allocator@V?$basic_string@DU?$char_traits@D@std@@V?$allocator@D@2@@std@@@2@$0A@@std@@@std@@AEAA_KU?$pair@PEAU?$_Tree_node@V?$basic_string@DU?$char_traits@D@std@@V?$allocator@D@2@@std@@PEAX@std@@PEAU12@@2@@Z DQ 03002520600021519r ; 1.97773e-77
	DD	imagerel __GSHandlerCheck
	DD	020H
xdata	ENDS
;	COMDAT xdata
xdata	SEGMENT
$unwind$?_Tidy@?$vector@UVkExtensionProperties@@V?$allocator@UVkExtensionProperties@@@std@@@std@@AEAAXXZ DQ 03002320600020601r ; 1.96423e-77
xdata	ENDS
;	COMDAT xdata
xdata	SEGMENT
$unwind$?_Tidy@?$vector@W4VkPresentModeKHR@@V?$allocator@W4VkPresentModeKHR@@@std@@@std@@AEAAXXZ DQ 03002320600020601r ; 1.96423e-77
xdata	ENDS
;	COMDAT xdata
xdata	SEGMENT
$unwind$?_Tidy@?$vector@UVkSurfaceFormatKHR@@V?$allocator@UVkSurfaceFormatKHR@@@std@@@std@@AEAAXXZ DQ 03002320600020601r ; 1.96423e-77
xdata	ENDS
;	COMDAT xdata
xdata	SEGMENT
$unwind$?_Tidy_deallocate@?$basic_string@DU?$char_traits@D@std@@V?$allocator@D@2@@std@@AEAAXXZ DQ 03002320600020601r ; 1.96423e-77
xdata	ENDS
;	COMDAT xdata
xdata	SEGMENT
$chain$3$?assign@?$basic_string@DU?$char_traits@D@std@@V?$allocator@D@2@@std@@QEAAAEAV12@QEBD_K@Z DD 021H
	DD	imagerel $LN77@assign
	DD	imagerel $LN77@assign+139
	DD	imagerel $unwind$?assign@?$basic_string@DU?$char_traits@D@std@@V?$allocator@D@2@@std@@QEAAAEAV12@QEBD_K@Z
xdata	ENDS
;	COMDAT xdata
xdata	SEGMENT
$chain$2$?assign@?$basic_string@DU?$char_traits@D@std@@V?$allocator@D@2@@std@@QEAAAEAV12@QEBD_K@Z DQ 0000d640000020021r ; 1.8622e-308
	DD	imagerel $LN77@assign
	DD	imagerel $LN77@assign+139
	DD	imagerel $unwind$?assign@?$basic_string@DU?$char_traits@D@std@@V?$allocator@D@2@@std@@QEAAAEAV12@QEBD_K@Z
xdata	ENDS
;	COMDAT xdata
xdata	SEGMENT
$chain$0$?assign@?$basic_string@DU?$char_traits@D@std@@V?$allocator@D@2@@std@@QEAAAEAV12@QEBD_K@Z DQ 0000d640500020521r ; 1.86221e-308
	DD	imagerel $LN77@assign
	DD	imagerel $LN77@assign+139
	DD	imagerel $unwind$?assign@?$basic_string@DU?$char_traits@D@std@@V?$allocator@D@2@@std@@QEAAAEAV12@QEBD_K@Z
xdata	ENDS
;	COMDAT xdata
xdata	SEGMENT
$unwind$?assign@?$basic_string@DU?$char_traits@D@std@@V?$allocator@D@2@@std@@QEAAAEAV12@QEBD_K@Z DQ 0f008320c00060c01r ; -4.69549e+231
	DQ	0300250037004e006r		; 1.97688e-77
xdata	ENDS
;	COMDAT xdata
xdata	SEGMENT
$unwind$??R<lambda_1>@?1??assign@?$basic_string@DU?$char_traits@D@std@@V?$allocator@D@2@@std@@QEAAAEAV23@QEBD_K@Z@QEBA@QEAD10@Z DQ 00006340a00040a01r ; 8.62672e-309
	DD	07006320aH
xdata	ENDS
;	COMDAT xdata
xdata	SEGMENT
$unwind$?copy@?$_Char_traits@DH@std@@SAPEADQEADQEBD_K@Z DQ 03002320600020601r ; 1.96423e-77
xdata	ENDS
;	COMDAT xdata
xdata	SEGMENT
$unwind$?_Erase_unchecked@?$_Tree@V?$_Tset_traits@V?$basic_string@DU?$char_traits@D@std@@V?$allocator@D@2@@std@@U?$less@V?$basic_string@DU?$char_traits@D@std@@V?$allocator@D@2@@std@@@2@V?$allocator@V?$basic_string@DU?$char_traits@D@std@@V?$allocator@D@2@@std@@@2@$0A@@std@@@std@@AEAAPEAU?$_Tree_node@V?$basic_string@DU?$char_traits@D@std@@V?$allocator@D@2@@std@@PEAX@2@V?$_Tree_unchecked_const_iterator@V?$_Tree_val@U?$_Tree_simple_types@V?$basic_string@DU?$char_traits@D@std@@V?$allocator@D@2@@std@@@std@@@std@@U_Iterator_base0@2@@2@0@Z DQ 0000a541200081201r ; 1.43634e-308
	DQ	0e00e321200093412r		; -5.06071e+154
	DD	0600b700cH
xdata	ENDS
;	COMDAT xdata
xdata	SEGMENT
$unwind$?deallocate@?$allocator@UVkExtensionProperties@@@std@@QEAAXQEAUVkExtensionProperties@@_K@Z DQ 00000420400010401r ; 3.58617e-310
xdata	ENDS
;	COMDAT xdata
xdata	SEGMENT
$unwind$?deallocate@?$allocator@W4VkPresentModeKHR@@@std@@QEAAXQEAW4VkPresentModeKHR@@_K@Z DQ 00000420400010401r ; 3.58617e-310
xdata	ENDS
;	COMDAT xdata
xdata	SEGMENT
$unwind$?deallocate@?$allocator@UVkSurfaceFormatKHR@@@std@@QEAAXQEAUVkSurfaceFormatKHR@@_K@Z DQ 00000420400010401r ; 3.58617e-310
xdata	ENDS
;	COMDAT xdata
xdata	SEGMENT
$unwind$?move@?$_Char_traits@DH@std@@SAPEADQEADQEBD_K@Z DQ 03002320600020601r ; 1.96423e-77
xdata	ENDS
;	COMDAT xdata
xdata	SEGMENT
$unwind$?allocate@?$allocator@D@std@@QEAAPEAD_K@Z DQ 00000420400010401r ; 3.58617e-310
xdata	ENDS
;	COMDAT xdata
xdata	SEGMENT
$unwind$?deallocate@?$allocator@D@std@@QEAAXQEAD_K@Z DQ 00000420400010401r ; 3.58617e-310
xdata	ENDS
;	COMDAT xdata
xdata	SEGMENT
$unwind$?clear@?$_Tree@V?$_Tset_traits@V?$basic_string@DU?$char_traits@D@std@@V?$allocator@D@2@@std@@U?$less@V?$basic_string@DU?$char_traits@D@std@@V?$allocator@D@2@@std@@@2@V?$allocator@V?$basic_string@DU?$char_traits@D@std@@V?$allocator@D@2@@std@@@2@$0A@@std@@@std@@QEAAXXZ DQ 00006340a00040a01r ; 8.62672e-309
	DD	07006320aH
xdata	ENDS
;	COMDAT xdata
xdata	SEGMENT
$unwind$?_Erase_unchecked@?$_Tree@V?$_Tset_traits@V?$basic_string@DU?$char_traits@D@std@@V?$allocator@D@2@@std@@U?$less@V?$basic_string@DU?$char_traits@D@std@@V?$allocator@D@2@@std@@@2@V?$allocator@V?$basic_string@DU?$char_traits@D@std@@V?$allocator@D@2@@std@@@2@$0A@@std@@@std@@AEAAPEAU?$_Tree_node@V?$basic_string@DU?$char_traits@D@std@@V?$allocator@D@2@@std@@PEAX@2@V?$_Tree_unchecked_const_iterator@V?$_Tree_val@U?$_Tree_simple_types@V?$basic_string@DU?$char_traits@D@std@@V?$allocator@D@2@@std@@@std@@@std@@U_Iterator_base0@2@@2@@Z DQ 00007340a00040a01r ; 1.00174e-308
	DD	07006320aH
xdata	ENDS
;	COMDAT xdata
xdata	SEGMENT
$chain$1$?_Extract@?$_Tree_val@U?$_Tree_simple_types@V?$basic_string@DU?$char_traits@D@std@@V?$allocator@D@2@@std@@@std@@@std@@QEAAPEAU?$_Tree_node@V?$basic_string@DU?$char_traits@D@std@@V?$allocator@D@2@@std@@PEAX@2@V?$_Tree_unchecked_const_iterator@V?$_Tree_val@U?$_Tree_simple_types@V?$basic_string@DU?$char_traits@D@std@@V?$allocator@D@2@@std@@@std@@@std@@U_Iterator_base0@2@@2@@Z DD 021H
	DD	imagerel $LN145@Extract
	DD	imagerel $LN145@Extract+435
	DD	imagerel $unwind$?_Extract@?$_Tree_val@U?$_Tree_simple_types@V?$basic_string@DU?$char_traits@D@std@@V?$allocator@D@2@@std@@@std@@@std@@QEAAPEAU?$_Tree_node@V?$basic_string@DU?$char_traits@D@std@@V?$allocator@D@2@@std@@PEAX@2@V?$_Tree_unchecked_const_iterator@V?$_Tree_val@U?$_Tree_simple_types@V?$basic_string@DU?$char_traits@D@std@@V?$allocator@D@2@@std@@@std@@@std@@U_Iterator_base0@2@@2@@Z
xdata	ENDS
;	COMDAT xdata
xdata	SEGMENT
$chain$0$?_Extract@?$_Tree_val@U?$_Tree_simple_types@V?$basic_string@DU?$char_traits@D@std@@V?$allocator@D@2@@std@@@std@@@std@@QEAAPEAU?$_Tree_node@V?$basic_string@DU?$char_traits@D@std@@V?$allocator@D@2@@std@@PEAX@2@V?$_Tree_unchecked_const_iterator@V?$_Tree_val@U?$_Tree_simple_types@V?$basic_string@DU?$char_traits@D@std@@V?$allocator@D@2@@std@@@std@@@std@@U_Iterator_base0@2@@2@@Z DQ 00003340500020521r ; 4.4546e-309
	DD	imagerel $LN145@Extract
	DD	imagerel $LN145@Extract+435
	DD	imagerel $unwind$?_Extract@?$_Tree_val@U?$_Tree_simple_types@V?$basic_string@DU?$char_traits@D@std@@V?$allocator@D@2@@std@@@std@@@std@@QEAAPEAU?$_Tree_node@V?$basic_string@DU?$char_traits@D@std@@V?$allocator@D@2@@std@@PEAX@2@V?$_Tree_unchecked_const_iterator@V?$_Tree_val@U?$_Tree_simple_types@V?$basic_string@DU?$char_traits@D@std@@V?$allocator@D@2@@std@@@std@@@std@@U_Iterator_base0@2@@2@@Z
xdata	ENDS
;	COMDAT xdata
xdata	SEGMENT
$unwind$?_Extract@?$_Tree_val@U?$_Tree_simple_types@V?$basic_string@DU?$char_traits@D@std@@V?$allocator@D@2@@std@@@std@@@std@@QEAAPEAU?$_Tree_node@V?$basic_string@DU?$char_traits@D@std@@V?$allocator@D@2@@std@@PEAX@2@V?$_Tree_unchecked_const_iterator@V?$_Tree_val@U?$_Tree_simple_types@V?$basic_string@DU?$char_traits@D@std@@V?$allocator@D@2@@std@@@std@@@std@@U_Iterator_base0@2@@2@@Z DQ 00004640600030601r ; 6.10604e-309
	DD	07006H
xdata	ENDS
;	COMDAT xdata
xdata	SEGMENT
$ip2state$??$?0V?$_Array_const_iterator@PEBD$00@std@@@?$set@V?$basic_string@DU?$char_traits@D@std@@V?$allocator@D@2@@std@@U?$less@V?$basic_string@DU?$char_traits@D@std@@V?$allocator@D@2@@std@@@2@V?$allocator@V?$basic_string@DU?$char_traits@D@std@@V?$allocator@D@2@@std@@@2@@std@@QEAA@V?$_Array_const_iterator@PEBD$00@1@0@Z DQ 0ed06820484007608r ; -1.55182e+217
	DW	0803H
xdata	ENDS
;	COMDAT xdata
xdata	SEGMENT
$stateUnwindMap$??$?0V?$_Array_const_iterator@PEBD$00@std@@@?$set@V?$basic_string@DU?$char_traits@D@std@@V?$allocator@D@2@@std@@U?$less@V?$basic_string@DU?$char_traits@D@std@@V?$allocator@D@2@@std@@@2@V?$allocator@V?$basic_string@DU?$char_traits@D@std@@V?$allocator@D@2@@std@@@2@@std@@QEAA@V?$_Array_const_iterator@PEBD$00@1@0@Z DW 0c08H
	DD	imagerel ??1?$_Tree@V?$_Tset_traits@V?$basic_string@DU?$char_traits@D@std@@V?$allocator@D@2@@std@@U?$less@V?$basic_string@DU?$char_traits@D@std@@V?$allocator@D@2@@std@@@2@V?$allocator@V?$basic_string@DU?$char_traits@D@std@@V?$allocator@D@2@@std@@@2@$0A@@std@@@std@@QEAA@XZ
	DW	03260H
	DD	imagerel ??1?$_Alloc_construct_ptr@V?$allocator@U?$_Tree_node@V?$basic_string@DU?$char_traits@D@std@@V?$allocator@D@2@@std@@PEAX@std@@@std@@@std@@QEAA@XZ
	DW	06240H
	DD	imagerel ??1?$_Tree_temp_node_alloc@V?$allocator@U?$_Tree_node@V?$basic_string@DU?$char_traits@D@std@@V?$allocator@D@2@@std@@PEAX@std@@@std@@@std@@QEAA@XZ
	DW	09240H
	DD	imagerel ??1?$_Tree_temp_node@V?$allocator@U?$_Tree_node@V?$basic_string@DU?$char_traits@D@std@@V?$allocator@D@2@@std@@PEAX@std@@@std@@@std@@QEAA@XZ
	DB	040H
xdata	ENDS
;	COMDAT xdata
xdata	SEGMENT
$cppxdata$??$?0V?$_Array_const_iterator@PEBD$00@std@@@?$set@V?$basic_string@DU?$char_traits@D@std@@V?$allocator@D@2@@std@@U?$less@V?$basic_string@DU?$char_traits@D@std@@V?$allocator@D@2@@std@@@2@V?$allocator@V?$basic_string@DU?$char_traits@D@std@@V?$allocator@D@2@@std@@@2@@std@@QEAA@V?$_Array_const_iterator@PEBD$00@1@0@Z DB 028H
	DD	imagerel $stateUnwindMap$??$?0V?$_Array_const_iterator@PEBD$00@std@@@?$set@V?$basic_string@DU?$char_traits@D@std@@V?$allocator@D@2@@std@@U?$less@V?$basic_string@DU?$char_traits@D@std@@V?$allocator@D@2@@std@@@2@V?$allocator@V?$basic_string@DU?$char_traits@D@std@@V?$allocator@D@2@@std@@@2@@std@@QEAA@V?$_Array_const_iterator@PEBD$00@1@0@Z
	DD	imagerel $ip2state$??$?0V?$_Array_const_iterator@PEBD$00@std@@@?$set@V?$basic_string@DU?$char_traits@D@std@@V?$allocator@D@2@@std@@U?$less@V?$basic_string@DU?$char_traits@D@std@@V?$allocator@D@2@@std@@@2@V?$allocator@V?$basic_string@DU?$char_traits@D@std@@V?$allocator@D@2@@std@@@2@@std@@QEAA@V?$_Array_const_iterator@PEBD$00@1@0@Z
xdata	ENDS
;	COMDAT xdata
xdata	SEGMENT
$unwind$??$?0V?$_Array_const_iterator@PEBD$00@std@@@?$set@V?$basic_string@DU?$char_traits@D@std@@V?$allocator@D@2@@std@@U?$less@V?$basic_string@DU?$char_traits@D@std@@V?$allocator@D@2@@std@@@2@V?$allocator@V?$basic_string@DU?$char_traits@D@std@@V?$allocator@D@2@@std@@@2@@std@@QEAA@V?$_Array_const_iterator@PEBD$00@1@0@Z DQ 00019641f000c1f11r ; 3.53107e-308
	DQ	00017341f0018541fr		; 3.22686e-308
	DQ	0d014e016f018f21fr		; -6.043e+77
	DD	07010c012H
	DD	imagerel __CxxFrameHandler4
	DD	imagerel $cppxdata$??$?0V?$_Array_const_iterator@PEBD$00@std@@@?$set@V?$basic_string@DU?$char_traits@D@std@@V?$allocator@D@2@@std@@U?$less@V?$basic_string@DU?$char_traits@D@std@@V?$allocator@D@2@@std@@@2@V?$allocator@V?$basic_string@DU?$char_traits@D@std@@V?$allocator@D@2@@std@@@2@@std@@QEAA@V?$_Array_const_iterator@PEBD$00@1@0@Z
xdata	ENDS
;	COMDAT xdata
xdata	SEGMENT
$unwind$??$_Eqrange@V?$basic_string@DU?$char_traits@D@std@@V?$allocator@D@2@@std@@@?$_Tree@V?$_Tset_traits@V?$basic_string@DU?$char_traits@D@std@@V?$allocator@D@2@@std@@U?$less@V?$basic_string@DU?$char_traits@D@std@@V?$allocator@D@2@@std@@@2@V?$allocator@V?$basic_string@DU?$char_traits@D@std@@V?$allocator@D@2@@std@@@2@$0A@@std@@@std@@IEBA?AU?$pair@PEAU?$_Tree_node@V?$basic_string@DU?$char_traits@D@std@@V?$allocator@D@2@@std@@PEAX@std@@PEAU12@@1@AEBV?$basic_string@DU?$char_traits@D@std@@V?$allocator@D@2@@1@@Z DQ 00011641c000c1c01r ; 2.41852e-308
	DQ	0000e341c0010541cr		; 1.97525e-308
	DQ	0d014e016f018721cr		; -6.043e+77
	DD	07010c012H
xdata	ENDS
;	COMDAT xdata
xdata	SEGMENT
$unwind$??$_Erase_head@V?$allocator@U?$_Tree_node@V?$basic_string@DU?$char_traits@D@std@@V?$allocator@D@2@@std@@PEAX@std@@@std@@@?$_Tree_val@U?$_Tree_simple_types@V?$basic_string@DU?$char_traits@D@std@@V?$allocator@D@2@@std@@@std@@@std@@QEAAXAEAV?$allocator@U?$_Tree_node@V?$basic_string@DU?$char_traits@D@std@@V?$allocator@D@2@@std@@PEAX@std@@@1@@Z DQ 03002320600020601r ; 1.96423e-77
xdata	ENDS
;	COMDAT xdata
xdata	SEGMENT
$chain$6$??$_Construct_n@$$V@?$vector@UVkExtensionProperties@@V?$allocator@UVkExtensionProperties@@@std@@@std@@AEAAX_K@Z DD 021H
	DD	imagerel $LN74@Construct_
	DD	imagerel $LN74@Construct_+36
	DD	imagerel $unwind$??$_Construct_n@$$V@?$vector@UVkExtensionProperties@@V?$allocator@UVkExtensionProperties@@@std@@@std@@AEAAX_K@Z
xdata	ENDS
;	COMDAT xdata
xdata	SEGMENT
$chain$5$??$_Construct_n@$$V@?$vector@UVkExtensionProperties@@V?$allocator@UVkExtensionProperties@@@std@@@std@@AEAAX_K@Z DQ 00004f40000080021r ; 6.88817e-309
	DQ	0000b74000005e400r		; 1.59275e-308
	DD	0a3400H
	DD	imagerel $LN74@Construct_
	DD	imagerel $LN74@Construct_+36
	DD	imagerel $unwind$??$_Construct_n@$$V@?$vector@UVkExtensionProperties@@V?$allocator@UVkExtensionProperties@@@std@@@std@@AEAAX_K@Z
xdata	ENDS
;	COMDAT xdata
xdata	SEGMENT
$chain$4$??$_Construct_n@$$V@?$vector@UVkExtensionProperties@@V?$allocator@UVkExtensionProperties@@@std@@@std@@AEAAX_K@Z DD 021H
	DD	imagerel $LN74@Construct_
	DD	imagerel $LN74@Construct_+36
	DD	imagerel $unwind$??$_Construct_n@$$V@?$vector@UVkExtensionProperties@@V?$allocator@UVkExtensionProperties@@@std@@@std@@AEAAX_K@Z
xdata	ENDS
;	COMDAT xdata
xdata	SEGMENT
$chain$3$??$_Construct_n@$$V@?$vector@UVkExtensionProperties@@V?$allocator@UVkExtensionProperties@@@std@@@std@@AEAAX_K@Z DQ 00004f41b00081b21r ; 6.88874e-309
	DQ	0000b740a0005e416r		; 1.59277e-308
	DD	0a3405H
	DD	imagerel $LN74@Construct_
	DD	imagerel $LN74@Construct_+36
	DD	imagerel $unwind$??$_Construct_n@$$V@?$vector@UVkExtensionProperties@@V?$allocator@UVkExtensionProperties@@@std@@@std@@AEAAX_K@Z
xdata	ENDS
;	COMDAT xdata
xdata	SEGMENT
$unwind$??$_Construct_n@$$V@?$vector@UVkExtensionProperties@@V?$allocator@UVkExtensionProperties@@@std@@@std@@AEAAX_K@Z DQ 0600a520e00020e01r ; 4.41126e+154
xdata	ENDS
;	COMDAT xdata
xdata	SEGMENT
$chain$1$??$_Resize@U_Value_init_tag@std@@@?$vector@W4VkPresentModeKHR@@V?$allocator@W4VkPresentModeKHR@@@std@@@std@@AEAAX_KAEBU_Value_init_tag@1@@Z DD 021H
	DD	imagerel $LN26@Resize
	DD	imagerel $LN26@Resize+93
	DD	imagerel $unwind$??$_Resize@U_Value_init_tag@std@@@?$vector@W4VkPresentModeKHR@@V?$allocator@W4VkPresentModeKHR@@@std@@@std@@AEAAX_KAEBU_Value_init_tag@1@@Z
xdata	ENDS
;	COMDAT xdata
xdata	SEGMENT
$chain$0$??$_Resize@U_Value_init_tag@std@@@?$vector@W4VkPresentModeKHR@@V?$allocator@W4VkPresentModeKHR@@@std@@@std@@AEAAX_KAEBU_Value_init_tag@1@@Z DQ 00008340500020521r ; 1.1408e-308
	DD	imagerel $LN26@Resize
	DD	imagerel $LN26@Resize+93
	DD	imagerel $unwind$??$_Resize@U_Value_init_tag@std@@@?$vector@W4VkPresentModeKHR@@V?$allocator@W4VkPresentModeKHR@@@std@@@std@@AEAAX_KAEBU_Value_init_tag@1@@Z
xdata	ENDS
;	COMDAT xdata
xdata	SEGMENT
$unwind$??$_Resize@U_Value_init_tag@std@@@?$vector@W4VkPresentModeKHR@@V?$allocator@W4VkPresentModeKHR@@@std@@@std@@AEAAX_KAEBU_Value_init_tag@1@@Z DQ 00009640a00040a01r ; 1.30595e-308
	DD	07006320aH
xdata	ENDS
;	COMDAT xdata
xdata	SEGMENT
$unwind$??$_Resize@U_Value_init_tag@std@@@?$vector@UVkSurfaceFormatKHR@@V?$allocator@UVkSurfaceFormatKHR@@@std@@@std@@AEAAX_KAEBU_Value_init_tag@1@@Z DQ 00009640f00060f01r ; 1.30596e-308
	DQ	0700b320f0008340fr		; 5.2777e+231
xdata	ENDS
;	COMDAT xdata
xdata	SEGMENT
$unwind$??$_Traits_compare@U?$char_traits@D@std@@@std@@YAHQEBD_K01@Z DQ 00006340a00040a01r ; 8.62672e-309
	DD	07006320aH
xdata	ENDS
;	COMDAT xdata
xdata	SEGMENT
$chain$4$??$_Reallocate_for@V<lambda_1>@?1??assign@?$basic_string@DU?$char_traits@D@std@@V?$allocator@D@2@@std@@QEAAAEAV34@QEBD_K@Z@PEBD@?$basic_string@DU?$char_traits@D@std@@V?$allocator@D@2@@std@@AEAAAEAV01@_KV<lambda_1>@?1??assign@01@QEAAAEAV01@QEBD0@Z@PEBD@Z DD 021H
	DD	imagerel $LN66@Reallocate
	DD	imagerel $LN66@Reallocate+43
	DD	imagerel $unwind$??$_Reallocate_for@V<lambda_1>@?1??assign@?$basic_string@DU?$char_traits@D@std@@V?$allocator@D@2@@std@@QEAAAEAV34@QEBD_K@Z@PEBD@?$basic_string@DU?$char_traits@D@std@@V?$allocator@D@2@@std@@AEAAAEAV01@_KV<lambda_1>@?1??assign@01@QEAAAEAV01@QEBD0@Z@PEBD@Z
xdata	ENDS
;	COMDAT xdata
xdata	SEGMENT
$chain$3$??$_Reallocate_for@V<lambda_1>@?1??assign@?$basic_string@DU?$char_traits@D@std@@V?$allocator@D@2@@std@@QEAAAEAV34@QEBD_K@Z@PEBD@?$basic_string@DU?$char_traits@D@std@@V?$allocator@D@2@@std@@AEAAAEAV01@_KV<lambda_1>@?1??assign@01@QEAAAEAV01@QEBD0@Z@PEBD@Z DQ 00004540000040021r ; 6.019e-309
	DD	0c3400H
	DD	imagerel $LN66@Reallocate
	DD	imagerel $LN66@Reallocate+43
	DD	imagerel $unwind$??$_Reallocate_for@V<lambda_1>@?1??assign@?$basic_string@DU?$char_traits@D@std@@V?$allocator@D@2@@std@@QEAAAEAV34@QEBD_K@Z@PEBD@?$basic_string@DU?$char_traits@D@std@@V?$allocator@D@2@@std@@AEAAAEAV01@_KV<lambda_1>@?1??assign@01@QEAAAEAV01@QEBD0@Z@PEBD@Z
xdata	ENDS
;	COMDAT xdata
xdata	SEGMENT
$chain$1$??$_Reallocate_for@V<lambda_1>@?1??assign@?$basic_string@DU?$char_traits@D@std@@V?$allocator@D@2@@std@@QEAAAEAV34@QEBD_K@Z@PEBD@?$basic_string@DU?$char_traits@D@std@@V?$allocator@D@2@@std@@AEAAAEAV01@_KV<lambda_1>@?1??assign@01@QEAAAEAV01@QEBD0@Z@PEBD@Z DQ 0000c343500043521r ; 1.69717e-308
	DD	045405H
	DD	imagerel $LN66@Reallocate
	DD	imagerel $LN66@Reallocate+43
	DD	imagerel $unwind$??$_Reallocate_for@V<lambda_1>@?1??assign@?$basic_string@DU?$char_traits@D@std@@V?$allocator@D@2@@std@@QEAAAEAV34@QEBD_K@Z@PEBD@?$basic_string@DU?$char_traits@D@std@@V?$allocator@D@2@@std@@AEAAAEAV01@_KV<lambda_1>@?1??assign@01@QEAAAEAV01@QEBD0@Z@PEBD@Z
xdata	ENDS
;	COMDAT xdata
xdata	SEGMENT
$unwind$??$_Reallocate_for@V<lambda_1>@?1??assign@?$basic_string@DU?$char_traits@D@std@@V?$allocator@D@2@@std@@QEAAAEAV34@QEBD_K@Z@PEBD@?$basic_string@DU?$char_traits@D@std@@V?$allocator@D@2@@std@@AEAAAEAV01@_KV<lambda_1>@?1??assign@01@QEAAAEAV01@QEBD0@Z@PEBD@Z DQ 0f007420b00050b01r ; -4.51355e+231
	DQ	0000060027003e005r		; 5.21553e-310
xdata	ENDS
;	COMDAT xdata
xdata	SEGMENT
$chain$3$??$_Erase_tree@V?$allocator@U?$_Tree_node@V?$basic_string@DU?$char_traits@D@std@@V?$allocator@D@2@@std@@PEAX@std@@@std@@@?$_Tree_val@U?$_Tree_simple_types@V?$basic_string@DU?$char_traits@D@std@@V?$allocator@D@2@@std@@@std@@@std@@QEAAXAEAV?$allocator@U?$_Tree_node@V?$basic_string@DU?$char_traits@D@std@@V?$allocator@D@2@@std@@PEAX@std@@@1@PEAU?$_Tree_node@V?$basic_string@DU?$char_traits@D@std@@V?$allocator@D@2@@std@@PEAX@1@@Z DQ 00004e40000040021r ; 6.80125e-309
	DD	053400H
	DD	imagerel $LN75@Erase_tree
	DD	imagerel $LN75@Erase_tree+28
	DD	imagerel $unwind$??$_Erase_tree@V?$allocator@U?$_Tree_node@V?$basic_string@DU?$char_traits@D@std@@V?$allocator@D@2@@std@@PEAX@std@@@std@@@?$_Tree_val@U?$_Tree_simple_types@V?$basic_string@DU?$char_traits@D@std@@V?$allocator@D@2@@std@@@std@@@std@@QEAAXAEAV?$allocator@U?$_Tree_node@V?$basic_string@DU?$char_traits@D@std@@V?$allocator@D@2@@std@@PEAX@std@@@1@PEAU?$_Tree_node@V?$basic_string@DU?$char_traits@D@std@@V?$allocator@D@2@@std@@PEAX@1@@Z
xdata	ENDS
;	COMDAT xdata
xdata	SEGMENT
$chain$2$??$_Erase_tree@V?$allocator@U?$_Tree_node@V?$basic_string@DU?$char_traits@D@std@@V?$allocator@D@2@@std@@PEAX@std@@@std@@@?$_Tree_val@U?$_Tree_simple_types@V?$basic_string@DU?$char_traits@D@std@@V?$allocator@D@2@@std@@@std@@@std@@QEAAXAEAV?$allocator@U?$_Tree_node@V?$basic_string@DU?$char_traits@D@std@@V?$allocator@D@2@@std@@PEAX@std@@@1@PEAU?$_Tree_node@V?$basic_string@DU?$char_traits@D@std@@V?$allocator@D@2@@std@@PEAX@1@@Z DD 021H
	DD	imagerel $LN75@Erase_tree
	DD	imagerel $LN75@Erase_tree+28
	DD	imagerel $unwind$??$_Erase_tree@V?$allocator@U?$_Tree_node@V?$basic_string@DU?$char_traits@D@std@@V?$allocator@D@2@@std@@PEAX@std@@@std@@@?$_Tree_val@U?$_Tree_simple_types@V?$basic_string@DU?$char_traits@D@std@@V?$allocator@D@2@@std@@@std@@@std@@QEAAXAEAV?$allocator@U?$_Tree_node@V?$basic_string@DU?$char_traits@D@std@@V?$allocator@D@2@@std@@PEAX@std@@@1@PEAU?$_Tree_node@V?$basic_string@DU?$char_traits@D@std@@V?$allocator@D@2@@std@@PEAX@1@@Z
xdata	ENDS
;	COMDAT xdata
xdata	SEGMENT
$chain$1$??$_Erase_tree@V?$allocator@U?$_Tree_node@V?$basic_string@DU?$char_traits@D@std@@V?$allocator@D@2@@std@@PEAX@std@@@std@@@?$_Tree_val@U?$_Tree_simple_types@V?$basic_string@DU?$char_traits@D@std@@V?$allocator@D@2@@std@@@std@@@std@@QEAAXAEAV?$allocator@U?$_Tree_node@V?$basic_string@DU?$char_traits@D@std@@V?$allocator@D@2@@std@@PEAX@std@@@1@PEAU?$_Tree_node@V?$basic_string@DU?$char_traits@D@std@@V?$allocator@D@2@@std@@PEAX@1@@Z DQ 00004e40a00040a21r ; 6.80146e-309
	DD	053405H
	DD	imagerel $LN75@Erase_tree
	DD	imagerel $LN75@Erase_tree+28
	DD	imagerel $unwind$??$_Erase_tree@V?$allocator@U?$_Tree_node@V?$basic_string@DU?$char_traits@D@std@@V?$allocator@D@2@@std@@PEAX@std@@@std@@@?$_Tree_val@U?$_Tree_simple_types@V?$basic_string@DU?$char_traits@D@std@@V?$allocator@D@2@@std@@@std@@@std@@QEAAXAEAV?$allocator@U?$_Tree_node@V?$basic_string@DU?$char_traits@D@std@@V?$allocator@D@2@@std@@PEAX@std@@@1@PEAU?$_Tree_node@V?$basic_string@DU?$char_traits@D@std@@V?$allocator@D@2@@std@@PEAX@1@@Z
xdata	ENDS
;	COMDAT xdata
xdata	SEGMENT
$unwind$??$_Erase_tree@V?$allocator@U?$_Tree_node@V?$basic_string@DU?$char_traits@D@std@@V?$allocator@D@2@@std@@PEAX@std@@@std@@@?$_Tree_val@U?$_Tree_simple_types@V?$basic_string@DU?$char_traits@D@std@@V?$allocator@D@2@@std@@@std@@@std@@QEAAXAEAV?$allocator@U?$_Tree_node@V?$basic_string@DU?$char_traits@D@std@@V?$allocator@D@2@@std@@PEAX@std@@@1@PEAU?$_Tree_node@V?$basic_string@DU?$char_traits@D@std@@V?$allocator@D@2@@std@@PEAX@1@@Z DQ 07004520800040801r ; 3.94348e+231
	DD	050026003H
xdata	ENDS
;	COMDAT xdata
xdata	SEGMENT
$unwind$??$_Freenode@V?$allocator@U?$_Tree_node@V?$basic_string@DU?$char_traits@D@std@@V?$allocator@D@2@@std@@PEAX@std@@@std@@@?$_Tree_node@V?$basic_string@DU?$char_traits@D@std@@V?$allocator@D@2@@std@@PEAX@std@@SAXAEAV?$allocator@U?$_Tree_node@V?$basic_string@DU?$char_traits@D@std@@V?$allocator@D@2@@std@@PEAX@std@@@1@PEAU01@@Z DQ 03002320600020601r ; 1.96423e-77
xdata	ENDS
;	COMDAT xdata
xdata	SEGMENT
$unwind$??R?$less@V?$basic_string@DU?$char_traits@D@std@@V?$allocator@D@2@@std@@@std@@QEBA_NAEBV?$basic_string@DU?$char_traits@D@std@@V?$allocator@D@2@@1@0@Z DQ 00006340a00040a01r ; 8.62672e-309
	DD	07006320aH
xdata	ENDS
;	COMDAT xdata
xdata	SEGMENT
$unwind$??0?$_Tree@V?$_Tset_traits@V?$basic_string@DU?$char_traits@D@std@@V?$allocator@D@2@@std@@U?$less@V?$basic_string@DU?$char_traits@D@std@@V?$allocator@D@2@@std@@@2@V?$allocator@V?$basic_string@DU?$char_traits@D@std@@V?$allocator@D@2@@std@@@2@$0A@@std@@@std@@QEAA@AEBU?$less@V?$basic_string@DU?$char_traits@D@std@@V?$allocator@D@2@@std@@@1@@Z DQ 03002320600020601r ; 1.96423e-77
xdata	ENDS
;	COMDAT xdata
xdata	SEGMENT
$chain$2$?_Buy_nonzero@?$vector@UVkExtensionProperties@@V?$allocator@UVkExtensionProperties@@@std@@@std@@AEAAX_K@Z DQ 00006340000020021r ; 8.62651e-309
	DD	imagerel $LN39@Buy_nonzer
	DD	imagerel $LN39@Buy_nonzer+24
	DD	imagerel $unwind$?_Buy_nonzero@?$vector@UVkExtensionProperties@@V?$allocator@UVkExtensionProperties@@@std@@@std@@AEAAX_K@Z
xdata	ENDS
;	COMDAT xdata
xdata	SEGMENT
$chain$1$?_Buy_nonzero@?$vector@UVkExtensionProperties@@V?$allocator@UVkExtensionProperties@@@std@@@std@@AEAAX_K@Z DD 021H
	DD	imagerel $LN39@Buy_nonzer
	DD	imagerel $LN39@Buy_nonzer+24
	DD	imagerel $unwind$?_Buy_nonzero@?$vector@UVkExtensionProperties@@V?$allocator@UVkExtensionProperties@@@std@@@std@@AEAAX_K@Z
xdata	ENDS
;	COMDAT xdata
xdata	SEGMENT
$chain$0$?_Buy_nonzero@?$vector@UVkExtensionProperties@@V?$allocator@UVkExtensionProperties@@@std@@@std@@AEAAX_K@Z DQ 00006340500020521r ; 8.62661e-309
	DD	imagerel $LN39@Buy_nonzer
	DD	imagerel $LN39@Buy_nonzer+24
	DD	imagerel $unwind$?_Buy_nonzero@?$vector@UVkExtensionProperties@@V?$allocator@UVkExtensionProperties@@@std@@@std@@AEAAX_K@Z
xdata	ENDS
;	COMDAT xdata
xdata	SEGMENT
$unwind$?_Buy_nonzero@?$vector@UVkExtensionProperties@@V?$allocator@UVkExtensionProperties@@@std@@@std@@AEAAX_K@Z DQ 07002320600020601r ; 3.53109e+231
xdata	ENDS
;	COMDAT xdata
xdata	SEGMENT
$unwind$?_Alloc_sentinel_and_proxy@?$_Tree@V?$_Tset_traits@V?$basic_string@DU?$char_traits@D@std@@V?$allocator@D@2@@std@@U?$less@V?$basic_string@DU?$char_traits@D@std@@V?$allocator@D@2@@std@@@2@V?$allocator@V?$basic_string@DU?$char_traits@D@std@@V?$allocator@D@2@@std@@@2@$0A@@std@@@std@@IEAAXXZ DQ 03002320600020601r ; 1.96423e-77
xdata	ENDS
;	COMDAT xdata
xdata	SEGMENT
$unwind$?_Xlength@?$vector@UVkExtensionProperties@@V?$allocator@UVkExtensionProperties@@@std@@@std@@CAXXZ DQ 00000420400010401r ; 3.58617e-310
xdata	ENDS
;	COMDAT xdata
xdata	SEGMENT
$unwind$?_Buy_raw@?$vector@UVkExtensionProperties@@V?$allocator@UVkExtensionProperties@@@std@@@std@@AEAAX_K@Z DQ 00006340a00040a01r ; 8.62672e-309
	DD	07006320aH
xdata	ENDS
;	COMDAT xdata
xdata	SEGMENT
$unwind$?allocate@?$allocator@UVkExtensionProperties@@@std@@QEAAPEAUVkExtensionProperties@@_K@Z DQ 00000420400010401r ; 3.58617e-310
xdata	ENDS
;	COMDAT xdata
xdata	SEGMENT
$ip2state$??$insert@V?$_Array_const_iterator@PEBD$00@std@@@?$_Tree@V?$_Tset_traits@V?$basic_string@DU?$char_traits@D@std@@V?$allocator@D@2@@std@@U?$less@V?$basic_string@DU?$char_traits@D@std@@V?$allocator@D@2@@std@@@2@V?$allocator@V?$basic_string@DU?$char_traits@D@std@@V?$allocator@D@2@@std@@@2@$0A@@std@@@std@@QEAAXV?$_Array_const_iterator@PEBD$00@1@0@Z DQ 00603c50482029a06r ; 1.08911e-279
xdata	ENDS
;	COMDAT xdata
xdata	SEGMENT
$stateUnwindMap$??$insert@V?$_Array_const_iterator@PEBD$00@std@@@?$_Tree@V?$_Tset_traits@V?$basic_string@DU?$char_traits@D@std@@V?$allocator@D@2@@std@@U?$less@V?$basic_string@DU?$char_traits@D@std@@V?$allocator@D@2@@std@@@2@V?$allocator@V?$basic_string@DU?$char_traits@D@std@@V?$allocator@D@2@@std@@@2@$0A@@std@@@std@@QEAAXV?$_Array_const_iterator@PEBD$00@1@0@Z DW 0a06H
	DD	imagerel ??1?$_Alloc_construct_ptr@V?$allocator@U?$_Tree_node@V?$basic_string@DU?$char_traits@D@std@@V?$allocator@D@2@@std@@PEAX@std@@@std@@@std@@QEAA@XZ
	DW	03a40H
	DD	imagerel ??1?$_Tree_temp_node_alloc@V?$allocator@U?$_Tree_node@V?$basic_string@DU?$char_traits@D@std@@V?$allocator@D@2@@std@@PEAX@std@@@std@@@std@@QEAA@XZ
	DW	06a40H
	DD	imagerel ??1?$_Tree_temp_node@V?$allocator@U?$_Tree_node@V?$basic_string@DU?$char_traits@D@std@@V?$allocator@D@2@@std@@PEAX@std@@@std@@@std@@QEAA@XZ
	DB	040H
xdata	ENDS
;	COMDAT xdata
xdata	SEGMENT
$cppxdata$??$insert@V?$_Array_const_iterator@PEBD$00@std@@@?$_Tree@V?$_Tset_traits@V?$basic_string@DU?$char_traits@D@std@@V?$allocator@D@2@@std@@U?$less@V?$basic_string@DU?$char_traits@D@std@@V?$allocator@D@2@@std@@@2@V?$allocator@V?$basic_string@DU?$char_traits@D@std@@V?$allocator@D@2@@std@@@2@$0A@@std@@@std@@QEAAXV?$_Array_const_iterator@PEBD$00@1@0@Z DB 028H
	DD	imagerel $stateUnwindMap$??$insert@V?$_Array_const_iterator@PEBD$00@std@@@?$_Tree@V?$_Tset_traits@V?$basic_string@DU?$char_traits@D@std@@V?$allocator@D@2@@std@@U?$less@V?$basic_string@DU?$char_traits@D@std@@V?$allocator@D@2@@std@@@2@V?$allocator@V?$basic_string@DU?$char_traits@D@std@@V?$allocator@D@2@@std@@@2@$0A@@std@@@std@@QEAAXV?$_Array_const_iterator@PEBD$00@1@0@Z
	DD	imagerel $ip2state$??$insert@V?$_Array_const_iterator@PEBD$00@std@@@?$_Tree@V?$_Tset_traits@V?$basic_string@DU?$char_traits@D@std@@V?$allocator@D@2@@std@@U?$less@V?$basic_string@DU?$char_traits@D@std@@V?$allocator@D@2@@std@@@2@V?$allocator@V?$basic_string@DU?$char_traits@D@std@@V?$allocator@D@2@@std@@@2@$0A@@std@@@std@@QEAAXV?$_Array_const_iterator@PEBD$00@1@0@Z
xdata	ENDS
;	COMDAT xdata
xdata	SEGMENT
$unwind$??$insert@V?$_Array_const_iterator@PEBD$00@std@@@?$_Tree@V?$_Tset_traits@V?$basic_string@DU?$char_traits@D@std@@V?$allocator@D@2@@std@@U?$less@V?$basic_string@DU?$char_traits@D@std@@V?$allocator@D@2@@std@@@2@V?$allocator@V?$basic_string@DU?$char_traits@D@std@@V?$allocator@D@2@@std@@@2@$0A@@std@@@std@@QEAAXV?$_Array_const_iterator@PEBD$00@1@0@Z DQ 000176425000c2511r ; 3.25295e-308
	DQ	00015342500165425r		; 2.94874e-308
	DQ	0d01de01ff021d225r		; -8.64836e+77
	DD	07019c01bH
	DD	imagerel __CxxFrameHandler4
	DD	imagerel $cppxdata$??$insert@V?$_Array_const_iterator@PEBD$00@std@@@?$_Tree@V?$_Tset_traits@V?$basic_string@DU?$char_traits@D@std@@V?$allocator@D@2@@std@@U?$less@V?$basic_string@DU?$char_traits@D@std@@V?$allocator@D@2@@std@@@2@V?$allocator@V?$basic_string@DU?$char_traits@D@std@@V?$allocator@D@2@@std@@@2@$0A@@std@@@std@@QEAAXV?$_Array_const_iterator@PEBD$00@1@0@Z
xdata	ENDS
;	COMDAT xdata
xdata	SEGMENT
$chain$1$??$_Uninitialized_value_construct_n@V?$allocator@UVkExtensionProperties@@@std@@@std@@YAPEAUVkExtensionProperties@@PEAU1@_KAEAV?$allocator@UVkExtensionProperties@@@0@@Z DD 021H
	DD	imagerel $LN23@Uninitiali
	DD	imagerel $LN23@Uninitiali+14
	DD	imagerel $unwind$??$_Uninitialized_value_construct_n@V?$allocator@UVkExtensionProperties@@@std@@@std@@YAPEAUVkExtensionProperties@@PEAU1@_KAEAV?$allocator@UVkExtensionProperties@@@0@@Z
xdata	ENDS
;	COMDAT xdata
xdata	SEGMENT
$chain$0$??$_Uninitialized_value_construct_n@V?$allocator@UVkExtensionProperties@@@std@@@std@@YAPEAUVkExtensionProperties@@PEAU1@_KAEAV?$allocator@UVkExtensionProperties@@@0@@Z DQ 00006340500020521r ; 8.62661e-309
	DD	imagerel $LN23@Uninitiali
	DD	imagerel $LN23@Uninitiali+14
	DD	imagerel $unwind$??$_Uninitialized_value_construct_n@V?$allocator@UVkExtensionProperties@@@std@@@std@@YAPEAUVkExtensionProperties@@PEAU1@_KAEAV?$allocator@UVkExtensionProperties@@@0@@Z
xdata	ENDS
;	COMDAT xdata
xdata	SEGMENT
$unwind$??$_Uninitialized_value_construct_n@V?$allocator@UVkExtensionProperties@@@std@@@std@@YAPEAUVkExtensionProperties@@PEAU1@_KAEAV?$allocator@UVkExtensionProperties@@@0@@Z DQ 07002320600020601r ; 3.53109e+231
xdata	ENDS
;	COMDAT xdata
xdata	SEGMENT
$chain$6$??$_Resize_reallocate@U_Value_init_tag@std@@@?$vector@W4VkPresentModeKHR@@V?$allocator@W4VkPresentModeKHR@@@std@@@std@@AEAAX_KAEBU_Value_init_tag@1@@Z DQ 00004e40000060021r ; 6.80125e-309
	DQ	0000a3400000b6400r		; 1.41892e-308
	DD	imagerel $LN106@Resize_rea
	DD	imagerel $LN106@Resize_rea+32
	DD	imagerel $unwind$??$_Resize_reallocate@U_Value_init_tag@std@@@?$vector@W4VkPresentModeKHR@@V?$allocator@W4VkPresentModeKHR@@@std@@@std@@AEAAX_KAEBU_Value_init_tag@1@@Z
xdata	ENDS
;	COMDAT xdata
xdata	SEGMENT
$chain$5$??$_Resize_reallocate@U_Value_init_tag@std@@@?$vector@W4VkPresentModeKHR@@V?$allocator@W4VkPresentModeKHR@@@std@@@std@@AEAAX_KAEBU_Value_init_tag@1@@Z DD 021H
	DD	imagerel $LN106@Resize_rea
	DD	imagerel $LN106@Resize_rea+32
	DD	imagerel $unwind$??$_Resize_reallocate@U_Value_init_tag@std@@@?$vector@W4VkPresentModeKHR@@V?$allocator@W4VkPresentModeKHR@@@std@@@std@@AEAAX_KAEBU_Value_init_tag@1@@Z
xdata	ENDS
;	COMDAT xdata
xdata	SEGMENT
$chain$4$??$_Resize_reallocate@U_Value_init_tag@std@@@?$vector@W4VkPresentModeKHR@@V?$allocator@W4VkPresentModeKHR@@@std@@@std@@AEAAX_KAEBU_Value_init_tag@1@@Z DQ 00004e40000060021r ; 6.80125e-309
	DQ	0000a3400000b6400r		; 1.41892e-308
	DD	imagerel $LN106@Resize_rea
	DD	imagerel $LN106@Resize_rea+32
	DD	imagerel $unwind$??$_Resize_reallocate@U_Value_init_tag@std@@@?$vector@W4VkPresentModeKHR@@V?$allocator@W4VkPresentModeKHR@@@std@@@std@@AEAAX_KAEBU_Value_init_tag@1@@Z
xdata	ENDS
;	COMDAT xdata
xdata	SEGMENT
$chain$2$??$_Resize_reallocate@U_Value_init_tag@std@@@?$vector@W4VkPresentModeKHR@@V?$allocator@W4VkPresentModeKHR@@@std@@@std@@AEAAX_KAEBU_Value_init_tag@1@@Z DQ 00004e41200061221r ; 6.80163e-309
	DQ	0000a3405000b640dr		; 1.41893e-308
	DD	imagerel $LN106@Resize_rea
	DD	imagerel $LN106@Resize_rea+32
	DD	imagerel $unwind$??$_Resize_reallocate@U_Value_init_tag@std@@@?$vector@W4VkPresentModeKHR@@V?$allocator@W4VkPresentModeKHR@@@std@@@std@@AEAAX_KAEBU_Value_init_tag@1@@Z
xdata	ENDS
;	COMDAT xdata
xdata	SEGMENT
$unwind$??$_Resize_reallocate@U_Value_init_tag@std@@@?$vector@W4VkPresentModeKHR@@V?$allocator@W4VkPresentModeKHR@@@std@@@std@@AEAAX_KAEBU_Value_init_tag@1@@Z DQ 07003420700030701r ; 3.73728e+231
	DD	05002H
xdata	ENDS
;	COMDAT xdata
xdata	SEGMENT
$unwind$??$_Uninitialized_value_construct_n@V?$allocator@W4VkPresentModeKHR@@@std@@@std@@YAPEAW4VkPresentModeKHR@@PEAW41@_KAEAV?$allocator@W4VkPresentModeKHR@@@0@@Z DQ 00008340a00040a01r ; 1.14081e-308
	DD	07006320aH
xdata	ENDS
;	COMDAT xdata
xdata	SEGMENT
$chain$6$??$_Resize_reallocate@U_Value_init_tag@std@@@?$vector@UVkSurfaceFormatKHR@@V?$allocator@UVkSurfaceFormatKHR@@@std@@@std@@AEAAX_KAEBU_Value_init_tag@1@@Z DQ 00004e40000060021r ; 6.80125e-309
	DQ	0000a3400000b6400r		; 1.41892e-308
	DD	imagerel $LN108@Resize_rea
	DD	imagerel $LN108@Resize_rea+32
	DD	imagerel $unwind$??$_Resize_reallocate@U_Value_init_tag@std@@@?$vector@UVkSurfaceFormatKHR@@V?$allocator@UVkSurfaceFormatKHR@@@std@@@std@@AEAAX_KAEBU_Value_init_tag@1@@Z
xdata	ENDS
;	COMDAT xdata
xdata	SEGMENT
$chain$5$??$_Resize_reallocate@U_Value_init_tag@std@@@?$vector@UVkSurfaceFormatKHR@@V?$allocator@UVkSurfaceFormatKHR@@@std@@@std@@AEAAX_KAEBU_Value_init_tag@1@@Z DD 021H
	DD	imagerel $LN108@Resize_rea
	DD	imagerel $LN108@Resize_rea+32
	DD	imagerel $unwind$??$_Resize_reallocate@U_Value_init_tag@std@@@?$vector@UVkSurfaceFormatKHR@@V?$allocator@UVkSurfaceFormatKHR@@@std@@@std@@AEAAX_KAEBU_Value_init_tag@1@@Z
xdata	ENDS
;	COMDAT xdata
xdata	SEGMENT
$chain$4$??$_Resize_reallocate@U_Value_init_tag@std@@@?$vector@UVkSurfaceFormatKHR@@V?$allocator@UVkSurfaceFormatKHR@@@std@@@std@@AEAAX_KAEBU_Value_init_tag@1@@Z DQ 00004e40000060021r ; 6.80125e-309
	DQ	0000a3400000b6400r		; 1.41892e-308
	DD	imagerel $LN108@Resize_rea
	DD	imagerel $LN108@Resize_rea+32
	DD	imagerel $unwind$??$_Resize_reallocate@U_Value_init_tag@std@@@?$vector@UVkSurfaceFormatKHR@@V?$allocator@UVkSurfaceFormatKHR@@@std@@@std@@AEAAX_KAEBU_Value_init_tag@1@@Z
xdata	ENDS
;	COMDAT xdata
xdata	SEGMENT
$chain$2$??$_Resize_reallocate@U_Value_init_tag@std@@@?$vector@UVkSurfaceFormatKHR@@V?$allocator@UVkSurfaceFormatKHR@@@std@@@std@@AEAAX_KAEBU_Value_init_tag@1@@Z DQ 00004e41200061221r ; 6.80163e-309
	DQ	0000a3405000b640dr		; 1.41893e-308
	DD	imagerel $LN108@Resize_rea
	DD	imagerel $LN108@Resize_rea+32
	DD	imagerel $unwind$??$_Resize_reallocate@U_Value_init_tag@std@@@?$vector@UVkSurfaceFormatKHR@@V?$allocator@UVkSurfaceFormatKHR@@@std@@@std@@AEAAX_KAEBU_Value_init_tag@1@@Z
xdata	ENDS
;	COMDAT xdata
xdata	SEGMENT
$unwind$??$_Resize_reallocate@U_Value_init_tag@std@@@?$vector@UVkSurfaceFormatKHR@@V?$allocator@UVkSurfaceFormatKHR@@@std@@@std@@AEAAX_KAEBU_Value_init_tag@1@@Z DQ 07003420700030701r ; 3.73728e+231
	DD	05002H
xdata	ENDS
;	COMDAT xdata
xdata	SEGMENT
$unwind$??$_Uninitialized_value_construct_n@V?$allocator@UVkSurfaceFormatKHR@@@std@@@std@@YAPEAUVkSurfaceFormatKHR@@PEAU1@_KAEAV?$allocator@UVkSurfaceFormatKHR@@@0@@Z DQ 00006340a00040a01r ; 8.62672e-309
	DD	07006320aH
xdata	ENDS
;	COMDAT xdata
xdata	SEGMENT
$unwind$??$destroy@V?$basic_string@DU?$char_traits@D@std@@V?$allocator@D@2@@std@@@?$_Default_allocator_traits@V?$allocator@U?$_Tree_node@V?$basic_string@DU?$char_traits@D@std@@V?$allocator@D@2@@std@@PEAX@std@@@std@@@std@@SAXAEAV?$allocator@U?$_Tree_node@V?$basic_string@DU?$char_traits@D@std@@V?$allocator@D@2@@std@@PEAX@std@@@1@QEAV?$basic_string@DU?$char_traits@D@std@@V?$allocator@D@2@@1@@Z DQ 03002320600020601r ; 1.96423e-77
xdata	ENDS
;	COMDAT xdata
xdata	SEGMENT
$unwind$??$?MDU?$char_traits@D@std@@V?$allocator@D@1@@std@@YA_NAEBV?$basic_string@DU?$char_traits@D@std@@V?$allocator@D@2@@0@0@Z DQ 00006340a00040a01r ; 8.62672e-309
	DD	07006320aH
xdata	ENDS
;	COMDAT xdata
xdata	SEGMENT
$unwind$??$_Get_size_of_n@$03@std@@YA_K_K@Z DQ 00000420400010401r ; 3.58617e-310
xdata	ENDS
;	COMDAT xdata
xdata	SEGMENT
$unwind$??$_Buyheadnode@V?$allocator@U?$_Tree_node@V?$basic_string@DU?$char_traits@D@std@@V?$allocator@D@2@@std@@PEAX@std@@@std@@@?$_Tree_node@V?$basic_string@DU?$char_traits@D@std@@V?$allocator@D@2@@std@@PEAX@std@@SAPEAU01@AEAV?$allocator@U?$_Tree_node@V?$basic_string@DU?$char_traits@D@std@@V?$allocator@D@2@@std@@PEAX@std@@@1@@Z DQ 00000420400010401r ; 3.58617e-310
xdata	ENDS
;	COMDAT xdata
xdata	SEGMENT
$unwind$??$_Get_size_of_n@$0BAE@@std@@YA_K_K@Z DQ 00000420400010401r ; 3.58617e-310
xdata	ENDS
;	COMDAT xdata
xdata	SEGMENT
$unwind$??_G?$basic_string@DU?$char_traits@D@std@@V?$allocator@D@2@@std@@QEAAPEAXI@Z DQ 03002320600020601r ; 1.96423e-77
xdata	ENDS
;	COMDAT xdata
xdata	SEGMENT
$unwind$?_Xlength@?$vector@W4VkPresentModeKHR@@V?$allocator@W4VkPresentModeKHR@@@std@@@std@@CAXXZ DQ 00000420400010401r ; 3.58617e-310
xdata	ENDS
;	COMDAT xdata
xdata	SEGMENT
$unwind$?_Change_array@?$vector@W4VkPresentModeKHR@@V?$allocator@W4VkPresentModeKHR@@@std@@@std@@AEAAXQEAW4VkPresentModeKHR@@_K1@Z DQ 00009641400081401r ; 1.30597e-308
	DQ	00007341400085414r		; 1.00176e-308
	DD	070103214H
xdata	ENDS
;	COMDAT xdata
xdata	SEGMENT
$unwind$?allocate@?$allocator@W4VkPresentModeKHR@@@std@@QEAAPEAW4VkPresentModeKHR@@_K@Z DQ 00000420400010401r ; 3.58617e-310
xdata	ENDS
;	COMDAT xdata
xdata	SEGMENT
$unwind$?_Xlength@?$vector@UVkSurfaceFormatKHR@@V?$allocator@UVkSurfaceFormatKHR@@@std@@@std@@CAXXZ DQ 00000420400010401r ; 3.58617e-310
xdata	ENDS
;	COMDAT xdata
xdata	SEGMENT
$unwind$?_Change_array@?$vector@UVkSurfaceFormatKHR@@V?$allocator@UVkSurfaceFormatKHR@@@std@@@std@@AEAAXQEAUVkSurfaceFormatKHR@@_K1@Z DQ 00009641400081401r ; 1.30597e-308
	DQ	00007341400085414r		; 1.00176e-308
	DD	070103214H
xdata	ENDS
;	COMDAT xdata
xdata	SEGMENT
$unwind$?allocate@?$allocator@UVkSurfaceFormatKHR@@@std@@QEAAPEAUVkSurfaceFormatKHR@@_K@Z DQ 00000420400010401r ; 3.58617e-310
xdata	ENDS
;	COMDAT xdata
xdata	SEGMENT
$ip2state$??$_Emplace_hint@AEBQEBD@?$_Tree@V?$_Tset_traits@V?$basic_string@DU?$char_traits@D@std@@V?$allocator@D@2@@std@@U?$less@V?$basic_string@DU?$char_traits@D@std@@V?$allocator@D@2@@std@@@2@V?$allocator@V?$basic_string@DU?$char_traits@D@std@@V?$allocator@D@2@@std@@@2@$0A@@std@@@std@@IEAAPEAU?$_Tree_node@V?$basic_string@DU?$char_traits@D@std@@V?$allocator@D@2@@std@@PEAX@1@QEAU21@AEBQEBD@Z DQ 006039d0482025a06r ; 1.0805e-279
xdata	ENDS
;	COMDAT xdata
xdata	SEGMENT
$stateUnwindMap$??$_Emplace_hint@AEBQEBD@?$_Tree@V?$_Tset_traits@V?$basic_string@DU?$char_traits@D@std@@V?$allocator@D@2@@std@@U?$less@V?$basic_string@DU?$char_traits@D@std@@V?$allocator@D@2@@std@@@2@V?$allocator@V?$basic_string@DU?$char_traits@D@std@@V?$allocator@D@2@@std@@@2@$0A@@std@@@std@@IEAAPEAU?$_Tree_node@V?$basic_string@DU?$char_traits@D@std@@V?$allocator@D@2@@std@@PEAX@1@QEAU21@AEBQEBD@Z DW 0a06H
	DD	imagerel ??1?$_Alloc_construct_ptr@V?$allocator@U?$_Tree_node@V?$basic_string@DU?$char_traits@D@std@@V?$allocator@D@2@@std@@PEAX@std@@@std@@@std@@QEAA@XZ
	DW	03a40H
	DD	imagerel ??1?$_Tree_temp_node_alloc@V?$allocator@U?$_Tree_node@V?$basic_string@DU?$char_traits@D@std@@V?$allocator@D@2@@std@@PEAX@std@@@std@@@std@@QEAA@XZ
	DW	06a40H
	DD	imagerel ??1?$_Tree_temp_node@V?$allocator@U?$_Tree_node@V?$basic_string@DU?$char_traits@D@std@@V?$allocator@D@2@@std@@PEAX@std@@@std@@@std@@QEAA@XZ
	DB	040H
xdata	ENDS
;	COMDAT xdata
xdata	SEGMENT
$cppxdata$??$_Emplace_hint@AEBQEBD@?$_Tree@V?$_Tset_traits@V?$basic_string@DU?$char_traits@D@std@@V?$allocator@D@2@@std@@U?$less@V?$basic_string@DU?$char_traits@D@std@@V?$allocator@D@2@@std@@@2@V?$allocator@V?$basic_string@DU?$char_traits@D@std@@V?$allocator@D@2@@std@@@2@$0A@@std@@@std@@IEAAPEAU?$_Tree_node@V?$basic_string@DU?$char_traits@D@std@@V?$allocator@D@2@@std@@PEAX@1@QEAU21@AEBQEBD@Z DB 028H
	DD	imagerel $stateUnwindMap$??$_Emplace_hint@AEBQEBD@?$_Tree@V?$_Tset_traits@V?$basic_string@DU?$char_traits@D@std@@V?$allocator@D@2@@std@@U?$less@V?$basic_string@DU?$char_traits@D@std@@V?$allocator@D@2@@std@@@2@V?$allocator@V?$basic_string@DU?$char_traits@D@std@@V?$allocator@D@2@@std@@@2@$0A@@std@@@std@@IEAAPEAU?$_Tree_node@V?$basic_string@DU?$char_traits@D@std@@V?$allocator@D@2@@std@@PEAX@1@QEAU21@AEBQEBD@Z
	DD	imagerel $ip2state$??$_Emplace_hint@AEBQEBD@?$_Tree@V?$_Tset_traits@V?$basic_string@DU?$char_traits@D@std@@V?$allocator@D@2@@std@@U?$less@V?$basic_string@DU?$char_traits@D@std@@V?$allocator@D@2@@std@@@2@V?$allocator@V?$basic_string@DU?$char_traits@D@std@@V?$allocator@D@2@@std@@@2@$0A@@std@@@std@@IEAAPEAU?$_Tree_node@V?$basic_string@DU?$char_traits@D@std@@V?$allocator@D@2@@std@@PEAX@1@QEAU21@AEBQEBD@Z
xdata	ENDS
;	COMDAT xdata
xdata	SEGMENT
$unwind$??$_Emplace_hint@AEBQEBD@?$_Tree@V?$_Tset_traits@V?$basic_string@DU?$char_traits@D@std@@V?$allocator@D@2@@std@@U?$less@V?$basic_string@DU?$char_traits@D@std@@V?$allocator@D@2@@std@@@2@V?$allocator@V?$basic_string@DU?$char_traits@D@std@@V?$allocator@D@2@@std@@@2@$0A@@std@@@std@@IEAAPEAU?$_Tree_node@V?$basic_string@DU?$char_traits@D@std@@V?$allocator@D@2@@std@@PEAX@1@QEAU21@AEBQEBD@Z DQ 0f00bb20f00080f11r ; -5.37473e+231
	DQ	060047005c007e009r		; 3.42529e+154
	DD	030025003H
	DD	imagerel __CxxFrameHandler4
	DD	imagerel $cppxdata$??$_Emplace_hint@AEBQEBD@?$_Tree@V?$_Tset_traits@V?$basic_string@DU?$char_traits@D@std@@V?$allocator@D@2@@std@@U?$less@V?$basic_string@DU?$char_traits@D@std@@V?$allocator@D@2@@std@@@2@V?$allocator@V?$basic_string@DU?$char_traits@D@std@@V?$allocator@D@2@@std@@@2@$0A@@std@@@std@@IEAAPEAU?$_Tree_node@V?$basic_string@DU?$char_traits@D@std@@V?$allocator@D@2@@std@@PEAX@1@QEAU21@AEBQEBD@Z
xdata	ENDS
;	COMDAT xdata
xdata	SEGMENT
$unwind$??$_Emplace_back@$$V@?$_Uninitialized_backout_al@V?$allocator@UVkExtensionProperties@@@std@@@std@@QEAAXXZ DQ 03002320600020601r ; 1.96423e-77
xdata	ENDS
;	COMDAT xdata
xdata	SEGMENT
$unwind$??$_Uninitialized_move@PEAW4VkPresentModeKHR@@V?$allocator@W4VkPresentModeKHR@@@std@@@std@@YAPEAW4VkPresentModeKHR@@QEAW41@0PEAW41@AEAV?$allocator@W4VkPresentModeKHR@@@0@@Z DQ 00009340a00040a01r ; 1.27987e-308
	DD	07006320aH
xdata	ENDS
;	COMDAT xdata
xdata	SEGMENT
$unwind$??$_Zero_range@PEAW4VkPresentModeKHR@@@std@@YAPEAW4VkPresentModeKHR@@QEAW41@0@Z DQ 03002320600020601r ; 1.96423e-77
xdata	ENDS
;	COMDAT xdata
xdata	SEGMENT
$unwind$??$_Uninitialized_move@PEAUVkSurfaceFormatKHR@@V?$allocator@UVkSurfaceFormatKHR@@@std@@@std@@YAPEAUVkSurfaceFormatKHR@@QEAU1@0PEAU1@AEAV?$allocator@UVkSurfaceFormatKHR@@@0@@Z DQ 00009340a00040a01r ; 1.27987e-308
	DD	07006320aH
xdata	ENDS
;	COMDAT xdata
xdata	SEGMENT
$unwind$??$_Get_size_of_n@$07@std@@YA_K_K@Z DQ 00000420400010401r ; 3.58617e-310
xdata	ENDS
;	COMDAT xdata
xdata	SEGMENT
$unwind$??1?$_Tree_temp_node@V?$allocator@U?$_Tree_node@V?$basic_string@DU?$char_traits@D@std@@V?$allocator@D@2@@std@@PEAX@std@@@std@@@std@@QEAA@XZ DQ 00007340a00040a01r ; 1.00174e-308
	DD	07006320aH
xdata	ENDS
;	COMDAT xdata
xdata	SEGMENT
$unwind$?_Check_grow_by_1@?$_Tree@V?$_Tset_traits@V?$basic_string@DU?$char_traits@D@std@@V?$allocator@D@2@@std@@U?$less@V?$basic_string@DU?$char_traits@D@std@@V?$allocator@D@2@@std@@@2@V?$allocator@V?$basic_string@DU?$char_traits@D@std@@V?$allocator@D@2@@std@@@2@$0A@@std@@@std@@IEAAXXZ DQ 00000420400010401r ; 3.58617e-310
xdata	ENDS
;	COMDAT xdata
xdata	SEGMENT
$ip2state$??$?0AEBQEBD@?$_Tree_temp_node@V?$allocator@U?$_Tree_node@V?$basic_string@DU?$char_traits@D@std@@V?$allocator@D@2@@std@@PEAX@std@@@std@@@std@@QEAA@AEAV?$allocator@U?$_Tree_node@V?$basic_string@DU?$char_traits@D@std@@V?$allocator@D@2@@std@@PEAX@std@@@1@PEAU?$_Tree_node@V?$basic_string@DU?$char_traits@D@std@@V?$allocator@D@2@@std@@PEAX@1@AEBQEBD@Z DD 068024c04H
	DB	04H
xdata	ENDS
;	COMDAT xdata
xdata	SEGMENT
$stateUnwindMap$??$?0AEBQEBD@?$_Tree_temp_node@V?$allocator@U?$_Tree_node@V?$basic_string@DU?$char_traits@D@std@@V?$allocator@D@2@@std@@PEAX@std@@@std@@@std@@QEAA@AEAV?$allocator@U?$_Tree_node@V?$basic_string@DU?$char_traits@D@std@@V?$allocator@D@2@@std@@PEAX@std@@@1@PEAU?$_Tree_node@V?$basic_string@DU?$char_traits@D@std@@V?$allocator@D@2@@std@@PEAX@1@AEBQEBD@Z DW 0c04H
	DD	imagerel ??1?$_Alloc_construct_ptr@V?$allocator@U?$_Tree_node@V?$basic_string@DU?$char_traits@D@std@@V?$allocator@D@2@@std@@PEAX@std@@@std@@@std@@QEAA@XZ
	DW	03c40H
	DD	imagerel ??1?$_Tree_temp_node_alloc@V?$allocator@U?$_Tree_node@V?$basic_string@DU?$char_traits@D@std@@V?$allocator@D@2@@std@@PEAX@std@@@std@@@std@@QEAA@XZ
	DB	040H
xdata	ENDS
;	COMDAT xdata
xdata	SEGMENT
$cppxdata$??$?0AEBQEBD@?$_Tree_temp_node@V?$allocator@U?$_Tree_node@V?$basic_string@DU?$char_traits@D@std@@V?$allocator@D@2@@std@@PEAX@std@@@std@@@std@@QEAA@AEAV?$allocator@U?$_Tree_node@V?$basic_string@DU?$char_traits@D@std@@V?$allocator@D@2@@std@@PEAX@std@@@1@PEAU?$_Tree_node@V?$basic_string@DU?$char_traits@D@std@@V?$allocator@D@2@@std@@PEAX@1@AEBQEBD@Z DB 028H
	DD	imagerel $stateUnwindMap$??$?0AEBQEBD@?$_Tree_temp_node@V?$allocator@U?$_Tree_node@V?$basic_string@DU?$char_traits@D@std@@V?$allocator@D@2@@std@@PEAX@std@@@std@@@std@@QEAA@AEAV?$allocator@U?$_Tree_node@V?$basic_string@DU?$char_traits@D@std@@V?$allocator@D@2@@std@@PEAX@std@@@1@PEAU?$_Tree_node@V?$basic_string@DU?$char_traits@D@std@@V?$allocator@D@2@@std@@PEAX@1@AEBQEBD@Z
	DD	imagerel $ip2state$??$?0AEBQEBD@?$_Tree_temp_node@V?$allocator@U?$_Tree_node@V?$basic_string@DU?$char_traits@D@std@@V?$allocator@D@2@@std@@PEAX@std@@@std@@@std@@QEAA@AEAV?$allocator@U?$_Tree_node@V?$basic_string@DU?$char_traits@D@std@@V?$allocator@D@2@@std@@PEAX@std@@@1@PEAU?$_Tree_node@V?$basic_string@DU?$char_traits@D@std@@V?$allocator@D@2@@std@@PEAX@1@AEBQEBD@Z
xdata	ENDS
;	COMDAT xdata
xdata	SEGMENT
$unwind$??$?0AEBQEBD@?$_Tree_temp_node@V?$allocator@U?$_Tree_node@V?$basic_string@DU?$char_traits@D@std@@V?$allocator@D@2@@std@@PEAX@std@@@std@@@std@@QEAA@AEAV?$allocator@U?$_Tree_node@V?$basic_string@DU?$char_traits@D@std@@V?$allocator@D@2@@std@@PEAX@std@@@1@PEAU?$_Tree_node@V?$basic_string@DU?$char_traits@D@std@@V?$allocator@D@2@@std@@PEAX@1@AEBQEBD@Z DQ 0000b340c00060c11r ; 1.55801e-308
	DQ	0500660077008520cr		; 3.23858e+77
	DD	imagerel __CxxFrameHandler4
	DD	imagerel $cppxdata$??$?0AEBQEBD@?$_Tree_temp_node@V?$allocator@U?$_Tree_node@V?$basic_string@DU?$char_traits@D@std@@V?$allocator@D@2@@std@@PEAX@std@@@std@@@std@@QEAA@AEAV?$allocator@U?$_Tree_node@V?$basic_string@DU?$char_traits@D@std@@V?$allocator@D@2@@std@@PEAX@std@@@1@PEAU?$_Tree_node@V?$basic_string@DU?$char_traits@D@std@@V?$allocator@D@2@@std@@PEAX@1@AEBQEBD@Z
xdata	ENDS
;	COMDAT xdata
xdata	SEGMENT
$unwind$??$_Find_hint@V?$basic_string@DU?$char_traits@D@std@@V?$allocator@D@2@@std@@@?$_Tree@V?$_Tset_traits@V?$basic_string@DU?$char_traits@D@std@@V?$allocator@D@2@@std@@U?$less@V?$basic_string@DU?$char_traits@D@std@@V?$allocator@D@2@@std@@@2@V?$allocator@V?$basic_string@DU?$char_traits@D@std@@V?$allocator@D@2@@std@@@2@$0A@@std@@@std@@IEBA?AU?$_Tree_find_hint_result@PEAU?$_Tree_node@V?$basic_string@DU?$char_traits@D@std@@V?$allocator@D@2@@std@@PEAX@std@@@1@QEAU?$_Tree_node@V?$basic_string@DU?$char_traits@D@std@@V?$allocator@D@2@@std@@PEAX@1@AEBV?$basic_string@DU?$char_traits@D@std@@V?$allocator@D@2@@1@@Z DQ 00013641c000c1c01r ; 2.69666e-308
	DQ	00010341c0012541cr		; 2.25338e-308
	DQ	0d014e016f018921cr		; -6.043e+77
	DD	07010c012H
xdata	ENDS
;	COMDAT xdata
xdata	SEGMENT
$unwind$??$_Copy_memmove@PEAW4VkPresentModeKHR@@PEAW41@@std@@YAPEAW4VkPresentModeKHR@@PEAW41@00@Z DQ 00009340a00040a01r ; 1.27987e-308
	DD	07006320aH
xdata	ENDS
;	COMDAT xdata
xdata	SEGMENT
$unwind$??$_Copy_memmove@PEAUVkSurfaceFormatKHR@@PEAU1@@std@@YAPEAUVkSurfaceFormatKHR@@PEAU1@00@Z DQ 00009340a00040a01r ; 1.27987e-308
	DD	07006320aH
xdata	ENDS
;	COMDAT xdata
xdata	SEGMENT
$ip2state$??0?$_Tree_temp_node_alloc@V?$allocator@U?$_Tree_node@V?$basic_string@DU?$char_traits@D@std@@V?$allocator@D@2@@std@@PEAX@std@@@std@@@std@@QEAA@AEAV?$allocator@U?$_Tree_node@V?$basic_string@DU?$char_traits@D@std@@V?$allocator@D@2@@std@@PEAX@std@@@1@@Z DW 03202H
	DB	02H
xdata	ENDS
;	COMDAT xdata
xdata	SEGMENT
$stateUnwindMap$??0?$_Tree_temp_node_alloc@V?$allocator@U?$_Tree_node@V?$basic_string@DU?$char_traits@D@std@@V?$allocator@D@2@@std@@PEAX@std@@@std@@@std@@QEAA@AEAV?$allocator@U?$_Tree_node@V?$basic_string@DU?$char_traits@D@std@@V?$allocator@D@2@@std@@PEAX@std@@@1@@Z DW 0c02H
	DD	imagerel ??1?$_Alloc_construct_ptr@V?$allocator@U?$_Tree_node@V?$basic_string@DU?$char_traits@D@std@@V?$allocator@D@2@@std@@PEAX@std@@@std@@@std@@QEAA@XZ
	DB	060H
xdata	ENDS
;	COMDAT xdata
xdata	SEGMENT
$cppxdata$??0?$_Tree_temp_node_alloc@V?$allocator@U?$_Tree_node@V?$basic_string@DU?$char_traits@D@std@@V?$allocator@D@2@@std@@PEAX@std@@@std@@@std@@QEAA@AEAV?$allocator@U?$_Tree_node@V?$basic_string@DU?$char_traits@D@std@@V?$allocator@D@2@@std@@PEAX@std@@@1@@Z DB 028H
	DD	imagerel $stateUnwindMap$??0?$_Tree_temp_node_alloc@V?$allocator@U?$_Tree_node@V?$basic_string@DU?$char_traits@D@std@@V?$allocator@D@2@@std@@PEAX@std@@@std@@@std@@QEAA@AEAV?$allocator@U?$_Tree_node@V?$basic_string@DU?$char_traits@D@std@@V?$allocator@D@2@@std@@PEAX@std@@@1@@Z
	DD	imagerel $ip2state$??0?$_Tree_temp_node_alloc@V?$allocator@U?$_Tree_node@V?$basic_string@DU?$char_traits@D@std@@V?$allocator@D@2@@std@@PEAX@std@@@std@@@std@@QEAA@AEAV?$allocator@U?$_Tree_node@V?$basic_string@DU?$char_traits@D@std@@V?$allocator@D@2@@std@@PEAX@std@@@1@@Z
xdata	ENDS
;	COMDAT xdata
xdata	SEGMENT
$unwind$??0?$_Tree_temp_node_alloc@V?$allocator@U?$_Tree_node@V?$basic_string@DU?$char_traits@D@std@@V?$allocator@D@2@@std@@PEAX@std@@@std@@@std@@QEAA@AEAV?$allocator@U?$_Tree_node@V?$basic_string@DU?$char_traits@D@std@@V?$allocator@D@2@@std@@PEAX@std@@@1@@Z DQ 03006320a00020a11r ; 2.39605e-77
	DD	imagerel __CxxFrameHandler4
	DD	imagerel $cppxdata$??0?$_Tree_temp_node_alloc@V?$allocator@U?$_Tree_node@V?$basic_string@DU?$char_traits@D@std@@V?$allocator@D@2@@std@@PEAX@std@@@std@@@std@@QEAA@AEAV?$allocator@U?$_Tree_node@V?$basic_string@DU?$char_traits@D@std@@V?$allocator@D@2@@std@@PEAX@std@@@1@@Z
xdata	ENDS
;	COMDAT xdata
xdata	SEGMENT
$unwind$?_Allocate@?$_Alloc_construct_ptr@V?$allocator@U?$_Tree_node@V?$basic_string@DU?$char_traits@D@std@@V?$allocator@D@2@@std@@PEAX@std@@@std@@@std@@QEAAXXZ DQ 03002320600020601r ; 1.96423e-77
xdata	ENDS
;	COMDAT xdata
xdata	SEGMENT
$chain$3$??$_Find_lower_bound@V?$basic_string@DU?$char_traits@D@std@@V?$allocator@D@2@@std@@@?$_Tree@V?$_Tset_traits@V?$basic_string@DU?$char_traits@D@std@@V?$allocator@D@2@@std@@U?$less@V?$basic_string@DU?$char_traits@D@std@@V?$allocator@D@2@@std@@@2@V?$allocator@V?$basic_string@DU?$char_traits@D@std@@V?$allocator@D@2@@std@@@2@$0A@@std@@@std@@IEBA?AU?$_Tree_find_result@PEAU?$_Tree_node@V?$basic_string@DU?$char_traits@D@std@@V?$allocator@D@2@@std@@PEAX@std@@@1@AEBV?$basic_string@DU?$char_traits@D@std@@V?$allocator@D@2@@1@@Z DQ 0000ae40000040021r ; 1.51453e-308
	DD	085400H
	DD	imagerel $LN39@Find_lower
	DD	imagerel $LN39@Find_lower+49
	DD	imagerel $unwind$??$_Find_lower_bound@V?$basic_string@DU?$char_traits@D@std@@V?$allocator@D@2@@std@@@?$_Tree@V?$_Tset_traits@V?$basic_string@DU?$char_traits@D@std@@V?$allocator@D@2@@std@@U?$less@V?$basic_string@DU?$char_traits@D@std@@V?$allocator@D@2@@std@@@2@V?$allocator@V?$basic_string@DU?$char_traits@D@std@@V?$allocator@D@2@@std@@@2@$0A@@std@@@std@@IEBA?AU?$_Tree_find_result@PEAU?$_Tree_node@V?$basic_string@DU?$char_traits@D@std@@V?$allocator@D@2@@std@@PEAX@std@@@1@AEBV?$basic_string@DU?$char_traits@D@std@@V?$allocator@D@2@@1@@Z
xdata	ENDS
;	COMDAT xdata
xdata	SEGMENT
$chain$2$??$_Find_lower_bound@V?$basic_string@DU?$char_traits@D@std@@V?$allocator@D@2@@std@@@?$_Tree@V?$_Tset_traits@V?$basic_string@DU?$char_traits@D@std@@V?$allocator@D@2@@std@@U?$less@V?$basic_string@DU?$char_traits@D@std@@V?$allocator@D@2@@std@@@2@V?$allocator@V?$basic_string@DU?$char_traits@D@std@@V?$allocator@D@2@@std@@@2@$0A@@std@@@std@@IEBA?AU?$_Tree_find_result@PEAU?$_Tree_node@V?$basic_string@DU?$char_traits@D@std@@V?$allocator@D@2@@std@@PEAX@std@@@1@AEBV?$basic_string@DU?$char_traits@D@std@@V?$allocator@D@2@@1@@Z DD 021H
	DD	imagerel $LN39@Find_lower
	DD	imagerel $LN39@Find_lower+49
	DD	imagerel $unwind$??$_Find_lower_bound@V?$basic_string@DU?$char_traits@D@std@@V?$allocator@D@2@@std@@@?$_Tree@V?$_Tset_traits@V?$basic_string@DU?$char_traits@D@std@@V?$allocator@D@2@@std@@U?$less@V?$basic_string@DU?$char_traits@D@std@@V?$allocator@D@2@@std@@@2@V?$allocator@V?$basic_string@DU?$char_traits@D@std@@V?$allocator@D@2@@std@@@2@$0A@@std@@@std@@IEBA?AU?$_Tree_find_result@PEAU?$_Tree_node@V?$basic_string@DU?$char_traits@D@std@@V?$allocator@D@2@@std@@PEAX@std@@@1@AEBV?$basic_string@DU?$char_traits@D@std@@V?$allocator@D@2@@1@@Z
xdata	ENDS
;	COMDAT xdata
xdata	SEGMENT
$chain$1$??$_Find_lower_bound@V?$basic_string@DU?$char_traits@D@std@@V?$allocator@D@2@@std@@@?$_Tree@V?$_Tset_traits@V?$basic_string@DU?$char_traits@D@std@@V?$allocator@D@2@@std@@U?$less@V?$basic_string@DU?$char_traits@D@std@@V?$allocator@D@2@@std@@@2@V?$allocator@V?$basic_string@DU?$char_traits@D@std@@V?$allocator@D@2@@std@@@2@$0A@@std@@@std@@IEBA?AU?$_Tree_find_result@PEAU?$_Tree_node@V?$basic_string@DU?$char_traits@D@std@@V?$allocator@D@2@@std@@PEAX@std@@@1@AEBV?$basic_string@DU?$char_traits@D@std@@V?$allocator@D@2@@1@@Z DQ 0000ae40a00040a21r ; 1.51455e-308
	DD	085405H
	DD	imagerel $LN39@Find_lower
	DD	imagerel $LN39@Find_lower+49
	DD	imagerel $unwind$??$_Find_lower_bound@V?$basic_string@DU?$char_traits@D@std@@V?$allocator@D@2@@std@@@?$_Tree@V?$_Tset_traits@V?$basic_string@DU?$char_traits@D@std@@V?$allocator@D@2@@std@@U?$less@V?$basic_string@DU?$char_traits@D@std@@V?$allocator@D@2@@std@@@2@V?$allocator@V?$basic_string@DU?$char_traits@D@std@@V?$allocator@D@2@@std@@@2@$0A@@std@@@std@@IEBA?AU?$_Tree_find_result@PEAU?$_Tree_node@V?$basic_string@DU?$char_traits@D@std@@V?$allocator@D@2@@std@@PEAX@std@@@1@AEBV?$basic_string@DU?$char_traits@D@std@@V?$allocator@D@2@@1@@Z
xdata	ENDS
;	COMDAT xdata
xdata	SEGMENT
$unwind$??$_Find_lower_bound@V?$basic_string@DU?$char_traits@D@std@@V?$allocator@D@2@@std@@@?$_Tree@V?$_Tset_traits@V?$basic_string@DU?$char_traits@D@std@@V?$allocator@D@2@@std@@U?$less@V?$basic_string@DU?$char_traits@D@std@@V?$allocator@D@2@@std@@@2@V?$allocator@V?$basic_string@DU?$char_traits@D@std@@V?$allocator@D@2@@std@@@2@$0A@@std@@@std@@IEBA?AU?$_Tree_find_result@PEAU?$_Tree_node@V?$basic_string@DU?$char_traits@D@std@@V?$allocator@D@2@@std@@PEAX@std@@@1@AEBV?$basic_string@DU?$char_traits@D@std@@V?$allocator@D@2@@1@@Z DQ 0000b340d00060d01r ; 1.55801e-308
	DQ	060067007f009320dr		; 3.76049e+154
xdata	ENDS
;	COMDAT xdata
xdata	SEGMENT
$unwind$??$_Lower_bound_duplicate@V?$basic_string@DU?$char_traits@D@std@@V?$allocator@D@2@@std@@@?$_Tree@V?$_Tset_traits@V?$basic_string@DU?$char_traits@D@std@@V?$allocator@D@2@@std@@U?$less@V?$basic_string@DU?$char_traits@D@std@@V?$allocator@D@2@@std@@@2@V?$allocator@V?$basic_string@DU?$char_traits@D@std@@V?$allocator@D@2@@std@@@2@$0A@@std@@@std@@IEBA_NQEAU?$_Tree_node@V?$basic_string@DU?$char_traits@D@std@@V?$allocator@D@2@@std@@PEAX@1@AEBV?$basic_string@DU?$char_traits@D@std@@V?$allocator@D@2@@1@@Z DQ 00006340a00040a01r ; 8.62672e-309
	DD	07006320aH
END
