; Listing generated by Microsoft (R) Optimizing Compiler Version 19.32.31332.0 

include listing.inc

INCLUDELIB MSVCRTD
INCLUDELIB OLDNAMES

msvcjmc	SEGMENT
__29CF54F3_concurrencysal@h DB 01H
__413FEA08_sal@h DB 01H
__6972C38F_vadefs@h DB 01H
__E6B4F19D_vcruntime@h DB 01H
__1B0272D9_corecrt@h DB 01H
__13F5961F_stddef@h DB 01H
__117FADE9_stdint@h DB 01H
__6F45C614_vk_platform@h DB 01H
__5FA1F762_vulkan_core@h DB 01H
__AD247E74_vulkan@h DB 01H
__654A365E_cowdef@hpp DB 01H
__0269B480_xkeycheck@h DB 01H
__4A835745_yvals_core@h DB 01H
__AEFC1A78_intrin0@inl@h DB 01H
__7DEB4A93_intrin0@h DB 01H
__47E06DF5_isa_availability@h DB 01H
__B9985323_float@h DB 01H
__489E80C8_cfloat DB 01H
__AF0983D6_limits@h DB 01H
__919AC1A1_climits DB 01H
__44420885_corecrt_stdio_config@h DB 01H
__AB601D8D_corecrt_wstdio@h DB 01H
__C1EC35D3_stdio@h DB 01H
__3BDA4B4F_cstdio DB 01H
__61CC25A1_errno@h DB 01H
__946B6786_vcruntime_string@h DB 01H
__E4C945B4_corecrt_memcpy_s@h DB 01H
__EF1F6BBA_corecrt_wconio@h DB 01H
__74484FB3_corecrt_wctype@h DB 01H
__3D1D430C_corecrt_wdirect@h DB 01H
__8ECB7138_corecrt_share@h DB 01H
__DB7FEBA6_corecrt_wio@h DB 01H
__9A9F0068_corecrt_wprocess@h DB 01H
__E2E33A61_corecrt_wstdlib@h DB 01H
__6490AEC5_corecrt_wstring@h DB 01H
__369A9BC3_corecrt_wtime@h DB 01H
__CE789B9D_types@h DB 01H
__9901C817_stat@h DB 01H
__3FCAD62E_wchar@h DB 01H
__A1519D1C_cwchar DB 01H
__197E5946_xtr1common DB 01H
__B0BE39FE_cstddef DB 01H
__BB16330F_corecrt_math@h DB 01H
__3BF2A406_math@h DB 01H
__45DED006_corecrt_malloc@h DB 01H
__FD6DBD68_corecrt_search@h DB 01H
__6E5ACABA_stdlib@h DB 01H
__1575E353_cstdlib DB 01H
__330922C0_initializer_list DB 01H
__D567F1CA_xstddef DB 01H
__2E78CDAC_limits DB 01H
__A82B022E_cstdint DB 01H
__4CC0724B_type_traits DB 01H
__3819D017_bit DB 01H
__68FABE09_vcruntime_new@h DB 01H
__F90F3CDE_concepts DB 01H
__EC60D9E2_compare DB 01H
__6261A715_vcruntime_new_debug@h DB 01H
__935DC21B_crtdbg@h DB 01H
__64C6F398_crtdefs@h DB 01H
__E2706B0F_use_ansi@h DB 01H
__A33555EC_yvals@h DB 01H
__8EAFF484_corecrt_memory@h DB 01H
__E8295E1E_string@h DB 01H
__59E74BB3_cstring DB 01H
__227866D8_utility DB 01H
__7DA7D514_xutility DB 01H
__85A6FDFE_tuple DB 01H
__C70F9156_Instance@hpp DB 01H
__0ED14FEE_winpackagefamily@h DB 01H
__F92EF742_winapifamily@h DB 01H
__B064E8EE_gl@h DB 01H
__D81DEF64_glfw3@h DB 01H
__FA77ED4C_malloc@h DB 01H
__89766DA4_corecrt_terminate@h DB 01H
__1CC3922D_eh@h DB 01H
__6A8FA247_vcruntime_exception@h DB 01H
__AC999D0E_exception DB 01H
__E291182A_iosfwd DB 01H
__04BF37C5_new DB 01H
__A69511D8_xatomic@h DB 01H
__48ED051B_xmemory DB 01H
__01FC9A31_xpolymorphic_allocator@h DB 01H
__3C3E8387_xstring DB 01H
__25D7A753_stdexcept DB 01H
__E8A7DAC2_Window@hpp DB 01H
__63D5BD4C_vector DB 01H
__1B6E63DA_xsmf_control@h DB 01H
__14737915_optional DB 01H
__61615CFA_Device@hpp DB 01H
__47C20D59_xnode_handle@h DB 01H
__2AAC18BD_xtree DB 01H
__8948565C_set DB 01H
__2385E4BF_cmath DB 01H
__6C0B6254_iterator DB 01H
__F7972D0B_share@h DB 01H
__33C38951___msvc_system_error_abi@hpp DB 01H
__A6FB3FB4_cerrno DB 01H
__091B8915_xcall_once@h DB 01H
__0BA040E3_xerrc@h DB 01H
__13D0C879_xatomic_wait@h DB 01H
__0A9237D2_time@h DB 01H
__E53678B7_ctime DB 01H
__CB633655_xtimec@h DB 01H
__833E5CBC_xthreads@h DB 01H
__454D916E_atomic DB 01H
__B6469B35_system_error DB 01H
__2B8D1AA2_vcruntime_typeinfo@h DB 01H
__0D78260D_typeinfo DB 01H
__92D6C122_memory DB 01H
__BE93962D_xfacet DB 01H
__EEE13F19___msvc_xlocinfo_types@hpp DB 01H
__1EC467ED_ctype@h DB 01H
__3411ACE8_cctype DB 01H
__791C33B7_locale@h DB 01H
__86D93F82_clocale DB 01H
__12F1C5C5_xlocinfo DB 01H
__E300F7B6_xlocale DB 01H
__2B14B2D6_xiosbase DB 01H
__27771FEF_streambuf DB 01H
__7D8791A1_xlocnum DB 01H
__FC720DD3_ios DB 01H
__F0102D72_ostream DB 01H
__93C01848_istream DB 01H
__1FDEAF0B_iostream DB 01H
__125A2BD9_array DB 01H
__6D34B31B_Device@cpp DB 01H
__21483852_predefined C++ types (compiler internal) DB 01H
msvcjmc	ENDS
PUBLIC	?__empty_global_delete@@YAXPEAX@Z		; __empty_global_delete
PUBLIC	?__empty_global_delete@@YAXPEAX_K@Z		; __empty_global_delete
PUBLIC	?__empty_global_delete@@YAXPEAXW4align_val_t@std@@@Z ; __empty_global_delete
PUBLIC	?__empty_global_delete@@YAXPEAX_KW4align_val_t@std@@@Z ; __empty_global_delete
PUBLIC	?is_constant_evaluated@std@@YA_NXZ		; std::is_constant_evaluated
PUBLIC	?max@?$numeric_limits@_J@std@@SA_JXZ		; std::numeric_limits<__int64>::max
PUBLIC	??2@YAPEAX_KPEAX@Z				; operator new
PUBLIC	??Mstd@@YA_NUstrong_ordering@0@$$T@Z		; std::operator<
PUBLIC	??Nstd@@YA_NUstrong_ordering@0@$$T@Z		; std::operator<=
PUBLIC	?get@Instance@cow@@QEBAPEAUVkInstance_T@@XZ	; cow::Instance::get
PUBLIC	??0exception@std@@QEAA@QEBD@Z			; std::exception::exception
PUBLIC	??0exception@std@@QEAA@QEBDH@Z			; std::exception::exception
PUBLIC	??0exception@std@@QEAA@AEBV01@@Z		; std::exception::exception
PUBLIC	??1exception@std@@UEAA@XZ			; std::exception::~exception
PUBLIC	?what@exception@std@@UEBAPEBDXZ			; std::exception::what
PUBLIC	??_Gexception@std@@UEAAPEAXI@Z			; std::exception::`scalar deleting destructor'
PUBLIC	??0bad_alloc@std@@AEAA@QEBD@Z			; std::bad_alloc::bad_alloc
PUBLIC	??1bad_alloc@std@@UEAA@XZ			; std::bad_alloc::~bad_alloc
PUBLIC	??0bad_alloc@std@@QEAA@AEBV01@@Z		; std::bad_alloc::bad_alloc
PUBLIC	??_Gbad_alloc@std@@UEAAPEAXI@Z			; std::bad_alloc::`scalar deleting destructor'
PUBLIC	??0bad_array_new_length@std@@QEAA@XZ		; std::bad_array_new_length::bad_array_new_length
PUBLIC	??1bad_array_new_length@std@@UEAA@XZ		; std::bad_array_new_length::~bad_array_new_length
PUBLIC	??0bad_array_new_length@std@@QEAA@AEBV01@@Z	; std::bad_array_new_length::bad_array_new_length
PUBLIC	??_Gbad_array_new_length@std@@UEAAPEAXI@Z	; std::bad_array_new_length::`scalar deleting destructor'
PUBLIC	?_Throw_bad_array_new_length@std@@YAXXZ		; std::_Throw_bad_array_new_length
PUBLIC	?_Allocate@_Default_allocate_traits@std@@SAPEAX_K@Z ; std::_Default_allocate_traits::_Allocate
PUBLIC	?_Adjust_manually_vector_aligned@std@@YAXAEAPEAXAEA_K@Z ; std::_Adjust_manually_vector_aligned
PUBLIC	?_Adopt@_Iterator_base0@std@@QEAAXPEBX@Z	; std::_Iterator_base0::_Adopt
PUBLIC	??0_Container_proxy@std@@QEAA@PEAU_Container_base12@1@@Z ; std::_Container_proxy::_Container_proxy
PUBLIC	??0_Container_base12@std@@QEAA@XZ		; std::_Container_base12::_Container_base12
PUBLIC	?_Orphan_all@_Container_base12@std@@QEAAXXZ	; std::_Container_base12::_Orphan_all
PUBLIC	?_Swap_proxy_and_iterators@_Container_base12@std@@QEAAXAEAU12@@Z ; std::_Container_base12::_Swap_proxy_and_iterators
PUBLIC	?_Orphan_all_unlocked_v3@_Container_base12@std@@AEAAXXZ ; std::_Container_base12::_Orphan_all_unlocked_v3
PUBLIC	?_Swap_proxy_and_iterators_unlocked@_Container_base12@std@@AEAAXAEAU12@@Z ; std::_Container_base12::_Swap_proxy_and_iterators_unlocked
PUBLIC	?_Orphan_all_locked_v3@_Container_base12@std@@AEAAXXZ ; std::_Container_base12::_Orphan_all_locked_v3
PUBLIC	?_Swap_proxy_and_iterators_locked@_Container_base12@std@@AEAAXAEAU12@@Z ; std::_Container_base12::_Swap_proxy_and_iterators_locked
PUBLIC	?_Release@_Basic_container_proxy_ptr12@std@@QEAAXXZ ; std::_Basic_container_proxy_ptr12::_Release
PUBLIC	??0_Basic_container_proxy_ptr12@std@@IEAA@XZ	; std::_Basic_container_proxy_ptr12::_Basic_container_proxy_ptr12
PUBLIC	??$addressof@U_Container_base12@std@@@std@@YAPEAU_Container_base12@0@AEAU10@@Z ; std::addressof<std::_Container_base12>
PUBLIC	??$_Construct_in_place@U_Container_proxy@std@@PEAU_Container_base12@2@@std@@YAXAEAU_Container_proxy@0@$$QEAPEAU_Container_base12@0@@Z ; std::_Construct_in_place<std::_Container_proxy,std::_Container_base12 *>
PUBLIC	?copy@?$_Char_traits@DH@std@@SAPEADQEADQEBD_K@Z	; std::_Char_traits<char,int>::copy
PUBLIC	?move@?$_Char_traits@DH@std@@SAPEADQEADQEBD_K@Z	; std::_Char_traits<char,int>::move
PUBLIC	?assign@?$_Char_traits@DH@std@@SAPEADQEAD_KD@Z	; std::_Char_traits<char,int>::assign
PUBLIC	?assign@?$_Char_traits@DH@std@@SAXAEADAEBD@Z	; std::_Char_traits<char,int>::assign
PUBLIC	?compare@?$_Narrow_char_traits@DH@std@@SAHQEBD0_K@Z ; std::_Narrow_char_traits<char,int>::compare
PUBLIC	?length@?$_Narrow_char_traits@DH@std@@SA_KQEBD@Z ; std::_Narrow_char_traits<char,int>::length
PUBLIC	?assign@?$_Narrow_char_traits@DH@std@@SAPEADQEAD_KD@Z ; std::_Narrow_char_traits<char,int>::assign
PUBLIC	?assign@?$_Narrow_char_traits@DH@std@@SAXAEADAEBD@Z ; std::_Narrow_char_traits<char,int>::assign
PUBLIC	?eq_int_type@?$_Narrow_char_traits@DH@std@@SA_NAEBH0@Z ; std::_Narrow_char_traits<char,int>::eq_int_type
PUBLIC	?eof@?$_Narrow_char_traits@DH@std@@SAHXZ	; std::_Narrow_char_traits<char,int>::eof
PUBLIC	?_Xlen_string@std@@YAXXZ			; std::_Xlen_string
PUBLIC	??0?$allocator@D@std@@QEAA@XZ			; std::allocator<char>::allocator<char>
PUBLIC	?deallocate@?$allocator@D@std@@QEAAXQEAD_K@Z	; std::allocator<char>::deallocate
PUBLIC	?allocate@?$allocator@D@std@@QEAAPEAD_K@Z	; std::allocator<char>::allocate
PUBLIC	?max_size@?$_Default_allocator_traits@V?$allocator@D@std@@@std@@SA_KAEBV?$allocator@D@2@@Z ; std::_Default_allocator_traits<std::allocator<char> >::max_size
PUBLIC	??0?$_String_val@U?$_Simple_types@D@std@@@std@@QEAA@XZ ; std::_String_val<std::_Simple_types<char> >::_String_val<std::_Simple_types<char> >
PUBLIC	?_Myptr@?$_String_val@U?$_Simple_types@D@std@@@std@@QEAAPEADXZ ; std::_String_val<std::_Simple_types<char> >::_Myptr
PUBLIC	?_Myptr@?$_String_val@U?$_Simple_types@D@std@@@std@@QEBAPEBDXZ ; std::_String_val<std::_Simple_types<char> >::_Myptr
PUBLIC	?_Large_string_engaged@?$_String_val@U?$_Simple_types@D@std@@@std@@QEBA_NXZ ; std::_String_val<std::_Simple_types<char> >::_Large_string_engaged
PUBLIC	??0_Bxty@?$_String_val@U?$_Simple_types@D@std@@@std@@QEAA@XZ ; std::_String_val<std::_Simple_types<char> >::_Bxty::_Bxty
PUBLIC	??1_Bxty@?$_String_val@U?$_Simple_types@D@std@@@std@@QEAA@XZ ; std::_String_val<std::_Simple_types<char> >::_Bxty::~_Bxty
PUBLIC	??1?$_String_val@U?$_Simple_types@D@std@@@std@@QEAA@XZ ; std::_String_val<std::_Simple_types<char> >::~_String_val<std::_Simple_types<char> >
PUBLIC	??0?$basic_string@DU?$char_traits@D@std@@V?$allocator@D@2@@std@@QEAA@QEBD@Z ; std::basic_string<char,std::char_traits<char>,std::allocator<char> >::basic_string<char,std::char_traits<char>,std::allocator<char> >
PUBLIC	??1?$basic_string@DU?$char_traits@D@std@@V?$allocator@D@2@@std@@QEAA@XZ ; std::basic_string<char,std::char_traits<char>,std::allocator<char> >::~basic_string<char,std::char_traits<char>,std::allocator<char> >
PUBLIC	?assign@?$basic_string@DU?$char_traits@D@std@@V?$allocator@D@2@@std@@QEAAAEAV12@QEBD_K@Z ; std::basic_string<char,std::char_traits<char>,std::allocator<char> >::assign
PUBLIC	?assign@?$basic_string@DU?$char_traits@D@std@@V?$allocator@D@2@@std@@QEAAAEAV12@QEBD@Z ; std::basic_string<char,std::char_traits<char>,std::allocator<char> >::assign
PUBLIC	?max_size@?$basic_string@DU?$char_traits@D@std@@V?$allocator@D@2@@std@@QEBA_KXZ ; std::basic_string<char,std::char_traits<char>,std::allocator<char> >::max_size
PUBLIC	?compare@?$basic_string@DU?$char_traits@D@std@@V?$allocator@D@2@@std@@QEBAHAEBV12@@Z ; std::basic_string<char,std::char_traits<char>,std::allocator<char> >::compare
PUBLIC	?_Calculate_growth@?$basic_string@DU?$char_traits@D@std@@V?$allocator@D@2@@std@@CA_K_K00@Z ; std::basic_string<char,std::char_traits<char>,std::allocator<char> >::_Calculate_growth
PUBLIC	?_Calculate_growth@?$basic_string@DU?$char_traits@D@std@@V?$allocator@D@2@@std@@AEBA_K_K@Z ; std::basic_string<char,std::char_traits<char>,std::allocator<char> >::_Calculate_growth
PUBLIC	?_Tidy_init@?$basic_string@DU?$char_traits@D@std@@V?$allocator@D@2@@std@@AEAAXXZ ; std::basic_string<char,std::char_traits<char>,std::allocator<char> >::_Tidy_init
PUBLIC	?_Tidy_deallocate@?$basic_string@DU?$char_traits@D@std@@V?$allocator@D@2@@std@@AEAAXXZ ; std::basic_string<char,std::char_traits<char>,std::allocator<char> >::_Tidy_deallocate
PUBLIC	?_Getal@?$basic_string@DU?$char_traits@D@std@@V?$allocator@D@2@@std@@AEAAAEAV?$allocator@D@2@XZ ; std::basic_string<char,std::char_traits<char>,std::allocator<char> >::_Getal
PUBLIC	?_Getal@?$basic_string@DU?$char_traits@D@std@@V?$allocator@D@2@@std@@AEBAAEBV?$allocator@D@2@XZ ; std::basic_string<char,std::char_traits<char>,std::allocator<char> >::_Getal
PUBLIC	?_Get_first@?$_Compressed_pair@V?$allocator@D@std@@V?$_String_val@U?$_Simple_types@D@std@@@2@$00@std@@QEAAAEAV?$allocator@D@2@XZ ; std::_Compressed_pair<std::allocator<char>,std::_String_val<std::_Simple_types<char> >,1>::_Get_first
PUBLIC	?_Get_first@?$_Compressed_pair@V?$allocator@D@std@@V?$_String_val@U?$_Simple_types@D@std@@@2@$00@std@@QEBAAEBV?$allocator@D@2@XZ ; std::_Compressed_pair<std::allocator<char>,std::_String_val<std::_Simple_types<char> >,1>::_Get_first
PUBLIC	??1?$_Compressed_pair@V?$allocator@D@std@@V?$_String_val@U?$_Simple_types@D@std@@@2@$00@std@@QEAA@XZ ; std::_Compressed_pair<std::allocator<char>,std::_String_val<std::_Simple_types<char> >,1>::~_Compressed_pair<std::allocator<char>,std::_String_val<std::_Simple_types<char> >,1>
PUBLIC	??_G?$basic_string@DU?$char_traits@D@std@@V?$allocator@D@2@@std@@QEAAPEAXI@Z ; std::basic_string<char,std::char_traits<char>,std::allocator<char> >::`scalar deleting destructor'
PUBLIC	??0runtime_error@std@@QEAA@PEBD@Z		; std::runtime_error::runtime_error
PUBLIC	??1runtime_error@std@@UEAA@XZ			; std::runtime_error::~runtime_error
PUBLIC	??0runtime_error@std@@QEAA@AEBV01@@Z		; std::runtime_error::runtime_error
PUBLIC	??_Gruntime_error@std@@UEAAPEAXI@Z		; std::runtime_error::`scalar deleting destructor'
PUBLIC	??0_Nontrivial_dummy_type@std@@QEAA@XZ		; std::_Nontrivial_dummy_type::_Nontrivial_dummy_type
PUBLIC	??0?$_Optional_destruct_base@I$00@std@@QEAA@XZ	; std::_Optional_destruct_base<unsigned int,1>::_Optional_destruct_base<unsigned int,1>
PUBLIC	??D?$_Optional_construct_base@I@std@@QEGAAAEAIXZ ; std::_Optional_construct_base<unsigned int>::operator*
PUBLIC	??0?$_Optional_construct_base@I@std@@QEAA@XZ	; std::_Optional_construct_base<unsigned int>::_Optional_construct_base<unsigned int>
PUBLIC	??0?$optional@I@std@@QEAA@XZ			; std::optional<unsigned int>::optional<unsigned int>
PUBLIC	?has_value@?$optional@I@std@@QEBA_NXZ		; std::optional<unsigned int>::has_value
PUBLIC	?isComplete@QueueInUse@cow@@QEAA_NXZ		; cow::QueueInUse::isComplete
PUBLIC	??0?$allocator@UVkSurfaceFormatKHR@@@std@@QEAA@XZ ; std::allocator<VkSurfaceFormatKHR>::allocator<VkSurfaceFormatKHR>
PUBLIC	?deallocate@?$allocator@UVkSurfaceFormatKHR@@@std@@QEAAXQEAUVkSurfaceFormatKHR@@_K@Z ; std::allocator<VkSurfaceFormatKHR>::deallocate
PUBLIC	?allocate@?$allocator@UVkSurfaceFormatKHR@@@std@@QEAAPEAUVkSurfaceFormatKHR@@_K@Z ; std::allocator<VkSurfaceFormatKHR>::allocate
PUBLIC	?max_size@?$_Default_allocator_traits@V?$allocator@UVkSurfaceFormatKHR@@@std@@@std@@SA_KAEBV?$allocator@UVkSurfaceFormatKHR@@@2@@Z ; std::_Default_allocator_traits<std::allocator<VkSurfaceFormatKHR> >::max_size
PUBLIC	??0?$vector@UVkSurfaceFormatKHR@@V?$allocator@UVkSurfaceFormatKHR@@@std@@@std@@QEAA@XZ ; std::vector<VkSurfaceFormatKHR,std::allocator<VkSurfaceFormatKHR> >::vector<VkSurfaceFormatKHR,std::allocator<VkSurfaceFormatKHR> >
PUBLIC	??0?$vector@UVkSurfaceFormatKHR@@V?$allocator@UVkSurfaceFormatKHR@@@std@@@std@@QEAA@$$QEAV01@@Z ; std::vector<VkSurfaceFormatKHR,std::allocator<VkSurfaceFormatKHR> >::vector<VkSurfaceFormatKHR,std::allocator<VkSurfaceFormatKHR> >
PUBLIC	??1?$vector@UVkSurfaceFormatKHR@@V?$allocator@UVkSurfaceFormatKHR@@@std@@@std@@QEAA@XZ ; std::vector<VkSurfaceFormatKHR,std::allocator<VkSurfaceFormatKHR> >::~vector<VkSurfaceFormatKHR,std::allocator<VkSurfaceFormatKHR> >
PUBLIC	?resize@?$vector@UVkSurfaceFormatKHR@@V?$allocator@UVkSurfaceFormatKHR@@@std@@@std@@QEAAX_K@Z ; std::vector<VkSurfaceFormatKHR,std::allocator<VkSurfaceFormatKHR> >::resize
PUBLIC	?data@?$vector@UVkSurfaceFormatKHR@@V?$allocator@UVkSurfaceFormatKHR@@@std@@@std@@QEAAPEAUVkSurfaceFormatKHR@@XZ ; std::vector<VkSurfaceFormatKHR,std::allocator<VkSurfaceFormatKHR> >::data
PUBLIC	?empty@?$vector@UVkSurfaceFormatKHR@@V?$allocator@UVkSurfaceFormatKHR@@@std@@@std@@QEBA_NXZ ; std::vector<VkSurfaceFormatKHR,std::allocator<VkSurfaceFormatKHR> >::empty
PUBLIC	?max_size@?$vector@UVkSurfaceFormatKHR@@V?$allocator@UVkSurfaceFormatKHR@@@std@@@std@@QEBA_KXZ ; std::vector<VkSurfaceFormatKHR,std::allocator<VkSurfaceFormatKHR> >::max_size
PUBLIC	?capacity@?$vector@UVkSurfaceFormatKHR@@V?$allocator@UVkSurfaceFormatKHR@@@std@@@std@@QEBA_KXZ ; std::vector<VkSurfaceFormatKHR,std::allocator<VkSurfaceFormatKHR> >::capacity
PUBLIC	?_Calculate_growth@?$vector@UVkSurfaceFormatKHR@@V?$allocator@UVkSurfaceFormatKHR@@@std@@@std@@AEBA_K_K@Z ; std::vector<VkSurfaceFormatKHR,std::allocator<VkSurfaceFormatKHR> >::_Calculate_growth
PUBLIC	?_Change_array@?$vector@UVkSurfaceFormatKHR@@V?$allocator@UVkSurfaceFormatKHR@@@std@@@std@@AEAAXQEAUVkSurfaceFormatKHR@@_K1@Z ; std::vector<VkSurfaceFormatKHR,std::allocator<VkSurfaceFormatKHR> >::_Change_array
PUBLIC	?_Tidy@?$vector@UVkSurfaceFormatKHR@@V?$allocator@UVkSurfaceFormatKHR@@@std@@@std@@AEAAXXZ ; std::vector<VkSurfaceFormatKHR,std::allocator<VkSurfaceFormatKHR> >::_Tidy
PUBLIC	?_Xlength@?$vector@UVkSurfaceFormatKHR@@V?$allocator@UVkSurfaceFormatKHR@@@std@@@std@@CAXXZ ; std::vector<VkSurfaceFormatKHR,std::allocator<VkSurfaceFormatKHR> >::_Xlength
PUBLIC	?_Orphan_range_unlocked@?$vector@UVkSurfaceFormatKHR@@V?$allocator@UVkSurfaceFormatKHR@@@std@@@std@@AEBAXPEAUVkSurfaceFormatKHR@@0@Z ; std::vector<VkSurfaceFormatKHR,std::allocator<VkSurfaceFormatKHR> >::_Orphan_range_unlocked
PUBLIC	?_Orphan_range_locked@?$vector@UVkSurfaceFormatKHR@@V?$allocator@UVkSurfaceFormatKHR@@@std@@@std@@AEBAXPEAUVkSurfaceFormatKHR@@0@Z ; std::vector<VkSurfaceFormatKHR,std::allocator<VkSurfaceFormatKHR> >::_Orphan_range_locked
PUBLIC	?_Orphan_range@?$vector@UVkSurfaceFormatKHR@@V?$allocator@UVkSurfaceFormatKHR@@@std@@@std@@AEBAXPEAUVkSurfaceFormatKHR@@0@Z ; std::vector<VkSurfaceFormatKHR,std::allocator<VkSurfaceFormatKHR> >::_Orphan_range
PUBLIC	?_Getal@?$vector@UVkSurfaceFormatKHR@@V?$allocator@UVkSurfaceFormatKHR@@@std@@@std@@AEAAAEAV?$allocator@UVkSurfaceFormatKHR@@@2@XZ ; std::vector<VkSurfaceFormatKHR,std::allocator<VkSurfaceFormatKHR> >::_Getal
PUBLIC	?_Getal@?$vector@UVkSurfaceFormatKHR@@V?$allocator@UVkSurfaceFormatKHR@@@std@@@std@@AEBAAEBV?$allocator@UVkSurfaceFormatKHR@@@2@XZ ; std::vector<VkSurfaceFormatKHR,std::allocator<VkSurfaceFormatKHR> >::_Getal
PUBLIC	??0?$_Vector_val@U?$_Simple_types@UVkSurfaceFormatKHR@@@std@@@std@@QEAA@XZ ; std::_Vector_val<std::_Simple_types<VkSurfaceFormatKHR> >::_Vector_val<std::_Simple_types<VkSurfaceFormatKHR> >
PUBLIC	??0?$_Vector_val@U?$_Simple_types@UVkSurfaceFormatKHR@@@std@@@std@@QEAA@PEAUVkSurfaceFormatKHR@@00@Z ; std::_Vector_val<std::_Simple_types<VkSurfaceFormatKHR> >::_Vector_val<std::_Simple_types<VkSurfaceFormatKHR> >
PUBLIC	?_Get_first@?$_Compressed_pair@V?$allocator@UVkSurfaceFormatKHR@@@std@@V?$_Vector_val@U?$_Simple_types@UVkSurfaceFormatKHR@@@std@@@2@$00@std@@QEAAAEAV?$allocator@UVkSurfaceFormatKHR@@@2@XZ ; std::_Compressed_pair<std::allocator<VkSurfaceFormatKHR>,std::_Vector_val<std::_Simple_types<VkSurfaceFormatKHR> >,1>::_Get_first
PUBLIC	?_Get_first@?$_Compressed_pair@V?$allocator@UVkSurfaceFormatKHR@@@std@@V?$_Vector_val@U?$_Simple_types@UVkSurfaceFormatKHR@@@std@@@2@$00@std@@QEBAAEBV?$allocator@UVkSurfaceFormatKHR@@@2@XZ ; std::_Compressed_pair<std::allocator<VkSurfaceFormatKHR>,std::_Vector_val<std::_Simple_types<VkSurfaceFormatKHR> >,1>::_Get_first
PUBLIC	??0?$allocator@W4VkPresentModeKHR@@@std@@QEAA@XZ ; std::allocator<enum VkPresentModeKHR>::allocator<enum VkPresentModeKHR>
PUBLIC	?deallocate@?$allocator@W4VkPresentModeKHR@@@std@@QEAAXQEAW4VkPresentModeKHR@@_K@Z ; std::allocator<enum VkPresentModeKHR>::deallocate
PUBLIC	?allocate@?$allocator@W4VkPresentModeKHR@@@std@@QEAAPEAW4VkPresentModeKHR@@_K@Z ; std::allocator<enum VkPresentModeKHR>::allocate
PUBLIC	?max_size@?$_Default_allocator_traits@V?$allocator@W4VkPresentModeKHR@@@std@@@std@@SA_KAEBV?$allocator@W4VkPresentModeKHR@@@2@@Z ; std::_Default_allocator_traits<std::allocator<enum VkPresentModeKHR> >::max_size
PUBLIC	??0?$vector@W4VkPresentModeKHR@@V?$allocator@W4VkPresentModeKHR@@@std@@@std@@QEAA@XZ ; std::vector<enum VkPresentModeKHR,std::allocator<enum VkPresentModeKHR> >::vector<enum VkPresentModeKHR,std::allocator<enum VkPresentModeKHR> >
PUBLIC	??0?$vector@W4VkPresentModeKHR@@V?$allocator@W4VkPresentModeKHR@@@std@@@std@@QEAA@$$QEAV01@@Z ; std::vector<enum VkPresentModeKHR,std::allocator<enum VkPresentModeKHR> >::vector<enum VkPresentModeKHR,std::allocator<enum VkPresentModeKHR> >
PUBLIC	??1?$vector@W4VkPresentModeKHR@@V?$allocator@W4VkPresentModeKHR@@@std@@@std@@QEAA@XZ ; std::vector<enum VkPresentModeKHR,std::allocator<enum VkPresentModeKHR> >::~vector<enum VkPresentModeKHR,std::allocator<enum VkPresentModeKHR> >
PUBLIC	?resize@?$vector@W4VkPresentModeKHR@@V?$allocator@W4VkPresentModeKHR@@@std@@@std@@QEAAX_K@Z ; std::vector<enum VkPresentModeKHR,std::allocator<enum VkPresentModeKHR> >::resize
PUBLIC	?data@?$vector@W4VkPresentModeKHR@@V?$allocator@W4VkPresentModeKHR@@@std@@@std@@QEAAPEAW4VkPresentModeKHR@@XZ ; std::vector<enum VkPresentModeKHR,std::allocator<enum VkPresentModeKHR> >::data
PUBLIC	?empty@?$vector@W4VkPresentModeKHR@@V?$allocator@W4VkPresentModeKHR@@@std@@@std@@QEBA_NXZ ; std::vector<enum VkPresentModeKHR,std::allocator<enum VkPresentModeKHR> >::empty
PUBLIC	?max_size@?$vector@W4VkPresentModeKHR@@V?$allocator@W4VkPresentModeKHR@@@std@@@std@@QEBA_KXZ ; std::vector<enum VkPresentModeKHR,std::allocator<enum VkPresentModeKHR> >::max_size
PUBLIC	?capacity@?$vector@W4VkPresentModeKHR@@V?$allocator@W4VkPresentModeKHR@@@std@@@std@@QEBA_KXZ ; std::vector<enum VkPresentModeKHR,std::allocator<enum VkPresentModeKHR> >::capacity
PUBLIC	?_Calculate_growth@?$vector@W4VkPresentModeKHR@@V?$allocator@W4VkPresentModeKHR@@@std@@@std@@AEBA_K_K@Z ; std::vector<enum VkPresentModeKHR,std::allocator<enum VkPresentModeKHR> >::_Calculate_growth
PUBLIC	?_Change_array@?$vector@W4VkPresentModeKHR@@V?$allocator@W4VkPresentModeKHR@@@std@@@std@@AEAAXQEAW4VkPresentModeKHR@@_K1@Z ; std::vector<enum VkPresentModeKHR,std::allocator<enum VkPresentModeKHR> >::_Change_array
PUBLIC	?_Tidy@?$vector@W4VkPresentModeKHR@@V?$allocator@W4VkPresentModeKHR@@@std@@@std@@AEAAXXZ ; std::vector<enum VkPresentModeKHR,std::allocator<enum VkPresentModeKHR> >::_Tidy
PUBLIC	?_Xlength@?$vector@W4VkPresentModeKHR@@V?$allocator@W4VkPresentModeKHR@@@std@@@std@@CAXXZ ; std::vector<enum VkPresentModeKHR,std::allocator<enum VkPresentModeKHR> >::_Xlength
PUBLIC	?_Orphan_range_unlocked@?$vector@W4VkPresentModeKHR@@V?$allocator@W4VkPresentModeKHR@@@std@@@std@@AEBAXPEAW4VkPresentModeKHR@@0@Z ; std::vector<enum VkPresentModeKHR,std::allocator<enum VkPresentModeKHR> >::_Orphan_range_unlocked
PUBLIC	?_Orphan_range_locked@?$vector@W4VkPresentModeKHR@@V?$allocator@W4VkPresentModeKHR@@@std@@@std@@AEBAXPEAW4VkPresentModeKHR@@0@Z ; std::vector<enum VkPresentModeKHR,std::allocator<enum VkPresentModeKHR> >::_Orphan_range_locked
PUBLIC	?_Orphan_range@?$vector@W4VkPresentModeKHR@@V?$allocator@W4VkPresentModeKHR@@@std@@@std@@AEBAXPEAW4VkPresentModeKHR@@0@Z ; std::vector<enum VkPresentModeKHR,std::allocator<enum VkPresentModeKHR> >::_Orphan_range
PUBLIC	?_Getal@?$vector@W4VkPresentModeKHR@@V?$allocator@W4VkPresentModeKHR@@@std@@@std@@AEAAAEAV?$allocator@W4VkPresentModeKHR@@@2@XZ ; std::vector<enum VkPresentModeKHR,std::allocator<enum VkPresentModeKHR> >::_Getal
PUBLIC	?_Getal@?$vector@W4VkPresentModeKHR@@V?$allocator@W4VkPresentModeKHR@@@std@@@std@@AEBAAEBV?$allocator@W4VkPresentModeKHR@@@2@XZ ; std::vector<enum VkPresentModeKHR,std::allocator<enum VkPresentModeKHR> >::_Getal
PUBLIC	??0?$_Vector_val@U?$_Simple_types@W4VkPresentModeKHR@@@std@@@std@@QEAA@XZ ; std::_Vector_val<std::_Simple_types<enum VkPresentModeKHR> >::_Vector_val<std::_Simple_types<enum VkPresentModeKHR> >
PUBLIC	??0?$_Vector_val@U?$_Simple_types@W4VkPresentModeKHR@@@std@@@std@@QEAA@PEAW4VkPresentModeKHR@@00@Z ; std::_Vector_val<std::_Simple_types<enum VkPresentModeKHR> >::_Vector_val<std::_Simple_types<enum VkPresentModeKHR> >
PUBLIC	?_Get_first@?$_Compressed_pair@V?$allocator@W4VkPresentModeKHR@@@std@@V?$_Vector_val@U?$_Simple_types@W4VkPresentModeKHR@@@std@@@2@$00@std@@QEAAAEAV?$allocator@W4VkPresentModeKHR@@@2@XZ ; std::_Compressed_pair<std::allocator<enum VkPresentModeKHR>,std::_Vector_val<std::_Simple_types<enum VkPresentModeKHR> >,1>::_Get_first
PUBLIC	?_Get_first@?$_Compressed_pair@V?$allocator@W4VkPresentModeKHR@@@std@@V?$_Vector_val@U?$_Simple_types@W4VkPresentModeKHR@@@std@@@2@$00@std@@QEBAAEBV?$allocator@W4VkPresentModeKHR@@@2@XZ ; std::_Compressed_pair<std::allocator<enum VkPresentModeKHR>,std::_Vector_val<std::_Simple_types<enum VkPresentModeKHR> >,1>::_Get_first
PUBLIC	??1SwapChainSupportDetails@cow@@QEAA@XZ		; cow::SwapChainSupportDetails::~SwapChainSupportDetails
PUBLIC	??0SwapChainSupportDetails@cow@@QEAA@$$QEAU01@@Z ; cow::SwapChainSupportDetails::SwapChainSupportDetails
PUBLIC	??0Device@cow@@QEAA@AEAVWindow@1@PEAII@Z	; cow::Device::Device
PUBLIC	??1Device@cow@@QEAA@XZ				; cow::Device::~Device
PUBLIC	?createDescriptorSetLayout@Device@cow@@QEBAPEAUVkDescriptorSetLayout_T@@PEAUVkDescriptorSetLayoutCreateInfo@@@Z ; cow::Device::createDescriptorSetLayout
PUBLIC	?createPipelineLayout@Device@cow@@QEBAPEAUVkPipelineLayout_T@@PEAUVkPipelineLayoutCreateInfo@@@Z ; cow::Device::createPipelineLayout
PUBLIC	?createPipelineCache@Device@cow@@QEBAPEAUVkPipelineCache_T@@PEAUVkPipelineCacheCreateInfo@@PEAPEAU3@@Z ; cow::Device::createPipelineCache
PUBLIC	?createComputePipelines@Device@cow@@QEBAPEAUVkPipeline_T@@PEAUVkPipelineCache_T@@IPEAUVkComputePipelineCreateInfo@@@Z ; cow::Device::createComputePipelines
PUBLIC	?createDescriptorPool@Device@cow@@QEBAPEAUVkDescriptorPool_T@@PEAUVkDescriptorPoolCreateInfo@@@Z ; cow::Device::createDescriptorPool
PUBLIC	?createCommandPool@Device@cow@@QEBAPEAUVkCommandPool_T@@PEAUVkCommandPoolCreateInfo@@@Z ; cow::Device::createCommandPool
PUBLIC	?createBuffer@Device@cow@@QEBAPEAUVkBuffer_T@@PEAUVkBufferCreateInfo@@@Z ; cow::Device::createBuffer
PUBLIC	?createFence@Device@cow@@QEBAPEAUVkFence_T@@PEAUVkFenceCreateInfo@@@Z ; cow::Device::createFence
PUBLIC	?allocateCommandBuffers@Device@cow@@QEBAPEAUVkCommandBuffer_T@@PEAUVkCommandBufferAllocateInfo@@@Z ; cow::Device::allocateCommandBuffers
PUBLIC	?allocateDescriptorSets@Device@cow@@QEBAPEAUVkDescriptorSet_T@@PEAUVkDescriptorSetAllocateInfo@@@Z ; cow::Device::allocateDescriptorSets
PUBLIC	?allocateMemory@Device@cow@@QEBAPEAUVkDeviceMemory_T@@PEAUVkMemoryAllocateInfo@@@Z ; cow::Device::allocateMemory
PUBLIC	?createSurface_and_findPhysicalDevice@Device@cow@@AEAAPEAUVkPhysicalDevice_T@@PEAVWindow@2@@Z ; cow::Device::createSurface_and_findPhysicalDevice
PUBLIC	?createLogicalDevice@Device@cow@@AEAAXXZ	; cow::Device::createLogicalDevice
PUBLIC	?createCommandPool@Device@cow@@AEAAXXZ		; cow::Device::createCommandPool
PUBLIC	?deviceSuitable@Device@cow@@AEAA_NPEAUVkPhysicalDevice_T@@@Z ; cow::Device::deviceSuitable
PUBLIC	?deviceExtensionSupport@Device@cow@@AEAA_NPEAUVkPhysicalDevice_T@@@Z ; cow::Device::deviceExtensionSupport
PUBLIC	?findQueues@Device@cow@@AEAA?AUQueueInUse@2@PEAUVkPhysicalDevice_T@@@Z ; cow::Device::findQueues
PUBLIC	?querySwapChainSupport@Device@cow@@AEAA?AUSwapChainSupportDetails@2@PEAUVkPhysicalDevice_T@@@Z ; cow::Device::querySwapChainSupport
PUBLIC	?findSupportedFormat@Device@cow@@AEAA?AW4VkFormat@@IPEAW43@W4VkImageTiling@@I@Z ; cow::Device::findSupportedFormat
PUBLIC	?_Throw_tree_length_error@std@@YAXXZ		; std::_Throw_tree_length_error
PUBLIC	??0_Iterator_base12_compatible@std@@QEAA@XZ	; std::_Iterator_base12_compatible::_Iterator_base12_compatible
PUBLIC	??$?6U?$char_traits@D@std@@@std@@YAAEAV?$basic_ostream@DU?$char_traits@D@std@@@0@AEAV10@PEBD@Z ; std::operator<<<std::char_traits<char> >
PUBLIC	??$endl@DU?$char_traits@D@std@@@std@@YAAEAV?$basic_ostream@DU?$char_traits@D@std@@@0@AEAV10@@Z ; std::endl<char,std::char_traits<char> >
PUBLIC	??$<move>@AEAV?$tuple@IPEAPEAUVkPhysicalDevice_T@@@std@@@@YA$$QEAV?$tuple@IPEAPEAUVkPhysicalDevice_T@@@std@@AEAV01@@Z ; <move><std::tuple<unsigned int,VkPhysicalDevice_T * *> &>
PUBLIC	??$get@$0A@IPEAPEAUVkPhysicalDevice_T@@@std@@YA$$QEAI$$QEAV?$tuple@IPEAPEAUVkPhysicalDevice_T@@@0@@Z ; std::get<0,unsigned int,VkPhysicalDevice_T * *>
PUBLIC	??$get@$00IPEAPEAUVkPhysicalDevice_T@@@std@@YA$$QEAPEAPEAUVkPhysicalDevice_T@@$$QEAV?$tuple@IPEAPEAUVkPhysicalDevice_T@@@0@@Z ; std::get<1,unsigned int,VkPhysicalDevice_T * *>
PUBLIC	?begin@?$array@PEBD$00@std@@QEBA?AV?$_Array_const_iterator@PEBD$00@2@XZ ; std::array<char const *,1>::begin
PUBLIC	?end@?$array@PEBD$00@std@@QEBA?AV?$_Array_const_iterator@PEBD$00@2@XZ ; std::array<char const *,1>::end
PUBLIC	?size@?$array@PEBD$00@std@@QEBA_KXZ		; std::array<char const *,1>::size
PUBLIC	?data@?$array@PEBD$00@std@@QEBAPEBQEBDXZ	; std::array<char const *,1>::data
PUBLIC	??0?$allocator@UVkExtensionProperties@@@std@@QEAA@XZ ; std::allocator<VkExtensionProperties>::allocator<VkExtensionProperties>
PUBLIC	?deallocate@?$allocator@UVkExtensionProperties@@@std@@QEAAXQEAUVkExtensionProperties@@_K@Z ; std::allocator<VkExtensionProperties>::deallocate
PUBLIC	?allocate@?$allocator@UVkExtensionProperties@@@std@@QEAAPEAUVkExtensionProperties@@_K@Z ; std::allocator<VkExtensionProperties>::allocate
PUBLIC	?max_size@?$_Default_allocator_traits@V?$allocator@UVkExtensionProperties@@@std@@@std@@SA_KAEBV?$allocator@UVkExtensionProperties@@@2@@Z ; std::_Default_allocator_traits<std::allocator<VkExtensionProperties> >::max_size
PUBLIC	??0?$vector@UVkExtensionProperties@@V?$allocator@UVkExtensionProperties@@@std@@@std@@QEAA@_KAEBV?$allocator@UVkExtensionProperties@@@1@@Z ; std::vector<VkExtensionProperties,std::allocator<VkExtensionProperties> >::vector<VkExtensionProperties,std::allocator<VkExtensionProperties> >
PUBLIC	??1?$vector@UVkExtensionProperties@@V?$allocator@UVkExtensionProperties@@@std@@@std@@QEAA@XZ ; std::vector<VkExtensionProperties,std::allocator<VkExtensionProperties> >::~vector<VkExtensionProperties,std::allocator<VkExtensionProperties> >
PUBLIC	?data@?$vector@UVkExtensionProperties@@V?$allocator@UVkExtensionProperties@@@std@@@std@@QEAAPEAUVkExtensionProperties@@XZ ; std::vector<VkExtensionProperties,std::allocator<VkExtensionProperties> >::data
PUBLIC	?_Unchecked_begin@?$vector@UVkExtensionProperties@@V?$allocator@UVkExtensionProperties@@@std@@@std@@QEAAPEAUVkExtensionProperties@@XZ ; std::vector<VkExtensionProperties,std::allocator<VkExtensionProperties> >::_Unchecked_begin
PUBLIC	?_Unchecked_end@?$vector@UVkExtensionProperties@@V?$allocator@UVkExtensionProperties@@@std@@@std@@QEAAPEAUVkExtensionProperties@@XZ ; std::vector<VkExtensionProperties,std::allocator<VkExtensionProperties> >::_Unchecked_end
PUBLIC	?max_size@?$vector@UVkExtensionProperties@@V?$allocator@UVkExtensionProperties@@@std@@@std@@QEBA_KXZ ; std::vector<VkExtensionProperties,std::allocator<VkExtensionProperties> >::max_size
PUBLIC	?_Buy_raw@?$vector@UVkExtensionProperties@@V?$allocator@UVkExtensionProperties@@@std@@@std@@AEAAX_K@Z ; std::vector<VkExtensionProperties,std::allocator<VkExtensionProperties> >::_Buy_raw
PUBLIC	?_Buy_nonzero@?$vector@UVkExtensionProperties@@V?$allocator@UVkExtensionProperties@@@std@@@std@@AEAAX_K@Z ; std::vector<VkExtensionProperties,std::allocator<VkExtensionProperties> >::_Buy_nonzero
PUBLIC	?_Tidy@?$vector@UVkExtensionProperties@@V?$allocator@UVkExtensionProperties@@@std@@@std@@AEAAXXZ ; std::vector<VkExtensionProperties,std::allocator<VkExtensionProperties> >::_Tidy
PUBLIC	?_Xlength@?$vector@UVkExtensionProperties@@V?$allocator@UVkExtensionProperties@@@std@@@std@@CAXXZ ; std::vector<VkExtensionProperties,std::allocator<VkExtensionProperties> >::_Xlength
PUBLIC	?_Getal@?$vector@UVkExtensionProperties@@V?$allocator@UVkExtensionProperties@@@std@@@std@@AEAAAEAV?$allocator@UVkExtensionProperties@@@2@XZ ; std::vector<VkExtensionProperties,std::allocator<VkExtensionProperties> >::_Getal
PUBLIC	?_Getal@?$vector@UVkExtensionProperties@@V?$allocator@UVkExtensionProperties@@@std@@@std@@AEBAAEBV?$allocator@UVkExtensionProperties@@@2@XZ ; std::vector<VkExtensionProperties,std::allocator<VkExtensionProperties> >::_Getal
PUBLIC	??0?$_Vector_val@U?$_Simple_types@UVkExtensionProperties@@@std@@@std@@QEAA@XZ ; std::_Vector_val<std::_Simple_types<VkExtensionProperties> >::_Vector_val<std::_Simple_types<VkExtensionProperties> >
PUBLIC	?_Get_first@?$_Compressed_pair@V?$allocator@UVkExtensionProperties@@@std@@V?$_Vector_val@U?$_Simple_types@UVkExtensionProperties@@@std@@@2@$00@std@@QEAAAEAV?$allocator@UVkExtensionProperties@@@2@XZ ; std::_Compressed_pair<std::allocator<VkExtensionProperties>,std::_Vector_val<std::_Simple_types<VkExtensionProperties> >,1>::_Get_first
PUBLIC	?_Get_first@?$_Compressed_pair@V?$allocator@UVkExtensionProperties@@@std@@V?$_Vector_val@U?$_Simple_types@UVkExtensionProperties@@@std@@@2@$00@std@@QEBAAEBV?$allocator@UVkExtensionProperties@@@2@XZ ; std::_Compressed_pair<std::allocator<VkExtensionProperties>,std::_Vector_val<std::_Simple_types<VkExtensionProperties> >,1>::_Get_first
PUBLIC	?__autoclassinit2@?$vector@UVkExtensionProperties@@V?$allocator@UVkExtensionProperties@@@std@@@std@@QEAAX_K@Z ; std::vector<VkExtensionProperties,std::allocator<VkExtensionProperties> >::__autoclassinit2
PUBLIC	?_Kfn@?$_Tset_traits@V?$basic_string@DU?$char_traits@D@std@@V?$allocator@D@2@@std@@U?$less@V?$basic_string@DU?$char_traits@D@std@@V?$allocator@D@2@@std@@@2@V?$allocator@V?$basic_string@DU?$char_traits@D@std@@V?$allocator@D@2@@std@@@2@$0A@@std@@SAAEBV?$basic_string@DU?$char_traits@D@std@@V?$allocator@D@2@@2@AEBV32@@Z ; std::_Tset_traits<std::basic_string<char,std::char_traits<char>,std::allocator<char> >,std::less<std::basic_string<char,std::char_traits<char>,std::allocator<char> > >,std::allocator<std::basic_string<char,std::char_traits<char>,std::allocator<char> > >,0>::_Kfn
PUBLIC	??0?$allocator@U?$_Tree_node@V?$basic_string@DU?$char_traits@D@std@@V?$allocator@D@2@@std@@PEAX@std@@@std@@QEAA@XZ ; std::allocator<std::_Tree_node<std::basic_string<char,std::char_traits<char>,std::allocator<char> >,void *> >::allocator<std::_Tree_node<std::basic_string<char,std::char_traits<char>,std::allocator<char> >,void *> >
PUBLIC	?deallocate@?$allocator@U?$_Tree_node@V?$basic_string@DU?$char_traits@D@std@@V?$allocator@D@2@@std@@PEAX@std@@@std@@QEAAXQEAU?$_Tree_node@V?$basic_string@DU?$char_traits@D@std@@V?$allocator@D@2@@std@@PEAX@2@_K@Z ; std::allocator<std::_Tree_node<std::basic_string<char,std::char_traits<char>,std::allocator<char> >,void *> >::deallocate
PUBLIC	?allocate@?$allocator@U?$_Tree_node@V?$basic_string@DU?$char_traits@D@std@@V?$allocator@D@2@@std@@PEAX@std@@@std@@QEAAPEAU?$_Tree_node@V?$basic_string@DU?$char_traits@D@std@@V?$allocator@D@2@@std@@PEAX@2@_K@Z ; std::allocator<std::_Tree_node<std::basic_string<char,std::char_traits<char>,std::allocator<char> >,void *> >::allocate
PUBLIC	?deallocate@?$_Default_allocator_traits@V?$allocator@U?$_Tree_node@V?$basic_string@DU?$char_traits@D@std@@V?$allocator@D@2@@std@@PEAX@std@@@std@@@std@@SAXAEAV?$allocator@U?$_Tree_node@V?$basic_string@DU?$char_traits@D@std@@V?$allocator@D@2@@std@@PEAX@std@@@2@QEAU?$_Tree_node@V?$basic_string@DU?$char_traits@D@std@@V?$allocator@D@2@@std@@PEAX@2@_K@Z ; std::_Default_allocator_traits<std::allocator<std::_Tree_node<std::basic_string<char,std::char_traits<char>,std::allocator<char> >,void *> > >::deallocate
PUBLIC	?max_size@?$_Default_allocator_traits@V?$allocator@U?$_Tree_node@V?$basic_string@DU?$char_traits@D@std@@V?$allocator@D@2@@std@@PEAX@std@@@std@@@std@@SA_KAEBV?$allocator@U?$_Tree_node@V?$basic_string@DU?$char_traits@D@std@@V?$allocator@D@2@@std@@PEAX@std@@@2@@Z ; std::_Default_allocator_traits<std::allocator<std::_Tree_node<std::basic_string<char,std::char_traits<char>,std::allocator<char> >,void *> > >::max_size
PUBLIC	??0?$_Tree@V?$_Tset_traits@V?$basic_string@DU?$char_traits@D@std@@V?$allocator@D@2@@std@@U?$less@V?$basic_string@DU?$char_traits@D@std@@V?$allocator@D@2@@std@@@2@V?$allocator@V?$basic_string@DU?$char_traits@D@std@@V?$allocator@D@2@@std@@@2@$0A@@std@@@std@@QEAA@AEBU?$less@V?$basic_string@DU?$char_traits@D@std@@V?$allocator@D@2@@std@@@1@@Z ; std::_Tree<std::_Tset_traits<std::basic_string<char,std::char_traits<char>,std::allocator<char> >,std::less<std::basic_string<char,std::char_traits<char>,std::allocator<char> > >,std::allocator<std::basic_string<char,std::char_traits<char>,std::allocator<char> > >,0> >::_Tree<std::_Tset_traits<std::basic_string<char,std::char_traits<char>,std::allocator<char> >,std::less<std::basic_string<char,std::char_traits<char>,std::allocator<char> > >,std::allocator<std::basic_string<char,std::char_traits<char>,std::allocator<char> > >,0> >
PUBLIC	??1?$_Tree@V?$_Tset_traits@V?$basic_string@DU?$char_traits@D@std@@V?$allocator@D@2@@std@@U?$less@V?$basic_string@DU?$char_traits@D@std@@V?$allocator@D@2@@std@@@2@V?$allocator@V?$basic_string@DU?$char_traits@D@std@@V?$allocator@D@2@@std@@@2@$0A@@std@@@std@@QEAA@XZ ; std::_Tree<std::_Tset_traits<std::basic_string<char,std::char_traits<char>,std::allocator<char> >,std::less<std::basic_string<char,std::char_traits<char>,std::allocator<char> > >,std::allocator<std::basic_string<char,std::char_traits<char>,std::allocator<char> > >,0> >::~_Tree<std::_Tset_traits<std::basic_string<char,std::char_traits<char>,std::allocator<char> >,std::less<std::basic_string<char,std::char_traits<char>,std::allocator<char> > >,std::allocator<std::basic_string<char,std::char_traits<char>,std::allocator<char> > >,0> >
PUBLIC	?_Unchecked_begin@?$_Tree@V?$_Tset_traits@V?$basic_string@DU?$char_traits@D@std@@V?$allocator@D@2@@std@@U?$less@V?$basic_string@DU?$char_traits@D@std@@V?$allocator@D@2@@std@@@2@V?$allocator@V?$basic_string@DU?$char_traits@D@std@@V?$allocator@D@2@@std@@@2@$0A@@std@@@std@@QEAA?AV?$_Tree_unchecked_const_iterator@V?$_Tree_val@U?$_Tree_simple_types@V?$basic_string@DU?$char_traits@D@std@@V?$allocator@D@2@@std@@@std@@@std@@U_Iterator_base0@2@@2@XZ ; std::_Tree<std::_Tset_traits<std::basic_string<char,std::char_traits<char>,std::allocator<char> >,std::less<std::basic_string<char,std::char_traits<char>,std::allocator<char> > >,std::allocator<std::basic_string<char,std::char_traits<char>,std::allocator<char> > >,0> >::_Unchecked_begin
PUBLIC	?max_size@?$_Tree@V?$_Tset_traits@V?$basic_string@DU?$char_traits@D@std@@V?$allocator@D@2@@std@@U?$less@V?$basic_string@DU?$char_traits@D@std@@V?$allocator@D@2@@std@@@2@V?$allocator@V?$basic_string@DU?$char_traits@D@std@@V?$allocator@D@2@@std@@@2@$0A@@std@@@std@@QEBA_KXZ ; std::_Tree<std::_Tset_traits<std::basic_string<char,std::char_traits<char>,std::allocator<char> >,std::less<std::basic_string<char,std::char_traits<char>,std::allocator<char> > >,std::allocator<std::basic_string<char,std::char_traits<char>,std::allocator<char> > >,0> >::max_size
PUBLIC	?empty@?$_Tree@V?$_Tset_traits@V?$basic_string@DU?$char_traits@D@std@@V?$allocator@D@2@@std@@U?$less@V?$basic_string@DU?$char_traits@D@std@@V?$allocator@D@2@@std@@@2@V?$allocator@V?$basic_string@DU?$char_traits@D@std@@V?$allocator@D@2@@std@@@2@$0A@@std@@@std@@QEBA_NXZ ; std::_Tree<std::_Tset_traits<std::basic_string<char,std::char_traits<char>,std::allocator<char> >,std::less<std::basic_string<char,std::char_traits<char>,std::allocator<char> > >,std::allocator<std::basic_string<char,std::char_traits<char>,std::allocator<char> > >,0> >::empty
PUBLIC	?_Erase_unchecked@?$_Tree@V?$_Tset_traits@V?$basic_string@DU?$char_traits@D@std@@V?$allocator@D@2@@std@@U?$less@V?$basic_string@DU?$char_traits@D@std@@V?$allocator@D@2@@std@@@2@V?$allocator@V?$basic_string@DU?$char_traits@D@std@@V?$allocator@D@2@@std@@@2@$0A@@std@@@std@@AEAAPEAU?$_Tree_node@V?$basic_string@DU?$char_traits@D@std@@V?$allocator@D@2@@std@@PEAX@2@V?$_Tree_unchecked_const_iterator@V?$_Tree_val@U?$_Tree_simple_types@V?$basic_string@DU?$char_traits@D@std@@V?$allocator@D@2@@std@@@std@@@std@@U_Iterator_base0@2@@2@@Z ; std::_Tree<std::_Tset_traits<std::basic_string<char,std::char_traits<char>,std::allocator<char> >,std::less<std::basic_string<char,std::char_traits<char>,std::allocator<char> > >,std::allocator<std::basic_string<char,std::char_traits<char>,std::allocator<char> > >,0> >::_Erase_unchecked
PUBLIC	?_Erase_unchecked@?$_Tree@V?$_Tset_traits@V?$basic_string@DU?$char_traits@D@std@@V?$allocator@D@2@@std@@U?$less@V?$basic_string@DU?$char_traits@D@std@@V?$allocator@D@2@@std@@@2@V?$allocator@V?$basic_string@DU?$char_traits@D@std@@V?$allocator@D@2@@std@@@2@$0A@@std@@@std@@AEAAPEAU?$_Tree_node@V?$basic_string@DU?$char_traits@D@std@@V?$allocator@D@2@@std@@PEAX@2@V?$_Tree_unchecked_const_iterator@V?$_Tree_val@U?$_Tree_simple_types@V?$basic_string@DU?$char_traits@D@std@@V?$allocator@D@2@@std@@@std@@@std@@U_Iterator_base0@2@@2@0@Z ; std::_Tree<std::_Tset_traits<std::basic_string<char,std::char_traits<char>,std::allocator<char> >,std::less<std::basic_string<char,std::char_traits<char>,std::allocator<char> > >,std::allocator<std::basic_string<char,std::char_traits<char>,std::allocator<char> > >,0> >::_Erase_unchecked
PUBLIC	?_Erase@?$_Tree@V?$_Tset_traits@V?$basic_string@DU?$char_traits@D@std@@V?$allocator@D@2@@std@@U?$less@V?$basic_string@DU?$char_traits@D@std@@V?$allocator@D@2@@std@@@2@V?$allocator@V?$basic_string@DU?$char_traits@D@std@@V?$allocator@D@2@@std@@@2@$0A@@std@@@std@@AEAA_KU?$pair@PEAU?$_Tree_node@V?$basic_string@DU?$char_traits@D@std@@V?$allocator@D@2@@std@@PEAX@std@@PEAU12@@2@@Z ; std::_Tree<std::_Tset_traits<std::basic_string<char,std::char_traits<char>,std::allocator<char> >,std::less<std::basic_string<char,std::char_traits<char>,std::allocator<char> > >,std::allocator<std::basic_string<char,std::char_traits<char>,std::allocator<char> > >,0> >::_Erase
PUBLIC	?erase@?$_Tree@V?$_Tset_traits@V?$basic_string@DU?$char_traits@D@std@@V?$allocator@D@2@@std@@U?$less@V?$basic_string@DU?$char_traits@D@std@@V?$allocator@D@2@@std@@@2@V?$allocator@V?$basic_string@DU?$char_traits@D@std@@V?$allocator@D@2@@std@@@2@$0A@@std@@@std@@QEAA_KAEBV?$basic_string@DU?$char_traits@D@std@@V?$allocator@D@2@@2@@Z ; std::_Tree<std::_Tset_traits<std::basic_string<char,std::char_traits<char>,std::allocator<char> >,std::less<std::basic_string<char,std::char_traits<char>,std::allocator<char> > >,std::allocator<std::basic_string<char,std::char_traits<char>,std::allocator<char> > >,0> >::erase
PUBLIC	?clear@?$_Tree@V?$_Tset_traits@V?$basic_string@DU?$char_traits@D@std@@V?$allocator@D@2@@std@@U?$less@V?$basic_string@DU?$char_traits@D@std@@V?$allocator@D@2@@std@@@2@V?$allocator@V?$basic_string@DU?$char_traits@D@std@@V?$allocator@D@2@@std@@@2@$0A@@std@@@std@@QEAAXXZ ; std::_Tree<std::_Tset_traits<std::basic_string<char,std::char_traits<char>,std::allocator<char> >,std::less<std::basic_string<char,std::char_traits<char>,std::allocator<char> > >,std::allocator<std::basic_string<char,std::char_traits<char>,std::allocator<char> > >,0> >::clear
PUBLIC	?_Check_grow_by_1@?$_Tree@V?$_Tset_traits@V?$basic_string@DU?$char_traits@D@std@@V?$allocator@D@2@@std@@U?$less@V?$basic_string@DU?$char_traits@D@std@@V?$allocator@D@2@@std@@@2@V?$allocator@V?$basic_string@DU?$char_traits@D@std@@V?$allocator@D@2@@std@@@2@$0A@@std@@@std@@IEAAXXZ ; std::_Tree<std::_Tset_traits<std::basic_string<char,std::char_traits<char>,std::allocator<char> >,std::less<std::basic_string<char,std::char_traits<char>,std::allocator<char> > >,std::allocator<std::basic_string<char,std::char_traits<char>,std::allocator<char> > >,0> >::_Check_grow_by_1
PUBLIC	?_Alloc_sentinel_and_proxy@?$_Tree@V?$_Tset_traits@V?$basic_string@DU?$char_traits@D@std@@V?$allocator@D@2@@std@@U?$less@V?$basic_string@DU?$char_traits@D@std@@V?$allocator@D@2@@std@@@2@V?$allocator@V?$basic_string@DU?$char_traits@D@std@@V?$allocator@D@2@@std@@@2@$0A@@std@@@std@@IEAAXXZ ; std::_Tree<std::_Tset_traits<std::basic_string<char,std::char_traits<char>,std::allocator<char> >,std::less<std::basic_string<char,std::char_traits<char>,std::allocator<char> > >,std::allocator<std::basic_string<char,std::char_traits<char>,std::allocator<char> > >,0> >::_Alloc_sentinel_and_proxy
PUBLIC	?_Getcomp@?$_Tree@V?$_Tset_traits@V?$basic_string@DU?$char_traits@D@std@@V?$allocator@D@2@@std@@U?$less@V?$basic_string@DU?$char_traits@D@std@@V?$allocator@D@2@@std@@@2@V?$allocator@V?$basic_string@DU?$char_traits@D@std@@V?$allocator@D@2@@std@@@2@$0A@@std@@@std@@IEBAAEBU?$less@V?$basic_string@DU?$char_traits@D@std@@V?$allocator@D@2@@std@@@2@XZ ; std::_Tree<std::_Tset_traits<std::basic_string<char,std::char_traits<char>,std::allocator<char> >,std::less<std::basic_string<char,std::char_traits<char>,std::allocator<char> > >,std::allocator<std::basic_string<char,std::char_traits<char>,std::allocator<char> > >,0> >::_Getcomp
PUBLIC	?_Getal@?$_Tree@V?$_Tset_traits@V?$basic_string@DU?$char_traits@D@std@@V?$allocator@D@2@@std@@U?$less@V?$basic_string@DU?$char_traits@D@std@@V?$allocator@D@2@@std@@@2@V?$allocator@V?$basic_string@DU?$char_traits@D@std@@V?$allocator@D@2@@std@@@2@$0A@@std@@@std@@IEAAAEAV?$allocator@U?$_Tree_node@V?$basic_string@DU?$char_traits@D@std@@V?$allocator@D@2@@std@@PEAX@std@@@2@XZ ; std::_Tree<std::_Tset_traits<std::basic_string<char,std::char_traits<char>,std::allocator<char> >,std::less<std::basic_string<char,std::char_traits<char>,std::allocator<char> > >,std::allocator<std::basic_string<char,std::char_traits<char>,std::allocator<char> > >,0> >::_Getal
PUBLIC	?_Getal@?$_Tree@V?$_Tset_traits@V?$basic_string@DU?$char_traits@D@std@@V?$allocator@D@2@@std@@U?$less@V?$basic_string@DU?$char_traits@D@std@@V?$allocator@D@2@@std@@@2@V?$allocator@V?$basic_string@DU?$char_traits@D@std@@V?$allocator@D@2@@std@@@2@$0A@@std@@@std@@IEBAAEBV?$allocator@U?$_Tree_node@V?$basic_string@DU?$char_traits@D@std@@V?$allocator@D@2@@std@@PEAX@std@@@2@XZ ; std::_Tree<std::_Tset_traits<std::basic_string<char,std::char_traits<char>,std::allocator<char> >,std::less<std::basic_string<char,std::char_traits<char>,std::allocator<char> > >,std::allocator<std::basic_string<char,std::char_traits<char>,std::allocator<char> > >,0> >::_Getal
PUBLIC	?_Get_scary@?$_Tree@V?$_Tset_traits@V?$basic_string@DU?$char_traits@D@std@@V?$allocator@D@2@@std@@U?$less@V?$basic_string@DU?$char_traits@D@std@@V?$allocator@D@2@@std@@@2@V?$allocator@V?$basic_string@DU?$char_traits@D@std@@V?$allocator@D@2@@std@@@2@$0A@@std@@@std@@IEAAPEAV?$_Tree_val@U?$_Tree_simple_types@V?$basic_string@DU?$char_traits@D@std@@V?$allocator@D@2@@std@@@std@@@2@XZ ; std::_Tree<std::_Tset_traits<std::basic_string<char,std::char_traits<char>,std::allocator<char> >,std::less<std::basic_string<char,std::char_traits<char>,std::allocator<char> > >,std::allocator<std::basic_string<char,std::char_traits<char>,std::allocator<char> > >,0> >::_Get_scary
PUBLIC	?_Get_scary@?$_Tree@V?$_Tset_traits@V?$basic_string@DU?$char_traits@D@std@@V?$allocator@D@2@@std@@U?$less@V?$basic_string@DU?$char_traits@D@std@@V?$allocator@D@2@@std@@@2@V?$allocator@V?$basic_string@DU?$char_traits@D@std@@V?$allocator@D@2@@std@@@2@$0A@@std@@@std@@IEBAPEBV?$_Tree_val@U?$_Tree_simple_types@V?$basic_string@DU?$char_traits@D@std@@V?$allocator@D@2@@std@@@std@@@2@XZ ; std::_Tree<std::_Tset_traits<std::basic_string<char,std::char_traits<char>,std::allocator<char> >,std::less<std::basic_string<char,std::char_traits<char>,std::allocator<char> > >,std::allocator<std::basic_string<char,std::char_traits<char>,std::allocator<char> > >,0> >::_Get_scary
PUBLIC	??R?$less@V?$basic_string@DU?$char_traits@D@std@@V?$allocator@D@2@@std@@@std@@QEBA_NAEBV?$basic_string@DU?$char_traits@D@std@@V?$allocator@D@2@@1@0@Z ; std::less<std::basic_string<char,std::char_traits<char>,std::allocator<char> > >::operator()
PUBLIC	??0?$_Tree_val@U?$_Tree_simple_types@V?$basic_string@DU?$char_traits@D@std@@V?$allocator@D@2@@std@@@std@@@std@@QEAA@XZ ; std::_Tree_val<std::_Tree_simple_types<std::basic_string<char,std::char_traits<char>,std::allocator<char> > > >::_Tree_val<std::_Tree_simple_types<std::basic_string<char,std::char_traits<char>,std::allocator<char> > > >
PUBLIC	?_Max@?$_Tree_val@U?$_Tree_simple_types@V?$basic_string@DU?$char_traits@D@std@@V?$allocator@D@2@@std@@@std@@@std@@SAPEAU?$_Tree_node@V?$basic_string@DU?$char_traits@D@std@@V?$allocator@D@2@@std@@PEAX@2@PEAU32@@Z ; std::_Tree_val<std::_Tree_simple_types<std::basic_string<char,std::char_traits<char>,std::allocator<char> > > >::_Max
PUBLIC	?_Min@?$_Tree_val@U?$_Tree_simple_types@V?$basic_string@DU?$char_traits@D@std@@V?$allocator@D@2@@std@@@std@@@std@@SAPEAU?$_Tree_node@V?$basic_string@DU?$char_traits@D@std@@V?$allocator@D@2@@std@@PEAX@2@PEAU32@@Z ; std::_Tree_val<std::_Tree_simple_types<std::basic_string<char,std::char_traits<char>,std::allocator<char> > > >::_Min
PUBLIC	?_Lrotate@?$_Tree_val@U?$_Tree_simple_types@V?$basic_string@DU?$char_traits@D@std@@V?$allocator@D@2@@std@@@std@@@std@@QEAAXPEAU?$_Tree_node@V?$basic_string@DU?$char_traits@D@std@@V?$allocator@D@2@@std@@PEAX@2@@Z ; std::_Tree_val<std::_Tree_simple_types<std::basic_string<char,std::char_traits<char>,std::allocator<char> > > >::_Lrotate
PUBLIC	?_Rrotate@?$_Tree_val@U?$_Tree_simple_types@V?$basic_string@DU?$char_traits@D@std@@V?$allocator@D@2@@std@@@std@@@std@@QEAAXPEAU?$_Tree_node@V?$basic_string@DU?$char_traits@D@std@@V?$allocator@D@2@@std@@PEAX@2@@Z ; std::_Tree_val<std::_Tree_simple_types<std::basic_string<char,std::char_traits<char>,std::allocator<char> > > >::_Rrotate
PUBLIC	?_Extract@?$_Tree_val@U?$_Tree_simple_types@V?$basic_string@DU?$char_traits@D@std@@V?$allocator@D@2@@std@@@std@@@std@@QEAAPEAU?$_Tree_node@V?$basic_string@DU?$char_traits@D@std@@V?$allocator@D@2@@std@@PEAX@2@V?$_Tree_unchecked_const_iterator@V?$_Tree_val@U?$_Tree_simple_types@V?$basic_string@DU?$char_traits@D@std@@V?$allocator@D@2@@std@@@std@@@std@@U_Iterator_base0@2@@2@@Z ; std::_Tree_val<std::_Tree_simple_types<std::basic_string<char,std::char_traits<char>,std::allocator<char> > > >::_Extract
PUBLIC	?_Insert_node@?$_Tree_val@U?$_Tree_simple_types@V?$basic_string@DU?$char_traits@D@std@@V?$allocator@D@2@@std@@@std@@@std@@QEAAPEAU?$_Tree_node@V?$basic_string@DU?$char_traits@D@std@@V?$allocator@D@2@@std@@PEAX@2@U?$_Tree_id@PEAU?$_Tree_node@V?$basic_string@DU?$char_traits@D@std@@V?$allocator@D@2@@std@@PEAX@std@@@2@QEAU32@@Z ; std::_Tree_val<std::_Tree_simple_types<std::basic_string<char,std::char_traits<char>,std::allocator<char> > > >::_Insert_node
PUBLIC	?_Orphan_ptr@?$_Tree_val@U?$_Tree_simple_types@V?$basic_string@DU?$char_traits@D@std@@V?$allocator@D@2@@std@@@std@@@std@@QEAAXQEAU?$_Tree_node@V?$basic_string@DU?$char_traits@D@std@@V?$allocator@D@2@@std@@PEAX@2@@Z ; std::_Tree_val<std::_Tree_simple_types<std::basic_string<char,std::char_traits<char>,std::allocator<char> > > >::_Orphan_ptr
PUBLIC	?_Get_first@?$_Compressed_pair@V?$allocator@U?$_Tree_node@V?$basic_string@DU?$char_traits@D@std@@V?$allocator@D@2@@std@@PEAX@std@@@std@@V?$_Tree_val@U?$_Tree_simple_types@V?$basic_string@DU?$char_traits@D@std@@V?$allocator@D@2@@std@@@std@@@2@$00@std@@QEAAAEAV?$allocator@U?$_Tree_node@V?$basic_string@DU?$char_traits@D@std@@V?$allocator@D@2@@std@@PEAX@std@@@2@XZ ; std::_Compressed_pair<std::allocator<std::_Tree_node<std::basic_string<char,std::char_traits<char>,std::allocator<char> >,void *> >,std::_Tree_val<std::_Tree_simple_types<std::basic_string<char,std::char_traits<char>,std::allocator<char> > > >,1>::_Get_first
PUBLIC	?_Get_first@?$_Compressed_pair@V?$allocator@U?$_Tree_node@V?$basic_string@DU?$char_traits@D@std@@V?$allocator@D@2@@std@@PEAX@std@@@std@@V?$_Tree_val@U?$_Tree_simple_types@V?$basic_string@DU?$char_traits@D@std@@V?$allocator@D@2@@std@@@std@@@2@$00@std@@QEBAAEBV?$allocator@U?$_Tree_node@V?$basic_string@DU?$char_traits@D@std@@V?$allocator@D@2@@std@@PEAX@std@@@2@XZ ; std::_Compressed_pair<std::allocator<std::_Tree_node<std::basic_string<char,std::char_traits<char>,std::allocator<char> >,void *> >,std::_Tree_val<std::_Tree_simple_types<std::basic_string<char,std::char_traits<char>,std::allocator<char> > > >,1>::_Get_first
PUBLIC	?_Get_first@?$_Compressed_pair@U?$less@V?$basic_string@DU?$char_traits@D@std@@V?$allocator@D@2@@std@@@std@@V?$_Compressed_pair@V?$allocator@U?$_Tree_node@V?$basic_string@DU?$char_traits@D@std@@V?$allocator@D@2@@std@@PEAX@std@@@std@@V?$_Tree_val@U?$_Tree_simple_types@V?$basic_string@DU?$char_traits@D@std@@V?$allocator@D@2@@std@@@std@@@2@$00@2@$00@std@@QEBAAEBU?$less@V?$basic_string@DU?$char_traits@D@std@@V?$allocator@D@2@@std@@@2@XZ ; std::_Compressed_pair<std::less<std::basic_string<char,std::char_traits<char>,std::allocator<char> > >,std::_Compressed_pair<std::allocator<std::_Tree_node<std::basic_string<char,std::char_traits<char>,std::allocator<char> >,void *> >,std::_Tree_val<std::_Tree_simple_types<std::basic_string<char,std::char_traits<char>,std::allocator<char> > > >,1>,1>::_Get_first
PUBLIC	??1?$set@V?$basic_string@DU?$char_traits@D@std@@V?$allocator@D@2@@std@@U?$less@V?$basic_string@DU?$char_traits@D@std@@V?$allocator@D@2@@std@@@2@V?$allocator@V?$basic_string@DU?$char_traits@D@std@@V?$allocator@D@2@@std@@@2@@std@@QEAA@XZ ; std::set<std::basic_string<char,std::char_traits<char>,std::allocator<char> >,std::less<std::basic_string<char,std::char_traits<char>,std::allocator<char> > >,std::allocator<std::basic_string<char,std::char_traits<char>,std::allocator<char> > > >::~set<std::basic_string<char,std::char_traits<char>,std::allocator<char> >,std::less<std::basic_string<char,std::char_traits<char>,std::allocator<char> > >,std::allocator<std::basic_string<char,std::char_traits<char>,std::allocator<char> > > >
PUBLIC	?__autoclassinit2@?$set@V?$basic_string@DU?$char_traits@D@std@@V?$allocator@D@2@@std@@U?$less@V?$basic_string@DU?$char_traits@D@std@@V?$allocator@D@2@@std@@@2@V?$allocator@V?$basic_string@DU?$char_traits@D@std@@V?$allocator@D@2@@std@@@2@@std@@QEAAX_K@Z ; std::set<std::basic_string<char,std::char_traits<char>,std::allocator<char> >,std::less<std::basic_string<char,std::char_traits<char>,std::allocator<char> > >,std::allocator<std::basic_string<char,std::char_traits<char>,std::allocator<char> > > >::__autoclassinit2
PUBLIC	??0?$_Array_const_iterator@PEBD$00@std@@QEAA@PEBQEBD_K@Z ; std::_Array_const_iterator<char const *,1>::_Array_const_iterator<char const *,1>
PUBLIC	??__M?$_Array_const_iterator@PEBD$00@std@@QEBA?AUstrong_ordering@1@AEBV01@@Z ; std::_Array_const_iterator<char const *,1>::operator<=>
PUBLIC	?_Compat@?$_Array_const_iterator@PEBD$00@std@@QEBAXAEBV12@@Z ; std::_Array_const_iterator<char const *,1>::_Compat
PUBLIC	?_Unwrapped@?$_Array_const_iterator@PEBD$00@std@@QEBAPEBQEBDXZ ; std::_Array_const_iterator<char const *,1>::_Unwrapped
PUBLIC	?_Verify_with@?$_Array_const_iterator@PEBD$00@std@@QEBAXAEBV12@@Z ; std::_Array_const_iterator<char const *,1>::_Verify_with
PUBLIC	??$?0V?$_Array_const_iterator@PEBD$00@std@@@?$set@V?$basic_string@DU?$char_traits@D@std@@V?$allocator@D@2@@std@@U?$less@V?$basic_string@DU?$char_traits@D@std@@V?$allocator@D@2@@std@@@2@V?$allocator@V?$basic_string@DU?$char_traits@D@std@@V?$allocator@D@2@@std@@@2@@std@@QEAA@V?$_Array_const_iterator@PEBD$00@1@0@Z ; std::set<std::basic_string<char,std::char_traits<char>,std::allocator<char> >,std::less<std::basic_string<char,std::char_traits<char>,std::allocator<char> > >,std::allocator<std::basic_string<char,std::char_traits<char>,std::allocator<char> > > >::set<std::basic_string<char,std::char_traits<char>,std::allocator<char> >,std::less<std::basic_string<char,std::char_traits<char>,std::allocator<char> > >,std::allocator<std::basic_string<char,std::char_traits<char>,std::allocator<char> > > ><std::_Array_const_iterator<char const *,1> >
PUBLIC	??$_Eqrange@V?$basic_string@DU?$char_traits@D@std@@V?$allocator@D@2@@std@@@?$_Tree@V?$_Tset_traits@V?$basic_string@DU?$char_traits@D@std@@V?$allocator@D@2@@std@@U?$less@V?$basic_string@DU?$char_traits@D@std@@V?$allocator@D@2@@std@@@2@V?$allocator@V?$basic_string@DU?$char_traits@D@std@@V?$allocator@D@2@@std@@@2@$0A@@std@@@std@@IEBA?AU?$pair@PEAU?$_Tree_node@V?$basic_string@DU?$char_traits@D@std@@V?$allocator@D@2@@std@@PEAX@std@@PEAU12@@1@AEBV?$basic_string@DU?$char_traits@D@std@@V?$allocator@D@2@@1@@Z ; std::_Tree<std::_Tset_traits<std::basic_string<char,std::char_traits<char>,std::allocator<char> >,std::less<std::basic_string<char,std::char_traits<char>,std::allocator<char> > >,std::allocator<std::basic_string<char,std::char_traits<char>,std::allocator<char> > >,0> >::_Eqrange<std::basic_string<char,std::char_traits<char>,std::allocator<char> > >
PUBLIC	??0?$allocator@UVkQueueFamilyProperties@@@std@@QEAA@XZ ; std::allocator<VkQueueFamilyProperties>::allocator<VkQueueFamilyProperties>
PUBLIC	?deallocate@?$allocator@UVkQueueFamilyProperties@@@std@@QEAAXQEAUVkQueueFamilyProperties@@_K@Z ; std::allocator<VkQueueFamilyProperties>::deallocate
PUBLIC	?allocate@?$allocator@UVkQueueFamilyProperties@@@std@@QEAAPEAUVkQueueFamilyProperties@@_K@Z ; std::allocator<VkQueueFamilyProperties>::allocate
PUBLIC	?max_size@?$_Default_allocator_traits@V?$allocator@UVkQueueFamilyProperties@@@std@@@std@@SA_KAEBV?$allocator@UVkQueueFamilyProperties@@@2@@Z ; std::_Default_allocator_traits<std::allocator<VkQueueFamilyProperties> >::max_size
PUBLIC	??0?$vector@UVkQueueFamilyProperties@@V?$allocator@UVkQueueFamilyProperties@@@std@@@std@@QEAA@_KAEBV?$allocator@UVkQueueFamilyProperties@@@1@@Z ; std::vector<VkQueueFamilyProperties,std::allocator<VkQueueFamilyProperties> >::vector<VkQueueFamilyProperties,std::allocator<VkQueueFamilyProperties> >
PUBLIC	??1?$vector@UVkQueueFamilyProperties@@V?$allocator@UVkQueueFamilyProperties@@@std@@@std@@QEAA@XZ ; std::vector<VkQueueFamilyProperties,std::allocator<VkQueueFamilyProperties> >::~vector<VkQueueFamilyProperties,std::allocator<VkQueueFamilyProperties> >
PUBLIC	?data@?$vector@UVkQueueFamilyProperties@@V?$allocator@UVkQueueFamilyProperties@@@std@@@std@@QEAAPEAUVkQueueFamilyProperties@@XZ ; std::vector<VkQueueFamilyProperties,std::allocator<VkQueueFamilyProperties> >::data
PUBLIC	?_Unchecked_begin@?$vector@UVkQueueFamilyProperties@@V?$allocator@UVkQueueFamilyProperties@@@std@@@std@@QEAAPEAUVkQueueFamilyProperties@@XZ ; std::vector<VkQueueFamilyProperties,std::allocator<VkQueueFamilyProperties> >::_Unchecked_begin
PUBLIC	?_Unchecked_end@?$vector@UVkQueueFamilyProperties@@V?$allocator@UVkQueueFamilyProperties@@@std@@@std@@QEAAPEAUVkQueueFamilyProperties@@XZ ; std::vector<VkQueueFamilyProperties,std::allocator<VkQueueFamilyProperties> >::_Unchecked_end
PUBLIC	?max_size@?$vector@UVkQueueFamilyProperties@@V?$allocator@UVkQueueFamilyProperties@@@std@@@std@@QEBA_KXZ ; std::vector<VkQueueFamilyProperties,std::allocator<VkQueueFamilyProperties> >::max_size
PUBLIC	?_Buy_raw@?$vector@UVkQueueFamilyProperties@@V?$allocator@UVkQueueFamilyProperties@@@std@@@std@@AEAAX_K@Z ; std::vector<VkQueueFamilyProperties,std::allocator<VkQueueFamilyProperties> >::_Buy_raw
PUBLIC	?_Buy_nonzero@?$vector@UVkQueueFamilyProperties@@V?$allocator@UVkQueueFamilyProperties@@@std@@@std@@AEAAX_K@Z ; std::vector<VkQueueFamilyProperties,std::allocator<VkQueueFamilyProperties> >::_Buy_nonzero
PUBLIC	?_Tidy@?$vector@UVkQueueFamilyProperties@@V?$allocator@UVkQueueFamilyProperties@@@std@@@std@@AEAAXXZ ; std::vector<VkQueueFamilyProperties,std::allocator<VkQueueFamilyProperties> >::_Tidy
PUBLIC	?_Xlength@?$vector@UVkQueueFamilyProperties@@V?$allocator@UVkQueueFamilyProperties@@@std@@@std@@CAXXZ ; std::vector<VkQueueFamilyProperties,std::allocator<VkQueueFamilyProperties> >::_Xlength
PUBLIC	?_Getal@?$vector@UVkQueueFamilyProperties@@V?$allocator@UVkQueueFamilyProperties@@@std@@@std@@AEAAAEAV?$allocator@UVkQueueFamilyProperties@@@2@XZ ; std::vector<VkQueueFamilyProperties,std::allocator<VkQueueFamilyProperties> >::_Getal
PUBLIC	?_Getal@?$vector@UVkQueueFamilyProperties@@V?$allocator@UVkQueueFamilyProperties@@@std@@@std@@AEBAAEBV?$allocator@UVkQueueFamilyProperties@@@2@XZ ; std::vector<VkQueueFamilyProperties,std::allocator<VkQueueFamilyProperties> >::_Getal
PUBLIC	??0?$_Vector_val@U?$_Simple_types@UVkQueueFamilyProperties@@@std@@@std@@QEAA@XZ ; std::_Vector_val<std::_Simple_types<VkQueueFamilyProperties> >::_Vector_val<std::_Simple_types<VkQueueFamilyProperties> >
PUBLIC	?_Get_first@?$_Compressed_pair@V?$allocator@UVkQueueFamilyProperties@@@std@@V?$_Vector_val@U?$_Simple_types@UVkQueueFamilyProperties@@@std@@@2@$00@std@@QEAAAEAV?$allocator@UVkQueueFamilyProperties@@@2@XZ ; std::_Compressed_pair<std::allocator<VkQueueFamilyProperties>,std::_Vector_val<std::_Simple_types<VkQueueFamilyProperties> >,1>::_Get_first
PUBLIC	?_Get_first@?$_Compressed_pair@V?$allocator@UVkQueueFamilyProperties@@@std@@V?$_Vector_val@U?$_Simple_types@UVkQueueFamilyProperties@@@std@@@2@$00@std@@QEBAAEBV?$allocator@UVkQueueFamilyProperties@@@2@XZ ; std::_Compressed_pair<std::allocator<VkQueueFamilyProperties>,std::_Vector_val<std::_Simple_types<VkQueueFamilyProperties> >,1>::_Get_first
PUBLIC	?__autoclassinit2@?$vector@UVkQueueFamilyProperties@@V?$allocator@UVkQueueFamilyProperties@@@std@@@std@@QEAAX_K@Z ; std::vector<VkQueueFamilyProperties,std::allocator<VkQueueFamilyProperties> >::__autoclassinit2
PUBLIC	??$?4AEAH$0A@@?$optional@I@std@@QEAAAEAV01@AEAH@Z ; std::optional<unsigned int>::operator=<int &,0>
PUBLIC	??0?$allocator@UVkDeviceQueueCreateInfo@@@std@@QEAA@XZ ; std::allocator<VkDeviceQueueCreateInfo>::allocator<VkDeviceQueueCreateInfo>
PUBLIC	?deallocate@?$allocator@UVkDeviceQueueCreateInfo@@@std@@QEAAXQEAUVkDeviceQueueCreateInfo@@_K@Z ; std::allocator<VkDeviceQueueCreateInfo>::deallocate
PUBLIC	?allocate@?$allocator@UVkDeviceQueueCreateInfo@@@std@@QEAAPEAUVkDeviceQueueCreateInfo@@_K@Z ; std::allocator<VkDeviceQueueCreateInfo>::allocate
PUBLIC	?max_size@?$_Default_allocator_traits@V?$allocator@UVkDeviceQueueCreateInfo@@@std@@@std@@SA_KAEBV?$allocator@UVkDeviceQueueCreateInfo@@@2@@Z ; std::_Default_allocator_traits<std::allocator<VkDeviceQueueCreateInfo> >::max_size
PUBLIC	??0?$vector@UVkDeviceQueueCreateInfo@@V?$allocator@UVkDeviceQueueCreateInfo@@@std@@@std@@QEAA@XZ ; std::vector<VkDeviceQueueCreateInfo,std::allocator<VkDeviceQueueCreateInfo> >::vector<VkDeviceQueueCreateInfo,std::allocator<VkDeviceQueueCreateInfo> >
PUBLIC	??1?$vector@UVkDeviceQueueCreateInfo@@V?$allocator@UVkDeviceQueueCreateInfo@@@std@@@std@@QEAA@XZ ; std::vector<VkDeviceQueueCreateInfo,std::allocator<VkDeviceQueueCreateInfo> >::~vector<VkDeviceQueueCreateInfo,std::allocator<VkDeviceQueueCreateInfo> >
PUBLIC	?push_back@?$vector@UVkDeviceQueueCreateInfo@@V?$allocator@UVkDeviceQueueCreateInfo@@@std@@@std@@QEAAXAEBUVkDeviceQueueCreateInfo@@@Z ; std::vector<VkDeviceQueueCreateInfo,std::allocator<VkDeviceQueueCreateInfo> >::push_back
PUBLIC	?data@?$vector@UVkDeviceQueueCreateInfo@@V?$allocator@UVkDeviceQueueCreateInfo@@@std@@@std@@QEAAPEAUVkDeviceQueueCreateInfo@@XZ ; std::vector<VkDeviceQueueCreateInfo,std::allocator<VkDeviceQueueCreateInfo> >::data
PUBLIC	?size@?$vector@UVkDeviceQueueCreateInfo@@V?$allocator@UVkDeviceQueueCreateInfo@@@std@@@std@@QEBA_KXZ ; std::vector<VkDeviceQueueCreateInfo,std::allocator<VkDeviceQueueCreateInfo> >::size
PUBLIC	?max_size@?$vector@UVkDeviceQueueCreateInfo@@V?$allocator@UVkDeviceQueueCreateInfo@@@std@@@std@@QEBA_KXZ ; std::vector<VkDeviceQueueCreateInfo,std::allocator<VkDeviceQueueCreateInfo> >::max_size
PUBLIC	?capacity@?$vector@UVkDeviceQueueCreateInfo@@V?$allocator@UVkDeviceQueueCreateInfo@@@std@@@std@@QEBA_KXZ ; std::vector<VkDeviceQueueCreateInfo,std::allocator<VkDeviceQueueCreateInfo> >::capacity
PUBLIC	?_Calculate_growth@?$vector@UVkDeviceQueueCreateInfo@@V?$allocator@UVkDeviceQueueCreateInfo@@@std@@@std@@AEBA_K_K@Z ; std::vector<VkDeviceQueueCreateInfo,std::allocator<VkDeviceQueueCreateInfo> >::_Calculate_growth
PUBLIC	?_Change_array@?$vector@UVkDeviceQueueCreateInfo@@V?$allocator@UVkDeviceQueueCreateInfo@@@std@@@std@@AEAAXQEAUVkDeviceQueueCreateInfo@@_K1@Z ; std::vector<VkDeviceQueueCreateInfo,std::allocator<VkDeviceQueueCreateInfo> >::_Change_array
PUBLIC	?_Tidy@?$vector@UVkDeviceQueueCreateInfo@@V?$allocator@UVkDeviceQueueCreateInfo@@@std@@@std@@AEAAXXZ ; std::vector<VkDeviceQueueCreateInfo,std::allocator<VkDeviceQueueCreateInfo> >::_Tidy
PUBLIC	?_Xlength@?$vector@UVkDeviceQueueCreateInfo@@V?$allocator@UVkDeviceQueueCreateInfo@@@std@@@std@@CAXXZ ; std::vector<VkDeviceQueueCreateInfo,std::allocator<VkDeviceQueueCreateInfo> >::_Xlength
PUBLIC	?_Orphan_range_unlocked@?$vector@UVkDeviceQueueCreateInfo@@V?$allocator@UVkDeviceQueueCreateInfo@@@std@@@std@@AEBAXPEAUVkDeviceQueueCreateInfo@@0@Z ; std::vector<VkDeviceQueueCreateInfo,std::allocator<VkDeviceQueueCreateInfo> >::_Orphan_range_unlocked
PUBLIC	?_Orphan_range_locked@?$vector@UVkDeviceQueueCreateInfo@@V?$allocator@UVkDeviceQueueCreateInfo@@@std@@@std@@AEBAXPEAUVkDeviceQueueCreateInfo@@0@Z ; std::vector<VkDeviceQueueCreateInfo,std::allocator<VkDeviceQueueCreateInfo> >::_Orphan_range_locked
PUBLIC	?_Orphan_range@?$vector@UVkDeviceQueueCreateInfo@@V?$allocator@UVkDeviceQueueCreateInfo@@@std@@@std@@AEBAXPEAUVkDeviceQueueCreateInfo@@0@Z ; std::vector<VkDeviceQueueCreateInfo,std::allocator<VkDeviceQueueCreateInfo> >::_Orphan_range
PUBLIC	?_Getal@?$vector@UVkDeviceQueueCreateInfo@@V?$allocator@UVkDeviceQueueCreateInfo@@@std@@@std@@AEAAAEAV?$allocator@UVkDeviceQueueCreateInfo@@@2@XZ ; std::vector<VkDeviceQueueCreateInfo,std::allocator<VkDeviceQueueCreateInfo> >::_Getal
PUBLIC	?_Getal@?$vector@UVkDeviceQueueCreateInfo@@V?$allocator@UVkDeviceQueueCreateInfo@@@std@@@std@@AEBAAEBV?$allocator@UVkDeviceQueueCreateInfo@@@2@XZ ; std::vector<VkDeviceQueueCreateInfo,std::allocator<VkDeviceQueueCreateInfo> >::_Getal
PUBLIC	??0?$_Vector_val@U?$_Simple_types@UVkDeviceQueueCreateInfo@@@std@@@std@@QEAA@XZ ; std::_Vector_val<std::_Simple_types<VkDeviceQueueCreateInfo> >::_Vector_val<std::_Simple_types<VkDeviceQueueCreateInfo> >
PUBLIC	?_Get_first@?$_Compressed_pair@V?$allocator@UVkDeviceQueueCreateInfo@@@std@@V?$_Vector_val@U?$_Simple_types@UVkDeviceQueueCreateInfo@@@std@@@2@$00@std@@QEAAAEAV?$allocator@UVkDeviceQueueCreateInfo@@@2@XZ ; std::_Compressed_pair<std::allocator<VkDeviceQueueCreateInfo>,std::_Vector_val<std::_Simple_types<VkDeviceQueueCreateInfo> >,1>::_Get_first
PUBLIC	?_Get_first@?$_Compressed_pair@V?$allocator@UVkDeviceQueueCreateInfo@@@std@@V?$_Vector_val@U?$_Simple_types@UVkDeviceQueueCreateInfo@@@std@@@2@$00@std@@QEBAAEBV?$allocator@UVkDeviceQueueCreateInfo@@@2@XZ ; std::_Compressed_pair<std::allocator<VkDeviceQueueCreateInfo>,std::_Vector_val<std::_Simple_types<VkDeviceQueueCreateInfo> >,1>::_Get_first
PUBLIC	?__autoclassinit2@?$vector@UVkDeviceQueueCreateInfo@@V?$allocator@UVkDeviceQueueCreateInfo@@@std@@@std@@QEAAX_K@Z ; std::vector<VkDeviceQueueCreateInfo,std::allocator<VkDeviceQueueCreateInfo> >::__autoclassinit2
PUBLIC	?_Kfn@?$_Tset_traits@IU?$less@I@std@@V?$allocator@I@2@$0A@@std@@SAAEBIAEBI@Z ; std::_Tset_traits<unsigned int,std::less<unsigned int>,std::allocator<unsigned int>,0>::_Kfn
PUBLIC	??0?$allocator@U?$_Tree_node@IPEAX@std@@@std@@QEAA@XZ ; std::allocator<std::_Tree_node<unsigned int,void *> >::allocator<std::_Tree_node<unsigned int,void *> >
PUBLIC	?deallocate@?$allocator@U?$_Tree_node@IPEAX@std@@@std@@QEAAXQEAU?$_Tree_node@IPEAX@2@_K@Z ; std::allocator<std::_Tree_node<unsigned int,void *> >::deallocate
PUBLIC	?allocate@?$allocator@U?$_Tree_node@IPEAX@std@@@std@@QEAAPEAU?$_Tree_node@IPEAX@2@_K@Z ; std::allocator<std::_Tree_node<unsigned int,void *> >::allocate
PUBLIC	?deallocate@?$_Default_allocator_traits@V?$allocator@U?$_Tree_node@IPEAX@std@@@std@@@std@@SAXAEAV?$allocator@U?$_Tree_node@IPEAX@std@@@2@QEAU?$_Tree_node@IPEAX@2@_K@Z ; std::_Default_allocator_traits<std::allocator<std::_Tree_node<unsigned int,void *> > >::deallocate
PUBLIC	?max_size@?$_Default_allocator_traits@V?$allocator@U?$_Tree_node@IPEAX@std@@@std@@@std@@SA_KAEBV?$allocator@U?$_Tree_node@IPEAX@std@@@2@@Z ; std::_Default_allocator_traits<std::allocator<std::_Tree_node<unsigned int,void *> > >::max_size
PUBLIC	??0?$_Tree@V?$_Tset_traits@IU?$less@I@std@@V?$allocator@I@2@$0A@@std@@@std@@QEAA@AEBU?$less@I@1@@Z ; std::_Tree<std::_Tset_traits<unsigned int,std::less<unsigned int>,std::allocator<unsigned int>,0> >::_Tree<std::_Tset_traits<unsigned int,std::less<unsigned int>,std::allocator<unsigned int>,0> >
PUBLIC	??1?$_Tree@V?$_Tset_traits@IU?$less@I@std@@V?$allocator@I@2@$0A@@std@@@std@@QEAA@XZ ; std::_Tree<std::_Tset_traits<unsigned int,std::less<unsigned int>,std::allocator<unsigned int>,0> >::~_Tree<std::_Tset_traits<unsigned int,std::less<unsigned int>,std::allocator<unsigned int>,0> >
PUBLIC	?_Unchecked_begin@?$_Tree@V?$_Tset_traits@IU?$less@I@std@@V?$allocator@I@2@$0A@@std@@@std@@QEAA?AV?$_Tree_unchecked_const_iterator@V?$_Tree_val@U?$_Tree_simple_types@I@std@@@std@@U_Iterator_base0@2@@2@XZ ; std::_Tree<std::_Tset_traits<unsigned int,std::less<unsigned int>,std::allocator<unsigned int>,0> >::_Unchecked_begin
PUBLIC	?_Unchecked_end@?$_Tree@V?$_Tset_traits@IU?$less@I@std@@V?$allocator@I@2@$0A@@std@@@std@@QEBA?AU_Default_sentinel@2@XZ ; std::_Tree<std::_Tset_traits<unsigned int,std::less<unsigned int>,std::allocator<unsigned int>,0> >::_Unchecked_end
PUBLIC	?max_size@?$_Tree@V?$_Tset_traits@IU?$less@I@std@@V?$allocator@I@2@$0A@@std@@@std@@QEBA_KXZ ; std::_Tree<std::_Tset_traits<unsigned int,std::less<unsigned int>,std::allocator<unsigned int>,0> >::max_size
PUBLIC	?insert@?$_Tree@V?$_Tset_traits@IU?$less@I@std@@V?$allocator@I@2@$0A@@std@@@std@@QEAAXV?$initializer_list@I@2@@Z ; std::_Tree<std::_Tset_traits<unsigned int,std::less<unsigned int>,std::allocator<unsigned int>,0> >::insert
PUBLIC	?_Check_grow_by_1@?$_Tree@V?$_Tset_traits@IU?$less@I@std@@V?$allocator@I@2@$0A@@std@@@std@@IEAAXXZ ; std::_Tree<std::_Tset_traits<unsigned int,std::less<unsigned int>,std::allocator<unsigned int>,0> >::_Check_grow_by_1
PUBLIC	?_Alloc_sentinel_and_proxy@?$_Tree@V?$_Tset_traits@IU?$less@I@std@@V?$allocator@I@2@$0A@@std@@@std@@IEAAXXZ ; std::_Tree<std::_Tset_traits<unsigned int,std::less<unsigned int>,std::allocator<unsigned int>,0> >::_Alloc_sentinel_and_proxy
PUBLIC	?_Getcomp@?$_Tree@V?$_Tset_traits@IU?$less@I@std@@V?$allocator@I@2@$0A@@std@@@std@@IEBAAEBU?$less@I@2@XZ ; std::_Tree<std::_Tset_traits<unsigned int,std::less<unsigned int>,std::allocator<unsigned int>,0> >::_Getcomp
PUBLIC	?_Getal@?$_Tree@V?$_Tset_traits@IU?$less@I@std@@V?$allocator@I@2@$0A@@std@@@std@@IEAAAEAV?$allocator@U?$_Tree_node@IPEAX@std@@@2@XZ ; std::_Tree<std::_Tset_traits<unsigned int,std::less<unsigned int>,std::allocator<unsigned int>,0> >::_Getal
PUBLIC	?_Getal@?$_Tree@V?$_Tset_traits@IU?$less@I@std@@V?$allocator@I@2@$0A@@std@@@std@@IEBAAEBV?$allocator@U?$_Tree_node@IPEAX@std@@@2@XZ ; std::_Tree<std::_Tset_traits<unsigned int,std::less<unsigned int>,std::allocator<unsigned int>,0> >::_Getal
PUBLIC	?_Get_scary@?$_Tree@V?$_Tset_traits@IU?$less@I@std@@V?$allocator@I@2@$0A@@std@@@std@@IEAAPEAV?$_Tree_val@U?$_Tree_simple_types@I@std@@@2@XZ ; std::_Tree<std::_Tset_traits<unsigned int,std::less<unsigned int>,std::allocator<unsigned int>,0> >::_Get_scary
PUBLIC	?_Get_scary@?$_Tree@V?$_Tset_traits@IU?$less@I@std@@V?$allocator@I@2@$0A@@std@@@std@@IEBAPEBV?$_Tree_val@U?$_Tree_simple_types@I@std@@@2@XZ ; std::_Tree<std::_Tset_traits<unsigned int,std::less<unsigned int>,std::allocator<unsigned int>,0> >::_Get_scary
PUBLIC	??R?$less@I@std@@QEBA_NAEBI0@Z			; std::less<unsigned int>::operator()
PUBLIC	??0?$_Tree_val@U?$_Tree_simple_types@I@std@@@std@@QEAA@XZ ; std::_Tree_val<std::_Tree_simple_types<unsigned int> >::_Tree_val<std::_Tree_simple_types<unsigned int> >
PUBLIC	?_Max@?$_Tree_val@U?$_Tree_simple_types@I@std@@@std@@SAPEAU?$_Tree_node@IPEAX@2@PEAU32@@Z ; std::_Tree_val<std::_Tree_simple_types<unsigned int> >::_Max
PUBLIC	?_Min@?$_Tree_val@U?$_Tree_simple_types@I@std@@@std@@SAPEAU?$_Tree_node@IPEAX@2@PEAU32@@Z ; std::_Tree_val<std::_Tree_simple_types<unsigned int> >::_Min
PUBLIC	?_Lrotate@?$_Tree_val@U?$_Tree_simple_types@I@std@@@std@@QEAAXPEAU?$_Tree_node@IPEAX@2@@Z ; std::_Tree_val<std::_Tree_simple_types<unsigned int> >::_Lrotate
PUBLIC	?_Rrotate@?$_Tree_val@U?$_Tree_simple_types@I@std@@@std@@QEAAXPEAU?$_Tree_node@IPEAX@2@@Z ; std::_Tree_val<std::_Tree_simple_types<unsigned int> >::_Rrotate
PUBLIC	?_Insert_node@?$_Tree_val@U?$_Tree_simple_types@I@std@@@std@@QEAAPEAU?$_Tree_node@IPEAX@2@U?$_Tree_id@PEAU?$_Tree_node@IPEAX@std@@@2@QEAU32@@Z ; std::_Tree_val<std::_Tree_simple_types<unsigned int> >::_Insert_node
PUBLIC	?_Get_first@?$_Compressed_pair@V?$allocator@U?$_Tree_node@IPEAX@std@@@std@@V?$_Tree_val@U?$_Tree_simple_types@I@std@@@2@$00@std@@QEAAAEAV?$allocator@U?$_Tree_node@IPEAX@std@@@2@XZ ; std::_Compressed_pair<std::allocator<std::_Tree_node<unsigned int,void *> >,std::_Tree_val<std::_Tree_simple_types<unsigned int> >,1>::_Get_first
PUBLIC	?_Get_first@?$_Compressed_pair@V?$allocator@U?$_Tree_node@IPEAX@std@@@std@@V?$_Tree_val@U?$_Tree_simple_types@I@std@@@2@$00@std@@QEBAAEBV?$allocator@U?$_Tree_node@IPEAX@std@@@2@XZ ; std::_Compressed_pair<std::allocator<std::_Tree_node<unsigned int,void *> >,std::_Tree_val<std::_Tree_simple_types<unsigned int> >,1>::_Get_first
PUBLIC	?_Get_first@?$_Compressed_pair@U?$less@I@std@@V?$_Compressed_pair@V?$allocator@U?$_Tree_node@IPEAX@std@@@std@@V?$_Tree_val@U?$_Tree_simple_types@I@std@@@2@$00@2@$00@std@@QEBAAEBU?$less@I@2@XZ ; std::_Compressed_pair<std::less<unsigned int>,std::_Compressed_pair<std::allocator<std::_Tree_node<unsigned int,void *> >,std::_Tree_val<std::_Tree_simple_types<unsigned int> >,1>,1>::_Get_first
PUBLIC	??0?$set@IU?$less@I@std@@V?$allocator@I@2@@std@@QEAA@V?$initializer_list@I@1@@Z ; std::set<unsigned int,std::less<unsigned int>,std::allocator<unsigned int> >::set<unsigned int,std::less<unsigned int>,std::allocator<unsigned int> >
PUBLIC	??1?$set@IU?$less@I@std@@V?$allocator@I@2@@std@@QEAA@XZ ; std::set<unsigned int,std::less<unsigned int>,std::allocator<unsigned int> >::~set<unsigned int,std::less<unsigned int>,std::allocator<unsigned int> >
PUBLIC	?__autoclassinit2@?$set@IU?$less@I@std@@V?$allocator@I@2@@std@@QEAAX_K@Z ; std::set<unsigned int,std::less<unsigned int>,std::allocator<unsigned int> >::__autoclassinit2
PUBLIC	??0?$initializer_list@I@std@@QEAA@PEBI0@Z	; std::initializer_list<unsigned int>::initializer_list<unsigned int>
PUBLIC	?begin@?$initializer_list@I@std@@QEBAPEBIXZ	; std::initializer_list<unsigned int>::begin
PUBLIC	?end@?$initializer_list@I@std@@QEBAPEBIXZ	; std::initializer_list<unsigned int>::end
PUBLIC	??0?$_Tree_unchecked_const_iterator@V?$_Tree_val@U?$_Tree_simple_types@I@std@@@std@@U_Iterator_base0@2@@std@@QEAA@PEAU?$_Tree_node@IPEAX@1@PEBV?$_Tree_val@U?$_Tree_simple_types@I@std@@@1@@Z ; std::_Tree_unchecked_const_iterator<std::_Tree_val<std::_Tree_simple_types<unsigned int> >,std::_Iterator_base0>::_Tree_unchecked_const_iterator<std::_Tree_val<std::_Tree_simple_types<unsigned int> >,std::_Iterator_base0>
PUBLIC	??D?$_Tree_unchecked_const_iterator@V?$_Tree_val@U?$_Tree_simple_types@I@std@@@std@@U_Iterator_base0@2@@std@@QEBAAEBIXZ ; std::_Tree_unchecked_const_iterator<std::_Tree_val<std::_Tree_simple_types<unsigned int> >,std::_Iterator_base0>::operator*
PUBLIC	??E?$_Tree_unchecked_const_iterator@V?$_Tree_val@U?$_Tree_simple_types@I@std@@@std@@U_Iterator_base0@2@@std@@QEAAAEAV01@XZ ; std::_Tree_unchecked_const_iterator<std::_Tree_val<std::_Tree_simple_types<unsigned int> >,std::_Iterator_base0>::operator++
PUBLIC	??F?$_Tree_unchecked_const_iterator@V?$_Tree_val@U?$_Tree_simple_types@I@std@@@std@@U_Iterator_base0@2@@std@@QEAAAEAV01@XZ ; std::_Tree_unchecked_const_iterator<std::_Tree_val<std::_Tree_simple_types<unsigned int> >,std::_Iterator_base0>::operator--
PUBLIC	??8?$_Tree_unchecked_const_iterator@V?$_Tree_val@U?$_Tree_simple_types@I@std@@@std@@U_Iterator_base0@2@@std@@QEBA_NU_Default_sentinel@1@@Z ; std::_Tree_unchecked_const_iterator<std::_Tree_val<std::_Tree_simple_types<unsigned int> >,std::_Iterator_base0>::operator==
PUBLIC	?__autoclassinit2@?$_Tree_unchecked_const_iterator@V?$_Tree_val@U?$_Tree_simple_types@I@std@@@std@@U_Iterator_base0@2@@std@@QEAAX_K@Z ; std::_Tree_unchecked_const_iterator<std::_Tree_val<std::_Tree_simple_types<unsigned int> >,std::_Iterator_base0>::__autoclassinit2
PUBLIC	??$_Erase_head@V?$allocator@U?$_Tree_node@IPEAX@std@@@std@@@?$_Tree_val@U?$_Tree_simple_types@I@std@@@std@@QEAAXAEAV?$allocator@U?$_Tree_node@IPEAX@std@@@1@@Z ; std::_Tree_val<std::_Tree_simple_types<unsigned int> >::_Erase_head<std::allocator<std::_Tree_node<unsigned int,void *> > >
PUBLIC	?deallocate@?$allocator@U_Container_proxy@std@@@std@@QEAAXQEAU_Container_proxy@2@_K@Z ; std::allocator<std::_Container_proxy>::deallocate
PUBLIC	?allocate@?$allocator@U_Container_proxy@std@@@std@@QEAAPEAU_Container_proxy@2@_K@Z ; std::allocator<std::_Container_proxy>::allocate
PUBLIC	??$?0U?$_Tree_node@IPEAX@std@@@?$allocator@U_Container_proxy@std@@@std@@QEAA@AEBV?$allocator@U?$_Tree_node@IPEAX@std@@@1@@Z ; std::allocator<std::_Container_proxy>::allocator<std::_Container_proxy><std::_Tree_node<unsigned int,void *> >
PUBLIC	??$_Delete_plain_internal@V?$allocator@U_Container_proxy@std@@@std@@@std@@YAXAEAV?$allocator@U_Container_proxy@std@@@0@QEAU_Container_proxy@0@@Z ; std::_Delete_plain_internal<std::allocator<std::_Container_proxy> >
PUBLIC	??$_Unfancy_maybe_null@UVkDeviceQueueCreateInfo@@@std@@YAPEAUVkDeviceQueueCreateInfo@@PEAU1@@Z ; std::_Unfancy_maybe_null<VkDeviceQueueCreateInfo>
PUBLIC	??$emplace_back@AEBUVkDeviceQueueCreateInfo@@@?$vector@UVkDeviceQueueCreateInfo@@V?$allocator@UVkDeviceQueueCreateInfo@@@std@@@std@@QEAA?A_TAEBUVkDeviceQueueCreateInfo@@@Z ; std::vector<VkDeviceQueueCreateInfo,std::allocator<VkDeviceQueueCreateInfo> >::emplace_back<VkDeviceQueueCreateInfo const &>
PUBLIC	??$forward@AEBUVkDeviceQueueCreateInfo@@@std@@YAAEBUVkDeviceQueueCreateInfo@@AEBU1@@Z ; std::forward<VkDeviceQueueCreateInfo const &>
PUBLIC	??$_Emplace_one_at_back@AEBUVkDeviceQueueCreateInfo@@@?$vector@UVkDeviceQueueCreateInfo@@V?$allocator@UVkDeviceQueueCreateInfo@@@std@@@std@@AEAAAEAUVkDeviceQueueCreateInfo@@AEBU2@@Z ; std::vector<VkDeviceQueueCreateInfo,std::allocator<VkDeviceQueueCreateInfo> >::_Emplace_one_at_back<VkDeviceQueueCreateInfo const &>
PUBLIC	??$?0UVkDeviceQueueCreateInfo@@@?$allocator@U_Container_proxy@std@@@std@@QEAA@AEBV?$allocator@UVkDeviceQueueCreateInfo@@@1@@Z ; std::allocator<std::_Container_proxy>::allocator<std::_Container_proxy><VkDeviceQueueCreateInfo>
PUBLIC	??$exchange@PEAU_Container_proxy@std@@$$T@std@@YAPEAU_Container_proxy@0@AEAPEAU10@$$QEA$$T@Z ; std::exchange<std::_Container_proxy *,std::nullptr_t>
PUBLIC	??$?0$$V@?$_Compressed_pair@V?$allocator@UVkDeviceQueueCreateInfo@@@std@@V?$_Vector_val@U?$_Simple_types@UVkDeviceQueueCreateInfo@@@std@@@2@$00@std@@QEAA@U_Zero_then_variadic_args_t@1@@Z ; std::_Compressed_pair<std::allocator<VkDeviceQueueCreateInfo>,std::_Vector_val<std::_Simple_types<VkDeviceQueueCreateInfo> >,1>::_Compressed_pair<std::allocator<VkDeviceQueueCreateInfo>,std::_Vector_val<std::_Simple_types<VkDeviceQueueCreateInfo> >,1><>
PUBLIC	??$_Alloc_proxy@V?$allocator@U_Container_proxy@std@@@std@@@_Container_base12@std@@QEAAX$$QEAV?$allocator@U_Container_proxy@std@@@1@@Z ; std::_Container_base12::_Alloc_proxy<std::allocator<std::_Container_proxy> >
PUBLIC	??$_Unfancy_maybe_null@UVkQueueFamilyProperties@@@std@@YAPEAUVkQueueFamilyProperties@@PEAU1@@Z ; std::_Unfancy_maybe_null<VkQueueFamilyProperties>
PUBLIC	??$?0UVkQueueFamilyProperties@@@?$allocator@U_Container_proxy@std@@@std@@QEAA@AEBV?$allocator@UVkQueueFamilyProperties@@@1@@Z ; std::allocator<std::_Container_proxy>::allocator<std::_Container_proxy><VkQueueFamilyProperties>
PUBLIC	??$?0AEBV?$allocator@UVkQueueFamilyProperties@@@std@@$$V@?$_Compressed_pair@V?$allocator@UVkQueueFamilyProperties@@@std@@V?$_Vector_val@U?$_Simple_types@UVkQueueFamilyProperties@@@std@@@2@$00@std@@QEAA@U_One_then_variadic_args_t@1@AEBV?$allocator@UVkQueueFamilyProperties@@@1@@Z ; std::_Compressed_pair<std::allocator<VkQueueFamilyProperties>,std::_Vector_val<std::_Simple_types<VkQueueFamilyProperties> >,1>::_Compressed_pair<std::allocator<VkQueueFamilyProperties>,std::_Vector_val<std::_Simple_types<VkQueueFamilyProperties> >,1><std::allocator<VkQueueFamilyProperties> const &>
PUBLIC	??$_Construct_n@$$V@?$vector@UVkQueueFamilyProperties@@V?$allocator@UVkQueueFamilyProperties@@@std@@@std@@AEAAX_K@Z ; std::vector<VkQueueFamilyProperties,std::allocator<VkQueueFamilyProperties> >::_Construct_n<>
PUBLIC	??$_Erase_head@V?$allocator@U?$_Tree_node@V?$basic_string@DU?$char_traits@D@std@@V?$allocator@D@2@@std@@PEAX@std@@@std@@@?$_Tree_val@U?$_Tree_simple_types@V?$basic_string@DU?$char_traits@D@std@@V?$allocator@D@2@@std@@@std@@@std@@QEAAXAEAV?$allocator@U?$_Tree_node@V?$basic_string@DU?$char_traits@D@std@@V?$allocator@D@2@@std@@PEAX@std@@@1@@Z ; std::_Tree_val<std::_Tree_simple_types<std::basic_string<char,std::char_traits<char>,std::allocator<char> > > >::_Erase_head<std::allocator<std::_Tree_node<std::basic_string<char,std::char_traits<char>,std::allocator<char> >,void *> > >
PUBLIC	??$?0U?$_Tree_node@V?$basic_string@DU?$char_traits@D@std@@V?$allocator@D@2@@std@@PEAX@std@@@?$allocator@U_Container_proxy@std@@@std@@QEAA@AEBV?$allocator@U?$_Tree_node@V?$basic_string@DU?$char_traits@D@std@@V?$allocator@D@2@@std@@PEAX@std@@@1@@Z ; std::allocator<std::_Container_proxy>::allocator<std::_Container_proxy><std::_Tree_node<std::basic_string<char,std::char_traits<char>,std::allocator<char> >,void *> >
PUBLIC	??$_Unfancy_maybe_null@UVkExtensionProperties@@@std@@YAPEAUVkExtensionProperties@@PEAU1@@Z ; std::_Unfancy_maybe_null<VkExtensionProperties>
PUBLIC	??$?0UVkExtensionProperties@@@?$allocator@U_Container_proxy@std@@@std@@QEAA@AEBV?$allocator@UVkExtensionProperties@@@1@@Z ; std::allocator<std::_Container_proxy>::allocator<std::_Container_proxy><VkExtensionProperties>
PUBLIC	??$?0AEBV?$allocator@UVkExtensionProperties@@@std@@$$V@?$_Compressed_pair@V?$allocator@UVkExtensionProperties@@@std@@V?$_Vector_val@U?$_Simple_types@UVkExtensionProperties@@@std@@@2@$00@std@@QEAA@U_One_then_variadic_args_t@1@AEBV?$allocator@UVkExtensionProperties@@@1@@Z ; std::_Compressed_pair<std::allocator<VkExtensionProperties>,std::_Vector_val<std::_Simple_types<VkExtensionProperties> >,1>::_Compressed_pair<std::allocator<VkExtensionProperties>,std::_Vector_val<std::_Simple_types<VkExtensionProperties> >,1><std::allocator<VkExtensionProperties> const &>
PUBLIC	??$_Construct_n@$$V@?$vector@UVkExtensionProperties@@V?$allocator@UVkExtensionProperties@@@std@@@std@@AEAAX_K@Z ; std::vector<VkExtensionProperties,std::allocator<VkExtensionProperties> >::_Construct_n<>
PUBLIC	??$min@_K@std@@YAAEB_KAEB_K0@Z			; std::min<unsigned __int64>
PUBLIC	??$_Unfancy_maybe_null@W4VkPresentModeKHR@@@std@@YAPEAW4VkPresentModeKHR@@PEAW41@@Z ; std::_Unfancy_maybe_null<enum VkPresentModeKHR>
PUBLIC	??$_Resize@U_Value_init_tag@std@@@?$vector@W4VkPresentModeKHR@@V?$allocator@W4VkPresentModeKHR@@@std@@@std@@AEAAX_KAEBU_Value_init_tag@1@@Z ; std::vector<enum VkPresentModeKHR,std::allocator<enum VkPresentModeKHR> >::_Resize<std::_Value_init_tag>
PUBLIC	??$?0W4VkPresentModeKHR@@@?$allocator@U_Container_proxy@std@@@std@@QEAA@AEBV?$allocator@W4VkPresentModeKHR@@@1@@Z ; std::allocator<std::_Container_proxy>::allocator<std::_Container_proxy><enum VkPresentModeKHR>
PUBLIC	??$move@AEAV?$allocator@W4VkPresentModeKHR@@@std@@@std@@YA$$QEAV?$allocator@W4VkPresentModeKHR@@@0@AEAV10@@Z ; std::move<std::allocator<enum VkPresentModeKHR> &>
PUBLIC	??$exchange@PEAW4VkPresentModeKHR@@$$T@std@@YAPEAW4VkPresentModeKHR@@AEAPEAW41@$$QEA$$T@Z ; std::exchange<enum VkPresentModeKHR *,std::nullptr_t>
PUBLIC	??$?0V?$allocator@W4VkPresentModeKHR@@@std@@PEAW4VkPresentModeKHR@@PEAW42@PEAW42@@?$_Compressed_pair@V?$allocator@W4VkPresentModeKHR@@@std@@V?$_Vector_val@U?$_Simple_types@W4VkPresentModeKHR@@@std@@@2@$00@std@@QEAA@U_One_then_variadic_args_t@1@$$QEAV?$allocator@W4VkPresentModeKHR@@@1@$$QEAPEAW4VkPresentModeKHR@@22@Z ; std::_Compressed_pair<std::allocator<enum VkPresentModeKHR>,std::_Vector_val<std::_Simple_types<enum VkPresentModeKHR> >,1>::_Compressed_pair<std::allocator<enum VkPresentModeKHR>,std::_Vector_val<std::_Simple_types<enum VkPresentModeKHR> >,1><std::allocator<enum VkPresentModeKHR>,enum VkPresentModeKHR *,enum VkPresentModeKHR *,enum VkPresentModeKHR *>
PUBLIC	??$?0$$V@?$_Compressed_pair@V?$allocator@W4VkPresentModeKHR@@@std@@V?$_Vector_val@U?$_Simple_types@W4VkPresentModeKHR@@@std@@@2@$00@std@@QEAA@U_Zero_then_variadic_args_t@1@@Z ; std::_Compressed_pair<std::allocator<enum VkPresentModeKHR>,std::_Vector_val<std::_Simple_types<enum VkPresentModeKHR> >,1>::_Compressed_pair<std::allocator<enum VkPresentModeKHR>,std::_Vector_val<std::_Simple_types<enum VkPresentModeKHR> >,1><>
PUBLIC	??$_Unfancy_maybe_null@UVkSurfaceFormatKHR@@@std@@YAPEAUVkSurfaceFormatKHR@@PEAU1@@Z ; std::_Unfancy_maybe_null<VkSurfaceFormatKHR>
PUBLIC	??$_Resize@U_Value_init_tag@std@@@?$vector@UVkSurfaceFormatKHR@@V?$allocator@UVkSurfaceFormatKHR@@@std@@@std@@AEAAX_KAEBU_Value_init_tag@1@@Z ; std::vector<VkSurfaceFormatKHR,std::allocator<VkSurfaceFormatKHR> >::_Resize<std::_Value_init_tag>
PUBLIC	??$?0UVkSurfaceFormatKHR@@@?$allocator@U_Container_proxy@std@@@std@@QEAA@AEBV?$allocator@UVkSurfaceFormatKHR@@@1@@Z ; std::allocator<std::_Container_proxy>::allocator<std::_Container_proxy><VkSurfaceFormatKHR>
PUBLIC	??$move@AEAV?$allocator@UVkSurfaceFormatKHR@@@std@@@std@@YA$$QEAV?$allocator@UVkSurfaceFormatKHR@@@0@AEAV10@@Z ; std::move<std::allocator<VkSurfaceFormatKHR> &>
PUBLIC	??$exchange@PEAUVkSurfaceFormatKHR@@$$T@std@@YAPEAUVkSurfaceFormatKHR@@AEAPEAU1@$$QEA$$T@Z ; std::exchange<VkSurfaceFormatKHR *,std::nullptr_t>
PUBLIC	??$?0V?$allocator@UVkSurfaceFormatKHR@@@std@@PEAUVkSurfaceFormatKHR@@PEAU2@PEAU2@@?$_Compressed_pair@V?$allocator@UVkSurfaceFormatKHR@@@std@@V?$_Vector_val@U?$_Simple_types@UVkSurfaceFormatKHR@@@std@@@2@$00@std@@QEAA@U_One_then_variadic_args_t@1@$$QEAV?$allocator@UVkSurfaceFormatKHR@@@1@$$QEAPEAUVkSurfaceFormatKHR@@22@Z ; std::_Compressed_pair<std::allocator<VkSurfaceFormatKHR>,std::_Vector_val<std::_Simple_types<VkSurfaceFormatKHR> >,1>::_Compressed_pair<std::allocator<VkSurfaceFormatKHR>,std::_Vector_val<std::_Simple_types<VkSurfaceFormatKHR> >,1><std::allocator<VkSurfaceFormatKHR>,VkSurfaceFormatKHR *,VkSurfaceFormatKHR *,VkSurfaceFormatKHR *>
PUBLIC	??$?0$$V@?$_Compressed_pair@V?$allocator@UVkSurfaceFormatKHR@@@std@@V?$_Vector_val@U?$_Simple_types@UVkSurfaceFormatKHR@@@std@@@2@$00@std@@QEAA@U_Zero_then_variadic_args_t@1@@Z ; std::_Compressed_pair<std::allocator<VkSurfaceFormatKHR>,std::_Vector_val<std::_Simple_types<VkSurfaceFormatKHR> >,1>::_Compressed_pair<std::allocator<VkSurfaceFormatKHR>,std::_Vector_val<std::_Simple_types<VkSurfaceFormatKHR> >,1><>
PUBLIC	??0?$_Container_proxy_ptr12@V?$allocator@U_Container_proxy@std@@@std@@@std@@QEAA@AEAV?$allocator@U_Container_proxy@std@@@1@AEAU_Container_base12@1@@Z ; std::_Container_proxy_ptr12<std::allocator<std::_Container_proxy> >::_Container_proxy_ptr12<std::allocator<std::_Container_proxy> >
PUBLIC	??1?$_Container_proxy_ptr12@V?$allocator@U_Container_proxy@std@@@std@@@std@@QEAA@XZ ; std::_Container_proxy_ptr12<std::allocator<std::_Container_proxy> >::~_Container_proxy_ptr12<std::allocator<std::_Container_proxy> >
PUBLIC	??$_Traits_compare@U?$char_traits@D@std@@@std@@YAHQEBD_K01@Z ; std::_Traits_compare<std::char_traits<char> >
PUBLIC	??$_Convert_size@_K@std@@YA_K_K@Z		; std::_Convert_size<unsigned __int64>
PUBLIC	??$?0D@?$allocator@U_Container_proxy@std@@@std@@QEAA@AEBV?$allocator@D@1@@Z ; std::allocator<std::_Container_proxy>::allocator<std::_Container_proxy><char>
PUBLIC	??$?0$$V@?$_Compressed_pair@V?$allocator@D@std@@V?$_String_val@U?$_Simple_types@D@std@@@2@$00@std@@QEAA@U_Zero_then_variadic_args_t@1@@Z ; std::_Compressed_pair<std::allocator<char>,std::_String_val<std::_Simple_types<char> >,1>::_Compressed_pair<std::allocator<char>,std::_String_val<std::_Simple_types<char> >,1><>
PUBLIC	??$_Unfancy@U_Container_proxy@std@@@std@@YAPEAU_Container_proxy@0@PEAU10@@Z ; std::_Unfancy<std::_Container_proxy>
PUBLIC	??$addressof@V?$_Tree_val@U?$_Tree_simple_types@I@std@@@std@@@std@@YAPEAV?$_Tree_val@U?$_Tree_simple_types@I@std@@@0@AEAV10@@Z ; std::addressof<std::_Tree_val<std::_Tree_simple_types<unsigned int> > >
PUBLIC	??$insert@PEBI@?$_Tree@V?$_Tset_traits@IU?$less@I@std@@V?$allocator@I@2@$0A@@std@@@std@@QEAAXPEBI0@Z ; std::_Tree<std::_Tset_traits<unsigned int,std::less<unsigned int>,std::allocator<unsigned int>,0> >::insert<unsigned int const *>
PUBLIC	??$?0AEBU?$less@I@std@@U_Zero_then_variadic_args_t@1@@?$_Compressed_pair@U?$less@I@std@@V?$_Compressed_pair@V?$allocator@U?$_Tree_node@IPEAX@std@@@std@@V?$_Tree_val@U?$_Tree_simple_types@I@std@@@2@$00@2@$00@std@@QEAA@U_One_then_variadic_args_t@1@AEBU?$less@I@1@$$QEAU_Zero_then_variadic_args_t@1@@Z ; std::_Compressed_pair<std::less<unsigned int>,std::_Compressed_pair<std::allocator<std::_Tree_node<unsigned int,void *> >,std::_Tree_val<std::_Tree_simple_types<unsigned int> >,1>,1>::_Compressed_pair<std::less<unsigned int>,std::_Compressed_pair<std::allocator<std::_Tree_node<unsigned int,void *> >,std::_Tree_val<std::_Tree_simple_types<unsigned int> >,1>,1><std::less<unsigned int> const &,std::_Zero_then_variadic_args_t>
PUBLIC	??$?0$$V@?$_Compressed_pair@V?$allocator@U?$_Tree_node@IPEAX@std@@@std@@V?$_Tree_val@U?$_Tree_simple_types@I@std@@@2@$00@std@@QEAA@U_Zero_then_variadic_args_t@1@@Z ; std::_Compressed_pair<std::allocator<std::_Tree_node<unsigned int,void *> >,std::_Tree_val<std::_Tree_simple_types<unsigned int> >,1>::_Compressed_pair<std::allocator<std::_Tree_node<unsigned int,void *> >,std::_Tree_val<std::_Tree_simple_types<unsigned int> >,1><>
PUBLIC	??$_Destroy_range@V?$allocator@UVkDeviceQueueCreateInfo@@@std@@@std@@YAXPEAUVkDeviceQueueCreateInfo@@QEAU1@AEAV?$allocator@UVkDeviceQueueCreateInfo@@@0@@Z ; std::_Destroy_range<std::allocator<VkDeviceQueueCreateInfo> >
PUBLIC	??$_Destroy_range@V?$allocator@UVkQueueFamilyProperties@@@std@@@std@@YAXPEAUVkQueueFamilyProperties@@QEAU1@AEAV?$allocator@UVkQueueFamilyProperties@@@0@@Z ; std::_Destroy_range<std::allocator<VkQueueFamilyProperties> >
PUBLIC	??$addressof@$$CBV?$_Tree_val@U?$_Tree_simple_types@V?$basic_string@DU?$char_traits@D@std@@V?$allocator@D@2@@std@@@std@@@std@@@std@@YAPEBV?$_Tree_val@U?$_Tree_simple_types@V?$basic_string@DU?$char_traits@D@std@@V?$allocator@D@2@@std@@@std@@@0@AEBV10@@Z ; std::addressof<std::_Tree_val<std::_Tree_simple_types<std::basic_string<char,std::char_traits<char>,std::allocator<char> > > > const >
PUBLIC	??$addressof@V?$_Tree_val@U?$_Tree_simple_types@V?$basic_string@DU?$char_traits@D@std@@V?$allocator@D@2@@std@@@std@@@std@@@std@@YAPEAV?$_Tree_val@U?$_Tree_simple_types@V?$basic_string@DU?$char_traits@D@std@@V?$allocator@D@2@@std@@@std@@@0@AEAV10@@Z ; std::addressof<std::_Tree_val<std::_Tree_simple_types<std::basic_string<char,std::char_traits<char>,std::allocator<char> > > > >
PUBLIC	??0?$_Tree_unchecked_const_iterator@V?$_Tree_val@U?$_Tree_simple_types@V?$basic_string@DU?$char_traits@D@std@@V?$allocator@D@2@@std@@@std@@@std@@U_Iterator_base0@2@@std@@QEAA@PEAU?$_Tree_node@V?$basic_string@DU?$char_traits@D@std@@V?$allocator@D@2@@std@@PEAX@1@PEBV?$_Tree_val@U?$_Tree_simple_types@V?$basic_string@DU?$char_traits@D@std@@V?$allocator@D@2@@std@@@std@@@1@@Z ; std::_Tree_unchecked_const_iterator<std::_Tree_val<std::_Tree_simple_types<std::basic_string<char,std::char_traits<char>,std::allocator<char> > > >,std::_Iterator_base0>::_Tree_unchecked_const_iterator<std::_Tree_val<std::_Tree_simple_types<std::basic_string<char,std::char_traits<char>,std::allocator<char> > > >,std::_Iterator_base0>
PUBLIC	??E?$_Tree_unchecked_const_iterator@V?$_Tree_val@U?$_Tree_simple_types@V?$basic_string@DU?$char_traits@D@std@@V?$allocator@D@2@@std@@@std@@@std@@U_Iterator_base0@2@@std@@QEAAAEAV01@XZ ; std::_Tree_unchecked_const_iterator<std::_Tree_val<std::_Tree_simple_types<std::basic_string<char,std::char_traits<char>,std::allocator<char> > > >,std::_Iterator_base0>::operator++
PUBLIC	??E?$_Tree_unchecked_const_iterator@V?$_Tree_val@U?$_Tree_simple_types@V?$basic_string@DU?$char_traits@D@std@@V?$allocator@D@2@@std@@@std@@@std@@U_Iterator_base0@2@@std@@QEAA?AV01@H@Z ; std::_Tree_unchecked_const_iterator<std::_Tree_val<std::_Tree_simple_types<std::basic_string<char,std::char_traits<char>,std::allocator<char> > > >,std::_Iterator_base0>::operator++
PUBLIC	??F?$_Tree_unchecked_const_iterator@V?$_Tree_val@U?$_Tree_simple_types@V?$basic_string@DU?$char_traits@D@std@@V?$allocator@D@2@@std@@@std@@@std@@U_Iterator_base0@2@@std@@QEAAAEAV01@XZ ; std::_Tree_unchecked_const_iterator<std::_Tree_val<std::_Tree_simple_types<std::basic_string<char,std::char_traits<char>,std::allocator<char> > > >,std::_Iterator_base0>::operator--
PUBLIC	??8?$_Tree_unchecked_const_iterator@V?$_Tree_val@U?$_Tree_simple_types@V?$basic_string@DU?$char_traits@D@std@@V?$allocator@D@2@@std@@@std@@@std@@U_Iterator_base0@2@@std@@QEBA_NAEBV01@@Z ; std::_Tree_unchecked_const_iterator<std::_Tree_val<std::_Tree_simple_types<std::basic_string<char,std::char_traits<char>,std::allocator<char> > > >,std::_Iterator_base0>::operator==
PUBLIC	?__autoclassinit2@?$_Tree_unchecked_const_iterator@V?$_Tree_val@U?$_Tree_simple_types@V?$basic_string@DU?$char_traits@D@std@@V?$allocator@D@2@@std@@@std@@@std@@U_Iterator_base0@2@@std@@QEAAX_K@Z ; std::_Tree_unchecked_const_iterator<std::_Tree_val<std::_Tree_simple_types<std::basic_string<char,std::char_traits<char>,std::allocator<char> > > >,std::_Iterator_base0>::__autoclassinit2
PUBLIC	??$distance@V?$_Tree_unchecked_const_iterator@V?$_Tree_val@U?$_Tree_simple_types@V?$basic_string@DU?$char_traits@D@std@@V?$allocator@D@2@@std@@@std@@@std@@U_Iterator_base0@2@@std@@@std@@YA_JV?$_Tree_unchecked_const_iterator@V?$_Tree_val@U?$_Tree_simple_types@V?$basic_string@DU?$char_traits@D@std@@V?$allocator@D@2@@std@@@std@@@std@@U_Iterator_base0@2@@0@0@Z ; std::distance<std::_Tree_unchecked_const_iterator<std::_Tree_val<std::_Tree_simple_types<std::basic_string<char,std::char_traits<char>,std::allocator<char> > > >,std::_Iterator_base0> >
PUBLIC	??$_Destroy_range@V?$allocator@UVkExtensionProperties@@@std@@@std@@YAXPEAUVkExtensionProperties@@QEAU1@AEAV?$allocator@UVkExtensionProperties@@@0@@Z ; std::_Destroy_range<std::allocator<VkExtensionProperties> >
PUBLIC	??$_Destroy_range@V?$allocator@W4VkPresentModeKHR@@@std@@@std@@YAXPEAW4VkPresentModeKHR@@QEAW41@AEAV?$allocator@W4VkPresentModeKHR@@@0@@Z ; std::_Destroy_range<std::allocator<enum VkPresentModeKHR> >
PUBLIC	??$_Destroy_range@V?$allocator@UVkSurfaceFormatKHR@@@std@@@std@@YAXPEAUVkSurfaceFormatKHR@@QEAU1@AEAV?$allocator@UVkSurfaceFormatKHR@@@0@@Z ; std::_Destroy_range<std::allocator<VkSurfaceFormatKHR> >
PUBLIC	??$_Destroy_in_place@PEAD@std@@YAXAEAPEAD@Z	; std::_Destroy_in_place<char *>
PUBLIC	??$_Unfancy@D@std@@YAPEADPEAD@Z			; std::_Unfancy<char>
PUBLIC	??R<lambda_1>@?1??assign@?$basic_string@DU?$char_traits@D@std@@V?$allocator@D@2@@std@@QEAAAEAV23@QEBD_K@Z@QEBA@QEAD10@Z ; `std::basic_string<char,std::char_traits<char>,std::allocator<char> >::assign'::`2'::<lambda_1>::operator()
PUBLIC	??$_Reallocate_for@V<lambda_1>@?1??assign@?$basic_string@DU?$char_traits@D@std@@V?$allocator@D@2@@std@@QEAAAEAV34@QEBD_K@Z@PEBD@?$basic_string@DU?$char_traits@D@std@@V?$allocator@D@2@@std@@AEAAAEAV01@_KV<lambda_1>@?1??assign@01@QEAAAEAV01@QEBD0@Z@PEBD@Z ; std::basic_string<char,std::char_traits<char>,std::allocator<char> >::_Reallocate_for<`std::basic_string<char,std::char_traits<char>,std::allocator<char> >::assign'::`2'::<lambda_1>,char const *>
PUBLIC	??$_Construct_in_place@PEADAEBQEAD@std@@YAXAEAPEADAEBQEAD@Z ; std::_Construct_in_place<char *,char * const &>
PUBLIC	??$max@_K@std@@YAAEB_KAEB_K0@Z			; std::max<unsigned __int64>
PUBLIC	??$_Get_size_of_n@$0BA@@std@@YA_K_K@Z		; std::_Get_size_of_n<16>
PUBLIC	??$_Allocate@$0BA@U_Default_allocate_traits@std@@$0A@@std@@YAPEAX_K@Z ; std::_Allocate<16,std::_Default_allocate_traits,0>
PUBLIC	??$_Buyheadnode@V?$allocator@U?$_Tree_node@IPEAX@std@@@std@@@?$_Tree_node@IPEAX@std@@SAPEAU01@AEAV?$allocator@U?$_Tree_node@IPEAX@std@@@1@@Z ; std::_Tree_node<unsigned int,void *>::_Buyheadnode<std::allocator<std::_Tree_node<unsigned int,void *> > >
PUBLIC	??$_Deallocate@$0BA@$0A@@std@@YAXPEAX_K@Z	; std::_Deallocate<16,0>
PUBLIC	??$_Get_size_of_n@$03@std@@YA_K_K@Z		; std::_Get_size_of_n<4>
PUBLIC	??$_Get_size_of_n@$00@std@@YA_K_K@Z		; std::_Get_size_of_n<1>
PUBLIC	??$addressof@V?$basic_string@DU?$char_traits@D@std@@V?$allocator@D@2@@std@@@std@@YAPEAV?$basic_string@DU?$char_traits@D@std@@V?$allocator@D@2@@0@AEAV10@@Z ; std::addressof<std::basic_string<char,std::char_traits<char>,std::allocator<char> > >
PUBLIC	??$_Erase_tree@V?$allocator@U?$_Tree_node@V?$basic_string@DU?$char_traits@D@std@@V?$allocator@D@2@@std@@PEAX@std@@@std@@@?$_Tree_val@U?$_Tree_simple_types@V?$basic_string@DU?$char_traits@D@std@@V?$allocator@D@2@@std@@@std@@@std@@QEAAXAEAV?$allocator@U?$_Tree_node@V?$basic_string@DU?$char_traits@D@std@@V?$allocator@D@2@@std@@PEAX@std@@@1@PEAU?$_Tree_node@V?$basic_string@DU?$char_traits@D@std@@V?$allocator@D@2@@std@@PEAX@1@@Z ; std::_Tree_val<std::_Tree_simple_types<std::basic_string<char,std::char_traits<char>,std::allocator<char> > > >::_Erase_tree<std::allocator<std::_Tree_node<std::basic_string<char,std::char_traits<char>,std::allocator<char> >,void *> > >
PUBLIC	??$_Freenode@V?$allocator@U?$_Tree_node@V?$basic_string@DU?$char_traits@D@std@@V?$allocator@D@2@@std@@PEAX@std@@@std@@@?$_Tree_node@V?$basic_string@DU?$char_traits@D@std@@V?$allocator@D@2@@std@@PEAX@std@@SAXAEAV?$allocator@U?$_Tree_node@V?$basic_string@DU?$char_traits@D@std@@V?$allocator@D@2@@std@@PEAX@std@@@1@PEAU01@@Z ; std::_Tree_node<std::basic_string<char,std::char_traits<char>,std::allocator<char> >,void *>::_Freenode<std::allocator<std::_Tree_node<std::basic_string<char,std::char_traits<char>,std::allocator<char> >,void *> > >
PUBLIC	??$addressof@D@std@@YAPEADAEAD@Z		; std::addressof<char>
PUBLIC	??$construct_at@DAEBDX@std@@YAPEADQEADAEBD@Z	; std::construct_at<char,char const &,void>
PUBLIC	??$_Voidify_iter@PEAD@std@@YAPEAXPEAD@Z		; std::_Voidify_iter<char *>
PUBLIC	??$forward@AEBD@std@@YAAEBDAEBD@Z		; std::forward<char const &>
PUBLIC	??$swap@D$0A@@std@@YAXAEAD0@Z			; std::swap<char,0>
PUBLIC	??$addressof@U_Container_proxy@std@@@std@@YAPEAU_Container_proxy@0@AEAU10@@Z ; std::addressof<std::_Container_proxy>
PUBLIC	??$_Voidify_iter@PEAU_Container_proxy@std@@@std@@YAPEAXPEAU_Container_proxy@0@@Z ; std::_Voidify_iter<std::_Container_proxy *>
PUBLIC	??$forward@PEAU_Container_base12@std@@@std@@YA$$QEAPEAU_Container_base12@0@AEAPEAU10@@Z ; std::forward<std::_Container_base12 *>
PUBLIC	??$construct_at@U_Container_proxy@std@@PEAU_Container_base12@2@X@std@@YAPEAU_Container_proxy@0@QEAU10@$$QEAPEAU_Container_base12@0@@Z ; std::construct_at<std::_Container_proxy,std::_Container_base12 *,void>
PUBLIC	??0_Sentry_base@?$basic_ostream@DU?$char_traits@D@std@@@std@@QEAA@AEAV12@@Z ; std::basic_ostream<char,std::char_traits<char> >::_Sentry_base::_Sentry_base
PUBLIC	??1_Sentry_base@?$basic_ostream@DU?$char_traits@D@std@@@std@@QEAA@XZ ; std::basic_ostream<char,std::char_traits<char> >::_Sentry_base::~_Sentry_base
PUBLIC	??0sentry@?$basic_ostream@DU?$char_traits@D@std@@@std@@QEAA@AEAV12@@Z ; std::basic_ostream<char,std::char_traits<char> >::sentry::sentry
PUBLIC	??1sentry@?$basic_ostream@DU?$char_traits@D@std@@@std@@QEAA@XZ ; std::basic_ostream<char,std::char_traits<char> >::sentry::~sentry
PUBLIC	??Bsentry@?$basic_ostream@DU?$char_traits@D@std@@@std@@QEBA_NXZ ; std::basic_ostream<char,std::char_traits<char> >::sentry::operator bool
PUBLIC	??$insert@V?$_Array_const_iterator@PEBD$00@std@@@?$_Tree@V?$_Tset_traits@V?$basic_string@DU?$char_traits@D@std@@V?$allocator@D@2@@std@@U?$less@V?$basic_string@DU?$char_traits@D@std@@V?$allocator@D@2@@std@@@2@V?$allocator@V?$basic_string@DU?$char_traits@D@std@@V?$allocator@D@2@@std@@@2@$0A@@std@@@std@@QEAAXV?$_Array_const_iterator@PEBD$00@1@0@Z ; std::_Tree<std::_Tset_traits<std::basic_string<char,std::char_traits<char>,std::allocator<char> >,std::less<std::basic_string<char,std::char_traits<char>,std::allocator<char> > >,std::allocator<std::basic_string<char,std::char_traits<char>,std::allocator<char> > >,0> >::insert<std::_Array_const_iterator<char const *,1> >
PUBLIC	??$_Debug_lt_pred@AEBU?$less@V?$basic_string@DU?$char_traits@D@std@@V?$allocator@D@2@@std@@@std@@AEBV?$basic_string@DU?$char_traits@D@std@@V?$allocator@D@2@@2@AEBV32@$0A@@std@@YA_NAEBU?$less@V?$basic_string@DU?$char_traits@D@std@@V?$allocator@D@2@@std@@@0@AEBV?$basic_string@DU?$char_traits@D@std@@V?$allocator@D@2@@0@1@Z ; std::_Debug_lt_pred<std::less<std::basic_string<char,std::char_traits<char>,std::allocator<char> > > const &,std::basic_string<char,std::char_traits<char>,std::allocator<char> > const &,std::basic_string<char,std::char_traits<char>,std::allocator<char> > const &,0>
PUBLIC	??$?0AEAPEAU?$_Tree_node@V?$basic_string@DU?$char_traits@D@std@@V?$allocator@D@2@@std@@PEAX@std@@AEAPEAU01@$0A@@?$pair@PEAU?$_Tree_node@V?$basic_string@DU?$char_traits@D@std@@V?$allocator@D@2@@std@@PEAX@std@@PEAU12@@std@@QEAA@AEAPEAU?$_Tree_node@V?$basic_string@DU?$char_traits@D@std@@V?$allocator@D@2@@std@@PEAX@1@0@Z ; std::pair<std::_Tree_node<std::basic_string<char,std::char_traits<char>,std::allocator<char> >,void *> *,std::_Tree_node<std::basic_string<char,std::char_traits<char>,std::allocator<char> >,void *> *>::pair<std::_Tree_node<std::basic_string<char,std::char_traits<char>,std::allocator<char> >,void *> *,std::_Tree_node<std::basic_string<char,std::char_traits<char>,std::allocator<char> >,void *> *><std::_Tree_node<std::basic_string<char,std::char_traits<char>,std::allocator<char> >,void *> * &,std::_Tree_node<std::basic_string<char,std::char_traits<char>,std::allocator<char> >,void *> * &,0>
PUBLIC	??$forward@AEAH@std@@YAAEAHAEAH@Z		; std::forward<int &>
PUBLIC	??$_Assign@AEAH@?$_Optional_construct_base@I@std@@QEAAXAEAH@Z ; std::_Optional_construct_base<unsigned int>::_Assign<int &>
PUBLIC	??$_Erase_tree@V?$allocator@U?$_Tree_node@IPEAX@std@@@std@@@?$_Tree_val@U?$_Tree_simple_types@I@std@@@std@@QEAAXAEAV?$allocator@U?$_Tree_node@IPEAX@std@@@1@PEAU?$_Tree_node@IPEAX@1@@Z ; std::_Tree_val<std::_Tree_simple_types<unsigned int> >::_Erase_tree<std::allocator<std::_Tree_node<unsigned int,void *> > >
PUBLIC	??$_Freenode0@V?$allocator@U?$_Tree_node@IPEAX@std@@@std@@@?$_Tree_node@IPEAX@std@@SAXAEAV?$allocator@U?$_Tree_node@IPEAX@std@@@1@PEAU01@@Z ; std::_Tree_node<unsigned int,void *>::_Freenode0<std::allocator<std::_Tree_node<unsigned int,void *> > >
PUBLIC	??$_Deallocate_plain@V?$allocator@U_Container_proxy@std@@@std@@@std@@YAXAEAV?$allocator@U_Container_proxy@std@@@0@QEAU_Container_proxy@0@@Z ; std::_Deallocate_plain<std::allocator<std::_Container_proxy> >
PUBLIC	??$_Emplace_back_with_unused_capacity@AEBUVkDeviceQueueCreateInfo@@@?$vector@UVkDeviceQueueCreateInfo@@V?$allocator@UVkDeviceQueueCreateInfo@@@std@@@std@@AEAAAEAUVkDeviceQueueCreateInfo@@AEBU2@@Z ; std::vector<VkDeviceQueueCreateInfo,std::allocator<VkDeviceQueueCreateInfo> >::_Emplace_back_with_unused_capacity<VkDeviceQueueCreateInfo const &>
PUBLIC	??$_Emplace_reallocate@AEBUVkDeviceQueueCreateInfo@@@?$vector@UVkDeviceQueueCreateInfo@@V?$allocator@UVkDeviceQueueCreateInfo@@@std@@@std@@AEAAPEAUVkDeviceQueueCreateInfo@@QEAU2@AEBU2@@Z ; std::vector<VkDeviceQueueCreateInfo,std::allocator<VkDeviceQueueCreateInfo> >::_Emplace_reallocate<VkDeviceQueueCreateInfo const &>
PUBLIC	??$forward@AEBV?$allocator@UVkQueueFamilyProperties@@@std@@@std@@YAAEBV?$allocator@UVkQueueFamilyProperties@@@0@AEBV10@@Z ; std::forward<std::allocator<VkQueueFamilyProperties> const &>
PUBLIC	??1?$_Tidy_guard@V?$vector@UVkQueueFamilyProperties@@V?$allocator@UVkQueueFamilyProperties@@@std@@@std@@@std@@QEAA@XZ ; std::_Tidy_guard<std::vector<VkQueueFamilyProperties,std::allocator<VkQueueFamilyProperties> > >::~_Tidy_guard<std::vector<VkQueueFamilyProperties,std::allocator<VkQueueFamilyProperties> > >
PUBLIC	??$_Uninitialized_value_construct_n@V?$allocator@UVkQueueFamilyProperties@@@std@@@std@@YAPEAUVkQueueFamilyProperties@@PEAU1@_KAEAV?$allocator@UVkQueueFamilyProperties@@@0@@Z ; std::_Uninitialized_value_construct_n<std::allocator<VkQueueFamilyProperties> >
PUBLIC	??$_Freenode0@V?$allocator@U?$_Tree_node@V?$basic_string@DU?$char_traits@D@std@@V?$allocator@D@2@@std@@PEAX@std@@@std@@@?$_Tree_node@V?$basic_string@DU?$char_traits@D@std@@V?$allocator@D@2@@std@@PEAX@std@@SAXAEAV?$allocator@U?$_Tree_node@V?$basic_string@DU?$char_traits@D@std@@V?$allocator@D@2@@std@@PEAX@std@@@1@PEAU01@@Z ; std::_Tree_node<std::basic_string<char,std::char_traits<char>,std::allocator<char> >,void *>::_Freenode0<std::allocator<std::_Tree_node<std::basic_string<char,std::char_traits<char>,std::allocator<char> >,void *> > >
PUBLIC	??$forward@AEBV?$allocator@UVkExtensionProperties@@@std@@@std@@YAAEBV?$allocator@UVkExtensionProperties@@@0@AEBV10@@Z ; std::forward<std::allocator<VkExtensionProperties> const &>
PUBLIC	??1?$_Tidy_guard@V?$vector@UVkExtensionProperties@@V?$allocator@UVkExtensionProperties@@@std@@@std@@@std@@QEAA@XZ ; std::_Tidy_guard<std::vector<VkExtensionProperties,std::allocator<VkExtensionProperties> > >::~_Tidy_guard<std::vector<VkExtensionProperties,std::allocator<VkExtensionProperties> > >
PUBLIC	??$_Uninitialized_value_construct_n@V?$allocator@UVkExtensionProperties@@@std@@@std@@YAPEAUVkExtensionProperties@@PEAU1@_KAEAV?$allocator@UVkExtensionProperties@@@0@@Z ; std::_Uninitialized_value_construct_n<std::allocator<VkExtensionProperties> >
PUBLIC	??$_Resize_reallocate@U_Value_init_tag@std@@@?$vector@W4VkPresentModeKHR@@V?$allocator@W4VkPresentModeKHR@@@std@@@std@@AEAAX_KAEBU_Value_init_tag@1@@Z ; std::vector<enum VkPresentModeKHR,std::allocator<enum VkPresentModeKHR> >::_Resize_reallocate<std::_Value_init_tag>
PUBLIC	??$_Uninitialized_value_construct_n@V?$allocator@W4VkPresentModeKHR@@@std@@@std@@YAPEAW4VkPresentModeKHR@@PEAW41@_KAEAV?$allocator@W4VkPresentModeKHR@@@0@@Z ; std::_Uninitialized_value_construct_n<std::allocator<enum VkPresentModeKHR> >
PUBLIC	??$forward@V?$allocator@W4VkPresentModeKHR@@@std@@@std@@YA$$QEAV?$allocator@W4VkPresentModeKHR@@@0@AEAV10@@Z ; std::forward<std::allocator<enum VkPresentModeKHR> >
PUBLIC	??$forward@PEAW4VkPresentModeKHR@@@std@@YA$$QEAPEAW4VkPresentModeKHR@@AEAPEAW41@@Z ; std::forward<enum VkPresentModeKHR *>
PUBLIC	??$_Resize_reallocate@U_Value_init_tag@std@@@?$vector@UVkSurfaceFormatKHR@@V?$allocator@UVkSurfaceFormatKHR@@@std@@@std@@AEAAX_KAEBU_Value_init_tag@1@@Z ; std::vector<VkSurfaceFormatKHR,std::allocator<VkSurfaceFormatKHR> >::_Resize_reallocate<std::_Value_init_tag>
PUBLIC	??$_Uninitialized_value_construct_n@V?$allocator@UVkSurfaceFormatKHR@@@std@@@std@@YAPEAUVkSurfaceFormatKHR@@PEAU1@_KAEAV?$allocator@UVkSurfaceFormatKHR@@@0@@Z ; std::_Uninitialized_value_construct_n<std::allocator<VkSurfaceFormatKHR> >
PUBLIC	??$forward@V?$allocator@UVkSurfaceFormatKHR@@@std@@@std@@YA$$QEAV?$allocator@UVkSurfaceFormatKHR@@@0@AEAV10@@Z ; std::forward<std::allocator<VkSurfaceFormatKHR> >
PUBLIC	??$forward@PEAUVkSurfaceFormatKHR@@@std@@YA$$QEAPEAUVkSurfaceFormatKHR@@AEAPEAU1@@Z ; std::forward<VkSurfaceFormatKHR *>
PUBLIC	??$_Adl_verify_range@PEBIPEBI@std@@YAXAEBQEBI0@Z ; std::_Adl_verify_range<unsigned int const *,unsigned int const *>
PUBLIC	??$_Get_unwrapped@AEAPEBI@std@@YA?A_TAEAPEBI@Z	; std::_Get_unwrapped<unsigned int const * &>
PUBLIC	??$_Emplace_hint@AEBI@?$_Tree@V?$_Tset_traits@IU?$less@I@std@@V?$allocator@I@2@$0A@@std@@@std@@IEAAPEAU?$_Tree_node@IPEAX@1@QEAU21@AEBI@Z ; std::_Tree<std::_Tset_traits<unsigned int,std::less<unsigned int>,std::allocator<unsigned int>,0> >::_Emplace_hint<unsigned int const &>
PUBLIC	??$forward@AEBU?$less@I@std@@@std@@YAAEBU?$less@I@0@AEBU10@@Z ; std::forward<std::less<unsigned int> const &>
PUBLIC	??$forward@U_Zero_then_variadic_args_t@std@@@std@@YA$$QEAU_Zero_then_variadic_args_t@0@AEAU10@@Z ; std::forward<std::_Zero_then_variadic_args_t>
PUBLIC	??$_Adl_verify_range@V?$_Tree_unchecked_const_iterator@V?$_Tree_val@U?$_Tree_simple_types@V?$basic_string@DU?$char_traits@D@std@@V?$allocator@D@2@@std@@@std@@@std@@U_Iterator_base0@2@@std@@V12@@std@@YAXAEBV?$_Tree_unchecked_const_iterator@V?$_Tree_val@U?$_Tree_simple_types@V?$basic_string@DU?$char_traits@D@std@@V?$allocator@D@2@@std@@@std@@@std@@U_Iterator_base0@2@@0@0@Z ; std::_Adl_verify_range<std::_Tree_unchecked_const_iterator<std::_Tree_val<std::_Tree_simple_types<std::basic_string<char,std::char_traits<char>,std::allocator<char> > > >,std::_Iterator_base0>,std::_Tree_unchecked_const_iterator<std::_Tree_val<std::_Tree_simple_types<std::basic_string<char,std::char_traits<char>,std::allocator<char> > > >,std::_Iterator_base0> >
PUBLIC	??$_Get_unwrapped@AEAV?$_Tree_unchecked_const_iterator@V?$_Tree_val@U?$_Tree_simple_types@V?$basic_string@DU?$char_traits@D@std@@V?$allocator@D@2@@std@@@std@@@std@@U_Iterator_base0@2@@std@@@std@@YA?A_TAEAV?$_Tree_unchecked_const_iterator@V?$_Tree_val@U?$_Tree_simple_types@V?$basic_string@DU?$char_traits@D@std@@V?$allocator@D@2@@std@@@std@@@std@@U_Iterator_base0@2@@0@@Z ; std::_Get_unwrapped<std::_Tree_unchecked_const_iterator<std::_Tree_val<std::_Tree_simple_types<std::basic_string<char,std::char_traits<char>,std::allocator<char> > > >,std::_Iterator_base0> &>
PUBLIC	??$addressof@PEAD@std@@YAPEAPEADAEAPEAD@Z	; std::addressof<char *>
PUBLIC	??$forward@AEBQEAD@std@@YAAEBQEADAEBQEAD@Z	; std::forward<char * const &>
PUBLIC	??$construct_at@PEADAEBQEADX@std@@YAPEAPEADQEAPEADAEBQEAD@Z ; std::construct_at<char *,char * const &,void>
PUBLIC	??$_Voidify_iter@PEAPEAD@std@@YAPEAXPEAPEAD@Z	; std::_Voidify_iter<char * *>
PUBLIC	??$_Allocate_manually_vector_aligned@U_Default_allocate_traits@std@@@std@@YAPEAX_K@Z ; std::_Allocate_manually_vector_aligned<std::_Default_allocate_traits>
PUBLIC	??$_Construct_in_place@PEAU?$_Tree_node@IPEAX@std@@AEBQEAU12@@std@@YAXAEAPEAU?$_Tree_node@IPEAX@0@AEBQEAU10@@Z ; std::_Construct_in_place<std::_Tree_node<unsigned int,void *> *,std::_Tree_node<unsigned int,void *> * const &>
PUBLIC	??$exchange@PEAU?$_Tree_node@V?$basic_string@DU?$char_traits@D@std@@V?$allocator@D@2@@std@@PEAX@std@@AEAPEAU12@@std@@YAPEAU?$_Tree_node@V?$basic_string@DU?$char_traits@D@std@@V?$allocator@D@2@@std@@PEAX@0@AEAPEAU10@0@Z ; std::exchange<std::_Tree_node<std::basic_string<char,std::char_traits<char>,std::allocator<char> >,void *> *,std::_Tree_node<std::basic_string<char,std::char_traits<char>,std::allocator<char> >,void *> * &>
PUBLIC	??$destroy@V?$basic_string@DU?$char_traits@D@std@@V?$allocator@D@2@@std@@@?$_Default_allocator_traits@V?$allocator@U?$_Tree_node@V?$basic_string@DU?$char_traits@D@std@@V?$allocator@D@2@@std@@PEAX@std@@@std@@@std@@SAXAEAV?$allocator@U?$_Tree_node@V?$basic_string@DU?$char_traits@D@std@@V?$allocator@D@2@@std@@PEAX@std@@@1@QEAV?$basic_string@DU?$char_traits@D@std@@V?$allocator@D@2@@1@@Z ; std::_Default_allocator_traits<std::allocator<std::_Tree_node<std::basic_string<char,std::char_traits<char>,std::allocator<char> >,void *> > >::destroy<std::basic_string<char,std::char_traits<char>,std::allocator<char> > >
PUBLIC	??$move@AEAD@std@@YA$$QEADAEAD@Z		; std::move<char &>
PUBLIC	??$_Get_size_of_n@$0CA@@std@@YA_K_K@Z		; std::_Get_size_of_n<32>
PUBLIC	??$?0AEBU?$less@V?$basic_string@DU?$char_traits@D@std@@V?$allocator@D@2@@std@@@std@@U_Zero_then_variadic_args_t@1@@?$_Compressed_pair@U?$less@V?$basic_string@DU?$char_traits@D@std@@V?$allocator@D@2@@std@@@std@@V?$_Compressed_pair@V?$allocator@U?$_Tree_node@V?$basic_string@DU?$char_traits@D@std@@V?$allocator@D@2@@std@@PEAX@std@@@std@@V?$_Tree_val@U?$_Tree_simple_types@V?$basic_string@DU?$char_traits@D@std@@V?$allocator@D@2@@std@@@std@@@2@$00@2@$00@std@@QEAA@U_One_then_variadic_args_t@1@AEBU?$less@V?$basic_string@DU?$char_traits@D@std@@V?$allocator@D@2@@std@@@1@$$QEAU_Zero_then_variadic_args_t@1@@Z ; std::_Compressed_pair<std::less<std::basic_string<char,std::char_traits<char>,std::allocator<char> > >,std::_Compressed_pair<std::allocator<std::_Tree_node<std::basic_string<char,std::char_traits<char>,std::allocator<char> >,void *> >,std::_Tree_val<std::_Tree_simple_types<std::basic_string<char,std::char_traits<char>,std::allocator<char> > > >,1>,1>::_Compressed_pair<std::less<std::basic_string<char,std::char_traits<char>,std::allocator<char> > >,std::_Compressed_pair<std::allocator<std::_Tree_node<std::basic_string<char,std::char_traits<char>,std::allocator<char> >,void *> >,std::_Tree_val<std::_Tree_simple_types<std::basic_string<char,std::char_traits<char>,std::allocator<char> > > >,1>,1><std::less<std::basic_string<char,std::char_traits<char>,std::allocator<char> > > const &,std::_Zero_then_variadic_args_t>
PUBLIC	??$?0$$V@?$_Compressed_pair@V?$allocator@U?$_Tree_node@V?$basic_string@DU?$char_traits@D@std@@V?$allocator@D@2@@std@@PEAX@std@@@std@@V?$_Tree_val@U?$_Tree_simple_types@V?$basic_string@DU?$char_traits@D@std@@V?$allocator@D@2@@std@@@std@@@2@$00@std@@QEAA@U_Zero_then_variadic_args_t@1@@Z ; std::_Compressed_pair<std::allocator<std::_Tree_node<std::basic_string<char,std::char_traits<char>,std::allocator<char> >,void *> >,std::_Tree_val<std::_Tree_simple_types<std::basic_string<char,std::char_traits<char>,std::allocator<char> > > >,1>::_Compressed_pair<std::allocator<std::_Tree_node<std::basic_string<char,std::char_traits<char>,std::allocator<char> >,void *> >,std::_Tree_val<std::_Tree_simple_types<std::basic_string<char,std::char_traits<char>,std::allocator<char> > > >,1><>
PUBLIC	??$_Buyheadnode@V?$allocator@U?$_Tree_node@V?$basic_string@DU?$char_traits@D@std@@V?$allocator@D@2@@std@@PEAX@std@@@std@@@?$_Tree_node@V?$basic_string@DU?$char_traits@D@std@@V?$allocator@D@2@@std@@PEAX@std@@SAPEAU01@AEAV?$allocator@U?$_Tree_node@V?$basic_string@DU?$char_traits@D@std@@V?$allocator@D@2@@std@@PEAX@std@@@1@@Z ; std::_Tree_node<std::basic_string<char,std::char_traits<char>,std::allocator<char> >,void *>::_Buyheadnode<std::allocator<std::_Tree_node<std::basic_string<char,std::char_traits<char>,std::allocator<char> >,void *> > >
PUBLIC	??$_Get_size_of_n@$0BI@@std@@YA_K_K@Z		; std::_Get_size_of_n<24>
PUBLIC	??$_Get_size_of_n@$0BAE@@std@@YA_K_K@Z		; std::_Get_size_of_n<260>
PUBLIC	??$_Adl_verify_range@V?$_Array_const_iterator@PEBD$00@std@@V12@@std@@YAXAEBV?$_Array_const_iterator@PEBD$00@0@0@Z ; std::_Adl_verify_range<std::_Array_const_iterator<char const *,1>,std::_Array_const_iterator<char const *,1> >
PUBLIC	??$_Get_unwrapped@AEAV?$_Array_const_iterator@PEBD$00@std@@@std@@YA?A_TAEAV?$_Array_const_iterator@PEBD$00@0@@Z ; std::_Get_unwrapped<std::_Array_const_iterator<char const *,1> &>
PUBLIC	??$_Emplace_hint@AEBQEBD@?$_Tree@V?$_Tset_traits@V?$basic_string@DU?$char_traits@D@std@@V?$allocator@D@2@@std@@U?$less@V?$basic_string@DU?$char_traits@D@std@@V?$allocator@D@2@@std@@@2@V?$allocator@V?$basic_string@DU?$char_traits@D@std@@V?$allocator@D@2@@std@@@2@$0A@@std@@@std@@IEAAPEAU?$_Tree_node@V?$basic_string@DU?$char_traits@D@std@@V?$allocator@D@2@@std@@PEAX@1@QEAU21@AEBQEBD@Z ; std::_Tree<std::_Tset_traits<std::basic_string<char,std::char_traits<char>,std::allocator<char> >,std::less<std::basic_string<char,std::char_traits<char>,std::allocator<char> > >,std::allocator<std::basic_string<char,std::char_traits<char>,std::allocator<char> > >,0> >::_Emplace_hint<char const * const &>
PUBLIC	??$forward@AEAPEAU?$_Tree_node@V?$basic_string@DU?$char_traits@D@std@@V?$allocator@D@2@@std@@PEAX@std@@@std@@YAAEAPEAU?$_Tree_node@V?$basic_string@DU?$char_traits@D@std@@V?$allocator@D@2@@std@@PEAX@0@AEAPEAU10@@Z ; std::forward<std::_Tree_node<std::basic_string<char,std::char_traits<char>,std::allocator<char> >,void *> * &>
PUBLIC	??$_Construct@AEAH@?$_Optional_construct_base@I@std@@QEAAAEAIAEAH@Z ; std::_Optional_construct_base<unsigned int>::_Construct<int &>
PUBLIC	??$exchange@PEAU?$_Tree_node@IPEAX@std@@AEAPEAU12@@std@@YAPEAU?$_Tree_node@IPEAX@0@AEAPEAU10@0@Z ; std::exchange<std::_Tree_node<unsigned int,void *> *,std::_Tree_node<unsigned int,void *> * &>
PUBLIC	??$_Freenode@V?$allocator@U?$_Tree_node@IPEAX@std@@@std@@@?$_Tree_node@IPEAX@std@@SAXAEAV?$allocator@U?$_Tree_node@IPEAX@std@@@1@PEAU01@@Z ; std::_Tree_node<unsigned int,void *>::_Freenode<std::allocator<std::_Tree_node<unsigned int,void *> > >
PUBLIC	??$_Destroy_in_place@PEAU?$_Tree_node@IPEAX@std@@@std@@YAXAEAPEAU?$_Tree_node@IPEAX@0@@Z ; std::_Destroy_in_place<std::_Tree_node<unsigned int,void *> *>
PUBLIC	?deallocate@?$_Default_allocator_traits@V?$allocator@U_Container_proxy@std@@@std@@@std@@SAXAEAV?$allocator@U_Container_proxy@std@@@2@QEAU_Container_proxy@2@_K@Z ; std::_Default_allocator_traits<std::allocator<std::_Container_proxy> >::deallocate
PUBLIC	??$_Construct_in_place@UVkDeviceQueueCreateInfo@@AEBU1@@std@@YAXAEAUVkDeviceQueueCreateInfo@@AEBU1@@Z ; std::_Construct_in_place<VkDeviceQueueCreateInfo,VkDeviceQueueCreateInfo const &>
PUBLIC	??$_Unfancy@UVkDeviceQueueCreateInfo@@@std@@YAPEAUVkDeviceQueueCreateInfo@@PEAU1@@Z ; std::_Unfancy<VkDeviceQueueCreateInfo>
PUBLIC	??$construct@UVkDeviceQueueCreateInfo@@AEBU1@@?$_Default_allocator_traits@V?$allocator@UVkDeviceQueueCreateInfo@@@std@@@std@@SAXAEAV?$allocator@UVkDeviceQueueCreateInfo@@@1@QEAUVkDeviceQueueCreateInfo@@AEBU3@@Z ; std::_Default_allocator_traits<std::allocator<VkDeviceQueueCreateInfo> >::construct<VkDeviceQueueCreateInfo,VkDeviceQueueCreateInfo const &>
PUBLIC	??$_Uninitialized_move@PEAUVkDeviceQueueCreateInfo@@V?$allocator@UVkDeviceQueueCreateInfo@@@std@@@std@@YAPEAUVkDeviceQueueCreateInfo@@QEAU1@0PEAU1@AEAV?$allocator@UVkDeviceQueueCreateInfo@@@0@@Z ; std::_Uninitialized_move<VkDeviceQueueCreateInfo *,std::allocator<VkDeviceQueueCreateInfo> >
PUBLIC	??0?$_Uninitialized_backout_al@V?$allocator@UVkQueueFamilyProperties@@@std@@@std@@QEAA@PEAUVkQueueFamilyProperties@@AEAV?$allocator@UVkQueueFamilyProperties@@@1@@Z ; std::_Uninitialized_backout_al<std::allocator<VkQueueFamilyProperties> >::_Uninitialized_backout_al<std::allocator<VkQueueFamilyProperties> >
PUBLIC	??1?$_Uninitialized_backout_al@V?$allocator@UVkQueueFamilyProperties@@@std@@@std@@QEAA@XZ ; std::_Uninitialized_backout_al<std::allocator<VkQueueFamilyProperties> >::~_Uninitialized_backout_al<std::allocator<VkQueueFamilyProperties> >
PUBLIC	?_Release@?$_Uninitialized_backout_al@V?$allocator@UVkQueueFamilyProperties@@@std@@@std@@QEAAPEAUVkQueueFamilyProperties@@XZ ; std::_Uninitialized_backout_al<std::allocator<VkQueueFamilyProperties> >::_Release
PUBLIC	?__autoclassinit2@?$_Uninitialized_backout_al@V?$allocator@UVkQueueFamilyProperties@@@std@@@std@@QEAAX_K@Z ; std::_Uninitialized_backout_al<std::allocator<VkQueueFamilyProperties> >::__autoclassinit2
PUBLIC	??$_Emplace_back@$$V@?$_Uninitialized_backout_al@V?$allocator@UVkQueueFamilyProperties@@@std@@@std@@QEAAXXZ ; std::_Uninitialized_backout_al<std::allocator<VkQueueFamilyProperties> >::_Emplace_back<>
PUBLIC	??$_Destroy_in_place@PEAU?$_Tree_node@V?$basic_string@DU?$char_traits@D@std@@V?$allocator@D@2@@std@@PEAX@std@@@std@@YAXAEAPEAU?$_Tree_node@V?$basic_string@DU?$char_traits@D@std@@V?$allocator@D@2@@std@@PEAX@0@@Z ; std::_Destroy_in_place<std::_Tree_node<std::basic_string<char,std::char_traits<char>,std::allocator<char> >,void *> *>
PUBLIC	??0?$_Uninitialized_backout_al@V?$allocator@UVkExtensionProperties@@@std@@@std@@QEAA@PEAUVkExtensionProperties@@AEAV?$allocator@UVkExtensionProperties@@@1@@Z ; std::_Uninitialized_backout_al<std::allocator<VkExtensionProperties> >::_Uninitialized_backout_al<std::allocator<VkExtensionProperties> >
PUBLIC	??1?$_Uninitialized_backout_al@V?$allocator@UVkExtensionProperties@@@std@@@std@@QEAA@XZ ; std::_Uninitialized_backout_al<std::allocator<VkExtensionProperties> >::~_Uninitialized_backout_al<std::allocator<VkExtensionProperties> >
PUBLIC	?_Release@?$_Uninitialized_backout_al@V?$allocator@UVkExtensionProperties@@@std@@@std@@QEAAPEAUVkExtensionProperties@@XZ ; std::_Uninitialized_backout_al<std::allocator<VkExtensionProperties> >::_Release
PUBLIC	?__autoclassinit2@?$_Uninitialized_backout_al@V?$allocator@UVkExtensionProperties@@@std@@@std@@QEAAX_K@Z ; std::_Uninitialized_backout_al<std::allocator<VkExtensionProperties> >::__autoclassinit2
PUBLIC	??$_Emplace_back@$$V@?$_Uninitialized_backout_al@V?$allocator@UVkExtensionProperties@@@std@@@std@@QEAAXXZ ; std::_Uninitialized_backout_al<std::allocator<VkExtensionProperties> >::_Emplace_back<>
PUBLIC	??$_Uninitialized_move@PEAW4VkPresentModeKHR@@V?$allocator@W4VkPresentModeKHR@@@std@@@std@@YAPEAW4VkPresentModeKHR@@QEAW41@0PEAW41@AEAV?$allocator@W4VkPresentModeKHR@@@0@@Z ; std::_Uninitialized_move<enum VkPresentModeKHR *,std::allocator<enum VkPresentModeKHR> >
PUBLIC	??$_Unfancy@W4VkPresentModeKHR@@@std@@YAPEAW4VkPresentModeKHR@@PEAW41@@Z ; std::_Unfancy<enum VkPresentModeKHR>
PUBLIC	??$_Zero_range@PEAW4VkPresentModeKHR@@@std@@YAPEAW4VkPresentModeKHR@@QEAW41@0@Z ; std::_Zero_range<enum VkPresentModeKHR *>
PUBLIC	??0?$_Uninitialized_backout_al@V?$allocator@W4VkPresentModeKHR@@@std@@@std@@QEAA@PEAW4VkPresentModeKHR@@AEAV?$allocator@W4VkPresentModeKHR@@@1@@Z ; std::_Uninitialized_backout_al<std::allocator<enum VkPresentModeKHR> >::_Uninitialized_backout_al<std::allocator<enum VkPresentModeKHR> >
PUBLIC	??1?$_Uninitialized_backout_al@V?$allocator@W4VkPresentModeKHR@@@std@@@std@@QEAA@XZ ; std::_Uninitialized_backout_al<std::allocator<enum VkPresentModeKHR> >::~_Uninitialized_backout_al<std::allocator<enum VkPresentModeKHR> >
PUBLIC	?_Release@?$_Uninitialized_backout_al@V?$allocator@W4VkPresentModeKHR@@@std@@@std@@QEAAPEAW4VkPresentModeKHR@@XZ ; std::_Uninitialized_backout_al<std::allocator<enum VkPresentModeKHR> >::_Release
PUBLIC	?__autoclassinit2@?$_Uninitialized_backout_al@V?$allocator@W4VkPresentModeKHR@@@std@@@std@@QEAAX_K@Z ; std::_Uninitialized_backout_al<std::allocator<enum VkPresentModeKHR> >::__autoclassinit2
PUBLIC	??$_Emplace_back@$$V@?$_Uninitialized_backout_al@V?$allocator@W4VkPresentModeKHR@@@std@@@std@@QEAAXXZ ; std::_Uninitialized_backout_al<std::allocator<enum VkPresentModeKHR> >::_Emplace_back<>
PUBLIC	??$_Uninitialized_move@PEAUVkSurfaceFormatKHR@@V?$allocator@UVkSurfaceFormatKHR@@@std@@@std@@YAPEAUVkSurfaceFormatKHR@@QEAU1@0PEAU1@AEAV?$allocator@UVkSurfaceFormatKHR@@@0@@Z ; std::_Uninitialized_move<VkSurfaceFormatKHR *,std::allocator<VkSurfaceFormatKHR> >
PUBLIC	??0?$_Uninitialized_backout_al@V?$allocator@UVkSurfaceFormatKHR@@@std@@@std@@QEAA@PEAUVkSurfaceFormatKHR@@AEAV?$allocator@UVkSurfaceFormatKHR@@@1@@Z ; std::_Uninitialized_backout_al<std::allocator<VkSurfaceFormatKHR> >::_Uninitialized_backout_al<std::allocator<VkSurfaceFormatKHR> >
PUBLIC	??1?$_Uninitialized_backout_al@V?$allocator@UVkSurfaceFormatKHR@@@std@@@std@@QEAA@XZ ; std::_Uninitialized_backout_al<std::allocator<VkSurfaceFormatKHR> >::~_Uninitialized_backout_al<std::allocator<VkSurfaceFormatKHR> >
PUBLIC	?_Release@?$_Uninitialized_backout_al@V?$allocator@UVkSurfaceFormatKHR@@@std@@@std@@QEAAPEAUVkSurfaceFormatKHR@@XZ ; std::_Uninitialized_backout_al<std::allocator<VkSurfaceFormatKHR> >::_Release
PUBLIC	?__autoclassinit2@?$_Uninitialized_backout_al@V?$allocator@UVkSurfaceFormatKHR@@@std@@@std@@QEAAX_K@Z ; std::_Uninitialized_backout_al<std::allocator<VkSurfaceFormatKHR> >::__autoclassinit2
PUBLIC	??$_Emplace_back@$$V@?$_Uninitialized_backout_al@V?$allocator@UVkSurfaceFormatKHR@@@std@@@std@@QEAAXXZ ; std::_Uninitialized_backout_al<std::allocator<VkSurfaceFormatKHR> >::_Emplace_back<>
PUBLIC	??$_Verify_range@I@std@@YAXQEBI0@Z		; std::_Verify_range<unsigned int>
PUBLIC	?_Extract@?$_In_place_key_extract_set@II@std@@SAAEBIAEBI@Z ; std::_In_place_key_extract_set<unsigned int,unsigned int>::_Extract
PUBLIC	??$_Find_hint@I@?$_Tree@V?$_Tset_traits@IU?$less@I@std@@V?$allocator@I@2@$0A@@std@@@std@@IEBA?AU?$_Tree_find_hint_result@PEAU?$_Tree_node@IPEAX@std@@@1@QEAU?$_Tree_node@IPEAX@1@AEBI@Z ; std::_Tree<std::_Tset_traits<unsigned int,std::less<unsigned int>,std::allocator<unsigned int>,0> >::_Find_hint<unsigned int>
PUBLIC	??$forward@AEBI@std@@YAAEBIAEBI@Z		; std::forward<unsigned int const &>
PUBLIC	??0?$_Alloc_construct_ptr@V?$allocator@U?$_Tree_node@IPEAX@std@@@std@@@std@@QEAA@AEAV?$allocator@U?$_Tree_node@IPEAX@std@@@1@@Z ; std::_Alloc_construct_ptr<std::allocator<std::_Tree_node<unsigned int,void *> > >::_Alloc_construct_ptr<std::allocator<std::_Tree_node<unsigned int,void *> > >
PUBLIC	?_Release@?$_Alloc_construct_ptr@V?$allocator@U?$_Tree_node@IPEAX@std@@@std@@@std@@QEAAPEAU?$_Tree_node@IPEAX@2@XZ ; std::_Alloc_construct_ptr<std::allocator<std::_Tree_node<unsigned int,void *> > >::_Release
PUBLIC	?_Allocate@?$_Alloc_construct_ptr@V?$allocator@U?$_Tree_node@IPEAX@std@@@std@@@std@@QEAAXXZ ; std::_Alloc_construct_ptr<std::allocator<std::_Tree_node<unsigned int,void *> > >::_Allocate
PUBLIC	??1?$_Alloc_construct_ptr@V?$allocator@U?$_Tree_node@IPEAX@std@@@std@@@std@@QEAA@XZ ; std::_Alloc_construct_ptr<std::allocator<std::_Tree_node<unsigned int,void *> > >::~_Alloc_construct_ptr<std::allocator<std::_Tree_node<unsigned int,void *> > >
PUBLIC	??0?$_Tree_temp_node_alloc@V?$allocator@U?$_Tree_node@IPEAX@std@@@std@@@std@@QEAA@AEAV?$allocator@U?$_Tree_node@IPEAX@std@@@1@@Z ; std::_Tree_temp_node_alloc<std::allocator<std::_Tree_node<unsigned int,void *> > >::_Tree_temp_node_alloc<std::allocator<std::_Tree_node<unsigned int,void *> > >
PUBLIC	??1?$_Tree_temp_node_alloc@V?$allocator@U?$_Tree_node@IPEAX@std@@@std@@@std@@QEAA@XZ ; std::_Tree_temp_node_alloc<std::allocator<std::_Tree_node<unsigned int,void *> > >::~_Tree_temp_node_alloc<std::allocator<std::_Tree_node<unsigned int,void *> > >
PUBLIC	??1?$_Tree_temp_node@V?$allocator@U?$_Tree_node@IPEAX@std@@@std@@@std@@QEAA@XZ ; std::_Tree_temp_node<std::allocator<std::_Tree_node<unsigned int,void *> > >::~_Tree_temp_node<std::allocator<std::_Tree_node<unsigned int,void *> > >
PUBLIC	??$?0AEBI@?$_Tree_temp_node@V?$allocator@U?$_Tree_node@IPEAX@std@@@std@@@std@@QEAA@AEAV?$allocator@U?$_Tree_node@IPEAX@std@@@1@PEAU?$_Tree_node@IPEAX@1@AEBI@Z ; std::_Tree_temp_node<std::allocator<std::_Tree_node<unsigned int,void *> > >::_Tree_temp_node<std::allocator<std::_Tree_node<unsigned int,void *> > ><unsigned int const &>
PUBLIC	??$addressof@PEAU?$_Tree_node@IPEAX@std@@@std@@YAPEAPEAU?$_Tree_node@IPEAX@0@AEAPEAU10@@Z ; std::addressof<std::_Tree_node<unsigned int,void *> *>
PUBLIC	??$forward@AEBQEAU?$_Tree_node@IPEAX@std@@@std@@YAAEBQEAU?$_Tree_node@IPEAX@0@AEBQEAU10@@Z ; std::forward<std::_Tree_node<unsigned int,void *> * const &>
PUBLIC	??$construct_at@PEAU?$_Tree_node@IPEAX@std@@AEBQEAU12@X@std@@YAPEAPEAU?$_Tree_node@IPEAX@0@QEAPEAU10@AEBQEAU10@@Z ; std::construct_at<std::_Tree_node<unsigned int,void *> *,std::_Tree_node<unsigned int,void *> * const &,void>
PUBLIC	??$_Voidify_iter@PEAPEAU?$_Tree_node@IPEAX@std@@@std@@YAPEAXPEAPEAU?$_Tree_node@IPEAX@0@@Z ; std::_Voidify_iter<std::_Tree_node<unsigned int,void *> * *>
PUBLIC	??$destroy_at@V?$basic_string@DU?$char_traits@D@std@@V?$allocator@D@2@@std@@@std@@YAXQEAV?$basic_string@DU?$char_traits@D@std@@V?$allocator@D@2@@0@@Z ; std::destroy_at<std::basic_string<char,std::char_traits<char>,std::allocator<char> > >
PUBLIC	??$forward@AEBU?$less@V?$basic_string@DU?$char_traits@D@std@@V?$allocator@D@2@@std@@@std@@@std@@YAAEBU?$less@V?$basic_string@DU?$char_traits@D@std@@V?$allocator@D@2@@std@@@0@AEBU10@@Z ; std::forward<std::less<std::basic_string<char,std::char_traits<char>,std::allocator<char> > > const &>
PUBLIC	??$_Construct_in_place@PEAU?$_Tree_node@V?$basic_string@DU?$char_traits@D@std@@V?$allocator@D@2@@std@@PEAX@std@@AEBQEAU12@@std@@YAXAEAPEAU?$_Tree_node@V?$basic_string@DU?$char_traits@D@std@@V?$allocator@D@2@@std@@PEAX@0@AEBQEAU10@@Z ; std::_Construct_in_place<std::_Tree_node<std::basic_string<char,std::char_traits<char>,std::allocator<char> >,void *> *,std::_Tree_node<std::basic_string<char,std::char_traits<char>,std::allocator<char> >,void *> * const &>
PUBLIC	??$addressof@I@std@@YAPEAIAEAI@Z		; std::addressof<unsigned int>
PUBLIC	??$destroy@I@?$_Default_allocator_traits@V?$allocator@U?$_Tree_node@IPEAX@std@@@std@@@std@@SAXAEAV?$allocator@U?$_Tree_node@IPEAX@std@@@1@QEAI@Z ; std::_Default_allocator_traits<std::allocator<std::_Tree_node<unsigned int,void *> > >::destroy<unsigned int>
PUBLIC	??$exchange@PEAU?$_Tree_node@IPEAX@std@@$$T@std@@YAPEAU?$_Tree_node@IPEAX@0@AEAPEAU10@$$QEA$$T@Z ; std::exchange<std::_Tree_node<unsigned int,void *> *,std::nullptr_t>
PUBLIC	??$_Get_size_of_n@$0CI@@std@@YA_K_K@Z		; std::_Get_size_of_n<40>
PUBLIC	??$?__MDU?$char_traits@D@std@@V?$allocator@D@1@@std@@YA?AUstrong_ordering@0@AEBV?$basic_string@DU?$char_traits@D@std@@V?$allocator@D@2@@0@0@Z ; std::operator<=><char,std::char_traits<char>,std::allocator<char> >
PUBLIC	??$_Get_size_of_n@$0EI@@std@@YA_K_K@Z		; std::_Get_size_of_n<72>
PUBLIC	??$_Get_size_of_n@$07@std@@YA_K_K@Z		; std::_Get_size_of_n<8>
PUBLIC	??$_Verify_range@PEBD$00@std@@YAXAEBV?$_Array_const_iterator@PEBD$00@0@0@Z ; std::_Verify_range<char const *,1>
PUBLIC	??0?$_Alloc_construct_ptr@V?$allocator@U?$_Tree_node@V?$basic_string@DU?$char_traits@D@std@@V?$allocator@D@2@@std@@PEAX@std@@@std@@@std@@QEAA@AEAV?$allocator@U?$_Tree_node@V?$basic_string@DU?$char_traits@D@std@@V?$allocator@D@2@@std@@PEAX@std@@@1@@Z ; std::_Alloc_construct_ptr<std::allocator<std::_Tree_node<std::basic_string<char,std::char_traits<char>,std::allocator<char> >,void *> > >::_Alloc_construct_ptr<std::allocator<std::_Tree_node<std::basic_string<char,std::char_traits<char>,std::allocator<char> >,void *> > >
PUBLIC	?_Release@?$_Alloc_construct_ptr@V?$allocator@U?$_Tree_node@V?$basic_string@DU?$char_traits@D@std@@V?$allocator@D@2@@std@@PEAX@std@@@std@@@std@@QEAAPEAU?$_Tree_node@V?$basic_string@DU?$char_traits@D@std@@V?$allocator@D@2@@std@@PEAX@2@XZ ; std::_Alloc_construct_ptr<std::allocator<std::_Tree_node<std::basic_string<char,std::char_traits<char>,std::allocator<char> >,void *> > >::_Release
PUBLIC	?_Allocate@?$_Alloc_construct_ptr@V?$allocator@U?$_Tree_node@V?$basic_string@DU?$char_traits@D@std@@V?$allocator@D@2@@std@@PEAX@std@@@std@@@std@@QEAAXXZ ; std::_Alloc_construct_ptr<std::allocator<std::_Tree_node<std::basic_string<char,std::char_traits<char>,std::allocator<char> >,void *> > >::_Allocate
PUBLIC	??1?$_Alloc_construct_ptr@V?$allocator@U?$_Tree_node@V?$basic_string@DU?$char_traits@D@std@@V?$allocator@D@2@@std@@PEAX@std@@@std@@@std@@QEAA@XZ ; std::_Alloc_construct_ptr<std::allocator<std::_Tree_node<std::basic_string<char,std::char_traits<char>,std::allocator<char> >,void *> > >::~_Alloc_construct_ptr<std::allocator<std::_Tree_node<std::basic_string<char,std::char_traits<char>,std::allocator<char> >,void *> > >
PUBLIC	??0?$_Tree_temp_node_alloc@V?$allocator@U?$_Tree_node@V?$basic_string@DU?$char_traits@D@std@@V?$allocator@D@2@@std@@PEAX@std@@@std@@@std@@QEAA@AEAV?$allocator@U?$_Tree_node@V?$basic_string@DU?$char_traits@D@std@@V?$allocator@D@2@@std@@PEAX@std@@@1@@Z ; std::_Tree_temp_node_alloc<std::allocator<std::_Tree_node<std::basic_string<char,std::char_traits<char>,std::allocator<char> >,void *> > >::_Tree_temp_node_alloc<std::allocator<std::_Tree_node<std::basic_string<char,std::char_traits<char>,std::allocator<char> >,void *> > >
PUBLIC	??1?$_Tree_temp_node_alloc@V?$allocator@U?$_Tree_node@V?$basic_string@DU?$char_traits@D@std@@V?$allocator@D@2@@std@@PEAX@std@@@std@@@std@@QEAA@XZ ; std::_Tree_temp_node_alloc<std::allocator<std::_Tree_node<std::basic_string<char,std::char_traits<char>,std::allocator<char> >,void *> > >::~_Tree_temp_node_alloc<std::allocator<std::_Tree_node<std::basic_string<char,std::char_traits<char>,std::allocator<char> >,void *> > >
PUBLIC	??1?$_Tree_temp_node@V?$allocator@U?$_Tree_node@V?$basic_string@DU?$char_traits@D@std@@V?$allocator@D@2@@std@@PEAX@std@@@std@@@std@@QEAA@XZ ; std::_Tree_temp_node<std::allocator<std::_Tree_node<std::basic_string<char,std::char_traits<char>,std::allocator<char> >,void *> > >::~_Tree_temp_node<std::allocator<std::_Tree_node<std::basic_string<char,std::char_traits<char>,std::allocator<char> >,void *> > >
PUBLIC	??$forward@AEBQEBD@std@@YAAEBQEBDAEBQEBD@Z	; std::forward<char const * const &>
PUBLIC	??$?0AEBQEBD@?$_Tree_temp_node@V?$allocator@U?$_Tree_node@V?$basic_string@DU?$char_traits@D@std@@V?$allocator@D@2@@std@@PEAX@std@@@std@@@std@@QEAA@AEAV?$allocator@U?$_Tree_node@V?$basic_string@DU?$char_traits@D@std@@V?$allocator@D@2@@std@@PEAX@std@@@1@PEAU?$_Tree_node@V?$basic_string@DU?$char_traits@D@std@@V?$allocator@D@2@@std@@PEAX@1@AEBQEBD@Z ; std::_Tree_temp_node<std::allocator<std::_Tree_node<std::basic_string<char,std::char_traits<char>,std::allocator<char> >,void *> > >::_Tree_temp_node<std::allocator<std::_Tree_node<std::basic_string<char,std::char_traits<char>,std::allocator<char> >,void *> > ><char const * const &>
PUBLIC	??$_Find_hint@V?$basic_string@DU?$char_traits@D@std@@V?$allocator@D@2@@std@@@?$_Tree@V?$_Tset_traits@V?$basic_string@DU?$char_traits@D@std@@V?$allocator@D@2@@std@@U?$less@V?$basic_string@DU?$char_traits@D@std@@V?$allocator@D@2@@std@@@2@V?$allocator@V?$basic_string@DU?$char_traits@D@std@@V?$allocator@D@2@@std@@@2@$0A@@std@@@std@@IEBA?AU?$_Tree_find_hint_result@PEAU?$_Tree_node@V?$basic_string@DU?$char_traits@D@std@@V?$allocator@D@2@@std@@PEAX@std@@@1@QEAU?$_Tree_node@V?$basic_string@DU?$char_traits@D@std@@V?$allocator@D@2@@std@@PEAX@1@AEBV?$basic_string@DU?$char_traits@D@std@@V?$allocator@D@2@@1@@Z ; std::_Tree<std::_Tset_traits<std::basic_string<char,std::char_traits<char>,std::allocator<char> >,std::less<std::basic_string<char,std::char_traits<char>,std::allocator<char> > >,std::allocator<std::basic_string<char,std::char_traits<char>,std::allocator<char> > >,0> >::_Find_hint<std::basic_string<char,std::char_traits<char>,std::allocator<char> > >
PUBLIC	??$_Construct_in_place@IAEAH@std@@YAXAEAIAEAH@Z	; std::_Construct_in_place<unsigned int,int &>
PUBLIC	??$addressof@UVkDeviceQueueCreateInfo@@@std@@YAPEAUVkDeviceQueueCreateInfo@@AEAU1@@Z ; std::addressof<VkDeviceQueueCreateInfo>
PUBLIC	??$construct_at@UVkDeviceQueueCreateInfo@@AEBU1@X@std@@YAPEAUVkDeviceQueueCreateInfo@@QEAU1@AEBU1@@Z ; std::construct_at<VkDeviceQueueCreateInfo,VkDeviceQueueCreateInfo const &,void>
PUBLIC	??$_Voidify_iter@PEAUVkDeviceQueueCreateInfo@@@std@@YAPEAXPEAUVkDeviceQueueCreateInfo@@@Z ; std::_Voidify_iter<VkDeviceQueueCreateInfo *>
PUBLIC	??$_Get_unwrapped@AEBQEAUVkDeviceQueueCreateInfo@@@std@@YA?A_TAEBQEAUVkDeviceQueueCreateInfo@@@Z ; std::_Get_unwrapped<VkDeviceQueueCreateInfo * const &>
PUBLIC	??$move@AEAUVkDeviceQueueCreateInfo@@@std@@YA$$QEAUVkDeviceQueueCreateInfo@@AEAU1@@Z ; std::move<VkDeviceQueueCreateInfo &>
PUBLIC	??$_Copy_memmove@PEAUVkDeviceQueueCreateInfo@@PEAU1@@std@@YAPEAUVkDeviceQueueCreateInfo@@PEAU1@00@Z ; std::_Copy_memmove<VkDeviceQueueCreateInfo *,VkDeviceQueueCreateInfo *>
PUBLIC	??0?$_Uninitialized_backout_al@V?$allocator@UVkDeviceQueueCreateInfo@@@std@@@std@@QEAA@PEAUVkDeviceQueueCreateInfo@@AEAV?$allocator@UVkDeviceQueueCreateInfo@@@1@@Z ; std::_Uninitialized_backout_al<std::allocator<VkDeviceQueueCreateInfo> >::_Uninitialized_backout_al<std::allocator<VkDeviceQueueCreateInfo> >
PUBLIC	??1?$_Uninitialized_backout_al@V?$allocator@UVkDeviceQueueCreateInfo@@@std@@@std@@QEAA@XZ ; std::_Uninitialized_backout_al<std::allocator<VkDeviceQueueCreateInfo> >::~_Uninitialized_backout_al<std::allocator<VkDeviceQueueCreateInfo> >
PUBLIC	?_Release@?$_Uninitialized_backout_al@V?$allocator@UVkDeviceQueueCreateInfo@@@std@@@std@@QEAAPEAUVkDeviceQueueCreateInfo@@XZ ; std::_Uninitialized_backout_al<std::allocator<VkDeviceQueueCreateInfo> >::_Release
PUBLIC	?__autoclassinit2@?$_Uninitialized_backout_al@V?$allocator@UVkDeviceQueueCreateInfo@@@std@@@std@@QEAAX_K@Z ; std::_Uninitialized_backout_al<std::allocator<VkDeviceQueueCreateInfo> >::__autoclassinit2
PUBLIC	??$_Emplace_back@UVkDeviceQueueCreateInfo@@@?$_Uninitialized_backout_al@V?$allocator@UVkDeviceQueueCreateInfo@@@std@@@std@@QEAAX$$QEAUVkDeviceQueueCreateInfo@@@Z ; std::_Uninitialized_backout_al<std::allocator<VkDeviceQueueCreateInfo> >::_Emplace_back<VkDeviceQueueCreateInfo>
PUBLIC	??$_Unfancy@UVkQueueFamilyProperties@@@std@@YAPEAUVkQueueFamilyProperties@@PEAU1@@Z ; std::_Unfancy<VkQueueFamilyProperties>
PUBLIC	??$construct@UVkQueueFamilyProperties@@$$V@?$_Default_allocator_traits@V?$allocator@UVkQueueFamilyProperties@@@std@@@std@@SAXAEAV?$allocator@UVkQueueFamilyProperties@@@1@QEAUVkQueueFamilyProperties@@@Z ; std::_Default_allocator_traits<std::allocator<VkQueueFamilyProperties> >::construct<VkQueueFamilyProperties>
PUBLIC	??$_Unfancy@UVkExtensionProperties@@@std@@YAPEAUVkExtensionProperties@@PEAU1@@Z ; std::_Unfancy<VkExtensionProperties>
PUBLIC	??$construct@UVkExtensionProperties@@$$V@?$_Default_allocator_traits@V?$allocator@UVkExtensionProperties@@@std@@@std@@SAXAEAV?$allocator@UVkExtensionProperties@@@1@QEAUVkExtensionProperties@@@Z ; std::_Default_allocator_traits<std::allocator<VkExtensionProperties> >::construct<VkExtensionProperties>
PUBLIC	??$_Get_unwrapped@AEBQEAW4VkPresentModeKHR@@@std@@YA?A_TAEBQEAW4VkPresentModeKHR@@@Z ; std::_Get_unwrapped<enum VkPresentModeKHR * const &>
PUBLIC	??$move@AEAW4VkPresentModeKHR@@@std@@YA$$QEAW4VkPresentModeKHR@@AEAW41@@Z ; std::move<enum VkPresentModeKHR &>
PUBLIC	??$_Copy_memmove@PEAW4VkPresentModeKHR@@PEAW41@@std@@YAPEAW4VkPresentModeKHR@@PEAW41@00@Z ; std::_Copy_memmove<enum VkPresentModeKHR *,enum VkPresentModeKHR *>
PUBLIC	??$_Emplace_back@W4VkPresentModeKHR@@@?$_Uninitialized_backout_al@V?$allocator@W4VkPresentModeKHR@@@std@@@std@@QEAAX$$QEAW4VkPresentModeKHR@@@Z ; std::_Uninitialized_backout_al<std::allocator<enum VkPresentModeKHR> >::_Emplace_back<enum VkPresentModeKHR>
PUBLIC	??$_To_address@PEAW4VkPresentModeKHR@@@std@@YA?A_PAEBQEAW4VkPresentModeKHR@@@Z ; std::_To_address<enum VkPresentModeKHR *>
PUBLIC	??$to_address@W4VkPresentModeKHR@@@std@@YAPEAW4VkPresentModeKHR@@QEAW41@@Z ; std::to_address<enum VkPresentModeKHR>
PUBLIC	??$construct@W4VkPresentModeKHR@@$$V@?$_Default_allocator_traits@V?$allocator@W4VkPresentModeKHR@@@std@@@std@@SAXAEAV?$allocator@W4VkPresentModeKHR@@@1@QEAW4VkPresentModeKHR@@@Z ; std::_Default_allocator_traits<std::allocator<enum VkPresentModeKHR> >::construct<enum VkPresentModeKHR>
PUBLIC	??$_Get_unwrapped@AEBQEAUVkSurfaceFormatKHR@@@std@@YA?A_TAEBQEAUVkSurfaceFormatKHR@@@Z ; std::_Get_unwrapped<VkSurfaceFormatKHR * const &>
PUBLIC	??$move@AEAUVkSurfaceFormatKHR@@@std@@YA$$QEAUVkSurfaceFormatKHR@@AEAU1@@Z ; std::move<VkSurfaceFormatKHR &>
PUBLIC	??$_Unfancy@UVkSurfaceFormatKHR@@@std@@YAPEAUVkSurfaceFormatKHR@@PEAU1@@Z ; std::_Unfancy<VkSurfaceFormatKHR>
PUBLIC	??$_Copy_memmove@PEAUVkSurfaceFormatKHR@@PEAU1@@std@@YAPEAUVkSurfaceFormatKHR@@PEAU1@00@Z ; std::_Copy_memmove<VkSurfaceFormatKHR *,VkSurfaceFormatKHR *>
PUBLIC	??$_Emplace_back@UVkSurfaceFormatKHR@@@?$_Uninitialized_backout_al@V?$allocator@UVkSurfaceFormatKHR@@@std@@@std@@QEAAX$$QEAUVkSurfaceFormatKHR@@@Z ; std::_Uninitialized_backout_al<std::allocator<VkSurfaceFormatKHR> >::_Emplace_back<VkSurfaceFormatKHR>
PUBLIC	??$construct@UVkSurfaceFormatKHR@@$$V@?$_Default_allocator_traits@V?$allocator@UVkSurfaceFormatKHR@@@std@@@std@@SAXAEAV?$allocator@UVkSurfaceFormatKHR@@@1@QEAUVkSurfaceFormatKHR@@@Z ; std::_Default_allocator_traits<std::allocator<VkSurfaceFormatKHR> >::construct<VkSurfaceFormatKHR>
PUBLIC	??$_Debug_lt_pred@AEBU?$less@I@std@@AEBIAEBI$0A@@std@@YA_NAEBU?$less@I@0@AEBI1@Z ; std::_Debug_lt_pred<std::less<unsigned int> const &,unsigned int const &,unsigned int const &,0>
PUBLIC	??$_Find_lower_bound@I@?$_Tree@V?$_Tset_traits@IU?$less@I@std@@V?$allocator@I@2@$0A@@std@@@std@@IEBA?AU?$_Tree_find_result@PEAU?$_Tree_node@IPEAX@std@@@1@AEBI@Z ; std::_Tree<std::_Tset_traits<unsigned int,std::less<unsigned int>,std::allocator<unsigned int>,0> >::_Find_lower_bound<unsigned int>
PUBLIC	??$_Lower_bound_duplicate@I@?$_Tree@V?$_Tset_traits@IU?$less@I@std@@V?$allocator@I@2@$0A@@std@@@std@@IEBA_NQEAU?$_Tree_node@IPEAX@1@AEBI@Z ; std::_Tree<std::_Tset_traits<unsigned int,std::less<unsigned int>,std::allocator<unsigned int>,0> >::_Lower_bound_duplicate<unsigned int>
PUBLIC	??$construct@IAEBI@?$_Default_allocator_traits@V?$allocator@U?$_Tree_node@IPEAX@std@@@std@@@std@@SAXAEAV?$allocator@U?$_Tree_node@IPEAX@std@@@1@QEAIAEBI@Z ; std::_Default_allocator_traits<std::allocator<std::_Tree_node<unsigned int,void *> > >::construct<unsigned int,unsigned int const &>
PUBLIC	??$_Construct_in_place@PEAU?$_Tree_node@IPEAX@std@@AEAPEAU12@@std@@YAXAEAPEAU?$_Tree_node@IPEAX@0@0@Z ; std::_Construct_in_place<std::_Tree_node<unsigned int,void *> *,std::_Tree_node<unsigned int,void *> * &>
PUBLIC	??$addressof@PEAU?$_Tree_node@V?$basic_string@DU?$char_traits@D@std@@V?$allocator@D@2@@std@@PEAX@std@@@std@@YAPEAPEAU?$_Tree_node@V?$basic_string@DU?$char_traits@D@std@@V?$allocator@D@2@@std@@PEAX@0@AEAPEAU10@@Z ; std::addressof<std::_Tree_node<std::basic_string<char,std::char_traits<char>,std::allocator<char> >,void *> *>
PUBLIC	??$forward@AEBQEAU?$_Tree_node@V?$basic_string@DU?$char_traits@D@std@@V?$allocator@D@2@@std@@PEAX@std@@@std@@YAAEBQEAU?$_Tree_node@V?$basic_string@DU?$char_traits@D@std@@V?$allocator@D@2@@std@@PEAX@0@AEBQEAU10@@Z ; std::forward<std::_Tree_node<std::basic_string<char,std::char_traits<char>,std::allocator<char> >,void *> * const &>
PUBLIC	??$construct_at@PEAU?$_Tree_node@V?$basic_string@DU?$char_traits@D@std@@V?$allocator@D@2@@std@@PEAX@std@@AEBQEAU12@X@std@@YAPEAPEAU?$_Tree_node@V?$basic_string@DU?$char_traits@D@std@@V?$allocator@D@2@@std@@PEAX@0@QEAPEAU10@AEBQEAU10@@Z ; std::construct_at<std::_Tree_node<std::basic_string<char,std::char_traits<char>,std::allocator<char> >,void *> *,std::_Tree_node<std::basic_string<char,std::char_traits<char>,std::allocator<char> >,void *> * const &,void>
PUBLIC	??$_Voidify_iter@PEAPEAU?$_Tree_node@V?$basic_string@DU?$char_traits@D@std@@V?$allocator@D@2@@std@@PEAX@std@@@std@@YAPEAXPEAPEAU?$_Tree_node@V?$basic_string@DU?$char_traits@D@std@@V?$allocator@D@2@@std@@PEAX@0@@Z ; std::_Voidify_iter<std::_Tree_node<std::basic_string<char,std::char_traits<char>,std::allocator<char> >,void *> * *>
PUBLIC	??$destroy_at@I@std@@YAXQEAI@Z			; std::destroy_at<unsigned int>
PUBLIC	??$exchange@PEAU?$_Tree_node@V?$basic_string@DU?$char_traits@D@std@@V?$allocator@D@2@@std@@PEAX@std@@$$T@std@@YAPEAU?$_Tree_node@V?$basic_string@DU?$char_traits@D@std@@V?$allocator@D@2@@std@@PEAX@0@AEAPEAU10@$$QEA$$T@Z ; std::exchange<std::_Tree_node<std::basic_string<char,std::char_traits<char>,std::allocator<char> >,void *> *,std::nullptr_t>
PUBLIC	??$addressof@$$CBV?$_Tree_val@U?$_Tree_simple_types@I@std@@@std@@@std@@YAPEBV?$_Tree_val@U?$_Tree_simple_types@I@std@@@0@AEBV10@@Z ; std::addressof<std::_Tree_val<std::_Tree_simple_types<unsigned int> > const >
PUBLIC	??$construct@V?$basic_string@DU?$char_traits@D@std@@V?$allocator@D@2@@std@@AEBQEBD@?$_Default_allocator_traits@V?$allocator@U?$_Tree_node@V?$basic_string@DU?$char_traits@D@std@@V?$allocator@D@2@@std@@PEAX@std@@@std@@@std@@SAXAEAV?$allocator@U?$_Tree_node@V?$basic_string@DU?$char_traits@D@std@@V?$allocator@D@2@@std@@PEAX@std@@@1@QEAV?$basic_string@DU?$char_traits@D@std@@V?$allocator@D@2@@1@AEBQEBD@Z ; std::_Default_allocator_traits<std::allocator<std::_Tree_node<std::basic_string<char,std::char_traits<char>,std::allocator<char> >,void *> > >::construct<std::basic_string<char,std::char_traits<char>,std::allocator<char> >,char const * const &>
PUBLIC	??$_Construct_in_place@PEAU?$_Tree_node@V?$basic_string@DU?$char_traits@D@std@@V?$allocator@D@2@@std@@PEAX@std@@AEAPEAU12@@std@@YAXAEAPEAU?$_Tree_node@V?$basic_string@DU?$char_traits@D@std@@V?$allocator@D@2@@std@@PEAX@0@0@Z ; std::_Construct_in_place<std::_Tree_node<std::basic_string<char,std::char_traits<char>,std::allocator<char> >,void *> *,std::_Tree_node<std::basic_string<char,std::char_traits<char>,std::allocator<char> >,void *> * &>
PUBLIC	??$_Find_lower_bound@V?$basic_string@DU?$char_traits@D@std@@V?$allocator@D@2@@std@@@?$_Tree@V?$_Tset_traits@V?$basic_string@DU?$char_traits@D@std@@V?$allocator@D@2@@std@@U?$less@V?$basic_string@DU?$char_traits@D@std@@V?$allocator@D@2@@std@@@2@V?$allocator@V?$basic_string@DU?$char_traits@D@std@@V?$allocator@D@2@@std@@@2@$0A@@std@@@std@@IEBA?AU?$_Tree_find_result@PEAU?$_Tree_node@V?$basic_string@DU?$char_traits@D@std@@V?$allocator@D@2@@std@@PEAX@std@@@1@AEBV?$basic_string@DU?$char_traits@D@std@@V?$allocator@D@2@@1@@Z ; std::_Tree<std::_Tset_traits<std::basic_string<char,std::char_traits<char>,std::allocator<char> >,std::less<std::basic_string<char,std::char_traits<char>,std::allocator<char> > >,std::allocator<std::basic_string<char,std::char_traits<char>,std::allocator<char> > >,0> >::_Find_lower_bound<std::basic_string<char,std::char_traits<char>,std::allocator<char> > >
PUBLIC	??$_Lower_bound_duplicate@V?$basic_string@DU?$char_traits@D@std@@V?$allocator@D@2@@std@@@?$_Tree@V?$_Tset_traits@V?$basic_string@DU?$char_traits@D@std@@V?$allocator@D@2@@std@@U?$less@V?$basic_string@DU?$char_traits@D@std@@V?$allocator@D@2@@std@@@2@V?$allocator@V?$basic_string@DU?$char_traits@D@std@@V?$allocator@D@2@@std@@@2@$0A@@std@@@std@@IEBA_NQEAU?$_Tree_node@V?$basic_string@DU?$char_traits@D@std@@V?$allocator@D@2@@std@@PEAX@1@AEBV?$basic_string@DU?$char_traits@D@std@@V?$allocator@D@2@@1@@Z ; std::_Tree<std::_Tset_traits<std::basic_string<char,std::char_traits<char>,std::allocator<char> >,std::less<std::basic_string<char,std::char_traits<char>,std::allocator<char> > >,std::allocator<std::basic_string<char,std::char_traits<char>,std::allocator<char> > >,0> >::_Lower_bound_duplicate<std::basic_string<char,std::char_traits<char>,std::allocator<char> > >
PUBLIC	??$construct_at@IAEAHX@std@@YAPEAIQEAIAEAH@Z	; std::construct_at<unsigned int,int &,void>
PUBLIC	??$_Voidify_iter@PEAI@std@@YAPEAXPEAI@Z		; std::_Voidify_iter<unsigned int *>
PUBLIC	??$_To_address@PEAUVkDeviceQueueCreateInfo@@@std@@YA?A_PAEBQEAUVkDeviceQueueCreateInfo@@@Z ; std::_To_address<VkDeviceQueueCreateInfo *>
PUBLIC	??$to_address@UVkDeviceQueueCreateInfo@@@std@@YAPEAUVkDeviceQueueCreateInfo@@QEAU1@@Z ; std::to_address<VkDeviceQueueCreateInfo>
PUBLIC	??$forward@UVkDeviceQueueCreateInfo@@@std@@YA$$QEAUVkDeviceQueueCreateInfo@@AEAU1@@Z ; std::forward<VkDeviceQueueCreateInfo>
PUBLIC	??$construct@UVkDeviceQueueCreateInfo@@U1@@?$_Default_allocator_traits@V?$allocator@UVkDeviceQueueCreateInfo@@@std@@@std@@SAXAEAV?$allocator@UVkDeviceQueueCreateInfo@@@1@QEAUVkDeviceQueueCreateInfo@@$$QEAU3@@Z ; std::_Default_allocator_traits<std::allocator<VkDeviceQueueCreateInfo> >::construct<VkDeviceQueueCreateInfo,VkDeviceQueueCreateInfo>
PUBLIC	??$construct_at@UVkQueueFamilyProperties@@$$VX@std@@YAPEAUVkQueueFamilyProperties@@QEAU1@@Z ; std::construct_at<VkQueueFamilyProperties,void>
PUBLIC	??$_Voidify_iter@PEAUVkQueueFamilyProperties@@@std@@YAPEAXPEAUVkQueueFamilyProperties@@@Z ; std::_Voidify_iter<VkQueueFamilyProperties *>
PUBLIC	??$construct_at@UVkExtensionProperties@@$$VX@std@@YAPEAUVkExtensionProperties@@QEAU1@@Z ; std::construct_at<VkExtensionProperties,void>
PUBLIC	??$_Voidify_iter@PEAUVkExtensionProperties@@@std@@YAPEAXPEAUVkExtensionProperties@@@Z ; std::_Voidify_iter<VkExtensionProperties *>
PUBLIC	??$forward@W4VkPresentModeKHR@@@std@@YA$$QEAW4VkPresentModeKHR@@AEAW41@@Z ; std::forward<enum VkPresentModeKHR>
PUBLIC	??$construct@W4VkPresentModeKHR@@W41@@?$_Default_allocator_traits@V?$allocator@W4VkPresentModeKHR@@@std@@@std@@SAXAEAV?$allocator@W4VkPresentModeKHR@@@1@QEAW4VkPresentModeKHR@@$$QEAW43@@Z ; std::_Default_allocator_traits<std::allocator<enum VkPresentModeKHR> >::construct<enum VkPresentModeKHR,enum VkPresentModeKHR>
PUBLIC	??$construct_at@W4VkPresentModeKHR@@$$VX@std@@YAPEAW4VkPresentModeKHR@@QEAW41@@Z ; std::construct_at<enum VkPresentModeKHR,void>
PUBLIC	??$_Voidify_iter@PEAW4VkPresentModeKHR@@@std@@YAPEAXPEAW4VkPresentModeKHR@@@Z ; std::_Voidify_iter<enum VkPresentModeKHR *>
PUBLIC	??$_To_address@PEAUVkSurfaceFormatKHR@@@std@@YA?A_PAEBQEAUVkSurfaceFormatKHR@@@Z ; std::_To_address<VkSurfaceFormatKHR *>
PUBLIC	??$to_address@UVkSurfaceFormatKHR@@@std@@YAPEAUVkSurfaceFormatKHR@@QEAU1@@Z ; std::to_address<VkSurfaceFormatKHR>
PUBLIC	??$forward@UVkSurfaceFormatKHR@@@std@@YA$$QEAUVkSurfaceFormatKHR@@AEAU1@@Z ; std::forward<VkSurfaceFormatKHR>
PUBLIC	??$construct@UVkSurfaceFormatKHR@@U1@@?$_Default_allocator_traits@V?$allocator@UVkSurfaceFormatKHR@@@std@@@std@@SAXAEAV?$allocator@UVkSurfaceFormatKHR@@@1@QEAUVkSurfaceFormatKHR@@$$QEAU3@@Z ; std::_Default_allocator_traits<std::allocator<VkSurfaceFormatKHR> >::construct<VkSurfaceFormatKHR,VkSurfaceFormatKHR>
PUBLIC	??$construct_at@UVkSurfaceFormatKHR@@$$VX@std@@YAPEAUVkSurfaceFormatKHR@@QEAU1@@Z ; std::construct_at<VkSurfaceFormatKHR,void>
PUBLIC	??$_Voidify_iter@PEAUVkSurfaceFormatKHR@@@std@@YAPEAXPEAUVkSurfaceFormatKHR@@@Z ; std::_Voidify_iter<VkSurfaceFormatKHR *>
PUBLIC	??$construct_at@IAEBIX@std@@YAPEAIQEAIAEBI@Z	; std::construct_at<unsigned int,unsigned int const &,void>
PUBLIC	??$forward@AEAPEAU?$_Tree_node@IPEAX@std@@@std@@YAAEAPEAU?$_Tree_node@IPEAX@0@AEAPEAU10@@Z ; std::forward<std::_Tree_node<unsigned int,void *> * &>
PUBLIC	??$construct_at@PEAU?$_Tree_node@IPEAX@std@@AEAPEAU12@X@std@@YAPEAPEAU?$_Tree_node@IPEAX@0@QEAPEAU10@AEAPEAU10@@Z ; std::construct_at<std::_Tree_node<unsigned int,void *> *,std::_Tree_node<unsigned int,void *> * &,void>
PUBLIC	??$construct_at@V?$basic_string@DU?$char_traits@D@std@@V?$allocator@D@2@@std@@AEBQEBDX@std@@YAPEAV?$basic_string@DU?$char_traits@D@std@@V?$allocator@D@2@@0@QEAV10@AEBQEBD@Z ; std::construct_at<std::basic_string<char,std::char_traits<char>,std::allocator<char> >,char const * const &,void>
PUBLIC	??$_Voidify_iter@PEAV?$basic_string@DU?$char_traits@D@std@@V?$allocator@D@2@@std@@@std@@YAPEAXPEAV?$basic_string@DU?$char_traits@D@std@@V?$allocator@D@2@@0@@Z ; std::_Voidify_iter<std::basic_string<char,std::char_traits<char>,std::allocator<char> > *>
PUBLIC	??$construct_at@PEAU?$_Tree_node@V?$basic_string@DU?$char_traits@D@std@@V?$allocator@D@2@@std@@PEAX@std@@AEAPEAU12@X@std@@YAPEAPEAU?$_Tree_node@V?$basic_string@DU?$char_traits@D@std@@V?$allocator@D@2@@std@@PEAX@0@QEAPEAU10@AEAPEAU10@@Z ; std::construct_at<std::_Tree_node<std::basic_string<char,std::char_traits<char>,std::allocator<char> >,void *> *,std::_Tree_node<std::basic_string<char,std::char_traits<char>,std::allocator<char> >,void *> * &,void>
PUBLIC	??$construct_at@UVkDeviceQueueCreateInfo@@U1@X@std@@YAPEAUVkDeviceQueueCreateInfo@@QEAU1@$$QEAU1@@Z ; std::construct_at<VkDeviceQueueCreateInfo,VkDeviceQueueCreateInfo,void>
PUBLIC	??$construct_at@W4VkPresentModeKHR@@W41@X@std@@YAPEAW4VkPresentModeKHR@@QEAW41@$$QEAW41@@Z ; std::construct_at<enum VkPresentModeKHR,enum VkPresentModeKHR,void>
PUBLIC	??$construct_at@UVkSurfaceFormatKHR@@U1@X@std@@YAPEAUVkSurfaceFormatKHR@@QEAU1@$$QEAU1@@Z ; std::construct_at<VkSurfaceFormatKHR,VkSurfaceFormatKHR,void>
PUBLIC	__JustMyCode_Default
PUBLIC	?less@strong_ordering@std@@2U12@B		; std::strong_ordering::less
PUBLIC	?equal@strong_ordering@std@@2U12@B		; std::strong_ordering::equal
PUBLIC	?greater@strong_ordering@std@@2U12@B		; std::strong_ordering::greater
PUBLIC	??_7exception@std@@6B@				; std::exception::`vftable'
PUBLIC	??_C@_0BC@EOODALEL@Unknown?5exception@		; `string'
PUBLIC	??_7bad_alloc@std@@6B@				; std::bad_alloc::`vftable'
PUBLIC	??_7bad_array_new_length@std@@6B@		; std::bad_array_new_length::`vftable'
PUBLIC	??_C@_0BF@KINCDENJ@bad?5array?5new?5length@	; `string'
PUBLIC	_TI3?AVbad_array_new_length@std@@
PUBLIC	_CTA3?AVbad_array_new_length@std@@
PUBLIC	??_R0?AVbad_array_new_length@std@@@8		; std::bad_array_new_length `RTTI Type Descriptor'
PUBLIC	_CT??_R0?AVbad_array_new_length@std@@@8??0bad_array_new_length@std@@QEAA@AEBV01@@Z24
PUBLIC	??_R0?AVbad_alloc@std@@@8			; std::bad_alloc `RTTI Type Descriptor'
PUBLIC	_CT??_R0?AVbad_alloc@std@@@8??0bad_alloc@std@@QEAA@AEBV01@@Z24
PUBLIC	??_R0?AVexception@std@@@8			; std::exception `RTTI Type Descriptor'
PUBLIC	_CT??_R0?AVexception@std@@@8??0exception@std@@QEAA@AEBV01@@Z24
PUBLIC	?__LINE__Var@?0??_Adjust_manually_vector_aligned@std@@YAXAEAPEAXAEA_K@Z@4JA ; `std::_Adjust_manually_vector_aligned'::`1'::__LINE__Var
PUBLIC	??_C@_0BB@FCMFBGOM@invalid?5argument@		; `string'
PUBLIC	??_C@_02DKCKIIND@?$CFs@				; `string'
PUBLIC	??_C@_0GC@DJFHHHKN@C?3?2Program?5Files?2Microsoft?5Visu@ ; `string'
PUBLIC	??_C@_1ME@GEFGDEOM@?$AAC?$AA?3?$AA?2?$AAP?$AAr?$AAo?$AAg?$AAr?$AAa?$AAm?$AA?5?$AAF?$AAi?$AAl?$AAe@ ; `string'
PUBLIC	??_C@_11LOCGONAA@@				; `string'
PUBLIC	??_C@_1CG@JNLFBNGN@?$AA?$CC?$AAi?$AAn?$AAv?$AAa?$AAl?$AAi?$AAd?$AA?5?$AAa?$AAr?$AAg?$AAu?$AAm?$AAe@ ; `string'
PUBLIC	??_C@_0BA@JFNIOLAK@string?5too?5long@		; `string'
PUBLIC	??_7runtime_error@std@@6B@			; std::runtime_error::`vftable'
PUBLIC	??_R0?AVruntime_error@std@@@8			; std::runtime_error `RTTI Type Descriptor'
PUBLIC	_CT??_R0?AVruntime_error@std@@@8??0runtime_error@std@@QEAA@AEBV01@@Z24
PUBLIC	??_C@_0BB@GCADKGJO@map?1set?5too?5long@		; `string'
PUBLIC	??_C@_0BC@LBEGNLHF@physical?5device?3?5@	; `string'
PUBLIC	_TI2?AVruntime_error@std@@
PUBLIC	_CTA2?AVruntime_error@std@@
PUBLIC	??_C@_0CJ@GBINOMED@failed?5to?5find?5a?5gpu?5with?5vulka@ ; `string'
PUBLIC	??_C@_0BB@MGNLFLJB@VK_KHR_swapchain@		; `string'
PUBLIC	??_C@_0BJ@MELMCFLN@couldn?8t?5create?5VkDevice@	; `string'
PUBLIC	??_C@_0CH@KCAJPBBC@failed?5to?5create?5descriptor?5set@ ; `string'
PUBLIC	??_C@_0CB@EFOMHENL@failed?5to?5create?5pipeline?5layou@ ; `string'
PUBLIC	??_C@_0CA@OFDPBKPC@failed?5to?5create?5pipeline?5cache@ ; `string'
PUBLIC	??_C@_0BK@CNMEHCLJ@failed?5to?5create?5pipeline@ ; `string'
PUBLIC	??_C@_0CB@BEJMLODO@failed?5to?5create?5descriptor?5poo@ ; `string'
PUBLIC	??_C@_0BO@FNDINACO@failed?5to?5create?5command?5pool@ ; `string'
PUBLIC	??_C@_0BI@OEEAHDNO@failed?5to?5create?5buffer@	; `string'
PUBLIC	??_C@_0BH@MILJPKAM@failed?5to?5create?5fence@	; `string'
PUBLIC	??_C@_0CD@DMDCDDIA@failed?5to?5allocate?5command?5buff@ ; `string'
PUBLIC	??_C@_0CD@IJGDGOLG@failed?5to?5allocate?5descriptor?5s@ ; `string'
PUBLIC	??_C@_0CB@FGHLEOJF@failed?5to?5allocate?5device?5memor@ ; `string'
PUBLIC	??_C@_0CA@MBDNILMM@couldn?8t?5find?5supported?5format?$CB@ ; `string'
PUBLIC	??_C@_0CG@LKEBOLJI@Cannot?5access?5value?5of?5empty?5op@ ; `string'
PUBLIC	??_C@_0GD@BMMLGIEI@C?3?2Program?5Files?2Microsoft?5Visu@ ; `string'
PUBLIC	??_C@_1MG@LOEFAMPE@?$AAC?$AA?3?$AA?2?$AAP?$AAr?$AAo?$AAg?$AAr?$AAa?$AAm?$AA?5?$AAF?$AAi?$AAl?$AAe@ ; `string'
PUBLIC	??_C@_1FA@DPIDPJCB@?$AA?$CC?$AAC?$AAa?$AAn?$AAn?$AAo?$AAt?$AA?5?$AAa?$AAc?$AAc?$AAe?$AAs?$AAs?$AA?5@ ; `string'
PUBLIC	??_C@_0DG@KGHKKGBC@null?5pointer?5cannot?5point?5to?5a?5@ ; `string'
PUBLIC	??_C@_1HA@FACCKGGH@?$AA?$CC?$AAn?$AAu?$AAl?$AAl?$AA?5?$AAp?$AAo?$AAi?$AAn?$AAt?$AAe?$AAr?$AA?5?$AAc@ ; `string'
PUBLIC	??_C@_0BA@FOIKENOD@vector?5too?5long@		; `string'
PUBLIC	??_C@_0BJ@HAJGEHKO@transposed?5pointer?5range@	; `string'
PUBLIC	??_C@_0GD@GLKFIMHC@C?3?2Program?5Files?2Microsoft?5Visu@ ; `string'
PUBLIC	??_C@_1MG@NOLPABAB@?$AAC?$AA?3?$AA?2?$AAP?$AAr?$AAo?$AAg?$AAr?$AAa?$AAm?$AA?5?$AAF?$AAi?$AAl?$AAe@ ; `string'
PUBLIC	??_C@_1DG@FJIKMGFD@?$AA?$CC?$AAt?$AAr?$AAa?$AAn?$AAs?$AAp?$AAo?$AAs?$AAe?$AAd?$AA?5?$AAp?$AAo?$AAi@ ; `string'
PUBLIC	??_C@_0BD@FEEMDEPI@invalid?5comparator@		; `string'
PUBLIC	??_C@_1CK@NDNHPKPI@?$AA?$CC?$AAi?$AAn?$AAv?$AAa?$AAl?$AAi?$AAd?$AA?5?$AAc?$AAo?$AAm?$AAp?$AAa?$AAr@ ; `string'
PUBLIC	??_C@_0CA@CFCBHDPG@array?5iterator?5range?5transposed@ ; `string'
PUBLIC	??_C@_0GA@LKBGKKAK@C?3?2Program?5Files?2Microsoft?5Visu@ ; `string'
PUBLIC	??_C@_1MA@HADHJGPP@?$AAC?$AA?3?$AA?2?$AAP?$AAr?$AAo?$AAg?$AAr?$AAa?$AAm?$AA?5?$AAF?$AAi?$AAl?$AAe@ ; `string'
PUBLIC	??_C@_1EE@PHOFHNMF@?$AA?$CC?$AAa?$AAr?$AAr?$AAa?$AAy?$AA?5?$AAi?$AAt?$AAe?$AAr?$AAa?$AAt?$AAo?$AAr@ ; `string'
PUBLIC	??_C@_0BN@KJMKNNDM@array?5iterators?5incompatible@ ; `string'
PUBLIC	??_C@_1DO@FPIDHOGM@?$AA?$CC?$AAa?$AAr?$AAr?$AAa?$AAy?$AA?5?$AAi?$AAt?$AAe?$AAr?$AAa?$AAt?$AAo?$AAr@ ; `string'
PUBLIC	??_R4exception@std@@6B@				; std::exception::`RTTI Complete Object Locator'
PUBLIC	??_R3exception@std@@8				; std::exception::`RTTI Class Hierarchy Descriptor'
PUBLIC	??_R2exception@std@@8				; std::exception::`RTTI Base Class Array'
PUBLIC	??_R1A@?0A@EA@exception@std@@8			; std::exception::`RTTI Base Class Descriptor at (0,-1,0,64)'
PUBLIC	??_R4bad_alloc@std@@6B@				; std::bad_alloc::`RTTI Complete Object Locator'
PUBLIC	??_R3bad_alloc@std@@8				; std::bad_alloc::`RTTI Class Hierarchy Descriptor'
PUBLIC	??_R2bad_alloc@std@@8				; std::bad_alloc::`RTTI Base Class Array'
PUBLIC	??_R1A@?0A@EA@bad_alloc@std@@8			; std::bad_alloc::`RTTI Base Class Descriptor at (0,-1,0,64)'
PUBLIC	??_R4bad_array_new_length@std@@6B@		; std::bad_array_new_length::`RTTI Complete Object Locator'
PUBLIC	??_R3bad_array_new_length@std@@8		; std::bad_array_new_length::`RTTI Class Hierarchy Descriptor'
PUBLIC	??_R2bad_array_new_length@std@@8		; std::bad_array_new_length::`RTTI Base Class Array'
PUBLIC	??_R1A@?0A@EA@bad_array_new_length@std@@8	; std::bad_array_new_length::`RTTI Base Class Descriptor at (0,-1,0,64)'
PUBLIC	??_R4runtime_error@std@@6B@			; std::runtime_error::`RTTI Complete Object Locator'
PUBLIC	??_R3runtime_error@std@@8			; std::runtime_error::`RTTI Class Hierarchy Descriptor'
PUBLIC	??_R2runtime_error@std@@8			; std::runtime_error::`RTTI Base Class Array'
PUBLIC	??_R1A@?0A@EA@runtime_error@std@@8		; std::runtime_error::`RTTI Base Class Descriptor at (0,-1,0,64)'
PUBLIC	__real@3f800000
EXTRN	??2@YAPEAX_K@Z:PROC				; operator new
EXTRN	??3@YAXPEAX@Z:PROC				; operator delete
EXTRN	??3@YAXPEAX_K@Z:PROC				; operator delete
EXTRN	__imp__invalid_parameter:PROC
EXTRN	vkGetPhysicalDeviceFeatures:PROC
EXTRN	vkGetPhysicalDeviceFormatProperties:PROC
EXTRN	vkGetPhysicalDeviceProperties:PROC
EXTRN	vkGetPhysicalDeviceQueueFamilyProperties:PROC
EXTRN	vkCreateDevice:PROC
EXTRN	vkDestroyDevice:PROC
EXTRN	vkEnumerateDeviceExtensionProperties:PROC
EXTRN	vkGetDeviceQueue:PROC
EXTRN	vkAllocateMemory:PROC
EXTRN	vkCreateFence:PROC
EXTRN	vkCreateBuffer:PROC
EXTRN	vkCreatePipelineCache:PROC
EXTRN	vkCreateComputePipelines:PROC
EXTRN	vkCreatePipelineLayout:PROC
EXTRN	vkCreateDescriptorSetLayout:PROC
EXTRN	vkCreateDescriptorPool:PROC
EXTRN	vkAllocateDescriptorSets:PROC
EXTRN	vkCreateCommandPool:PROC
EXTRN	vkDestroyCommandPool:PROC
EXTRN	vkAllocateCommandBuffers:PROC
EXTRN	vkDestroySurfaceKHR:PROC
EXTRN	vkGetPhysicalDeviceSurfaceSupportKHR:PROC
EXTRN	vkGetPhysicalDeviceSurfaceCapabilitiesKHR:PROC
EXTRN	vkGetPhysicalDeviceSurfaceFormatsKHR:PROC
EXTRN	vkGetPhysicalDeviceSurfacePresentModesKHR:PROC
EXTRN	memcpy:PROC
EXTRN	memmove:PROC
EXTRN	memset:PROC
EXTRN	__imp_free:PROC
EXTRN	__imp__CrtDbgReport:PROC
EXTRN	__imp_??0_Lockit@std@@QEAA@H@Z:PROC
EXTRN	__imp_??1_Lockit@std@@QEAA@XZ:PROC
EXTRN	?_Xlength_error@std@@YAXPEBD@Z:PROC		; std::_Xlength_error
EXTRN	??0Instance@cow@@QEAA@XZ:PROC			; cow::Instance::Instance
EXTRN	??1Instance@cow@@QEAA@XZ:PROC			; cow::Instance::~Instance
EXTRN	?enumeratePhysicalDevices@Instance@cow@@QEBA?AV?$tuple@IPEAPEAUVkPhysicalDevice_T@@@std@@XZ:PROC ; cow::Instance::enumeratePhysicalDevices
EXTRN	?uncaught_exceptions@std@@YAHXZ:PROC		; std::uncaught_exceptions
EXTRN	__std_exception_copy:PROC
EXTRN	__std_exception_destroy:PROC
EXTRN	??_Eexception@std@@UEAAPEAXI@Z:PROC		; std::exception::`vector deleting destructor'
EXTRN	??_Ebad_alloc@std@@UEAAPEAXI@Z:PROC		; std::bad_alloc::`vector deleting destructor'
EXTRN	??_Ebad_array_new_length@std@@UEAAPEAXI@Z:PROC	; std::bad_array_new_length::`vector deleting destructor'
EXTRN	??_Eruntime_error@std@@UEAAPEAXI@Z:PROC		; std::runtime_error::`vector deleting destructor'
EXTRN	?createSurface@Window@cow@@QEBAXPEAUVkInstance_T@@PEAPEAUVkSurfaceKHR_T@@@Z:PROC ; cow::Window::createSurface
EXTRN	__imp_?good@ios_base@std@@QEBA_NXZ:PROC
EXTRN	__imp_?flags@ios_base@std@@QEBAHXZ:PROC
EXTRN	__imp_?width@ios_base@std@@QEBA_JXZ:PROC
EXTRN	__imp_?width@ios_base@std@@QEAA_J_J@Z:PROC
EXTRN	__imp_?sputc@?$basic_streambuf@DU?$char_traits@D@std@@@std@@QEAAHD@Z:PROC
EXTRN	__imp_?sputn@?$basic_streambuf@DU?$char_traits@D@std@@@std@@QEAA_JPEBD_J@Z:PROC
EXTRN	__imp_?setstate@?$basic_ios@DU?$char_traits@D@std@@@std@@QEAAXH_N@Z:PROC
EXTRN	__imp_?tie@?$basic_ios@DU?$char_traits@D@std@@@std@@QEBAPEAV?$basic_ostream@DU?$char_traits@D@std@@@2@XZ:PROC
EXTRN	__imp_?rdbuf@?$basic_ios@DU?$char_traits@D@std@@@std@@QEBAPEAV?$basic_streambuf@DU?$char_traits@D@std@@@2@XZ:PROC
EXTRN	__imp_?fill@?$basic_ios@DU?$char_traits@D@std@@@std@@QEBADXZ:PROC
EXTRN	__imp_?widen@?$basic_ios@DU?$char_traits@D@std@@@std@@QEBADD@Z:PROC
EXTRN	__imp_?_Osfx@?$basic_ostream@DU?$char_traits@D@std@@@std@@QEAAXXZ:PROC
EXTRN	__imp_??6?$basic_ostream@DU?$char_traits@D@std@@@std@@QEAAAEAV01@P6AAEAV01@AEAV01@@Z@Z:PROC
EXTRN	__imp_?put@?$basic_ostream@DU?$char_traits@D@std@@@std@@QEAAAEAV12@D@Z:PROC
EXTRN	__imp_?flush@?$basic_ostream@DU?$char_traits@D@std@@@std@@QEAAAEAV12@XZ:PROC
EXTRN	_CxxThrowException:PROC
EXTRN	_RTC_CheckStackVars:PROC
EXTRN	_RTC_InitBase:PROC
EXTRN	_RTC_Shutdown:PROC
EXTRN	__CheckForDebuggerJustMyCode:PROC
EXTRN	__CxxFrameHandler4:PROC
EXTRN	__GSHandlerCheck:PROC
EXTRN	__GSHandlerCheck_EH4:PROC
EXTRN	__security_check_cookie:PROC
EXTRN	memcmp:PROC
EXTRN	??_7type_info@@6B@:BYTE				; type_info::`vftable'
EXTRN	__imp_?cout@std@@3V?$basic_ostream@DU?$char_traits@D@std@@@1@A:BYTE
EXTRN	__security_cookie:QWORD
EXTRN	_fltused:DWORD
;	COMDAT pdata
pdata	SEGMENT
$pdata$?__empty_global_delete@@YAXPEAX@Z DD imagerel $LN3
	DD	imagerel $LN3+41
	DD	imagerel $unwind$?__empty_global_delete@@YAXPEAX@Z
pdata	ENDS
;	COMDAT pdata
pdata	SEGMENT
$pdata$?__empty_global_delete@@YAXPEAX_K@Z DD imagerel $LN3
	DD	imagerel $LN3+46
	DD	imagerel $unwind$?__empty_global_delete@@YAXPEAX_K@Z
pdata	ENDS
;	COMDAT pdata
pdata	SEGMENT
$pdata$?__empty_global_delete@@YAXPEAXW4align_val_t@std@@@Z DD imagerel $LN3
	DD	imagerel $LN3+46
	DD	imagerel $unwind$?__empty_global_delete@@YAXPEAXW4align_val_t@std@@@Z
pdata	ENDS
;	COMDAT pdata
pdata	SEGMENT
$pdata$?__empty_global_delete@@YAXPEAX_KW4align_val_t@std@@@Z DD imagerel $LN3
	DD	imagerel $LN3+51
	DD	imagerel $unwind$?__empty_global_delete@@YAXPEAX_KW4align_val_t@std@@@Z
pdata	ENDS
;	COMDAT pdata
pdata	SEGMENT
$pdata$?is_constant_evaluated@std@@YA_NXZ DD imagerel $LN3
	DD	imagerel $LN3+39
	DD	imagerel $unwind$?is_constant_evaluated@std@@YA_NXZ
pdata	ENDS
;	COMDAT pdata
pdata	SEGMENT
$pdata$?max@?$numeric_limits@_J@std@@SA_JXZ DD imagerel $LN3
	DD	imagerel $LN3+47
	DD	imagerel $unwind$?max@?$numeric_limits@_J@std@@SA_JXZ
pdata	ENDS
;	COMDAT pdata
pdata	SEGMENT
$pdata$??2@YAPEAX_KPEAX@Z DD imagerel $LN3
	DD	imagerel $LN3+53
	DD	imagerel $unwind$??2@YAPEAX_KPEAX@Z
pdata	ENDS
;	COMDAT pdata
pdata	SEGMENT
$pdata$??Mstd@@YA_NUstrong_ordering@0@$$T@Z DD imagerel $LN5
	DD	imagerel $LN5+85
	DD	imagerel $unwind$??Mstd@@YA_NUstrong_ordering@0@$$T@Z
pdata	ENDS
;	COMDAT pdata
pdata	SEGMENT
$pdata$??Nstd@@YA_NUstrong_ordering@0@$$T@Z DD imagerel $LN5
	DD	imagerel $LN5+85
	DD	imagerel $unwind$??Nstd@@YA_NUstrong_ordering@0@$$T@Z
pdata	ENDS
;	COMDAT pdata
pdata	SEGMENT
$pdata$?get@Instance@cow@@QEBAPEAUVkInstance_T@@XZ DD imagerel $LN3
	DD	imagerel $LN3+51
	DD	imagerel $unwind$?get@Instance@cow@@QEBAPEAUVkInstance_T@@XZ
pdata	ENDS
;	COMDAT pdata
pdata	SEGMENT
$pdata$??0exception@std@@QEAA@QEBD@Z DD imagerel $LN3
	DD	imagerel $LN3+210
	DD	imagerel $unwind$??0exception@std@@QEAA@QEBD@Z
pdata	ENDS
;	COMDAT pdata
pdata	SEGMENT
$pdata$??0exception@std@@QEAA@QEBDH@Z DD imagerel $LN3
	DD	imagerel $LN3+116
	DD	imagerel $unwind$??0exception@std@@QEAA@QEBDH@Z
pdata	ENDS
;	COMDAT pdata
pdata	SEGMENT
$pdata$??0exception@std@@QEAA@AEBV01@@Z DD imagerel $LN3
	DD	imagerel $LN3+123
	DD	imagerel $unwind$??0exception@std@@QEAA@AEBV01@@Z
pdata	ENDS
;	COMDAT pdata
pdata	SEGMENT
$pdata$??1exception@std@@UEAA@XZ DD imagerel $LN3
	DD	imagerel $LN3+77
	DD	imagerel $unwind$??1exception@std@@UEAA@XZ
pdata	ENDS
;	COMDAT pdata
pdata	SEGMENT
$pdata$?what@exception@std@@UEBAPEBDXZ DD imagerel $LN5
	DD	imagerel $LN5+96
	DD	imagerel $unwind$?what@exception@std@@UEBAPEBDXZ
pdata	ENDS
;	COMDAT pdata
pdata	SEGMENT
$pdata$??_Gexception@std@@UEAAPEAXI@Z DD imagerel $LN4
	DD	imagerel $LN4+82
	DD	imagerel $unwind$??_Gexception@std@@UEAAPEAXI@Z
pdata	ENDS
;	COMDAT pdata
pdata	SEGMENT
$pdata$??0bad_alloc@std@@AEAA@QEBD@Z DD imagerel $LN3
	DD	imagerel $LN3+95
	DD	imagerel $unwind$??0bad_alloc@std@@AEAA@QEBD@Z
pdata	ENDS
;	COMDAT pdata
pdata	SEGMENT
$pdata$??1bad_alloc@std@@UEAA@XZ DD imagerel $LN3
	DD	imagerel $LN3+41
	DD	imagerel $unwind$??1bad_alloc@std@@UEAA@XZ
pdata	ENDS
;	COMDAT pdata
pdata	SEGMENT
$pdata$??0bad_alloc@std@@QEAA@AEBV01@@Z DD imagerel $LN3
	DD	imagerel $LN3+77
	DD	imagerel $unwind$??0bad_alloc@std@@QEAA@AEBV01@@Z
pdata	ENDS
;	COMDAT pdata
pdata	SEGMENT
$pdata$??_Gbad_alloc@std@@UEAAPEAXI@Z DD imagerel $LN4
	DD	imagerel $LN4+82
	DD	imagerel $unwind$??_Gbad_alloc@std@@UEAAPEAXI@Z
pdata	ENDS
;	COMDAT pdata
pdata	SEGMENT
$pdata$??0bad_array_new_length@std@@QEAA@XZ DD imagerel $LN3
	DD	imagerel $LN3+84
	DD	imagerel $unwind$??0bad_array_new_length@std@@QEAA@XZ
pdata	ENDS
;	COMDAT pdata
pdata	SEGMENT
$pdata$??1bad_array_new_length@std@@UEAA@XZ DD imagerel $LN3
	DD	imagerel $LN3+41
	DD	imagerel $unwind$??1bad_array_new_length@std@@UEAA@XZ
pdata	ENDS
;	COMDAT pdata
pdata	SEGMENT
$pdata$??0bad_array_new_length@std@@QEAA@AEBV01@@Z DD imagerel $LN3
	DD	imagerel $LN3+77
	DD	imagerel $unwind$??0bad_array_new_length@std@@QEAA@AEBV01@@Z
pdata	ENDS
;	COMDAT pdata
pdata	SEGMENT
$pdata$??_Gbad_array_new_length@std@@UEAAPEAXI@Z DD imagerel $LN4
	DD	imagerel $LN4+82
	DD	imagerel $unwind$??_Gbad_array_new_length@std@@UEAAPEAXI@Z
pdata	ENDS
;	COMDAT pdata
pdata	SEGMENT
$pdata$?_Throw_bad_array_new_length@std@@YAXXZ DD imagerel $LN3
	DD	imagerel $LN3+68
	DD	imagerel $unwind$?_Throw_bad_array_new_length@std@@YAXXZ
pdata	ENDS
;	COMDAT pdata
pdata	SEGMENT
$pdata$?_Allocate@_Default_allocate_traits@std@@SAPEAX_K@Z DD imagerel $LN3
	DD	imagerel $LN3+53
	DD	imagerel $unwind$?_Allocate@_Default_allocate_traits@std@@SAPEAX_K@Z
pdata	ENDS
;	COMDAT pdata
pdata	SEGMENT
$pdata$?_Adjust_manually_vector_aligned@std@@YAXAEAPEAXAEA_K@Z DD imagerel $LN21
	DD	imagerel $LN21+453
	DD	imagerel $unwind$?_Adjust_manually_vector_aligned@std@@YAXAEAPEAXAEA_K@Z
pdata	ENDS
;	COMDAT pdata
pdata	SEGMENT
$pdata$?_Adopt@_Iterator_base0@std@@QEAAXPEBX@Z DD imagerel $LN3
	DD	imagerel $LN3+46
	DD	imagerel $unwind$?_Adopt@_Iterator_base0@std@@QEAAXPEBX@Z
pdata	ENDS
;	COMDAT pdata
pdata	SEGMENT
$pdata$??0_Container_proxy@std@@QEAA@PEAU_Container_base12@1@@Z DD imagerel $LN3
	DD	imagerel $LN3+85
	DD	imagerel $unwind$??0_Container_proxy@std@@QEAA@PEAU_Container_base12@1@@Z
pdata	ENDS
;	COMDAT pdata
pdata	SEGMENT
$pdata$??0_Container_base12@std@@QEAA@XZ DD imagerel $LN3
	DD	imagerel $LN3+62
	DD	imagerel $unwind$??0_Container_base12@std@@QEAA@XZ
pdata	ENDS
;	COMDAT pdata
pdata	SEGMENT
$pdata$?_Orphan_all@_Container_base12@std@@QEAAXXZ DD imagerel $LN5
	DD	imagerel $LN5+79
	DD	imagerel $unwind$?_Orphan_all@_Container_base12@std@@QEAAXXZ
pdata	ENDS
;	COMDAT pdata
pdata	SEGMENT
$pdata$?_Swap_proxy_and_iterators@_Container_base12@std@@QEAAXAEAU12@@Z DD imagerel $LN5
	DD	imagerel $LN5+98
	DD	imagerel $unwind$?_Swap_proxy_and_iterators@_Container_base12@std@@QEAAXAEAU12@@Z
pdata	ENDS
;	COMDAT pdata
pdata	SEGMENT
$pdata$?_Orphan_all_unlocked_v3@_Container_base12@std@@AEAAXXZ DD imagerel $LN7
	DD	imagerel $LN7+138
	DD	imagerel $unwind$?_Orphan_all_unlocked_v3@_Container_base12@std@@AEAAXXZ
pdata	ENDS
;	COMDAT pdata
pdata	SEGMENT
$pdata$?_Swap_proxy_and_iterators_unlocked@_Container_base12@std@@AEAAXAEAU12@@Z DD imagerel $LN5
	DD	imagerel $LN5+160
	DD	imagerel $unwind$?_Swap_proxy_and_iterators_unlocked@_Container_base12@std@@AEAAXAEAU12@@Z
pdata	ENDS
;	COMDAT pdata
pdata	SEGMENT
$pdata$?_Orphan_all_locked_v3@_Container_base12@std@@AEAAXXZ DD imagerel $LN3
	DD	imagerel $LN3+151
	DD	imagerel $unwind$?_Orphan_all_locked_v3@_Container_base12@std@@AEAAXXZ
pdata	ENDS
;	COMDAT pdata
pdata	SEGMENT
$pdata$?_Swap_proxy_and_iterators_locked@_Container_base12@std@@AEAAXAEAU12@@Z DD imagerel $LN3
	DD	imagerel $LN3+163
	DD	imagerel $unwind$?_Swap_proxy_and_iterators_locked@_Container_base12@std@@AEAAXAEAU12@@Z
pdata	ENDS
;	COMDAT pdata
pdata	SEGMENT
$pdata$?_Release@_Basic_container_proxy_ptr12@std@@QEAAXXZ DD imagerel $LN3
	DD	imagerel $LN3+55
	DD	imagerel $unwind$?_Release@_Basic_container_proxy_ptr12@std@@QEAAXXZ
pdata	ENDS
;	COMDAT pdata
pdata	SEGMENT
$pdata$??0_Basic_container_proxy_ptr12@std@@IEAA@XZ DD imagerel $LN3
	DD	imagerel $LN3+62
	DD	imagerel $unwind$??0_Basic_container_proxy_ptr12@std@@IEAA@XZ
pdata	ENDS
;	COMDAT pdata
pdata	SEGMENT
$pdata$??$addressof@U_Container_base12@std@@@std@@YAPEAU_Container_base12@0@AEAU10@@Z DD imagerel $LN3
	DD	imagerel $LN3+48
	DD	imagerel $unwind$??$addressof@U_Container_base12@std@@@std@@YAPEAU_Container_base12@0@AEAU10@@Z
pdata	ENDS
;	COMDAT pdata
pdata	SEGMENT
$pdata$??$_Construct_in_place@U_Container_proxy@std@@PEAU_Container_base12@2@@std@@YAXAEAU_Container_proxy@0@$$QEAPEAU_Container_base12@0@@Z DD imagerel $LN5
	DD	imagerel $LN5+198
	DD	imagerel $unwind$??$_Construct_in_place@U_Container_proxy@std@@PEAU_Container_base12@2@@std@@YAXAEAU_Container_proxy@0@$$QEAPEAU_Container_base12@0@@Z
pdata	ENDS
;	COMDAT pdata
pdata	SEGMENT
$pdata$?copy@?$_Char_traits@DH@std@@SAPEADQEADQEBD_K@Z DD imagerel $LN7
	DD	imagerel $LN7+180
	DD	imagerel $unwind$?copy@?$_Char_traits@DH@std@@SAPEADQEADQEBD_K@Z
pdata	ENDS
;	COMDAT pdata
pdata	SEGMENT
$pdata$?move@?$_Char_traits@DH@std@@SAPEADQEADQEBD_K@Z DD imagerel $LN16
	DD	imagerel $LN16+343
	DD	imagerel $unwind$?move@?$_Char_traits@DH@std@@SAPEADQEADQEBD_K@Z
pdata	ENDS
;	COMDAT pdata
pdata	SEGMENT
$pdata$?assign@?$_Char_traits@DH@std@@SAPEADQEAD_KD@Z DD imagerel $LN11
	DD	imagerel $LN11+207
	DD	imagerel $unwind$?assign@?$_Char_traits@DH@std@@SAPEADQEAD_KD@Z
pdata	ENDS
;	COMDAT pdata
pdata	SEGMENT
$pdata$?assign@?$_Char_traits@DH@std@@SAXAEADAEBD@Z DD imagerel $LN5
	DD	imagerel $LN5+106
	DD	imagerel $unwind$?assign@?$_Char_traits@DH@std@@SAXAEADAEBD@Z
pdata	ENDS
;	COMDAT pdata
pdata	SEGMENT
$pdata$?compare@?$_Narrow_char_traits@DH@std@@SAHQEBD0_K@Z DD imagerel $LN3
	DD	imagerel $LN3+77
	DD	imagerel $unwind$?compare@?$_Narrow_char_traits@DH@std@@SAHQEBD0_K@Z
pdata	ENDS
;	COMDAT pdata
pdata	SEGMENT
$pdata$?length@?$_Narrow_char_traits@DH@std@@SA_KQEBD@Z DD imagerel $LN4
	DD	imagerel $LN4+100
	DD	imagerel $unwind$?length@?$_Narrow_char_traits@DH@std@@SA_KQEBD@Z
pdata	ENDS
;	COMDAT pdata
pdata	SEGMENT
$pdata$?assign@?$_Narrow_char_traits@DH@std@@SAPEADQEAD_KD@Z DD imagerel $LN4
	DD	imagerel $LN4+120
	DD	imagerel $unwind$?assign@?$_Narrow_char_traits@DH@std@@SAPEADQEAD_KD@Z
pdata	ENDS
;	COMDAT pdata
pdata	SEGMENT
$pdata$?assign@?$_Narrow_char_traits@DH@std@@SAXAEADAEBD@Z DD imagerel $LN4
	DD	imagerel $LN4+98
	DD	imagerel $unwind$?assign@?$_Narrow_char_traits@DH@std@@SAXAEADAEBD@Z
pdata	ENDS
;	COMDAT pdata
pdata	SEGMENT
$pdata$?eq_int_type@?$_Narrow_char_traits@DH@std@@SA_NAEBH0@Z DD imagerel $LN5
	DD	imagerel $LN5+95
	DD	imagerel $unwind$?eq_int_type@?$_Narrow_char_traits@DH@std@@SA_NAEBH0@Z
pdata	ENDS
;	COMDAT pdata
pdata	SEGMENT
$pdata$?eof@?$_Narrow_char_traits@DH@std@@SAHXZ DD imagerel $LN3
	DD	imagerel $LN3+42
	DD	imagerel $unwind$?eof@?$_Narrow_char_traits@DH@std@@SAHXZ
pdata	ENDS
;	COMDAT pdata
pdata	SEGMENT
$pdata$?_Xlen_string@std@@YAXXZ DD imagerel $LN3
	DD	imagerel $LN3+49
	DD	imagerel $unwind$?_Xlen_string@std@@YAXXZ
pdata	ENDS
;	COMDAT pdata
pdata	SEGMENT
$pdata$??0?$allocator@D@std@@QEAA@XZ DD imagerel $LN3
	DD	imagerel $LN3+48
	DD	imagerel $unwind$??0?$allocator@D@std@@QEAA@XZ
pdata	ENDS
;	COMDAT pdata
pdata	SEGMENT
$pdata$?deallocate@?$allocator@D@std@@QEAAXQEAD_K@Z DD imagerel $LN13
	DD	imagerel $LN13+209
	DD	imagerel $unwind$?deallocate@?$allocator@D@std@@QEAAXQEAD_K@Z
pdata	ENDS
;	COMDAT pdata
pdata	SEGMENT
$pdata$?allocate@?$allocator@D@std@@QEAAPEAD_K@Z DD imagerel $LN3
	DD	imagerel $LN3+66
	DD	imagerel $unwind$?allocate@?$allocator@D@std@@QEAAPEAD_K@Z
pdata	ENDS
;	COMDAT pdata
pdata	SEGMENT
$pdata$?max_size@?$_Default_allocator_traits@V?$allocator@D@std@@@std@@SA_KAEBV?$allocator@D@2@@Z DD imagerel $LN3
	DD	imagerel $LN3+48
	DD	imagerel $unwind$?max_size@?$_Default_allocator_traits@V?$allocator@D@std@@@std@@SA_KAEBV?$allocator@D@2@@Z
pdata	ENDS
;	COMDAT pdata
pdata	SEGMENT
$pdata$??0?$_String_val@U?$_Simple_types@D@std@@@std@@QEAA@XZ DD imagerel $LN3
	DD	imagerel $LN3+109
	DD	imagerel $unwind$??0?$_String_val@U?$_Simple_types@D@std@@@std@@QEAA@XZ
pdata	ENDS
;	COMDAT pdata
pdata	SEGMENT
$pdata$?_Myptr@?$_String_val@U?$_Simple_types@D@std@@@std@@QEAAPEADXZ DD imagerel $LN4
	DD	imagerel $LN4+99
	DD	imagerel $unwind$?_Myptr@?$_String_val@U?$_Simple_types@D@std@@@std@@QEAAPEADXZ
pdata	ENDS
;	COMDAT pdata
pdata	SEGMENT
$pdata$?_Myptr@?$_String_val@U?$_Simple_types@D@std@@@std@@QEBAPEBDXZ DD imagerel $LN4
	DD	imagerel $LN4+99
	DD	imagerel $unwind$?_Myptr@?$_String_val@U?$_Simple_types@D@std@@@std@@QEBAPEBDXZ
pdata	ENDS
;	COMDAT pdata
pdata	SEGMENT
$pdata$?_Large_string_engaged@?$_String_val@U?$_Simple_types@D@std@@@std@@QEBA_NXZ DD imagerel $LN6
	DD	imagerel $LN6+100
	DD	imagerel $unwind$?_Large_string_engaged@?$_String_val@U?$_Simple_types@D@std@@@std@@QEBA_NXZ
pdata	ENDS
;	COMDAT pdata
pdata	SEGMENT
$pdata$??0_Bxty@?$_String_val@U?$_Simple_types@D@std@@@std@@QEAA@XZ DD imagerel $LN3
	DD	imagerel $LN3+62
	DD	imagerel $unwind$??0_Bxty@?$_String_val@U?$_Simple_types@D@std@@@std@@QEAA@XZ
pdata	ENDS
;	COMDAT pdata
pdata	SEGMENT
$pdata$??1_Bxty@?$_String_val@U?$_Simple_types@D@std@@@std@@QEAA@XZ DD imagerel $LN3
	DD	imagerel $LN3+41
	DD	imagerel $unwind$??1_Bxty@?$_String_val@U?$_Simple_types@D@std@@@std@@QEAA@XZ
pdata	ENDS
;	COMDAT pdata
pdata	SEGMENT
$pdata$??1?$_String_val@U?$_Simple_types@D@std@@@std@@QEAA@XZ DD imagerel $LN3
	DD	imagerel $LN3+48
	DD	imagerel $unwind$??1?$_String_val@U?$_Simple_types@D@std@@@std@@QEAA@XZ
pdata	ENDS
;	COMDAT pdata
pdata	SEGMENT
$pdata$??0?$basic_string@DU?$char_traits@D@std@@V?$allocator@D@2@@std@@QEAA@QEBD@Z DD imagerel $LN5
	DD	imagerel $LN5+273
	DD	imagerel $unwind$??0?$basic_string@DU?$char_traits@D@std@@V?$allocator@D@2@@std@@QEAA@QEBD@Z
pdata	ENDS
;	COMDAT pdata
pdata	SEGMENT
$pdata$?dtor$0@?0???0?$basic_string@DU?$char_traits@D@std@@V?$allocator@D@2@@std@@QEAA@QEBD@Z@4HA DD imagerel ?dtor$0@?0???0?$basic_string@DU?$char_traits@D@std@@V?$allocator@D@2@@std@@QEAA@QEBD@Z@4HA
	DD	imagerel ?dtor$0@?0???0?$basic_string@DU?$char_traits@D@std@@V?$allocator@D@2@@std@@QEAA@QEBD@Z@4HA+39
	DD	imagerel $unwind$?dtor$0@?0???0?$basic_string@DU?$char_traits@D@std@@V?$allocator@D@2@@std@@QEAA@QEBD@Z@4HA
pdata	ENDS
;	COMDAT pdata
pdata	SEGMENT
$pdata$?dtor$1@?0???0?$basic_string@DU?$char_traits@D@std@@V?$allocator@D@2@@std@@QEAA@QEBD@Z@4HA DD imagerel ?dtor$1@?0???0?$basic_string@DU?$char_traits@D@std@@V?$allocator@D@2@@std@@QEAA@QEBD@Z@4HA
	DD	imagerel ?dtor$1@?0???0?$basic_string@DU?$char_traits@D@std@@V?$allocator@D@2@@std@@QEAA@QEBD@Z@4HA+36
	DD	imagerel $unwind$?dtor$1@?0???0?$basic_string@DU?$char_traits@D@std@@V?$allocator@D@2@@std@@QEAA@QEBD@Z@4HA
pdata	ENDS
;	COMDAT pdata
pdata	SEGMENT
$pdata$??1?$basic_string@DU?$char_traits@D@std@@V?$allocator@D@2@@std@@QEAA@XZ DD imagerel $LN3
	DD	imagerel $LN3+214
	DD	imagerel $unwind$??1?$basic_string@DU?$char_traits@D@std@@V?$allocator@D@2@@std@@QEAA@XZ
pdata	ENDS
;	COMDAT pdata
pdata	SEGMENT
$pdata$?assign@?$basic_string@DU?$char_traits@D@std@@V?$allocator@D@2@@std@@QEAAAEAV12@QEBD_K@Z DD imagerel $LN4
	DD	imagerel $LN4+213
	DD	imagerel $unwind$?assign@?$basic_string@DU?$char_traits@D@std@@V?$allocator@D@2@@std@@QEAAAEAV12@QEBD_K@Z
pdata	ENDS
;	COMDAT pdata
pdata	SEGMENT
$pdata$?assign@?$basic_string@DU?$char_traits@D@std@@V?$allocator@D@2@@std@@QEAAAEAV12@QEBD@Z DD imagerel $LN3
	DD	imagerel $LN3+88
	DD	imagerel $unwind$?assign@?$basic_string@DU?$char_traits@D@std@@V?$allocator@D@2@@std@@QEAAAEAV12@QEBD@Z
pdata	ENDS
;	COMDAT pdata
pdata	SEGMENT
$pdata$?max_size@?$basic_string@DU?$char_traits@D@std@@V?$allocator@D@2@@std@@QEBA_KXZ DD imagerel $LN3
	DD	imagerel $LN3+226
	DD	imagerel $unwind$?max_size@?$basic_string@DU?$char_traits@D@std@@V?$allocator@D@2@@std@@QEBA_KXZ
pdata	ENDS
;	COMDAT pdata
pdata	SEGMENT
$pdata$?compare@?$basic_string@DU?$char_traits@D@std@@V?$allocator@D@2@@std@@QEBAHAEBV12@@Z DD imagerel $LN3
	DD	imagerel $LN3+159
	DD	imagerel $unwind$?compare@?$basic_string@DU?$char_traits@D@std@@V?$allocator@D@2@@std@@QEBAHAEBV12@@Z
pdata	ENDS
;	COMDAT pdata
pdata	SEGMENT
$pdata$?_Calculate_growth@?$basic_string@DU?$char_traits@D@std@@V?$allocator@D@2@@std@@CA_K_K00@Z DD imagerel $LN5
	DD	imagerel $LN5+271
	DD	imagerel $unwind$?_Calculate_growth@?$basic_string@DU?$char_traits@D@std@@V?$allocator@D@2@@std@@CA_K_K00@Z
pdata	ENDS
;	COMDAT pdata
pdata	SEGMENT
$pdata$?_Calculate_growth@?$basic_string@DU?$char_traits@D@std@@V?$allocator@D@2@@std@@AEBA_K_K@Z DD imagerel $LN3
	DD	imagerel $LN3+109
	DD	imagerel $unwind$?_Calculate_growth@?$basic_string@DU?$char_traits@D@std@@V?$allocator@D@2@@std@@AEBA_K_K@Z
pdata	ENDS
;	COMDAT pdata
pdata	SEGMENT
$pdata$?_Tidy_init@?$basic_string@DU?$char_traits@D@std@@V?$allocator@D@2@@std@@AEAAXXZ DD imagerel $LN5
	DD	imagerel $LN5+219
	DD	imagerel $unwind$?_Tidy_init@?$basic_string@DU?$char_traits@D@std@@V?$allocator@D@2@@std@@AEAAXXZ
pdata	ENDS
;	COMDAT pdata
pdata	SEGMENT
$pdata$?_Tidy_deallocate@?$basic_string@DU?$char_traits@D@std@@V?$allocator@D@2@@std@@AEAAXXZ DD imagerel $LN6
	DD	imagerel $LN6+291
	DD	imagerel $unwind$?_Tidy_deallocate@?$basic_string@DU?$char_traits@D@std@@V?$allocator@D@2@@std@@AEAAXXZ
pdata	ENDS
;	COMDAT pdata
pdata	SEGMENT
$pdata$?_Getal@?$basic_string@DU?$char_traits@D@std@@V?$allocator@D@2@@std@@AEAAAEAV?$allocator@D@2@XZ DD imagerel $LN3
	DD	imagerel $LN3+56
	DD	imagerel $unwind$?_Getal@?$basic_string@DU?$char_traits@D@std@@V?$allocator@D@2@@std@@AEAAAEAV?$allocator@D@2@XZ
pdata	ENDS
;	COMDAT pdata
pdata	SEGMENT
$pdata$?_Getal@?$basic_string@DU?$char_traits@D@std@@V?$allocator@D@2@@std@@AEBAAEBV?$allocator@D@2@XZ DD imagerel $LN3
	DD	imagerel $LN3+56
	DD	imagerel $unwind$?_Getal@?$basic_string@DU?$char_traits@D@std@@V?$allocator@D@2@@std@@AEBAAEBV?$allocator@D@2@XZ
pdata	ENDS
;	COMDAT pdata
pdata	SEGMENT
$pdata$?_Get_first@?$_Compressed_pair@V?$allocator@D@std@@V?$_String_val@U?$_Simple_types@D@std@@@2@$00@std@@QEAAAEAV?$allocator@D@2@XZ DD imagerel $LN3
	DD	imagerel $LN3+48
	DD	imagerel $unwind$?_Get_first@?$_Compressed_pair@V?$allocator@D@std@@V?$_String_val@U?$_Simple_types@D@std@@@2@$00@std@@QEAAAEAV?$allocator@D@2@XZ
pdata	ENDS
;	COMDAT pdata
pdata	SEGMENT
$pdata$?_Get_first@?$_Compressed_pair@V?$allocator@D@std@@V?$_String_val@U?$_Simple_types@D@std@@@2@$00@std@@QEBAAEBV?$allocator@D@2@XZ DD imagerel $LN3
	DD	imagerel $LN3+48
	DD	imagerel $unwind$?_Get_first@?$_Compressed_pair@V?$allocator@D@std@@V?$_String_val@U?$_Simple_types@D@std@@@2@$00@std@@QEBAAEBV?$allocator@D@2@XZ
pdata	ENDS
;	COMDAT pdata
pdata	SEGMENT
$pdata$??1?$_Compressed_pair@V?$allocator@D@std@@V?$_String_val@U?$_Simple_types@D@std@@@2@$00@std@@QEAA@XZ DD imagerel $LN3
	DD	imagerel $LN3+44
	DD	imagerel $unwind$??1?$_Compressed_pair@V?$allocator@D@std@@V?$_String_val@U?$_Simple_types@D@std@@@2@$00@std@@QEAA@XZ
pdata	ENDS
;	COMDAT pdata
pdata	SEGMENT
$pdata$??_G?$basic_string@DU?$char_traits@D@std@@V?$allocator@D@2@@std@@QEAAPEAXI@Z DD imagerel $LN4
	DD	imagerel $LN4+82
	DD	imagerel $unwind$??_G?$basic_string@DU?$char_traits@D@std@@V?$allocator@D@2@@std@@QEAAPEAXI@Z
pdata	ENDS
;	COMDAT pdata
pdata	SEGMENT
$pdata$??0runtime_error@std@@QEAA@PEBD@Z DD imagerel $LN4
	DD	imagerel $LN4+89
	DD	imagerel $unwind$??0runtime_error@std@@QEAA@PEBD@Z
pdata	ENDS
;	COMDAT pdata
pdata	SEGMENT
$pdata$??1runtime_error@std@@UEAA@XZ DD imagerel $LN3
	DD	imagerel $LN3+41
	DD	imagerel $unwind$??1runtime_error@std@@UEAA@XZ
pdata	ENDS
;	COMDAT pdata
pdata	SEGMENT
$pdata$??0runtime_error@std@@QEAA@AEBV01@@Z DD imagerel $LN3
	DD	imagerel $LN3+77
	DD	imagerel $unwind$??0runtime_error@std@@QEAA@AEBV01@@Z
pdata	ENDS
;	COMDAT pdata
pdata	SEGMENT
$pdata$??_Gruntime_error@std@@UEAAPEAXI@Z DD imagerel $LN4
	DD	imagerel $LN4+82
	DD	imagerel $unwind$??_Gruntime_error@std@@UEAAPEAXI@Z
pdata	ENDS
;	COMDAT pdata
pdata	SEGMENT
$pdata$??0_Nontrivial_dummy_type@std@@QEAA@XZ DD imagerel $LN3
	DD	imagerel $LN3+48
	DD	imagerel $unwind$??0_Nontrivial_dummy_type@std@@QEAA@XZ
pdata	ENDS
;	COMDAT pdata
pdata	SEGMENT
$pdata$??0?$_Optional_destruct_base@I$00@std@@QEAA@XZ DD imagerel $LN3
	DD	imagerel $LN3+74
	DD	imagerel $unwind$??0?$_Optional_destruct_base@I$00@std@@QEAA@XZ
pdata	ENDS
;	COMDAT pdata
pdata	SEGMENT
$pdata$??D?$_Optional_construct_base@I@std@@QEGAAAEAIXZ DD imagerel $LN12
	DD	imagerel $LN12+182
	DD	imagerel $unwind$??D?$_Optional_construct_base@I@std@@QEGAAAEAIXZ
pdata	ENDS
;	COMDAT pdata
pdata	SEGMENT
$pdata$??0?$_Optional_construct_base@I@std@@QEAA@XZ DD imagerel $LN3
	DD	imagerel $LN3+48
	DD	imagerel $unwind$??0?$_Optional_construct_base@I@std@@QEAA@XZ
pdata	ENDS
;	COMDAT pdata
pdata	SEGMENT
$pdata$??0?$optional@I@std@@QEAA@XZ DD imagerel $LN3
	DD	imagerel $LN3+60
	DD	imagerel $unwind$??0?$optional@I@std@@QEAA@XZ
pdata	ENDS
;	COMDAT pdata
pdata	SEGMENT
$pdata$?has_value@?$optional@I@std@@QEBA_NXZ DD imagerel $LN3
	DD	imagerel $LN3+52
	DD	imagerel $unwind$?has_value@?$optional@I@std@@QEBA_NXZ
pdata	ENDS
;	COMDAT pdata
pdata	SEGMENT
$pdata$?isComplete@QueueInUse@cow@@QEAA_NXZ DD imagerel $LN5
	DD	imagerel $LN5+118
	DD	imagerel $unwind$?isComplete@QueueInUse@cow@@QEAA_NXZ
pdata	ENDS
;	COMDAT pdata
pdata	SEGMENT
$pdata$??0?$allocator@UVkSurfaceFormatKHR@@@std@@QEAA@XZ DD imagerel $LN3
	DD	imagerel $LN3+48
	DD	imagerel $unwind$??0?$allocator@UVkSurfaceFormatKHR@@@std@@QEAA@XZ
pdata	ENDS
;	COMDAT pdata
pdata	SEGMENT
$pdata$?deallocate@?$allocator@UVkSurfaceFormatKHR@@@std@@QEAAXQEAUVkSurfaceFormatKHR@@_K@Z DD imagerel $LN13
	DD	imagerel $LN13+216
	DD	imagerel $unwind$?deallocate@?$allocator@UVkSurfaceFormatKHR@@@std@@QEAAXQEAUVkSurfaceFormatKHR@@_K@Z
pdata	ENDS
;	COMDAT pdata
pdata	SEGMENT
$pdata$?allocate@?$allocator@UVkSurfaceFormatKHR@@@std@@QEAAPEAUVkSurfaceFormatKHR@@_K@Z DD imagerel $LN3
	DD	imagerel $LN3+66
	DD	imagerel $unwind$?allocate@?$allocator@UVkSurfaceFormatKHR@@@std@@QEAAPEAUVkSurfaceFormatKHR@@_K@Z
pdata	ENDS
;	COMDAT pdata
pdata	SEGMENT
$pdata$?max_size@?$_Default_allocator_traits@V?$allocator@UVkSurfaceFormatKHR@@@std@@@std@@SA_KAEBV?$allocator@UVkSurfaceFormatKHR@@@2@@Z DD imagerel $LN3
	DD	imagerel $LN3+51
	DD	imagerel $unwind$?max_size@?$_Default_allocator_traits@V?$allocator@UVkSurfaceFormatKHR@@@std@@@std@@SA_KAEBV?$allocator@UVkSurfaceFormatKHR@@@2@@Z
pdata	ENDS
;	COMDAT pdata
pdata	SEGMENT
$pdata$??0?$vector@UVkSurfaceFormatKHR@@V?$allocator@UVkSurfaceFormatKHR@@@std@@@std@@QEAA@XZ DD imagerel $LN3
	DD	imagerel $LN3+137
	DD	imagerel $unwind$??0?$vector@UVkSurfaceFormatKHR@@V?$allocator@UVkSurfaceFormatKHR@@@std@@@std@@QEAA@XZ
pdata	ENDS
;	COMDAT pdata
pdata	SEGMENT
$pdata$??0?$vector@UVkSurfaceFormatKHR@@V?$allocator@UVkSurfaceFormatKHR@@@std@@@std@@QEAA@$$QEAV01@@Z DD imagerel $LN3
	DD	imagerel $LN3+388
	DD	imagerel $unwind$??0?$vector@UVkSurfaceFormatKHR@@V?$allocator@UVkSurfaceFormatKHR@@@std@@@std@@QEAA@$$QEAV01@@Z
pdata	ENDS
;	COMDAT pdata
pdata	SEGMENT
$pdata$??1?$vector@UVkSurfaceFormatKHR@@V?$allocator@UVkSurfaceFormatKHR@@@std@@@std@@QEAA@XZ DD imagerel $LN3
	DD	imagerel $LN3+203
	DD	imagerel $unwind$??1?$vector@UVkSurfaceFormatKHR@@V?$allocator@UVkSurfaceFormatKHR@@@std@@@std@@QEAA@XZ
pdata	ENDS
;	COMDAT pdata
pdata	SEGMENT
$pdata$?resize@?$vector@UVkSurfaceFormatKHR@@V?$allocator@UVkSurfaceFormatKHR@@@std@@@std@@QEAAX_K@Z DD imagerel $LN3
	DD	imagerel $LN3+72
	DD	imagerel $unwind$?resize@?$vector@UVkSurfaceFormatKHR@@V?$allocator@UVkSurfaceFormatKHR@@@std@@@std@@QEAAX_K@Z
pdata	ENDS
;	COMDAT pdata
pdata	SEGMENT
$pdata$?data@?$vector@UVkSurfaceFormatKHR@@V?$allocator@UVkSurfaceFormatKHR@@@std@@@std@@QEAAPEAUVkSurfaceFormatKHR@@XZ DD imagerel $LN3
	DD	imagerel $LN3+57
	DD	imagerel $unwind$?data@?$vector@UVkSurfaceFormatKHR@@V?$allocator@UVkSurfaceFormatKHR@@@std@@@std@@QEAAPEAUVkSurfaceFormatKHR@@XZ
pdata	ENDS
;	COMDAT pdata
pdata	SEGMENT
$pdata$?empty@?$vector@UVkSurfaceFormatKHR@@V?$allocator@UVkSurfaceFormatKHR@@@std@@@std@@QEBA_NXZ DD imagerel $LN5
	DD	imagerel $LN5+99
	DD	imagerel $unwind$?empty@?$vector@UVkSurfaceFormatKHR@@V?$allocator@UVkSurfaceFormatKHR@@@std@@@std@@QEBA_NXZ
pdata	ENDS
;	COMDAT pdata
pdata	SEGMENT
$pdata$?max_size@?$vector@UVkSurfaceFormatKHR@@V?$allocator@UVkSurfaceFormatKHR@@@std@@@std@@QEBA_KXZ DD imagerel $LN3
	DD	imagerel $LN3+102
	DD	imagerel $unwind$?max_size@?$vector@UVkSurfaceFormatKHR@@V?$allocator@UVkSurfaceFormatKHR@@@std@@@std@@QEBA_KXZ
pdata	ENDS
;	COMDAT pdata
pdata	SEGMENT
$pdata$?capacity@?$vector@UVkSurfaceFormatKHR@@V?$allocator@UVkSurfaceFormatKHR@@@std@@@std@@QEBA_KXZ DD imagerel $LN3
	DD	imagerel $LN3+75
	DD	imagerel $unwind$?capacity@?$vector@UVkSurfaceFormatKHR@@V?$allocator@UVkSurfaceFormatKHR@@@std@@@std@@QEBA_KXZ
pdata	ENDS
;	COMDAT pdata
pdata	SEGMENT
$pdata$?_Calculate_growth@?$vector@UVkSurfaceFormatKHR@@V?$allocator@UVkSurfaceFormatKHR@@@std@@@std@@AEBA_K_K@Z DD imagerel $LN5
	DD	imagerel $LN5+168
	DD	imagerel $unwind$?_Calculate_growth@?$vector@UVkSurfaceFormatKHR@@V?$allocator@UVkSurfaceFormatKHR@@@std@@@std@@AEBA_K_K@Z
pdata	ENDS
;	COMDAT pdata
pdata	SEGMENT
$pdata$?_Change_array@?$vector@UVkSurfaceFormatKHR@@V?$allocator@UVkSurfaceFormatKHR@@@std@@@std@@AEAAXQEAUVkSurfaceFormatKHR@@_K1@Z DD imagerel $LN4
	DD	imagerel $LN4+274
	DD	imagerel $unwind$?_Change_array@?$vector@UVkSurfaceFormatKHR@@V?$allocator@UVkSurfaceFormatKHR@@@std@@@std@@AEAAXQEAUVkSurfaceFormatKHR@@_K1@Z
pdata	ENDS
;	COMDAT pdata
pdata	SEGMENT
$pdata$?_Tidy@?$vector@UVkSurfaceFormatKHR@@V?$allocator@UVkSurfaceFormatKHR@@@std@@@std@@AEAAXXZ DD imagerel $LN4
	DD	imagerel $LN4+228
	DD	imagerel $unwind$?_Tidy@?$vector@UVkSurfaceFormatKHR@@V?$allocator@UVkSurfaceFormatKHR@@@std@@@std@@AEAAXXZ
pdata	ENDS
;	COMDAT pdata
pdata	SEGMENT
$pdata$?_Xlength@?$vector@UVkSurfaceFormatKHR@@V?$allocator@UVkSurfaceFormatKHR@@@std@@@std@@CAXXZ DD imagerel $LN3
	DD	imagerel $LN3+49
	DD	imagerel $unwind$?_Xlength@?$vector@UVkSurfaceFormatKHR@@V?$allocator@UVkSurfaceFormatKHR@@@std@@@std@@CAXXZ
pdata	ENDS
;	COMDAT pdata
pdata	SEGMENT
$pdata$?_Orphan_range_unlocked@?$vector@UVkSurfaceFormatKHR@@V?$allocator@UVkSurfaceFormatKHR@@@std@@@std@@AEBAXPEAUVkSurfaceFormatKHR@@0@Z DD imagerel $LN8
	DD	imagerel $LN8+184
	DD	imagerel $unwind$?_Orphan_range_unlocked@?$vector@UVkSurfaceFormatKHR@@V?$allocator@UVkSurfaceFormatKHR@@@std@@@std@@AEBAXPEAUVkSurfaceFormatKHR@@0@Z
pdata	ENDS
;	COMDAT pdata
pdata	SEGMENT
$pdata$?_Orphan_range_locked@?$vector@UVkSurfaceFormatKHR@@V?$allocator@UVkSurfaceFormatKHR@@@std@@@std@@AEBAXPEAUVkSurfaceFormatKHR@@0@Z DD imagerel $LN4
	DD	imagerel $LN4+177
	DD	imagerel $unwind$?_Orphan_range_locked@?$vector@UVkSurfaceFormatKHR@@V?$allocator@UVkSurfaceFormatKHR@@@std@@@std@@AEBAXPEAUVkSurfaceFormatKHR@@0@Z
pdata	ENDS
;	COMDAT pdata
pdata	SEGMENT
$pdata$?dtor$0@?0??_Orphan_range_locked@?$vector@UVkSurfaceFormatKHR@@V?$allocator@UVkSurfaceFormatKHR@@@std@@@std@@AEBAXPEAUVkSurfaceFormatKHR@@0@Z@4HA DD imagerel ?dtor$0@?0??_Orphan_range_locked@?$vector@UVkSurfaceFormatKHR@@V?$allocator@UVkSurfaceFormatKHR@@@std@@@std@@AEBAXPEAUVkSurfaceFormatKHR@@0@Z@4HA
	DD	imagerel ?dtor$0@?0??_Orphan_range_locked@?$vector@UVkSurfaceFormatKHR@@V?$allocator@UVkSurfaceFormatKHR@@@std@@@std@@AEBAXPEAUVkSurfaceFormatKHR@@0@Z@4HA+37
	DD	imagerel $unwind$?dtor$0@?0??_Orphan_range_locked@?$vector@UVkSurfaceFormatKHR@@V?$allocator@UVkSurfaceFormatKHR@@@std@@@std@@AEBAXPEAUVkSurfaceFormatKHR@@0@Z@4HA
pdata	ENDS
;	COMDAT pdata
pdata	SEGMENT
$pdata$?_Orphan_range@?$vector@UVkSurfaceFormatKHR@@V?$allocator@UVkSurfaceFormatKHR@@@std@@@std@@AEBAXPEAUVkSurfaceFormatKHR@@0@Z DD imagerel $LN5
	DD	imagerel $LN5+117
	DD	imagerel $unwind$?_Orphan_range@?$vector@UVkSurfaceFormatKHR@@V?$allocator@UVkSurfaceFormatKHR@@@std@@@std@@AEBAXPEAUVkSurfaceFormatKHR@@0@Z
pdata	ENDS
;	COMDAT pdata
pdata	SEGMENT
$pdata$?_Getal@?$vector@UVkSurfaceFormatKHR@@V?$allocator@UVkSurfaceFormatKHR@@@std@@@std@@AEAAAEAV?$allocator@UVkSurfaceFormatKHR@@@2@XZ DD imagerel $LN3
	DD	imagerel $LN3+56
	DD	imagerel $unwind$?_Getal@?$vector@UVkSurfaceFormatKHR@@V?$allocator@UVkSurfaceFormatKHR@@@std@@@std@@AEAAAEAV?$allocator@UVkSurfaceFormatKHR@@@2@XZ
pdata	ENDS
;	COMDAT pdata
pdata	SEGMENT
$pdata$?_Getal@?$vector@UVkSurfaceFormatKHR@@V?$allocator@UVkSurfaceFormatKHR@@@std@@@std@@AEBAAEBV?$allocator@UVkSurfaceFormatKHR@@@2@XZ DD imagerel $LN3
	DD	imagerel $LN3+56
	DD	imagerel $unwind$?_Getal@?$vector@UVkSurfaceFormatKHR@@V?$allocator@UVkSurfaceFormatKHR@@@std@@@std@@AEBAAEBV?$allocator@UVkSurfaceFormatKHR@@@2@XZ
pdata	ENDS
;	COMDAT pdata
pdata	SEGMENT
$pdata$??0?$_Vector_val@U?$_Simple_types@UVkSurfaceFormatKHR@@@std@@@std@@QEAA@XZ DD imagerel $LN3
	DD	imagerel $LN3+105
	DD	imagerel $unwind$??0?$_Vector_val@U?$_Simple_types@UVkSurfaceFormatKHR@@@std@@@std@@QEAA@XZ
pdata	ENDS
;	COMDAT pdata
pdata	SEGMENT
$pdata$??0?$_Vector_val@U?$_Simple_types@UVkSurfaceFormatKHR@@@std@@@std@@QEAA@PEAUVkSurfaceFormatKHR@@00@Z DD imagerel $LN3
	DD	imagerel $LN3+129
	DD	imagerel $unwind$??0?$_Vector_val@U?$_Simple_types@UVkSurfaceFormatKHR@@@std@@@std@@QEAA@PEAUVkSurfaceFormatKHR@@00@Z
pdata	ENDS
;	COMDAT pdata
pdata	SEGMENT
$pdata$?_Get_first@?$_Compressed_pair@V?$allocator@UVkSurfaceFormatKHR@@@std@@V?$_Vector_val@U?$_Simple_types@UVkSurfaceFormatKHR@@@std@@@2@$00@std@@QEAAAEAV?$allocator@UVkSurfaceFormatKHR@@@2@XZ DD imagerel $LN3
	DD	imagerel $LN3+48
	DD	imagerel $unwind$?_Get_first@?$_Compressed_pair@V?$allocator@UVkSurfaceFormatKHR@@@std@@V?$_Vector_val@U?$_Simple_types@UVkSurfaceFormatKHR@@@std@@@2@$00@std@@QEAAAEAV?$allocator@UVkSurfaceFormatKHR@@@2@XZ
pdata	ENDS
;	COMDAT pdata
pdata	SEGMENT
$pdata$?_Get_first@?$_Compressed_pair@V?$allocator@UVkSurfaceFormatKHR@@@std@@V?$_Vector_val@U?$_Simple_types@UVkSurfaceFormatKHR@@@std@@@2@$00@std@@QEBAAEBV?$allocator@UVkSurfaceFormatKHR@@@2@XZ DD imagerel $LN3
	DD	imagerel $LN3+48
	DD	imagerel $unwind$?_Get_first@?$_Compressed_pair@V?$allocator@UVkSurfaceFormatKHR@@@std@@V?$_Vector_val@U?$_Simple_types@UVkSurfaceFormatKHR@@@std@@@2@$00@std@@QEBAAEBV?$allocator@UVkSurfaceFormatKHR@@@2@XZ
pdata	ENDS
;	COMDAT pdata
pdata	SEGMENT
$pdata$??0?$allocator@W4VkPresentModeKHR@@@std@@QEAA@XZ DD imagerel $LN3
	DD	imagerel $LN3+48
	DD	imagerel $unwind$??0?$allocator@W4VkPresentModeKHR@@@std@@QEAA@XZ
pdata	ENDS
;	COMDAT pdata
pdata	SEGMENT
$pdata$?deallocate@?$allocator@W4VkPresentModeKHR@@@std@@QEAAXQEAW4VkPresentModeKHR@@_K@Z DD imagerel $LN13
	DD	imagerel $LN13+216
	DD	imagerel $unwind$?deallocate@?$allocator@W4VkPresentModeKHR@@@std@@QEAAXQEAW4VkPresentModeKHR@@_K@Z
pdata	ENDS
;	COMDAT pdata
pdata	SEGMENT
$pdata$?allocate@?$allocator@W4VkPresentModeKHR@@@std@@QEAAPEAW4VkPresentModeKHR@@_K@Z DD imagerel $LN3
	DD	imagerel $LN3+66
	DD	imagerel $unwind$?allocate@?$allocator@W4VkPresentModeKHR@@@std@@QEAAPEAW4VkPresentModeKHR@@_K@Z
pdata	ENDS
;	COMDAT pdata
pdata	SEGMENT
$pdata$?max_size@?$_Default_allocator_traits@V?$allocator@W4VkPresentModeKHR@@@std@@@std@@SA_KAEBV?$allocator@W4VkPresentModeKHR@@@2@@Z DD imagerel $LN3
	DD	imagerel $LN3+51
	DD	imagerel $unwind$?max_size@?$_Default_allocator_traits@V?$allocator@W4VkPresentModeKHR@@@std@@@std@@SA_KAEBV?$allocator@W4VkPresentModeKHR@@@2@@Z
pdata	ENDS
;	COMDAT pdata
pdata	SEGMENT
$pdata$??0?$vector@W4VkPresentModeKHR@@V?$allocator@W4VkPresentModeKHR@@@std@@@std@@QEAA@XZ DD imagerel $LN3
	DD	imagerel $LN3+137
	DD	imagerel $unwind$??0?$vector@W4VkPresentModeKHR@@V?$allocator@W4VkPresentModeKHR@@@std@@@std@@QEAA@XZ
pdata	ENDS
;	COMDAT pdata
pdata	SEGMENT
$pdata$??0?$vector@W4VkPresentModeKHR@@V?$allocator@W4VkPresentModeKHR@@@std@@@std@@QEAA@$$QEAV01@@Z DD imagerel $LN3
	DD	imagerel $LN3+388
	DD	imagerel $unwind$??0?$vector@W4VkPresentModeKHR@@V?$allocator@W4VkPresentModeKHR@@@std@@@std@@QEAA@$$QEAV01@@Z
pdata	ENDS
;	COMDAT pdata
pdata	SEGMENT
$pdata$??1?$vector@W4VkPresentModeKHR@@V?$allocator@W4VkPresentModeKHR@@@std@@@std@@QEAA@XZ DD imagerel $LN3
	DD	imagerel $LN3+203
	DD	imagerel $unwind$??1?$vector@W4VkPresentModeKHR@@V?$allocator@W4VkPresentModeKHR@@@std@@@std@@QEAA@XZ
pdata	ENDS
;	COMDAT pdata
pdata	SEGMENT
$pdata$?resize@?$vector@W4VkPresentModeKHR@@V?$allocator@W4VkPresentModeKHR@@@std@@@std@@QEAAX_K@Z DD imagerel $LN3
	DD	imagerel $LN3+72
	DD	imagerel $unwind$?resize@?$vector@W4VkPresentModeKHR@@V?$allocator@W4VkPresentModeKHR@@@std@@@std@@QEAAX_K@Z
pdata	ENDS
;	COMDAT pdata
pdata	SEGMENT
$pdata$?data@?$vector@W4VkPresentModeKHR@@V?$allocator@W4VkPresentModeKHR@@@std@@@std@@QEAAPEAW4VkPresentModeKHR@@XZ DD imagerel $LN3
	DD	imagerel $LN3+57
	DD	imagerel $unwind$?data@?$vector@W4VkPresentModeKHR@@V?$allocator@W4VkPresentModeKHR@@@std@@@std@@QEAAPEAW4VkPresentModeKHR@@XZ
pdata	ENDS
;	COMDAT pdata
pdata	SEGMENT
$pdata$?empty@?$vector@W4VkPresentModeKHR@@V?$allocator@W4VkPresentModeKHR@@@std@@@std@@QEBA_NXZ DD imagerel $LN5
	DD	imagerel $LN5+99
	DD	imagerel $unwind$?empty@?$vector@W4VkPresentModeKHR@@V?$allocator@W4VkPresentModeKHR@@@std@@@std@@QEBA_NXZ
pdata	ENDS
;	COMDAT pdata
pdata	SEGMENT
$pdata$?max_size@?$vector@W4VkPresentModeKHR@@V?$allocator@W4VkPresentModeKHR@@@std@@@std@@QEBA_KXZ DD imagerel $LN3
	DD	imagerel $LN3+102
	DD	imagerel $unwind$?max_size@?$vector@W4VkPresentModeKHR@@V?$allocator@W4VkPresentModeKHR@@@std@@@std@@QEBA_KXZ
pdata	ENDS
;	COMDAT pdata
pdata	SEGMENT
$pdata$?capacity@?$vector@W4VkPresentModeKHR@@V?$allocator@W4VkPresentModeKHR@@@std@@@std@@QEBA_KXZ DD imagerel $LN3
	DD	imagerel $LN3+75
	DD	imagerel $unwind$?capacity@?$vector@W4VkPresentModeKHR@@V?$allocator@W4VkPresentModeKHR@@@std@@@std@@QEBA_KXZ
pdata	ENDS
;	COMDAT pdata
pdata	SEGMENT
$pdata$?_Calculate_growth@?$vector@W4VkPresentModeKHR@@V?$allocator@W4VkPresentModeKHR@@@std@@@std@@AEBA_K_K@Z DD imagerel $LN5
	DD	imagerel $LN5+168
	DD	imagerel $unwind$?_Calculate_growth@?$vector@W4VkPresentModeKHR@@V?$allocator@W4VkPresentModeKHR@@@std@@@std@@AEBA_K_K@Z
pdata	ENDS
;	COMDAT pdata
pdata	SEGMENT
$pdata$?_Change_array@?$vector@W4VkPresentModeKHR@@V?$allocator@W4VkPresentModeKHR@@@std@@@std@@AEAAXQEAW4VkPresentModeKHR@@_K1@Z DD imagerel $LN4
	DD	imagerel $LN4+274
	DD	imagerel $unwind$?_Change_array@?$vector@W4VkPresentModeKHR@@V?$allocator@W4VkPresentModeKHR@@@std@@@std@@AEAAXQEAW4VkPresentModeKHR@@_K1@Z
pdata	ENDS
;	COMDAT pdata
pdata	SEGMENT
$pdata$?_Tidy@?$vector@W4VkPresentModeKHR@@V?$allocator@W4VkPresentModeKHR@@@std@@@std@@AEAAXXZ DD imagerel $LN4
	DD	imagerel $LN4+228
	DD	imagerel $unwind$?_Tidy@?$vector@W4VkPresentModeKHR@@V?$allocator@W4VkPresentModeKHR@@@std@@@std@@AEAAXXZ
pdata	ENDS
;	COMDAT pdata
pdata	SEGMENT
$pdata$?_Xlength@?$vector@W4VkPresentModeKHR@@V?$allocator@W4VkPresentModeKHR@@@std@@@std@@CAXXZ DD imagerel $LN3
	DD	imagerel $LN3+49
	DD	imagerel $unwind$?_Xlength@?$vector@W4VkPresentModeKHR@@V?$allocator@W4VkPresentModeKHR@@@std@@@std@@CAXXZ
pdata	ENDS
;	COMDAT pdata
pdata	SEGMENT
$pdata$?_Orphan_range_unlocked@?$vector@W4VkPresentModeKHR@@V?$allocator@W4VkPresentModeKHR@@@std@@@std@@AEBAXPEAW4VkPresentModeKHR@@0@Z DD imagerel $LN8
	DD	imagerel $LN8+184
	DD	imagerel $unwind$?_Orphan_range_unlocked@?$vector@W4VkPresentModeKHR@@V?$allocator@W4VkPresentModeKHR@@@std@@@std@@AEBAXPEAW4VkPresentModeKHR@@0@Z
pdata	ENDS
;	COMDAT pdata
pdata	SEGMENT
$pdata$?_Orphan_range_locked@?$vector@W4VkPresentModeKHR@@V?$allocator@W4VkPresentModeKHR@@@std@@@std@@AEBAXPEAW4VkPresentModeKHR@@0@Z DD imagerel $LN4
	DD	imagerel $LN4+177
	DD	imagerel $unwind$?_Orphan_range_locked@?$vector@W4VkPresentModeKHR@@V?$allocator@W4VkPresentModeKHR@@@std@@@std@@AEBAXPEAW4VkPresentModeKHR@@0@Z
pdata	ENDS
;	COMDAT pdata
pdata	SEGMENT
$pdata$?dtor$0@?0??_Orphan_range_locked@?$vector@W4VkPresentModeKHR@@V?$allocator@W4VkPresentModeKHR@@@std@@@std@@AEBAXPEAW4VkPresentModeKHR@@0@Z@4HA DD imagerel ?dtor$0@?0??_Orphan_range_locked@?$vector@W4VkPresentModeKHR@@V?$allocator@W4VkPresentModeKHR@@@std@@@std@@AEBAXPEAW4VkPresentModeKHR@@0@Z@4HA
	DD	imagerel ?dtor$0@?0??_Orphan_range_locked@?$vector@W4VkPresentModeKHR@@V?$allocator@W4VkPresentModeKHR@@@std@@@std@@AEBAXPEAW4VkPresentModeKHR@@0@Z@4HA+37
	DD	imagerel $unwind$?dtor$0@?0??_Orphan_range_locked@?$vector@W4VkPresentModeKHR@@V?$allocator@W4VkPresentModeKHR@@@std@@@std@@AEBAXPEAW4VkPresentModeKHR@@0@Z@4HA
pdata	ENDS
;	COMDAT pdata
pdata	SEGMENT
$pdata$?_Orphan_range@?$vector@W4VkPresentModeKHR@@V?$allocator@W4VkPresentModeKHR@@@std@@@std@@AEBAXPEAW4VkPresentModeKHR@@0@Z DD imagerel $LN5
	DD	imagerel $LN5+117
	DD	imagerel $unwind$?_Orphan_range@?$vector@W4VkPresentModeKHR@@V?$allocator@W4VkPresentModeKHR@@@std@@@std@@AEBAXPEAW4VkPresentModeKHR@@0@Z
pdata	ENDS
;	COMDAT pdata
pdata	SEGMENT
$pdata$?_Getal@?$vector@W4VkPresentModeKHR@@V?$allocator@W4VkPresentModeKHR@@@std@@@std@@AEAAAEAV?$allocator@W4VkPresentModeKHR@@@2@XZ DD imagerel $LN3
	DD	imagerel $LN3+56
	DD	imagerel $unwind$?_Getal@?$vector@W4VkPresentModeKHR@@V?$allocator@W4VkPresentModeKHR@@@std@@@std@@AEAAAEAV?$allocator@W4VkPresentModeKHR@@@2@XZ
pdata	ENDS
;	COMDAT pdata
pdata	SEGMENT
$pdata$?_Getal@?$vector@W4VkPresentModeKHR@@V?$allocator@W4VkPresentModeKHR@@@std@@@std@@AEBAAEBV?$allocator@W4VkPresentModeKHR@@@2@XZ DD imagerel $LN3
	DD	imagerel $LN3+56
	DD	imagerel $unwind$?_Getal@?$vector@W4VkPresentModeKHR@@V?$allocator@W4VkPresentModeKHR@@@std@@@std@@AEBAAEBV?$allocator@W4VkPresentModeKHR@@@2@XZ
pdata	ENDS
;	COMDAT pdata
pdata	SEGMENT
$pdata$??0?$_Vector_val@U?$_Simple_types@W4VkPresentModeKHR@@@std@@@std@@QEAA@XZ DD imagerel $LN3
	DD	imagerel $LN3+105
	DD	imagerel $unwind$??0?$_Vector_val@U?$_Simple_types@W4VkPresentModeKHR@@@std@@@std@@QEAA@XZ
pdata	ENDS
;	COMDAT pdata
pdata	SEGMENT
$pdata$??0?$_Vector_val@U?$_Simple_types@W4VkPresentModeKHR@@@std@@@std@@QEAA@PEAW4VkPresentModeKHR@@00@Z DD imagerel $LN3
	DD	imagerel $LN3+129
	DD	imagerel $unwind$??0?$_Vector_val@U?$_Simple_types@W4VkPresentModeKHR@@@std@@@std@@QEAA@PEAW4VkPresentModeKHR@@00@Z
pdata	ENDS
;	COMDAT pdata
pdata	SEGMENT
$pdata$?_Get_first@?$_Compressed_pair@V?$allocator@W4VkPresentModeKHR@@@std@@V?$_Vector_val@U?$_Simple_types@W4VkPresentModeKHR@@@std@@@2@$00@std@@QEAAAEAV?$allocator@W4VkPresentModeKHR@@@2@XZ DD imagerel $LN3
	DD	imagerel $LN3+48
	DD	imagerel $unwind$?_Get_first@?$_Compressed_pair@V?$allocator@W4VkPresentModeKHR@@@std@@V?$_Vector_val@U?$_Simple_types@W4VkPresentModeKHR@@@std@@@2@$00@std@@QEAAAEAV?$allocator@W4VkPresentModeKHR@@@2@XZ
pdata	ENDS
;	COMDAT pdata
pdata	SEGMENT
$pdata$?_Get_first@?$_Compressed_pair@V?$allocator@W4VkPresentModeKHR@@@std@@V?$_Vector_val@U?$_Simple_types@W4VkPresentModeKHR@@@std@@@2@$00@std@@QEBAAEBV?$allocator@W4VkPresentModeKHR@@@2@XZ DD imagerel $LN3
	DD	imagerel $LN3+48
	DD	imagerel $unwind$?_Get_first@?$_Compressed_pair@V?$allocator@W4VkPresentModeKHR@@@std@@V?$_Vector_val@U?$_Simple_types@W4VkPresentModeKHR@@@std@@@2@$00@std@@QEBAAEBV?$allocator@W4VkPresentModeKHR@@@2@XZ
pdata	ENDS
;	COMDAT pdata
pdata	SEGMENT
$pdata$??1SwapChainSupportDetails@cow@@QEAA@XZ DD imagerel $LN3
	DD	imagerel $LN3+67
	DD	imagerel $unwind$??1SwapChainSupportDetails@cow@@QEAA@XZ
pdata	ENDS
;	COMDAT pdata
pdata	SEGMENT
$pdata$??0SwapChainSupportDetails@cow@@QEAA@$$QEAU01@@Z DD imagerel $LN3
	DD	imagerel $LN3+152
	DD	imagerel $unwind$??0SwapChainSupportDetails@cow@@QEAA@$$QEAU01@@Z
pdata	ENDS
;	COMDAT pdata
pdata	SEGMENT
$pdata$??0Device@cow@@QEAA@AEAVWindow@1@PEAII@Z DD imagerel $LN4
	DD	imagerel $LN4+325
	DD	imagerel $unwind$??0Device@cow@@QEAA@AEAVWindow@1@PEAII@Z
pdata	ENDS
;	COMDAT pdata
pdata	SEGMENT
$pdata$?dtor$0@?0???0Device@cow@@QEAA@AEAVWindow@1@PEAII@Z@4HA DD imagerel ?dtor$0@?0???0Device@cow@@QEAA@AEAVWindow@1@PEAII@Z@4HA
	DD	imagerel ?dtor$0@?0???0Device@cow@@QEAA@AEAVWindow@1@PEAII@Z@4HA+39
	DD	imagerel $unwind$?dtor$0@?0???0Device@cow@@QEAA@AEAVWindow@1@PEAII@Z@4HA
pdata	ENDS
;	COMDAT pdata
pdata	SEGMENT
$pdata$??1Device@cow@@QEAA@XZ DD imagerel $LN3
	DD	imagerel $LN3+166
	DD	imagerel $unwind$??1Device@cow@@QEAA@XZ
pdata	ENDS
;	COMDAT pdata
pdata	SEGMENT
$pdata$?createDescriptorSetLayout@Device@cow@@QEBAPEAUVkDescriptorSetLayout_T@@PEAUVkDescriptorSetLayoutCreateInfo@@@Z DD imagerel $LN4
	DD	imagerel $LN4+201
	DD	imagerel $unwind$?createDescriptorSetLayout@Device@cow@@QEBAPEAUVkDescriptorSetLayout_T@@PEAUVkDescriptorSetLayoutCreateInfo@@@Z
pdata	ENDS
;	COMDAT pdata
pdata	SEGMENT
$pdata$?createPipelineLayout@Device@cow@@QEBAPEAUVkPipelineLayout_T@@PEAUVkPipelineLayoutCreateInfo@@@Z DD imagerel $LN4
	DD	imagerel $LN4+201
	DD	imagerel $unwind$?createPipelineLayout@Device@cow@@QEBAPEAUVkPipelineLayout_T@@PEAUVkPipelineLayoutCreateInfo@@@Z
pdata	ENDS
;	COMDAT pdata
pdata	SEGMENT
$pdata$?createPipelineCache@Device@cow@@QEBAPEAUVkPipelineCache_T@@PEAUVkPipelineCacheCreateInfo@@PEAPEAU3@@Z DD imagerel $LN4
	DD	imagerel $LN4+206
	DD	imagerel $unwind$?createPipelineCache@Device@cow@@QEBAPEAUVkPipelineCache_T@@PEAUVkPipelineCacheCreateInfo@@PEAPEAU3@@Z
pdata	ENDS
;	COMDAT pdata
pdata	SEGMENT
$pdata$?createComputePipelines@Device@cow@@QEBAPEAUVkPipeline_T@@PEAUVkPipelineCache_T@@IPEAUVkComputePipelineCreateInfo@@@Z DD imagerel $LN4
	DD	imagerel $LN4+236
	DD	imagerel $unwind$?createComputePipelines@Device@cow@@QEBAPEAUVkPipeline_T@@PEAUVkPipelineCache_T@@IPEAUVkComputePipelineCreateInfo@@@Z
pdata	ENDS
;	COMDAT pdata
pdata	SEGMENT
$pdata$?createDescriptorPool@Device@cow@@QEBAPEAUVkDescriptorPool_T@@PEAUVkDescriptorPoolCreateInfo@@@Z DD imagerel $LN4
	DD	imagerel $LN4+201
	DD	imagerel $unwind$?createDescriptorPool@Device@cow@@QEBAPEAUVkDescriptorPool_T@@PEAUVkDescriptorPoolCreateInfo@@@Z
pdata	ENDS
;	COMDAT pdata
pdata	SEGMENT
$pdata$?createCommandPool@Device@cow@@QEBAPEAUVkCommandPool_T@@PEAUVkCommandPoolCreateInfo@@@Z DD imagerel $LN4
	DD	imagerel $LN4+206
	DD	imagerel $unwind$?createCommandPool@Device@cow@@QEBAPEAUVkCommandPool_T@@PEAUVkCommandPoolCreateInfo@@@Z
pdata	ENDS
;	COMDAT pdata
pdata	SEGMENT
$pdata$?createBuffer@Device@cow@@QEBAPEAUVkBuffer_T@@PEAUVkBufferCreateInfo@@@Z DD imagerel $LN4
	DD	imagerel $LN4+201
	DD	imagerel $unwind$?createBuffer@Device@cow@@QEBAPEAUVkBuffer_T@@PEAUVkBufferCreateInfo@@@Z
pdata	ENDS
;	COMDAT pdata
pdata	SEGMENT
$pdata$?createFence@Device@cow@@QEBAPEAUVkFence_T@@PEAUVkFenceCreateInfo@@@Z DD imagerel $LN4
	DD	imagerel $LN4+201
	DD	imagerel $unwind$?createFence@Device@cow@@QEBAPEAUVkFence_T@@PEAUVkFenceCreateInfo@@@Z
pdata	ENDS
;	COMDAT pdata
pdata	SEGMENT
$pdata$?allocateCommandBuffers@Device@cow@@QEBAPEAUVkCommandBuffer_T@@PEAUVkCommandBufferAllocateInfo@@@Z DD imagerel $LN4
	DD	imagerel $LN4+198
	DD	imagerel $unwind$?allocateCommandBuffers@Device@cow@@QEBAPEAUVkCommandBuffer_T@@PEAUVkCommandBufferAllocateInfo@@@Z
pdata	ENDS
;	COMDAT pdata
pdata	SEGMENT
$pdata$?allocateDescriptorSets@Device@cow@@QEBAPEAUVkDescriptorSet_T@@PEAUVkDescriptorSetAllocateInfo@@@Z DD imagerel $LN4
	DD	imagerel $LN4+198
	DD	imagerel $unwind$?allocateDescriptorSets@Device@cow@@QEBAPEAUVkDescriptorSet_T@@PEAUVkDescriptorSetAllocateInfo@@@Z
pdata	ENDS
;	COMDAT pdata
pdata	SEGMENT
$pdata$?allocateMemory@Device@cow@@QEBAPEAUVkDeviceMemory_T@@PEAUVkMemoryAllocateInfo@@@Z DD imagerel $LN4
	DD	imagerel $LN4+201
	DD	imagerel $unwind$?allocateMemory@Device@cow@@QEBAPEAUVkDeviceMemory_T@@PEAUVkMemoryAllocateInfo@@@Z
pdata	ENDS
;	COMDAT pdata
pdata	SEGMENT
$pdata$?createSurface_and_findPhysicalDevice@Device@cow@@AEAAPEAUVkPhysicalDevice_T@@PEAVWindow@2@@Z DD imagerel $LN8
	DD	imagerel $LN8+431
	DD	imagerel $unwind$?createSurface_and_findPhysicalDevice@Device@cow@@AEAAPEAUVkPhysicalDevice_T@@PEAVWindow@2@@Z
pdata	ENDS
;	COMDAT pdata
pdata	SEGMENT
$pdata$?createLogicalDevice@Device@cow@@AEAAXXZ DD imagerel $LN10
	DD	imagerel $LN10+909
	DD	imagerel $unwind$?createLogicalDevice@Device@cow@@AEAAXXZ
pdata	ENDS
;	COMDAT pdata
pdata	SEGMENT
$pdata$?dtor$0@?0??createLogicalDevice@Device@cow@@AEAAXXZ@4HA DD imagerel ?dtor$0@?0??createLogicalDevice@Device@cow@@AEAAXXZ@4HA
	DD	imagerel ?dtor$0@?0??createLogicalDevice@Device@cow@@AEAAXXZ@4HA+36
	DD	imagerel $unwind$?dtor$0@?0??createLogicalDevice@Device@cow@@AEAAXXZ@4HA
pdata	ENDS
;	COMDAT pdata
pdata	SEGMENT
$pdata$?dtor$1@?0??createLogicalDevice@Device@cow@@AEAAXXZ@4HA DD imagerel ?dtor$1@?0??createLogicalDevice@Device@cow@@AEAAXXZ@4HA
	DD	imagerel ?dtor$1@?0??createLogicalDevice@Device@cow@@AEAAXXZ@4HA+39
	DD	imagerel $unwind$?dtor$1@?0??createLogicalDevice@Device@cow@@AEAAXXZ@4HA
pdata	ENDS
;	COMDAT pdata
pdata	SEGMENT
$pdata$?createCommandPool@Device@cow@@AEAAXXZ DD imagerel $LN3
	DD	imagerel $LN3+222
	DD	imagerel $unwind$?createCommandPool@Device@cow@@AEAAXXZ
pdata	ENDS
;	COMDAT pdata
pdata	SEGMENT
$pdata$?deviceSuitable@Device@cow@@AEAA_NPEAUVkPhysicalDevice_T@@@Z DD imagerel $LN9
	DD	imagerel $LN9+377
	DD	imagerel $unwind$?deviceSuitable@Device@cow@@AEAA_NPEAUVkPhysicalDevice_T@@@Z
pdata	ENDS
;	COMDAT pdata
pdata	SEGMENT
$pdata$?deviceExtensionSupport@Device@cow@@AEAA_NPEAUVkPhysicalDevice_T@@@Z DD imagerel $LN9
	DD	imagerel $LN9+629
	DD	imagerel $unwind$?deviceExtensionSupport@Device@cow@@AEAA_NPEAUVkPhysicalDevice_T@@@Z
pdata	ENDS
;	COMDAT pdata
pdata	SEGMENT
$pdata$?dtor$0@?0??deviceExtensionSupport@Device@cow@@AEAA_NPEAUVkPhysicalDevice_T@@@Z@4HA DD imagerel ?dtor$0@?0??deviceExtensionSupport@Device@cow@@AEAA_NPEAUVkPhysicalDevice_T@@@Z@4HA
	DD	imagerel ?dtor$0@?0??deviceExtensionSupport@Device@cow@@AEAA_NPEAUVkPhysicalDevice_T@@@Z@4HA+36
	DD	imagerel $unwind$?dtor$0@?0??deviceExtensionSupport@Device@cow@@AEAA_NPEAUVkPhysicalDevice_T@@@Z@4HA
pdata	ENDS
;	COMDAT pdata
pdata	SEGMENT
$pdata$?dtor$1@?0??deviceExtensionSupport@Device@cow@@AEAA_NPEAUVkPhysicalDevice_T@@@Z@4HA DD imagerel ?dtor$1@?0??deviceExtensionSupport@Device@cow@@AEAA_NPEAUVkPhysicalDevice_T@@@Z@4HA
	DD	imagerel ?dtor$1@?0??deviceExtensionSupport@Device@cow@@AEAA_NPEAUVkPhysicalDevice_T@@@Z@4HA+39
	DD	imagerel $unwind$?dtor$1@?0??deviceExtensionSupport@Device@cow@@AEAA_NPEAUVkPhysicalDevice_T@@@Z@4HA
pdata	ENDS
;	COMDAT pdata
pdata	SEGMENT
$pdata$?dtor$2@?0??deviceExtensionSupport@Device@cow@@AEAA_NPEAUVkPhysicalDevice_T@@@Z@4HA DD imagerel ?dtor$2@?0??deviceExtensionSupport@Device@cow@@AEAA_NPEAUVkPhysicalDevice_T@@@Z@4HA
	DD	imagerel ?dtor$2@?0??deviceExtensionSupport@Device@cow@@AEAA_NPEAUVkPhysicalDevice_T@@@Z@4HA+39
	DD	imagerel $unwind$?dtor$2@?0??deviceExtensionSupport@Device@cow@@AEAA_NPEAUVkPhysicalDevice_T@@@Z@4HA
pdata	ENDS
;	COMDAT pdata
pdata	SEGMENT
$pdata$?findQueues@Device@cow@@AEAA?AUQueueInUse@2@PEAUVkPhysicalDevice_T@@@Z DD imagerel $LN10
	DD	imagerel $LN10+587
	DD	imagerel $unwind$?findQueues@Device@cow@@AEAA?AUQueueInUse@2@PEAUVkPhysicalDevice_T@@@Z
pdata	ENDS
;	COMDAT pdata
pdata	SEGMENT
$pdata$?dtor$0@?0??findQueues@Device@cow@@AEAA?AUQueueInUse@2@PEAUVkPhysicalDevice_T@@@Z@4HA DD imagerel ?dtor$0@?0??findQueues@Device@cow@@AEAA?AUQueueInUse@2@PEAUVkPhysicalDevice_T@@@Z@4HA
	DD	imagerel ?dtor$0@?0??findQueues@Device@cow@@AEAA?AUQueueInUse@2@PEAUVkPhysicalDevice_T@@@Z@4HA+36
	DD	imagerel $unwind$?dtor$0@?0??findQueues@Device@cow@@AEAA?AUQueueInUse@2@PEAUVkPhysicalDevice_T@@@Z@4HA
pdata	ENDS
;	COMDAT pdata
pdata	SEGMENT
$pdata$?querySwapChainSupport@Device@cow@@AEAA?AUSwapChainSupportDetails@2@PEAUVkPhysicalDevice_T@@@Z DD imagerel $LN10
	DD	imagerel $LN10+501
	DD	imagerel $unwind$?querySwapChainSupport@Device@cow@@AEAA?AUSwapChainSupportDetails@2@PEAUVkPhysicalDevice_T@@@Z
pdata	ENDS
;	COMDAT pdata
pdata	SEGMENT
$pdata$?dtor$2@?0??querySwapChainSupport@Device@cow@@AEAA?AUSwapChainSupportDetails@2@PEAUVkPhysicalDevice_T@@@Z@4HA DD imagerel ?dtor$2@?0??querySwapChainSupport@Device@cow@@AEAA?AUSwapChainSupportDetails@2@PEAUVkPhysicalDevice_T@@@Z@4HA
	DD	imagerel ?dtor$2@?0??querySwapChainSupport@Device@cow@@AEAA?AUSwapChainSupportDetails@2@PEAUVkPhysicalDevice_T@@@Z@4HA+36
	DD	imagerel $unwind$?dtor$2@?0??querySwapChainSupport@Device@cow@@AEAA?AUSwapChainSupportDetails@2@PEAUVkPhysicalDevice_T@@@Z@4HA
pdata	ENDS
;	COMDAT pdata
pdata	SEGMENT
$pdata$?findSupportedFormat@Device@cow@@AEAA?AW4VkFormat@@IPEAW43@W4VkImageTiling@@I@Z DD imagerel $LN8
	DD	imagerel $LN8+356
	DD	imagerel $unwind$?findSupportedFormat@Device@cow@@AEAA?AW4VkFormat@@IPEAW43@W4VkImageTiling@@I@Z
pdata	ENDS
;	COMDAT pdata
pdata	SEGMENT
$pdata$?_Throw_tree_length_error@std@@YAXXZ DD imagerel $LN3
	DD	imagerel $LN3+49
	DD	imagerel $unwind$?_Throw_tree_length_error@std@@YAXXZ
pdata	ENDS
;	COMDAT pdata
pdata	SEGMENT
$pdata$??0_Iterator_base12_compatible@std@@QEAA@XZ DD imagerel $LN3
	DD	imagerel $LN3+63
	DD	imagerel $unwind$??0_Iterator_base12_compatible@std@@QEAA@XZ
pdata	ENDS
;	COMDAT pdata
pdata	SEGMENT
$pdata$??$?6U?$char_traits@D@std@@@std@@YAAEAV?$basic_ostream@DU?$char_traits@D@std@@@0@AEAV10@PEBD@Z DD imagerel $LN25
	DD	imagerel $LN25+1126
	DD	imagerel $unwind$??$?6U?$char_traits@D@std@@@std@@YAAEAV?$basic_ostream@DU?$char_traits@D@std@@@0@AEAV10@PEBD@Z
pdata	ENDS
;	COMDAT pdata
pdata	SEGMENT
$pdata$?dtor$0@?0???$?6U?$char_traits@D@std@@@std@@YAAEAV?$basic_ostream@DU?$char_traits@D@std@@@0@AEAV10@PEBD@Z@4HA DD imagerel ?dtor$0@?0???$?6U?$char_traits@D@std@@@std@@YAAEAV?$basic_ostream@DU?$char_traits@D@std@@@0@AEAV10@PEBD@Z@4HA
	DD	imagerel ?dtor$0@?0???$?6U?$char_traits@D@std@@@std@@YAAEAV?$basic_ostream@DU?$char_traits@D@std@@@0@AEAV10@PEBD@Z@4HA+36
	DD	imagerel $unwind$?dtor$0@?0???$?6U?$char_traits@D@std@@@std@@YAAEAV?$basic_ostream@DU?$char_traits@D@std@@@0@AEAV10@PEBD@Z@4HA
pdata	ENDS
;	COMDAT pdata
pdata	SEGMENT
$pdata$?catch$1@?0???$?6U?$char_traits@D@std@@@std@@YAAEAV?$basic_ostream@DU?$char_traits@D@std@@@0@AEAV10@PEBD@Z@4HA DD imagerel ?catch$1@?0???$?6U?$char_traits@D@std@@@std@@YAAEAV?$basic_ostream@DU?$char_traits@D@std@@@0@AEAV10@PEBD@Z@4HA
	DD	imagerel ?catch$1@?0???$?6U?$char_traits@D@std@@@std@@YAAEAV?$basic_ostream@DU?$char_traits@D@std@@@0@AEAV10@PEBD@Z@4HA+91
	DD	imagerel $unwind$?catch$1@?0???$?6U?$char_traits@D@std@@@std@@YAAEAV?$basic_ostream@DU?$char_traits@D@std@@@0@AEAV10@PEBD@Z@4HA
pdata	ENDS
;	COMDAT pdata
pdata	SEGMENT
$pdata$??$endl@DU?$char_traits@D@std@@@std@@YAAEAV?$basic_ostream@DU?$char_traits@D@std@@@0@AEAV10@@Z DD imagerel $LN3
	DD	imagerel $LN3+126
	DD	imagerel $unwind$??$endl@DU?$char_traits@D@std@@@std@@YAAEAV?$basic_ostream@DU?$char_traits@D@std@@@0@AEAV10@@Z
pdata	ENDS
;	COMDAT pdata
pdata	SEGMENT
$pdata$??$<move>@AEAV?$tuple@IPEAPEAUVkPhysicalDevice_T@@@std@@@@YA$$QEAV?$tuple@IPEAPEAUVkPhysicalDevice_T@@@std@@AEAV01@@Z DD imagerel $LN3
	DD	imagerel $LN3+48
	DD	imagerel $unwind$??$<move>@AEAV?$tuple@IPEAPEAUVkPhysicalDevice_T@@@std@@@@YA$$QEAV?$tuple@IPEAPEAUVkPhysicalDevice_T@@@std@@AEAV01@@Z
pdata	ENDS
;	COMDAT pdata
pdata	SEGMENT
$pdata$??$get@$0A@IPEAPEAUVkPhysicalDevice_T@@@std@@YA$$QEAI$$QEAV?$tuple@IPEAPEAUVkPhysicalDevice_T@@@0@@Z DD imagerel $LN3
	DD	imagerel $LN3+52
	DD	imagerel $unwind$??$get@$0A@IPEAPEAUVkPhysicalDevice_T@@@std@@YA$$QEAI$$QEAV?$tuple@IPEAPEAUVkPhysicalDevice_T@@@0@@Z
pdata	ENDS
;	COMDAT pdata
pdata	SEGMENT
$pdata$??$get@$00IPEAPEAUVkPhysicalDevice_T@@@std@@YA$$QEAPEAPEAUVkPhysicalDevice_T@@$$QEAV?$tuple@IPEAPEAUVkPhysicalDevice_T@@@0@@Z DD imagerel $LN3
	DD	imagerel $LN3+48
	DD	imagerel $unwind$??$get@$00IPEAPEAUVkPhysicalDevice_T@@@std@@YA$$QEAPEAPEAUVkPhysicalDevice_T@@$$QEAV?$tuple@IPEAPEAUVkPhysicalDevice_T@@@0@@Z
pdata	ENDS
;	COMDAT pdata
pdata	SEGMENT
$pdata$?begin@?$array@PEBD$00@std@@QEBA?AV?$_Array_const_iterator@PEBD$00@2@XZ DD imagerel $LN3
	DD	imagerel $LN3+78
	DD	imagerel $unwind$?begin@?$array@PEBD$00@std@@QEBA?AV?$_Array_const_iterator@PEBD$00@2@XZ
pdata	ENDS
;	COMDAT pdata
pdata	SEGMENT
$pdata$?end@?$array@PEBD$00@std@@QEBA?AV?$_Array_const_iterator@PEBD$00@2@XZ DD imagerel $LN3
	DD	imagerel $LN3+81
	DD	imagerel $unwind$?end@?$array@PEBD$00@std@@QEBA?AV?$_Array_const_iterator@PEBD$00@2@XZ
pdata	ENDS
;	COMDAT pdata
pdata	SEGMENT
$pdata$?size@?$array@PEBD$00@std@@QEBA_KXZ DD imagerel $LN3
	DD	imagerel $LN3+46
	DD	imagerel $unwind$?size@?$array@PEBD$00@std@@QEBA_KXZ
pdata	ENDS
;	COMDAT pdata
pdata	SEGMENT
$pdata$?data@?$array@PEBD$00@std@@QEBAPEBQEBDXZ DD imagerel $LN3
	DD	imagerel $LN3+48
	DD	imagerel $unwind$?data@?$array@PEBD$00@std@@QEBAPEBQEBDXZ
pdata	ENDS
;	COMDAT pdata
pdata	SEGMENT
$pdata$??0?$allocator@UVkExtensionProperties@@@std@@QEAA@XZ DD imagerel $LN3
	DD	imagerel $LN3+48
	DD	imagerel $unwind$??0?$allocator@UVkExtensionProperties@@@std@@QEAA@XZ
pdata	ENDS
;	COMDAT pdata
pdata	SEGMENT
$pdata$?deallocate@?$allocator@UVkExtensionProperties@@@std@@QEAAXQEAUVkExtensionProperties@@_K@Z DD imagerel $LN13
	DD	imagerel $LN13+216
	DD	imagerel $unwind$?deallocate@?$allocator@UVkExtensionProperties@@@std@@QEAAXQEAUVkExtensionProperties@@_K@Z
pdata	ENDS
;	COMDAT pdata
pdata	SEGMENT
$pdata$?allocate@?$allocator@UVkExtensionProperties@@@std@@QEAAPEAUVkExtensionProperties@@_K@Z DD imagerel $LN3
	DD	imagerel $LN3+66
	DD	imagerel $unwind$?allocate@?$allocator@UVkExtensionProperties@@@std@@QEAAPEAUVkExtensionProperties@@_K@Z
pdata	ENDS
;	COMDAT pdata
pdata	SEGMENT
$pdata$?max_size@?$_Default_allocator_traits@V?$allocator@UVkExtensionProperties@@@std@@@std@@SA_KAEBV?$allocator@UVkExtensionProperties@@@2@@Z DD imagerel $LN3
	DD	imagerel $LN3+51
	DD	imagerel $unwind$?max_size@?$_Default_allocator_traits@V?$allocator@UVkExtensionProperties@@@std@@@std@@SA_KAEBV?$allocator@UVkExtensionProperties@@@2@@Z
pdata	ENDS
;	COMDAT pdata
pdata	SEGMENT
$pdata$??0?$vector@UVkExtensionProperties@@V?$allocator@UVkExtensionProperties@@@std@@@std@@QEAA@_KAEBV?$allocator@UVkExtensionProperties@@@1@@Z DD imagerel $LN3
	DD	imagerel $LN3+117
	DD	imagerel $unwind$??0?$vector@UVkExtensionProperties@@V?$allocator@UVkExtensionProperties@@@std@@@std@@QEAA@_KAEBV?$allocator@UVkExtensionProperties@@@1@@Z
pdata	ENDS
;	COMDAT pdata
pdata	SEGMENT
$pdata$??1?$vector@UVkExtensionProperties@@V?$allocator@UVkExtensionProperties@@@std@@@std@@QEAA@XZ DD imagerel $LN3
	DD	imagerel $LN3+203
	DD	imagerel $unwind$??1?$vector@UVkExtensionProperties@@V?$allocator@UVkExtensionProperties@@@std@@@std@@QEAA@XZ
pdata	ENDS
;	COMDAT pdata
pdata	SEGMENT
$pdata$?data@?$vector@UVkExtensionProperties@@V?$allocator@UVkExtensionProperties@@@std@@@std@@QEAAPEAUVkExtensionProperties@@XZ DD imagerel $LN3
	DD	imagerel $LN3+57
	DD	imagerel $unwind$?data@?$vector@UVkExtensionProperties@@V?$allocator@UVkExtensionProperties@@@std@@@std@@QEAAPEAUVkExtensionProperties@@XZ
pdata	ENDS
;	COMDAT pdata
pdata	SEGMENT
$pdata$?_Unchecked_begin@?$vector@UVkExtensionProperties@@V?$allocator@UVkExtensionProperties@@@std@@@std@@QEAAPEAUVkExtensionProperties@@XZ DD imagerel $LN3
	DD	imagerel $LN3+52
	DD	imagerel $unwind$?_Unchecked_begin@?$vector@UVkExtensionProperties@@V?$allocator@UVkExtensionProperties@@@std@@@std@@QEAAPEAUVkExtensionProperties@@XZ
pdata	ENDS
;	COMDAT pdata
pdata	SEGMENT
$pdata$?_Unchecked_end@?$vector@UVkExtensionProperties@@V?$allocator@UVkExtensionProperties@@@std@@@std@@QEAAPEAUVkExtensionProperties@@XZ DD imagerel $LN3
	DD	imagerel $LN3+52
	DD	imagerel $unwind$?_Unchecked_end@?$vector@UVkExtensionProperties@@V?$allocator@UVkExtensionProperties@@@std@@@std@@QEAAPEAUVkExtensionProperties@@XZ
pdata	ENDS
;	COMDAT pdata
pdata	SEGMENT
$pdata$?max_size@?$vector@UVkExtensionProperties@@V?$allocator@UVkExtensionProperties@@@std@@@std@@QEBA_KXZ DD imagerel $LN3
	DD	imagerel $LN3+102
	DD	imagerel $unwind$?max_size@?$vector@UVkExtensionProperties@@V?$allocator@UVkExtensionProperties@@@std@@@std@@QEBA_KXZ
pdata	ENDS
;	COMDAT pdata
pdata	SEGMENT
$pdata$?_Buy_raw@?$vector@UVkExtensionProperties@@V?$allocator@UVkExtensionProperties@@@std@@@std@@AEAAX_K@Z DD imagerel $LN3
	DD	imagerel $LN3+197
	DD	imagerel $unwind$?_Buy_raw@?$vector@UVkExtensionProperties@@V?$allocator@UVkExtensionProperties@@@std@@@std@@AEAAX_K@Z
pdata	ENDS
;	COMDAT pdata
pdata	SEGMENT
$pdata$?_Buy_nonzero@?$vector@UVkExtensionProperties@@V?$allocator@UVkExtensionProperties@@@std@@@std@@AEAAX_K@Z DD imagerel $LN4
	DD	imagerel $LN4+91
	DD	imagerel $unwind$?_Buy_nonzero@?$vector@UVkExtensionProperties@@V?$allocator@UVkExtensionProperties@@@std@@@std@@AEAAX_K@Z
pdata	ENDS
;	COMDAT pdata
pdata	SEGMENT
$pdata$?_Tidy@?$vector@UVkExtensionProperties@@V?$allocator@UVkExtensionProperties@@@std@@@std@@AEAAXXZ DD imagerel $LN4
	DD	imagerel $LN4+234
	DD	imagerel $unwind$?_Tidy@?$vector@UVkExtensionProperties@@V?$allocator@UVkExtensionProperties@@@std@@@std@@AEAAXXZ
pdata	ENDS
;	COMDAT pdata
pdata	SEGMENT
$pdata$?_Xlength@?$vector@UVkExtensionProperties@@V?$allocator@UVkExtensionProperties@@@std@@@std@@CAXXZ DD imagerel $LN3
	DD	imagerel $LN3+49
	DD	imagerel $unwind$?_Xlength@?$vector@UVkExtensionProperties@@V?$allocator@UVkExtensionProperties@@@std@@@std@@CAXXZ
pdata	ENDS
;	COMDAT pdata
pdata	SEGMENT
$pdata$?_Getal@?$vector@UVkExtensionProperties@@V?$allocator@UVkExtensionProperties@@@std@@@std@@AEAAAEAV?$allocator@UVkExtensionProperties@@@2@XZ DD imagerel $LN3
	DD	imagerel $LN3+56
	DD	imagerel $unwind$?_Getal@?$vector@UVkExtensionProperties@@V?$allocator@UVkExtensionProperties@@@std@@@std@@AEAAAEAV?$allocator@UVkExtensionProperties@@@2@XZ
pdata	ENDS
;	COMDAT pdata
pdata	SEGMENT
$pdata$?_Getal@?$vector@UVkExtensionProperties@@V?$allocator@UVkExtensionProperties@@@std@@@std@@AEBAAEBV?$allocator@UVkExtensionProperties@@@2@XZ DD imagerel $LN3
	DD	imagerel $LN3+56
	DD	imagerel $unwind$?_Getal@?$vector@UVkExtensionProperties@@V?$allocator@UVkExtensionProperties@@@std@@@std@@AEBAAEBV?$allocator@UVkExtensionProperties@@@2@XZ
pdata	ENDS
;	COMDAT pdata
pdata	SEGMENT
$pdata$??0?$_Vector_val@U?$_Simple_types@UVkExtensionProperties@@@std@@@std@@QEAA@XZ DD imagerel $LN3
	DD	imagerel $LN3+105
	DD	imagerel $unwind$??0?$_Vector_val@U?$_Simple_types@UVkExtensionProperties@@@std@@@std@@QEAA@XZ
pdata	ENDS
;	COMDAT pdata
pdata	SEGMENT
$pdata$?_Get_first@?$_Compressed_pair@V?$allocator@UVkExtensionProperties@@@std@@V?$_Vector_val@U?$_Simple_types@UVkExtensionProperties@@@std@@@2@$00@std@@QEAAAEAV?$allocator@UVkExtensionProperties@@@2@XZ DD imagerel $LN3
	DD	imagerel $LN3+48
	DD	imagerel $unwind$?_Get_first@?$_Compressed_pair@V?$allocator@UVkExtensionProperties@@@std@@V?$_Vector_val@U?$_Simple_types@UVkExtensionProperties@@@std@@@2@$00@std@@QEAAAEAV?$allocator@UVkExtensionProperties@@@2@XZ
pdata	ENDS
;	COMDAT pdata
pdata	SEGMENT
$pdata$?_Get_first@?$_Compressed_pair@V?$allocator@UVkExtensionProperties@@@std@@V?$_Vector_val@U?$_Simple_types@UVkExtensionProperties@@@std@@@2@$00@std@@QEBAAEBV?$allocator@UVkExtensionProperties@@@2@XZ DD imagerel $LN3
	DD	imagerel $LN3+48
	DD	imagerel $unwind$?_Get_first@?$_Compressed_pair@V?$allocator@UVkExtensionProperties@@@std@@V?$_Vector_val@U?$_Simple_types@UVkExtensionProperties@@@std@@@2@$00@std@@QEBAAEBV?$allocator@UVkExtensionProperties@@@2@XZ
pdata	ENDS
;	COMDAT pdata
pdata	SEGMENT
$pdata$?__autoclassinit2@?$vector@UVkExtensionProperties@@V?$allocator@UVkExtensionProperties@@@std@@@std@@QEAAX_K@Z DD imagerel $LN3
	DD	imagerel $LN3+50
	DD	imagerel $unwind$?__autoclassinit2@?$vector@UVkExtensionProperties@@V?$allocator@UVkExtensionProperties@@@std@@@std@@QEAAX_K@Z
pdata	ENDS
;	COMDAT pdata
pdata	SEGMENT
$pdata$?_Kfn@?$_Tset_traits@V?$basic_string@DU?$char_traits@D@std@@V?$allocator@D@2@@std@@U?$less@V?$basic_string@DU?$char_traits@D@std@@V?$allocator@D@2@@std@@@2@V?$allocator@V?$basic_string@DU?$char_traits@D@std@@V?$allocator@D@2@@std@@@2@$0A@@std@@SAAEBV?$basic_string@DU?$char_traits@D@std@@V?$allocator@D@2@@2@AEBV32@@Z DD imagerel $LN3
	DD	imagerel $LN3+48
	DD	imagerel $unwind$?_Kfn@?$_Tset_traits@V?$basic_string@DU?$char_traits@D@std@@V?$allocator@D@2@@std@@U?$less@V?$basic_string@DU?$char_traits@D@std@@V?$allocator@D@2@@std@@@2@V?$allocator@V?$basic_string@DU?$char_traits@D@std@@V?$allocator@D@2@@std@@@2@$0A@@std@@SAAEBV?$basic_string@DU?$char_traits@D@std@@V?$allocator@D@2@@2@AEBV32@@Z
pdata	ENDS
;	COMDAT pdata
pdata	SEGMENT
$pdata$??0?$allocator@U?$_Tree_node@V?$basic_string@DU?$char_traits@D@std@@V?$allocator@D@2@@std@@PEAX@std@@@std@@QEAA@XZ DD imagerel $LN3
	DD	imagerel $LN3+48
	DD	imagerel $unwind$??0?$allocator@U?$_Tree_node@V?$basic_string@DU?$char_traits@D@std@@V?$allocator@D@2@@std@@PEAX@std@@@std@@QEAA@XZ
pdata	ENDS
;	COMDAT pdata
pdata	SEGMENT
$pdata$?deallocate@?$allocator@U?$_Tree_node@V?$basic_string@DU?$char_traits@D@std@@V?$allocator@D@2@@std@@PEAX@std@@@std@@QEAAXQEAU?$_Tree_node@V?$basic_string@DU?$char_traits@D@std@@V?$allocator@D@2@@std@@PEAX@2@_K@Z DD imagerel $LN13
	DD	imagerel $LN13+213
	DD	imagerel $unwind$?deallocate@?$allocator@U?$_Tree_node@V?$basic_string@DU?$char_traits@D@std@@V?$allocator@D@2@@std@@PEAX@std@@@std@@QEAAXQEAU?$_Tree_node@V?$basic_string@DU?$char_traits@D@std@@V?$allocator@D@2@@std@@PEAX@2@_K@Z
pdata	ENDS
;	COMDAT pdata
pdata	SEGMENT
$pdata$?allocate@?$allocator@U?$_Tree_node@V?$basic_string@DU?$char_traits@D@std@@V?$allocator@D@2@@std@@PEAX@std@@@std@@QEAAPEAU?$_Tree_node@V?$basic_string@DU?$char_traits@D@std@@V?$allocator@D@2@@std@@PEAX@2@_K@Z DD imagerel $LN3
	DD	imagerel $LN3+66
	DD	imagerel $unwind$?allocate@?$allocator@U?$_Tree_node@V?$basic_string@DU?$char_traits@D@std@@V?$allocator@D@2@@std@@PEAX@std@@@std@@QEAAPEAU?$_Tree_node@V?$basic_string@DU?$char_traits@D@std@@V?$allocator@D@2@@std@@PEAX@2@_K@Z
pdata	ENDS
;	COMDAT pdata
pdata	SEGMENT
$pdata$?deallocate@?$_Default_allocator_traits@V?$allocator@U?$_Tree_node@V?$basic_string@DU?$char_traits@D@std@@V?$allocator@D@2@@std@@PEAX@std@@@std@@@std@@SAXAEAV?$allocator@U?$_Tree_node@V?$basic_string@DU?$char_traits@D@std@@V?$allocator@D@2@@std@@PEAX@std@@@2@QEAU?$_Tree_node@V?$basic_string@DU?$char_traits@D@std@@V?$allocator@D@2@@std@@PEAX@2@_K@Z DD imagerel $LN5
	DD	imagerel $LN5+114
	DD	imagerel $unwind$?deallocate@?$_Default_allocator_traits@V?$allocator@U?$_Tree_node@V?$basic_string@DU?$char_traits@D@std@@V?$allocator@D@2@@std@@PEAX@std@@@std@@@std@@SAXAEAV?$allocator@U?$_Tree_node@V?$basic_string@DU?$char_traits@D@std@@V?$allocator@D@2@@std@@PEAX@std@@@2@QEAU?$_Tree_node@V?$basic_string@DU?$char_traits@D@std@@V?$allocator@D@2@@std@@PEAX@2@_K@Z
pdata	ENDS
;	COMDAT pdata
pdata	SEGMENT
$pdata$?max_size@?$_Default_allocator_traits@V?$allocator@U?$_Tree_node@V?$basic_string@DU?$char_traits@D@std@@V?$allocator@D@2@@std@@PEAX@std@@@std@@@std@@SA_KAEBV?$allocator@U?$_Tree_node@V?$basic_string@DU?$char_traits@D@std@@V?$allocator@D@2@@std@@PEAX@std@@@2@@Z DD imagerel $LN3
	DD	imagerel $LN3+51
	DD	imagerel $unwind$?max_size@?$_Default_allocator_traits@V?$allocator@U?$_Tree_node@V?$basic_string@DU?$char_traits@D@std@@V?$allocator@D@2@@std@@PEAX@std@@@std@@@std@@SA_KAEBV?$allocator@U?$_Tree_node@V?$basic_string@DU?$char_traits@D@std@@V?$allocator@D@2@@std@@PEAX@std@@@2@@Z
pdata	ENDS
;	COMDAT pdata
pdata	SEGMENT
$pdata$??0?$_Tree@V?$_Tset_traits@V?$basic_string@DU?$char_traits@D@std@@V?$allocator@D@2@@std@@U?$less@V?$basic_string@DU?$char_traits@D@std@@V?$allocator@D@2@@std@@@2@V?$allocator@V?$basic_string@DU?$char_traits@D@std@@V?$allocator@D@2@@std@@@2@$0A@@std@@@std@@QEAA@AEBU?$less@V?$basic_string@DU?$char_traits@D@std@@V?$allocator@D@2@@std@@@1@@Z DD imagerel $LN3
	DD	imagerel $LN3+112
	DD	imagerel $unwind$??0?$_Tree@V?$_Tset_traits@V?$basic_string@DU?$char_traits@D@std@@V?$allocator@D@2@@std@@U?$less@V?$basic_string@DU?$char_traits@D@std@@V?$allocator@D@2@@std@@@2@V?$allocator@V?$basic_string@DU?$char_traits@D@std@@V?$allocator@D@2@@std@@@2@$0A@@std@@@std@@QEAA@AEBU?$less@V?$basic_string@DU?$char_traits@D@std@@V?$allocator@D@2@@std@@@1@@Z
pdata	ENDS
;	COMDAT pdata
pdata	SEGMENT
$pdata$??1?$_Tree@V?$_Tset_traits@V?$basic_string@DU?$char_traits@D@std@@V?$allocator@D@2@@std@@U?$less@V?$basic_string@DU?$char_traits@D@std@@V?$allocator@D@2@@std@@@2@V?$allocator@V?$basic_string@DU?$char_traits@D@std@@V?$allocator@D@2@@std@@@2@$0A@@std@@@std@@QEAA@XZ DD imagerel $LN3
	DD	imagerel $LN3+202
	DD	imagerel $unwind$??1?$_Tree@V?$_Tset_traits@V?$basic_string@DU?$char_traits@D@std@@V?$allocator@D@2@@std@@U?$less@V?$basic_string@DU?$char_traits@D@std@@V?$allocator@D@2@@std@@@2@V?$allocator@V?$basic_string@DU?$char_traits@D@std@@V?$allocator@D@2@@std@@@2@$0A@@std@@@std@@QEAA@XZ
pdata	ENDS
;	COMDAT pdata
pdata	SEGMENT
$pdata$?_Unchecked_begin@?$_Tree@V?$_Tset_traits@V?$basic_string@DU?$char_traits@D@std@@V?$allocator@D@2@@std@@U?$less@V?$basic_string@DU?$char_traits@D@std@@V?$allocator@D@2@@std@@@2@V?$allocator@V?$basic_string@DU?$char_traits@D@std@@V?$allocator@D@2@@std@@@2@$0A@@std@@@std@@QEAA?AV?$_Tree_unchecked_const_iterator@V?$_Tree_val@U?$_Tree_simple_types@V?$basic_string@DU?$char_traits@D@std@@V?$allocator@D@2@@std@@@std@@@std@@U_Iterator_base0@2@@2@XZ DD imagerel $LN3
	DD	imagerel $LN3+87
	DD	imagerel $unwind$?_Unchecked_begin@?$_Tree@V?$_Tset_traits@V?$basic_string@DU?$char_traits@D@std@@V?$allocator@D@2@@std@@U?$less@V?$basic_string@DU?$char_traits@D@std@@V?$allocator@D@2@@std@@@2@V?$allocator@V?$basic_string@DU?$char_traits@D@std@@V?$allocator@D@2@@std@@@2@$0A@@std@@@std@@QEAA?AV?$_Tree_unchecked_const_iterator@V?$_Tree_val@U?$_Tree_simple_types@V?$basic_string@DU?$char_traits@D@std@@V?$allocator@D@2@@std@@@std@@@std@@U_Iterator_base0@2@@2@XZ
pdata	ENDS
;	COMDAT pdata
pdata	SEGMENT
$pdata$?max_size@?$_Tree@V?$_Tset_traits@V?$basic_string@DU?$char_traits@D@std@@V?$allocator@D@2@@std@@U?$less@V?$basic_string@DU?$char_traits@D@std@@V?$allocator@D@2@@std@@@2@V?$allocator@V?$basic_string@DU?$char_traits@D@std@@V?$allocator@D@2@@std@@@2@$0A@@std@@@std@@QEBA_KXZ DD imagerel $LN3
	DD	imagerel $LN3+102
	DD	imagerel $unwind$?max_size@?$_Tree@V?$_Tset_traits@V?$basic_string@DU?$char_traits@D@std@@V?$allocator@D@2@@std@@U?$less@V?$basic_string@DU?$char_traits@D@std@@V?$allocator@D@2@@std@@@2@V?$allocator@V?$basic_string@DU?$char_traits@D@std@@V?$allocator@D@2@@std@@@2@$0A@@std@@@std@@QEBA_KXZ
pdata	ENDS
;	COMDAT pdata
pdata	SEGMENT
$pdata$?empty@?$_Tree@V?$_Tset_traits@V?$basic_string@DU?$char_traits@D@std@@V?$allocator@D@2@@std@@U?$less@V?$basic_string@DU?$char_traits@D@std@@V?$allocator@D@2@@std@@@2@V?$allocator@V?$basic_string@DU?$char_traits@D@std@@V?$allocator@D@2@@std@@@2@$0A@@std@@@std@@QEBA_NXZ DD imagerel $LN5
	DD	imagerel $LN5+89
	DD	imagerel $unwind$?empty@?$_Tree@V?$_Tset_traits@V?$basic_string@DU?$char_traits@D@std@@V?$allocator@D@2@@std@@U?$less@V?$basic_string@DU?$char_traits@D@std@@V?$allocator@D@2@@std@@@2@V?$allocator@V?$basic_string@DU?$char_traits@D@std@@V?$allocator@D@2@@std@@@2@$0A@@std@@@std@@QEBA_NXZ
pdata	ENDS
;	COMDAT pdata
pdata	SEGMENT
$pdata$?_Erase_unchecked@?$_Tree@V?$_Tset_traits@V?$basic_string@DU?$char_traits@D@std@@V?$allocator@D@2@@std@@U?$less@V?$basic_string@DU?$char_traits@D@std@@V?$allocator@D@2@@std@@@2@V?$allocator@V?$basic_string@DU?$char_traits@D@std@@V?$allocator@D@2@@std@@@2@$0A@@std@@@std@@AEAAPEAU?$_Tree_node@V?$basic_string@DU?$char_traits@D@std@@V?$allocator@D@2@@std@@PEAX@2@V?$_Tree_unchecked_const_iterator@V?$_Tree_val@U?$_Tree_simple_types@V?$basic_string@DU?$char_traits@D@std@@V?$allocator@D@2@@std@@@std@@@std@@U_Iterator_base0@2@@2@@Z DD imagerel $LN3
	DD	imagerel $LN3+236
	DD	imagerel $unwind$?_Erase_unchecked@?$_Tree@V?$_Tset_traits@V?$basic_string@DU?$char_traits@D@std@@V?$allocator@D@2@@std@@U?$less@V?$basic_string@DU?$char_traits@D@std@@V?$allocator@D@2@@std@@@2@V?$allocator@V?$basic_string@DU?$char_traits@D@std@@V?$allocator@D@2@@std@@@2@$0A@@std@@@std@@AEAAPEAU?$_Tree_node@V?$basic_string@DU?$char_traits@D@std@@V?$allocator@D@2@@std@@PEAX@2@V?$_Tree_unchecked_const_iterator@V?$_Tree_val@U?$_Tree_simple_types@V?$basic_string@DU?$char_traits@D@std@@V?$allocator@D@2@@std@@@std@@@std@@U_Iterator_base0@2@@2@@Z
pdata	ENDS
;	COMDAT pdata
pdata	SEGMENT
$pdata$?_Erase_unchecked@?$_Tree@V?$_Tset_traits@V?$basic_string@DU?$char_traits@D@std@@V?$allocator@D@2@@std@@U?$less@V?$basic_string@DU?$char_traits@D@std@@V?$allocator@D@2@@std@@@2@V?$allocator@V?$basic_string@DU?$char_traits@D@std@@V?$allocator@D@2@@std@@@2@$0A@@std@@@std@@AEAAPEAU?$_Tree_node@V?$basic_string@DU?$char_traits@D@std@@V?$allocator@D@2@@std@@PEAX@2@V?$_Tree_unchecked_const_iterator@V?$_Tree_val@U?$_Tree_simple_types@V?$basic_string@DU?$char_traits@D@std@@V?$allocator@D@2@@std@@@std@@@std@@U_Iterator_base0@2@@2@0@Z DD imagerel $LN6
	DD	imagerel $LN6+291
	DD	imagerel $unwind$?_Erase_unchecked@?$_Tree@V?$_Tset_traits@V?$basic_string@DU?$char_traits@D@std@@V?$allocator@D@2@@std@@U?$less@V?$basic_string@DU?$char_traits@D@std@@V?$allocator@D@2@@std@@@2@V?$allocator@V?$basic_string@DU?$char_traits@D@std@@V?$allocator@D@2@@std@@@2@$0A@@std@@@std@@AEAAPEAU?$_Tree_node@V?$basic_string@DU?$char_traits@D@std@@V?$allocator@D@2@@std@@PEAX@2@V?$_Tree_unchecked_const_iterator@V?$_Tree_val@U?$_Tree_simple_types@V?$basic_string@DU?$char_traits@D@std@@V?$allocator@D@2@@std@@@std@@@std@@U_Iterator_base0@2@@2@0@Z
pdata	ENDS
;	COMDAT pdata
pdata	SEGMENT
$pdata$?_Erase@?$_Tree@V?$_Tset_traits@V?$basic_string@DU?$char_traits@D@std@@V?$allocator@D@2@@std@@U?$less@V?$basic_string@DU?$char_traits@D@std@@V?$allocator@D@2@@std@@@2@V?$allocator@V?$basic_string@DU?$char_traits@D@std@@V?$allocator@D@2@@std@@@2@$0A@@std@@@std@@AEAA_KU?$pair@PEAU?$_Tree_node@V?$basic_string@DU?$char_traits@D@std@@V?$allocator@D@2@@std@@PEAX@std@@PEAU12@@2@@Z DD imagerel $LN3
	DD	imagerel $LN3+239
	DD	imagerel $unwind$?_Erase@?$_Tree@V?$_Tset_traits@V?$basic_string@DU?$char_traits@D@std@@V?$allocator@D@2@@std@@U?$less@V?$basic_string@DU?$char_traits@D@std@@V?$allocator@D@2@@std@@@2@V?$allocator@V?$basic_string@DU?$char_traits@D@std@@V?$allocator@D@2@@std@@@2@$0A@@std@@@std@@AEAA_KU?$pair@PEAU?$_Tree_node@V?$basic_string@DU?$char_traits@D@std@@V?$allocator@D@2@@std@@PEAX@std@@PEAU12@@2@@Z
pdata	ENDS
;	COMDAT pdata
pdata	SEGMENT
$pdata$?erase@?$_Tree@V?$_Tset_traits@V?$basic_string@DU?$char_traits@D@std@@V?$allocator@D@2@@std@@U?$less@V?$basic_string@DU?$char_traits@D@std@@V?$allocator@D@2@@std@@@2@V?$allocator@V?$basic_string@DU?$char_traits@D@std@@V?$allocator@D@2@@std@@@2@$0A@@std@@@std@@QEAA_KAEBV?$basic_string@DU?$char_traits@D@std@@V?$allocator@D@2@@2@@Z DD imagerel $LN3
	DD	imagerel $LN3+113
	DD	imagerel $unwind$?erase@?$_Tree@V?$_Tset_traits@V?$basic_string@DU?$char_traits@D@std@@V?$allocator@D@2@@std@@U?$less@V?$basic_string@DU?$char_traits@D@std@@V?$allocator@D@2@@std@@@2@V?$allocator@V?$basic_string@DU?$char_traits@D@std@@V?$allocator@D@2@@std@@@2@$0A@@std@@@std@@QEAA_KAEBV?$basic_string@DU?$char_traits@D@std@@V?$allocator@D@2@@2@@Z
pdata	ENDS
;	COMDAT pdata
pdata	SEGMENT
$pdata$?clear@?$_Tree@V?$_Tset_traits@V?$basic_string@DU?$char_traits@D@std@@V?$allocator@D@2@@std@@U?$less@V?$basic_string@DU?$char_traits@D@std@@V?$allocator@D@2@@std@@@2@V?$allocator@V?$basic_string@DU?$char_traits@D@std@@V?$allocator@D@2@@std@@@2@$0A@@std@@@std@@QEAAXXZ DD imagerel $LN3
	DD	imagerel $LN3+184
	DD	imagerel $unwind$?clear@?$_Tree@V?$_Tset_traits@V?$basic_string@DU?$char_traits@D@std@@V?$allocator@D@2@@std@@U?$less@V?$basic_string@DU?$char_traits@D@std@@V?$allocator@D@2@@std@@@2@V?$allocator@V?$basic_string@DU?$char_traits@D@std@@V?$allocator@D@2@@std@@@2@$0A@@std@@@std@@QEAAXXZ
pdata	ENDS
;	COMDAT pdata
pdata	SEGMENT
$pdata$?_Check_grow_by_1@?$_Tree@V?$_Tset_traits@V?$basic_string@DU?$char_traits@D@std@@V?$allocator@D@2@@std@@U?$less@V?$basic_string@DU?$char_traits@D@std@@V?$allocator@D@2@@std@@@2@V?$allocator@V?$basic_string@DU?$char_traits@D@std@@V?$allocator@D@2@@std@@@2@$0A@@std@@@std@@IEAAXXZ DD imagerel $LN4
	DD	imagerel $LN4+90
	DD	imagerel $unwind$?_Check_grow_by_1@?$_Tree@V?$_Tset_traits@V?$basic_string@DU?$char_traits@D@std@@V?$allocator@D@2@@std@@U?$less@V?$basic_string@DU?$char_traits@D@std@@V?$allocator@D@2@@std@@@2@V?$allocator@V?$basic_string@DU?$char_traits@D@std@@V?$allocator@D@2@@std@@@2@$0A@@std@@@std@@IEAAXXZ
pdata	ENDS
;	COMDAT pdata
pdata	SEGMENT
$pdata$?_Alloc_sentinel_and_proxy@?$_Tree@V?$_Tset_traits@V?$basic_string@DU?$char_traits@D@std@@V?$allocator@D@2@@std@@U?$less@V?$basic_string@DU?$char_traits@D@std@@V?$allocator@D@2@@std@@@2@V?$allocator@V?$basic_string@DU?$char_traits@D@std@@V?$allocator@D@2@@std@@@2@$0A@@std@@@std@@IEAAXXZ DD imagerel $LN4
	DD	imagerel $LN4+227
	DD	imagerel $unwind$?_Alloc_sentinel_and_proxy@?$_Tree@V?$_Tset_traits@V?$basic_string@DU?$char_traits@D@std@@V?$allocator@D@2@@std@@U?$less@V?$basic_string@DU?$char_traits@D@std@@V?$allocator@D@2@@std@@@2@V?$allocator@V?$basic_string@DU?$char_traits@D@std@@V?$allocator@D@2@@std@@@2@$0A@@std@@@std@@IEAAXXZ
pdata	ENDS
;	COMDAT pdata
pdata	SEGMENT
$pdata$?dtor$0@?0??_Alloc_sentinel_and_proxy@?$_Tree@V?$_Tset_traits@V?$basic_string@DU?$char_traits@D@std@@V?$allocator@D@2@@std@@U?$less@V?$basic_string@DU?$char_traits@D@std@@V?$allocator@D@2@@std@@@2@V?$allocator@V?$basic_string@DU?$char_traits@D@std@@V?$allocator@D@2@@std@@@2@$0A@@std@@@std@@IEAAXXZ@4HA DD imagerel ?dtor$0@?0??_Alloc_sentinel_and_proxy@?$_Tree@V?$_Tset_traits@V?$basic_string@DU?$char_traits@D@std@@V?$allocator@D@2@@std@@U?$less@V?$basic_string@DU?$char_traits@D@std@@V?$allocator@D@2@@std@@@2@V?$allocator@V?$basic_string@DU?$char_traits@D@std@@V?$allocator@D@2@@std@@@2@$0A@@std@@@std@@IEAAXXZ@4HA
	DD	imagerel ?dtor$0@?0??_Alloc_sentinel_and_proxy@?$_Tree@V?$_Tset_traits@V?$basic_string@DU?$char_traits@D@std@@V?$allocator@D@2@@std@@U?$less@V?$basic_string@DU?$char_traits@D@std@@V?$allocator@D@2@@std@@@2@V?$allocator@V?$basic_string@DU?$char_traits@D@std@@V?$allocator@D@2@@std@@@2@$0A@@std@@@std@@IEAAXXZ@4HA+36
	DD	imagerel $unwind$?dtor$0@?0??_Alloc_sentinel_and_proxy@?$_Tree@V?$_Tset_traits@V?$basic_string@DU?$char_traits@D@std@@V?$allocator@D@2@@std@@U?$less@V?$basic_string@DU?$char_traits@D@std@@V?$allocator@D@2@@std@@@2@V?$allocator@V?$basic_string@DU?$char_traits@D@std@@V?$allocator@D@2@@std@@@2@$0A@@std@@@std@@IEAAXXZ@4HA
pdata	ENDS
;	COMDAT pdata
pdata	SEGMENT
$pdata$?_Getcomp@?$_Tree@V?$_Tset_traits@V?$basic_string@DU?$char_traits@D@std@@V?$allocator@D@2@@std@@U?$less@V?$basic_string@DU?$char_traits@D@std@@V?$allocator@D@2@@std@@@2@V?$allocator@V?$basic_string@DU?$char_traits@D@std@@V?$allocator@D@2@@std@@@2@$0A@@std@@@std@@IEBAAEBU?$less@V?$basic_string@DU?$char_traits@D@std@@V?$allocator@D@2@@std@@@2@XZ DD imagerel $LN3
	DD	imagerel $LN3+56
	DD	imagerel $unwind$?_Getcomp@?$_Tree@V?$_Tset_traits@V?$basic_string@DU?$char_traits@D@std@@V?$allocator@D@2@@std@@U?$less@V?$basic_string@DU?$char_traits@D@std@@V?$allocator@D@2@@std@@@2@V?$allocator@V?$basic_string@DU?$char_traits@D@std@@V?$allocator@D@2@@std@@@2@$0A@@std@@@std@@IEBAAEBU?$less@V?$basic_string@DU?$char_traits@D@std@@V?$allocator@D@2@@std@@@2@XZ
pdata	ENDS
;	COMDAT pdata
pdata	SEGMENT
$pdata$?_Getal@?$_Tree@V?$_Tset_traits@V?$basic_string@DU?$char_traits@D@std@@V?$allocator@D@2@@std@@U?$less@V?$basic_string@DU?$char_traits@D@std@@V?$allocator@D@2@@std@@@2@V?$allocator@V?$basic_string@DU?$char_traits@D@std@@V?$allocator@D@2@@std@@@2@$0A@@std@@@std@@IEAAAEAV?$allocator@U?$_Tree_node@V?$basic_string@DU?$char_traits@D@std@@V?$allocator@D@2@@std@@PEAX@std@@@2@XZ DD imagerel $LN3
	DD	imagerel $LN3+56
	DD	imagerel $unwind$?_Getal@?$_Tree@V?$_Tset_traits@V?$basic_string@DU?$char_traits@D@std@@V?$allocator@D@2@@std@@U?$less@V?$basic_string@DU?$char_traits@D@std@@V?$allocator@D@2@@std@@@2@V?$allocator@V?$basic_string@DU?$char_traits@D@std@@V?$allocator@D@2@@std@@@2@$0A@@std@@@std@@IEAAAEAV?$allocator@U?$_Tree_node@V?$basic_string@DU?$char_traits@D@std@@V?$allocator@D@2@@std@@PEAX@std@@@2@XZ
pdata	ENDS
;	COMDAT pdata
pdata	SEGMENT
$pdata$?_Getal@?$_Tree@V?$_Tset_traits@V?$basic_string@DU?$char_traits@D@std@@V?$allocator@D@2@@std@@U?$less@V?$basic_string@DU?$char_traits@D@std@@V?$allocator@D@2@@std@@@2@V?$allocator@V?$basic_string@DU?$char_traits@D@std@@V?$allocator@D@2@@std@@@2@$0A@@std@@@std@@IEBAAEBV?$allocator@U?$_Tree_node@V?$basic_string@DU?$char_traits@D@std@@V?$allocator@D@2@@std@@PEAX@std@@@2@XZ DD imagerel $LN3
	DD	imagerel $LN3+56
	DD	imagerel $unwind$?_Getal@?$_Tree@V?$_Tset_traits@V?$basic_string@DU?$char_traits@D@std@@V?$allocator@D@2@@std@@U?$less@V?$basic_string@DU?$char_traits@D@std@@V?$allocator@D@2@@std@@@2@V?$allocator@V?$basic_string@DU?$char_traits@D@std@@V?$allocator@D@2@@std@@@2@$0A@@std@@@std@@IEBAAEBV?$allocator@U?$_Tree_node@V?$basic_string@DU?$char_traits@D@std@@V?$allocator@D@2@@std@@PEAX@std@@@2@XZ
pdata	ENDS
;	COMDAT pdata
pdata	SEGMENT
$pdata$?_Get_scary@?$_Tree@V?$_Tset_traits@V?$basic_string@DU?$char_traits@D@std@@V?$allocator@D@2@@std@@U?$less@V?$basic_string@DU?$char_traits@D@std@@V?$allocator@D@2@@std@@@2@V?$allocator@V?$basic_string@DU?$char_traits@D@std@@V?$allocator@D@2@@std@@@2@$0A@@std@@@std@@IEAAPEAV?$_Tree_val@U?$_Tree_simple_types@V?$basic_string@DU?$char_traits@D@std@@V?$allocator@D@2@@std@@@std@@@2@XZ DD imagerel $LN3
	DD	imagerel $LN3+56
	DD	imagerel $unwind$?_Get_scary@?$_Tree@V?$_Tset_traits@V?$basic_string@DU?$char_traits@D@std@@V?$allocator@D@2@@std@@U?$less@V?$basic_string@DU?$char_traits@D@std@@V?$allocator@D@2@@std@@@2@V?$allocator@V?$basic_string@DU?$char_traits@D@std@@V?$allocator@D@2@@std@@@2@$0A@@std@@@std@@IEAAPEAV?$_Tree_val@U?$_Tree_simple_types@V?$basic_string@DU?$char_traits@D@std@@V?$allocator@D@2@@std@@@std@@@2@XZ
pdata	ENDS
;	COMDAT pdata
pdata	SEGMENT
$pdata$?_Get_scary@?$_Tree@V?$_Tset_traits@V?$basic_string@DU?$char_traits@D@std@@V?$allocator@D@2@@std@@U?$less@V?$basic_string@DU?$char_traits@D@std@@V?$allocator@D@2@@std@@@2@V?$allocator@V?$basic_string@DU?$char_traits@D@std@@V?$allocator@D@2@@std@@@2@$0A@@std@@@std@@IEBAPEBV?$_Tree_val@U?$_Tree_simple_types@V?$basic_string@DU?$char_traits@D@std@@V?$allocator@D@2@@std@@@std@@@2@XZ DD imagerel $LN3
	DD	imagerel $LN3+56
	DD	imagerel $unwind$?_Get_scary@?$_Tree@V?$_Tset_traits@V?$basic_string@DU?$char_traits@D@std@@V?$allocator@D@2@@std@@U?$less@V?$basic_string@DU?$char_traits@D@std@@V?$allocator@D@2@@std@@@2@V?$allocator@V?$basic_string@DU?$char_traits@D@std@@V?$allocator@D@2@@std@@@2@$0A@@std@@@std@@IEBAPEBV?$_Tree_val@U?$_Tree_simple_types@V?$basic_string@DU?$char_traits@D@std@@V?$allocator@D@2@@std@@@std@@@2@XZ
pdata	ENDS
;	COMDAT pdata
pdata	SEGMENT
$pdata$??R?$less@V?$basic_string@DU?$char_traits@D@std@@V?$allocator@D@2@@std@@@std@@QEBA_NAEBV?$basic_string@DU?$char_traits@D@std@@V?$allocator@D@2@@1@0@Z DD imagerel $LN3
	DD	imagerel $LN3+90
	DD	imagerel $unwind$??R?$less@V?$basic_string@DU?$char_traits@D@std@@V?$allocator@D@2@@std@@@std@@QEBA_NAEBV?$basic_string@DU?$char_traits@D@std@@V?$allocator@D@2@@1@0@Z
pdata	ENDS
;	COMDAT pdata
pdata	SEGMENT
$pdata$??0?$_Tree_val@U?$_Tree_simple_types@V?$basic_string@DU?$char_traits@D@std@@V?$allocator@D@2@@std@@@std@@@std@@QEAA@XZ DD imagerel $LN3
	DD	imagerel $LN3+90
	DD	imagerel $unwind$??0?$_Tree_val@U?$_Tree_simple_types@V?$basic_string@DU?$char_traits@D@std@@V?$allocator@D@2@@std@@@std@@@std@@QEAA@XZ
pdata	ENDS
;	COMDAT pdata
pdata	SEGMENT
$pdata$?_Max@?$_Tree_val@U?$_Tree_simple_types@V?$basic_string@DU?$char_traits@D@std@@V?$allocator@D@2@@std@@@std@@@std@@SAPEAU?$_Tree_node@V?$basic_string@DU?$char_traits@D@std@@V?$allocator@D@2@@std@@PEAX@2@PEAU32@@Z DD imagerel $LN5
	DD	imagerel $LN5+87
	DD	imagerel $unwind$?_Max@?$_Tree_val@U?$_Tree_simple_types@V?$basic_string@DU?$char_traits@D@std@@V?$allocator@D@2@@std@@@std@@@std@@SAPEAU?$_Tree_node@V?$basic_string@DU?$char_traits@D@std@@V?$allocator@D@2@@std@@PEAX@2@PEAU32@@Z
pdata	ENDS
;	COMDAT pdata
pdata	SEGMENT
$pdata$?_Min@?$_Tree_val@U?$_Tree_simple_types@V?$basic_string@DU?$char_traits@D@std@@V?$allocator@D@2@@std@@@std@@@std@@SAPEAU?$_Tree_node@V?$basic_string@DU?$char_traits@D@std@@V?$allocator@D@2@@std@@PEAX@2@PEAU32@@Z DD imagerel $LN5
	DD	imagerel $LN5+85
	DD	imagerel $unwind$?_Min@?$_Tree_val@U?$_Tree_simple_types@V?$basic_string@DU?$char_traits@D@std@@V?$allocator@D@2@@std@@@std@@@std@@SAPEAU?$_Tree_node@V?$basic_string@DU?$char_traits@D@std@@V?$allocator@D@2@@std@@PEAX@2@PEAU32@@Z
pdata	ENDS
;	COMDAT pdata
pdata	SEGMENT
$pdata$?_Lrotate@?$_Tree_val@U?$_Tree_simple_types@V?$basic_string@DU?$char_traits@D@std@@V?$allocator@D@2@@std@@@std@@@std@@QEAAXPEAU?$_Tree_node@V?$basic_string@DU?$char_traits@D@std@@V?$allocator@D@2@@std@@PEAX@2@@Z DD imagerel $LN8
	DD	imagerel $LN8+267
	DD	imagerel $unwind$?_Lrotate@?$_Tree_val@U?$_Tree_simple_types@V?$basic_string@DU?$char_traits@D@std@@V?$allocator@D@2@@std@@@std@@@std@@QEAAXPEAU?$_Tree_node@V?$basic_string@DU?$char_traits@D@std@@V?$allocator@D@2@@std@@PEAX@2@@Z
pdata	ENDS
;	COMDAT pdata
pdata	SEGMENT
$pdata$?_Rrotate@?$_Tree_val@U?$_Tree_simple_types@V?$basic_string@DU?$char_traits@D@std@@V?$allocator@D@2@@std@@@std@@@std@@QEAAXPEAU?$_Tree_node@V?$basic_string@DU?$char_traits@D@std@@V?$allocator@D@2@@std@@PEAX@2@@Z DD imagerel $LN8
	DD	imagerel $LN8+270
	DD	imagerel $unwind$?_Rrotate@?$_Tree_val@U?$_Tree_simple_types@V?$basic_string@DU?$char_traits@D@std@@V?$allocator@D@2@@std@@@std@@@std@@QEAAXPEAU?$_Tree_node@V?$basic_string@DU?$char_traits@D@std@@V?$allocator@D@2@@std@@PEAX@2@@Z
pdata	ENDS
;	COMDAT pdata
pdata	SEGMENT
$pdata$?_Extract@?$_Tree_val@U?$_Tree_simple_types@V?$basic_string@DU?$char_traits@D@std@@V?$allocator@D@2@@std@@@std@@@std@@QEAAPEAU?$_Tree_node@V?$basic_string@DU?$char_traits@D@std@@V?$allocator@D@2@@std@@PEAX@2@V?$_Tree_unchecked_const_iterator@V?$_Tree_val@U?$_Tree_simple_types@V?$basic_string@DU?$char_traits@D@std@@V?$allocator@D@2@@std@@@std@@@std@@U_Iterator_base0@2@@2@@Z DD imagerel $LN46
	DD	imagerel $LN46+1395
	DD	imagerel $unwind$?_Extract@?$_Tree_val@U?$_Tree_simple_types@V?$basic_string@DU?$char_traits@D@std@@V?$allocator@D@2@@std@@@std@@@std@@QEAAPEAU?$_Tree_node@V?$basic_string@DU?$char_traits@D@std@@V?$allocator@D@2@@std@@PEAX@2@V?$_Tree_unchecked_const_iterator@V?$_Tree_val@U?$_Tree_simple_types@V?$basic_string@DU?$char_traits@D@std@@V?$allocator@D@2@@std@@@std@@@std@@U_Iterator_base0@2@@2@@Z
pdata	ENDS
;	COMDAT pdata
pdata	SEGMENT
$pdata$?_Insert_node@?$_Tree_val@U?$_Tree_simple_types@V?$basic_string@DU?$char_traits@D@std@@V?$allocator@D@2@@std@@@std@@@std@@QEAAPEAU?$_Tree_node@V?$basic_string@DU?$char_traits@D@std@@V?$allocator@D@2@@std@@PEAX@2@U?$_Tree_id@PEAU?$_Tree_node@V?$basic_string@DU?$char_traits@D@std@@V?$allocator@D@2@@std@@PEAX@std@@@2@QEAU32@@Z DD imagerel $LN19
	DD	imagerel $LN19+774
	DD	imagerel $unwind$?_Insert_node@?$_Tree_val@U?$_Tree_simple_types@V?$basic_string@DU?$char_traits@D@std@@V?$allocator@D@2@@std@@@std@@@std@@QEAAPEAU?$_Tree_node@V?$basic_string@DU?$char_traits@D@std@@V?$allocator@D@2@@std@@PEAX@2@U?$_Tree_id@PEAU?$_Tree_node@V?$basic_string@DU?$char_traits@D@std@@V?$allocator@D@2@@std@@PEAX@std@@@2@QEAU32@@Z
pdata	ENDS
;	COMDAT pdata
pdata	SEGMENT
$pdata$?_Orphan_ptr@?$_Tree_val@U?$_Tree_simple_types@V?$basic_string@DU?$char_traits@D@std@@V?$allocator@D@2@@std@@@std@@@std@@QEAAXQEAU?$_Tree_node@V?$basic_string@DU?$char_traits@D@std@@V?$allocator@D@2@@std@@PEAX@2@@Z DD imagerel $LN8
	DD	imagerel $LN8+278
	DD	imagerel $unwind$?_Orphan_ptr@?$_Tree_val@U?$_Tree_simple_types@V?$basic_string@DU?$char_traits@D@std@@V?$allocator@D@2@@std@@@std@@@std@@QEAAXQEAU?$_Tree_node@V?$basic_string@DU?$char_traits@D@std@@V?$allocator@D@2@@std@@PEAX@2@@Z
pdata	ENDS
;	COMDAT pdata
pdata	SEGMENT
$pdata$?_Get_first@?$_Compressed_pair@V?$allocator@U?$_Tree_node@V?$basic_string@DU?$char_traits@D@std@@V?$allocator@D@2@@std@@PEAX@std@@@std@@V?$_Tree_val@U?$_Tree_simple_types@V?$basic_string@DU?$char_traits@D@std@@V?$allocator@D@2@@std@@@std@@@2@$00@std@@QEAAAEAV?$allocator@U?$_Tree_node@V?$basic_string@DU?$char_traits@D@std@@V?$allocator@D@2@@std@@PEAX@std@@@2@XZ DD imagerel $LN3
	DD	imagerel $LN3+48
	DD	imagerel $unwind$?_Get_first@?$_Compressed_pair@V?$allocator@U?$_Tree_node@V?$basic_string@DU?$char_traits@D@std@@V?$allocator@D@2@@std@@PEAX@std@@@std@@V?$_Tree_val@U?$_Tree_simple_types@V?$basic_string@DU?$char_traits@D@std@@V?$allocator@D@2@@std@@@std@@@2@$00@std@@QEAAAEAV?$allocator@U?$_Tree_node@V?$basic_string@DU?$char_traits@D@std@@V?$allocator@D@2@@std@@PEAX@std@@@2@XZ
pdata	ENDS
;	COMDAT pdata
pdata	SEGMENT
$pdata$?_Get_first@?$_Compressed_pair@V?$allocator@U?$_Tree_node@V?$basic_string@DU?$char_traits@D@std@@V?$allocator@D@2@@std@@PEAX@std@@@std@@V?$_Tree_val@U?$_Tree_simple_types@V?$basic_string@DU?$char_traits@D@std@@V?$allocator@D@2@@std@@@std@@@2@$00@std@@QEBAAEBV?$allocator@U?$_Tree_node@V?$basic_string@DU?$char_traits@D@std@@V?$allocator@D@2@@std@@PEAX@std@@@2@XZ DD imagerel $LN3
	DD	imagerel $LN3+48
	DD	imagerel $unwind$?_Get_first@?$_Compressed_pair@V?$allocator@U?$_Tree_node@V?$basic_string@DU?$char_traits@D@std@@V?$allocator@D@2@@std@@PEAX@std@@@std@@V?$_Tree_val@U?$_Tree_simple_types@V?$basic_string@DU?$char_traits@D@std@@V?$allocator@D@2@@std@@@std@@@2@$00@std@@QEBAAEBV?$allocator@U?$_Tree_node@V?$basic_string@DU?$char_traits@D@std@@V?$allocator@D@2@@std@@PEAX@std@@@2@XZ
pdata	ENDS
;	COMDAT pdata
pdata	SEGMENT
$pdata$?_Get_first@?$_Compressed_pair@U?$less@V?$basic_string@DU?$char_traits@D@std@@V?$allocator@D@2@@std@@@std@@V?$_Compressed_pair@V?$allocator@U?$_Tree_node@V?$basic_string@DU?$char_traits@D@std@@V?$allocator@D@2@@std@@PEAX@std@@@std@@V?$_Tree_val@U?$_Tree_simple_types@V?$basic_string@DU?$char_traits@D@std@@V?$allocator@D@2@@std@@@std@@@2@$00@2@$00@std@@QEBAAEBU?$less@V?$basic_string@DU?$char_traits@D@std@@V?$allocator@D@2@@std@@@2@XZ DD imagerel $LN3
	DD	imagerel $LN3+48
	DD	imagerel $unwind$?_Get_first@?$_Compressed_pair@U?$less@V?$basic_string@DU?$char_traits@D@std@@V?$allocator@D@2@@std@@@std@@V?$_Compressed_pair@V?$allocator@U?$_Tree_node@V?$basic_string@DU?$char_traits@D@std@@V?$allocator@D@2@@std@@PEAX@std@@@std@@V?$_Tree_val@U?$_Tree_simple_types@V?$basic_string@DU?$char_traits@D@std@@V?$allocator@D@2@@std@@@std@@@2@$00@2@$00@std@@QEBAAEBU?$less@V?$basic_string@DU?$char_traits@D@std@@V?$allocator@D@2@@std@@@2@XZ
pdata	ENDS
;	COMDAT pdata
pdata	SEGMENT
$pdata$??1?$set@V?$basic_string@DU?$char_traits@D@std@@V?$allocator@D@2@@std@@U?$less@V?$basic_string@DU?$char_traits@D@std@@V?$allocator@D@2@@std@@@2@V?$allocator@V?$basic_string@DU?$char_traits@D@std@@V?$allocator@D@2@@std@@@2@@std@@QEAA@XZ DD imagerel $LN3
	DD	imagerel $LN3+41
	DD	imagerel $unwind$??1?$set@V?$basic_string@DU?$char_traits@D@std@@V?$allocator@D@2@@std@@U?$less@V?$basic_string@DU?$char_traits@D@std@@V?$allocator@D@2@@std@@@2@V?$allocator@V?$basic_string@DU?$char_traits@D@std@@V?$allocator@D@2@@std@@@2@@std@@QEAA@XZ
pdata	ENDS
;	COMDAT pdata
pdata	SEGMENT
$pdata$?__autoclassinit2@?$set@V?$basic_string@DU?$char_traits@D@std@@V?$allocator@D@2@@std@@U?$less@V?$basic_string@DU?$char_traits@D@std@@V?$allocator@D@2@@std@@@2@V?$allocator@V?$basic_string@DU?$char_traits@D@std@@V?$allocator@D@2@@std@@@2@@std@@QEAAX_K@Z DD imagerel $LN3
	DD	imagerel $LN3+50
	DD	imagerel $unwind$?__autoclassinit2@?$set@V?$basic_string@DU?$char_traits@D@std@@V?$allocator@D@2@@std@@U?$less@V?$basic_string@DU?$char_traits@D@std@@V?$allocator@D@2@@std@@@2@V?$allocator@V?$basic_string@DU?$char_traits@D@std@@V?$allocator@D@2@@std@@@2@@std@@QEAAX_K@Z
pdata	ENDS
;	COMDAT pdata
pdata	SEGMENT
$pdata$??0?$_Array_const_iterator@PEBD$00@std@@QEAA@PEBQEBD_K@Z DD imagerel $LN3
	DD	imagerel $LN3+106
	DD	imagerel $unwind$??0?$_Array_const_iterator@PEBD$00@std@@QEAA@PEBQEBD_K@Z
pdata	ENDS
;	COMDAT pdata
pdata	SEGMENT
$pdata$??__M?$_Array_const_iterator@PEBD$00@std@@QEBA?AUstrong_ordering@1@AEBV01@@Z DD imagerel $LN7
	DD	imagerel $LN7+287
	DD	imagerel $unwind$??__M?$_Array_const_iterator@PEBD$00@std@@QEBA?AUstrong_ordering@1@AEBV01@@Z
pdata	ENDS
;	COMDAT pdata
pdata	SEGMENT
$pdata$?_Compat@?$_Array_const_iterator@PEBD$00@std@@QEBAXAEBV12@@Z DD imagerel $LN12
	DD	imagerel $LN12+189
	DD	imagerel $unwind$?_Compat@?$_Array_const_iterator@PEBD$00@std@@QEBAXAEBV12@@Z
pdata	ENDS
;	COMDAT pdata
pdata	SEGMENT
$pdata$?_Unwrapped@?$_Array_const_iterator@PEBD$00@std@@QEBAPEBQEBDXZ DD imagerel $LN3
	DD	imagerel $LN3+67
	DD	imagerel $unwind$?_Unwrapped@?$_Array_const_iterator@PEBD$00@std@@QEBAPEBQEBDXZ
pdata	ENDS
;	COMDAT pdata
pdata	SEGMENT
$pdata$?_Verify_with@?$_Array_const_iterator@PEBD$00@std@@QEBAXAEBV12@@Z DD imagerel $LN12
	DD	imagerel $LN12+208
	DD	imagerel $unwind$?_Verify_with@?$_Array_const_iterator@PEBD$00@std@@QEBAXAEBV12@@Z
pdata	ENDS
;	COMDAT pdata
pdata	SEGMENT
$pdata$??$?0V?$_Array_const_iterator@PEBD$00@std@@@?$set@V?$basic_string@DU?$char_traits@D@std@@V?$allocator@D@2@@std@@U?$less@V?$basic_string@DU?$char_traits@D@std@@V?$allocator@D@2@@std@@@2@V?$allocator@V?$basic_string@DU?$char_traits@D@std@@V?$allocator@D@2@@std@@@2@@std@@QEAA@V?$_Array_const_iterator@PEBD$00@1@0@Z DD imagerel $LN4
	DD	imagerel $LN4+155
	DD	imagerel $unwind$??$?0V?$_Array_const_iterator@PEBD$00@std@@@?$set@V?$basic_string@DU?$char_traits@D@std@@V?$allocator@D@2@@std@@U?$less@V?$basic_string@DU?$char_traits@D@std@@V?$allocator@D@2@@std@@@2@V?$allocator@V?$basic_string@DU?$char_traits@D@std@@V?$allocator@D@2@@std@@@2@@std@@QEAA@V?$_Array_const_iterator@PEBD$00@1@0@Z
pdata	ENDS
;	COMDAT pdata
pdata	SEGMENT
$pdata$?dtor$0@?0???$?0V?$_Array_const_iterator@PEBD$00@std@@@?$set@V?$basic_string@DU?$char_traits@D@std@@V?$allocator@D@2@@std@@U?$less@V?$basic_string@DU?$char_traits@D@std@@V?$allocator@D@2@@std@@@2@V?$allocator@V?$basic_string@DU?$char_traits@D@std@@V?$allocator@D@2@@std@@@2@@std@@QEAA@V?$_Array_const_iterator@PEBD$00@1@0@Z@4HA DD imagerel ?dtor$0@?0???$?0V?$_Array_const_iterator@PEBD$00@std@@@?$set@V?$basic_string@DU?$char_traits@D@std@@V?$allocator@D@2@@std@@U?$less@V?$basic_string@DU?$char_traits@D@std@@V?$allocator@D@2@@std@@@2@V?$allocator@V?$basic_string@DU?$char_traits@D@std@@V?$allocator@D@2@@std@@@2@@std@@QEAA@V?$_Array_const_iterator@PEBD$00@1@0@Z@4HA
	DD	imagerel ?dtor$0@?0???$?0V?$_Array_const_iterator@PEBD$00@std@@@?$set@V?$basic_string@DU?$char_traits@D@std@@V?$allocator@D@2@@std@@U?$less@V?$basic_string@DU?$char_traits@D@std@@V?$allocator@D@2@@std@@@2@V?$allocator@V?$basic_string@DU?$char_traits@D@std@@V?$allocator@D@2@@std@@@2@@std@@QEAA@V?$_Array_const_iterator@PEBD$00@1@0@Z@4HA+39
	DD	imagerel $unwind$?dtor$0@?0???$?0V?$_Array_const_iterator@PEBD$00@std@@@?$set@V?$basic_string@DU?$char_traits@D@std@@V?$allocator@D@2@@std@@U?$less@V?$basic_string@DU?$char_traits@D@std@@V?$allocator@D@2@@std@@@2@V?$allocator@V?$basic_string@DU?$char_traits@D@std@@V?$allocator@D@2@@std@@@2@@std@@QEAA@V?$_Array_const_iterator@PEBD$00@1@0@Z@4HA
pdata	ENDS
;	COMDAT pdata
pdata	SEGMENT
$pdata$??$_Eqrange@V?$basic_string@DU?$char_traits@D@std@@V?$allocator@D@2@@std@@@?$_Tree@V?$_Tset_traits@V?$basic_string@DU?$char_traits@D@std@@V?$allocator@D@2@@std@@U?$less@V?$basic_string@DU?$char_traits@D@std@@V?$allocator@D@2@@std@@@2@V?$allocator@V?$basic_string@DU?$char_traits@D@std@@V?$allocator@D@2@@std@@@2@$0A@@std@@@std@@IEBA?AU?$pair@PEAU?$_Tree_node@V?$basic_string@DU?$char_traits@D@std@@V?$allocator@D@2@@std@@PEAX@std@@PEAU12@@1@AEBV?$basic_string@DU?$char_traits@D@std@@V?$allocator@D@2@@1@@Z DD imagerel $LN14
	DD	imagerel $LN14+587
