; Listing generated by Microsoft (R) Optimizing Compiler Version 19.32.31332.0 

include listing.inc

INCLUDELIB MSVCRTD
INCLUDELIB OLDNAMES

msvcjmc	SEGMENT
__29CF54F3_concurrencysal@h DB 01H
__413FEA08_sal@h DB 01H
__6972C38F_vadefs@h DB 01H
__E6B4F19D_vcruntime@h DB 01H
__1B0272D9_corecrt@h DB 01H
__13F5961F_stddef@h DB 01H
__117FADE9_stdint@h DB 01H
__6F45C614_vk_platform@h DB 01H
__5FA1F762_vulkan_core@h DB 01H
__AD247E74_vulkan@h DB 01H
__654A365E_cowdef@hpp DB 01H
__0269B480_xkeycheck@h DB 01H
__4A835745_yvals_core@h DB 01H
__AEFC1A78_intrin0@inl@h DB 01H
__7DEB4A93_intrin0@h DB 01H
__47E06DF5_isa_availability@h DB 01H
__B9985323_float@h DB 01H
__489E80C8_cfloat DB 01H
__AF0983D6_limits@h DB 01H
__919AC1A1_climits DB 01H
__44420885_corecrt_stdio_config@h DB 01H
__AB601D8D_corecrt_wstdio@h DB 01H
__C1EC35D3_stdio@h DB 01H
__3BDA4B4F_cstdio DB 01H
__61CC25A1_errno@h DB 01H
__946B6786_vcruntime_string@h DB 01H
__E4C945B4_corecrt_memcpy_s@h DB 01H
__EF1F6BBA_corecrt_wconio@h DB 01H
__74484FB3_corecrt_wctype@h DB 01H
__3D1D430C_corecrt_wdirect@h DB 01H
__8ECB7138_corecrt_share@h DB 01H
__DB7FEBA6_corecrt_wio@h DB 01H
__9A9F0068_corecrt_wprocess@h DB 01H
__E2E33A61_corecrt_wstdlib@h DB 01H
__6490AEC5_corecrt_wstring@h DB 01H
__369A9BC3_corecrt_wtime@h DB 01H
__CE789B9D_types@h DB 01H
__9901C817_stat@h DB 01H
__3FCAD62E_wchar@h DB 01H
__A1519D1C_cwchar DB 01H
__197E5946_xtr1common DB 01H
__B0BE39FE_cstddef DB 01H
__BB16330F_corecrt_math@h DB 01H
__3BF2A406_math@h DB 01H
__45DED006_corecrt_malloc@h DB 01H
__FD6DBD68_corecrt_search@h DB 01H
__6E5ACABA_stdlib@h DB 01H
__1575E353_cstdlib DB 01H
__330922C0_initializer_list DB 01H
__D567F1CA_xstddef DB 01H
__2E78CDAC_limits DB 01H
__A82B022E_cstdint DB 01H
__4CC0724B_type_traits DB 01H
__3819D017_bit DB 01H
__68FABE09_vcruntime_new@h DB 01H
__F90F3CDE_concepts DB 01H
__EC60D9E2_compare DB 01H
__6261A715_vcruntime_new_debug@h DB 01H
__935DC21B_crtdbg@h DB 01H
__64C6F398_crtdefs@h DB 01H
__E2706B0F_use_ansi@h DB 01H
__A33555EC_yvals@h DB 01H
__8EAFF484_corecrt_memory@h DB 01H
__E8295E1E_string@h DB 01H
__59E74BB3_cstring DB 01H
__227866D8_utility DB 01H
__7DA7D514_xutility DB 01H
__85A6FDFE_tuple DB 01H
__FA77ED4C_malloc@h DB 01H
__89766DA4_corecrt_terminate@h DB 01H
__1CC3922D_eh@h DB 01H
__6A8FA247_vcruntime_exception@h DB 01H
__AC999D0E_exception DB 01H
__E291182A_iosfwd DB 01H
__04BF37C5_new DB 01H
__A69511D8_xatomic@h DB 01H
__48ED051B_xmemory DB 01H
__01FC9A31_xpolymorphic_allocator@h DB 01H
__3C3E8387_xstring DB 01H
__25D7A753_stdexcept DB 01H
__2385E4BF_cmath DB 01H
__725AB5AE__fixes@hpp DB 01H
__19139D6C_assert@h DB 01H
__76B6B6B1_cassert DB 01H
__36EFFC89_platform@h DB 01H
__6A641594_setup@hpp DB 01H
__E0C30740_qualifier@hpp DB 01H
__CD810A33_fwd@hpp DB 01H
__61FC8754_compute_vector_relational@hpp DB 01H
__C29399E7_type_vec2@inl DB 01H
__03119040_type_vec2@hpp DB 01H
__A79AB51D_vector_bool2@hpp DB 01H
__164332F4_vector_bool2_precision@hpp DB 01H
__B24E1CF4_vector_float2@hpp DB 01H
__2202EB77_vector_float2_precision@hpp DB 01H
__A2BDA1A7_vector_double2@hpp DB 01H
__DF307E91_vector_double2_precision@hpp DB 01H
__047F6988_vector_int2@hpp DB 01H
__175C47BF_scalar_int_sized@hpp DB 01H
__EF96D9E0_vector_int2_sized@hpp DB 01H
__E0A61860_vector_uint2@hpp DB 01H
__0312B24B_scalar_uint_sized@hpp DB 01H
__2484071F_vector_uint2_sized@hpp DB 01H
__77BD92FE_vec2@hpp DB 01H
__FFF3B057_type_vec3@inl DB 01H
__3E71B9F0_type_vec3@hpp DB 01H
__9AFA9CAD_vector_bool3@hpp DB 01H
__AFB8E91C_vector_bool3_precision@hpp DB 01H
__8F2E3544_vector_float3@hpp DB 01H
__9BF9309F_vector_float3_precision@hpp DB 01H
__9FDD8817_vector_double3@hpp DB 01H
__66CBA579_vector_double3_precision@hpp DB 01H
__391F4038_vector_int3@hpp DB 01H
__2E180620_vector_int3_sized@hpp DB 01H
__DDC631D0_vector_uint3@hpp DB 01H
__E50AD8DF_vector_uint3_sized@hpp DB 01H
__4ADDBB4E_vec3@hpp DB 01H
__4DD36C47_type_vec4@inl DB 01H
__8C5165E0_type_vec4@hpp DB 01H
__28DA40BD_vector_bool4@hpp DB 01H
__34B9E606_vector_bool4_precision@hpp DB 01H
__3D0EE954_vector_float4@hpp DB 01H
__00F83F85_vector_float4_precision@hpp DB 01H
__2DFD5407_vector_double4@hpp DB 01H
__FDCAAA63_vector_double4_precision@hpp DB 01H
__8B3F9C28_vector_int4@hpp DB 01H
__072313A3_vector_int4_sized@hpp DB 01H
__6FE6EDC0_vector_uint4@hpp DB 01H
__CC31CD5C_vector_uint4_sized@hpp DB 01H
__F8FD675E_vec4@hpp DB 01H
__E6E15275_type_mat2x3@inl DB 01H
__27635BD2_type_mat2x3@hpp DB 01H
__F4A54477_matrix_double2x3@hpp DB 01H
__1FDBC36F_matrix_double2x3_precision@hpp DB 01H
__919AA880_matrix_float2x3@hpp DB 01H
__B42A04E3_matrix_float2x3_precision@hpp DB 01H
__B32BCD64_mat2x3@hpp DB 01H
__54C18E65_type_mat2x4@inl DB 01H
__954387C2_type_mat2x4@hpp DB 01H
__46859867_matrix_double2x4@hpp DB 01H
__84DACC75_matrix_double2x4_precision@hpp DB 01H
__23BA7490_matrix_float2x4@hpp DB 01H
__2F2B0BF9_matrix_float2x4_precision@hpp DB 01H
__010B1174_mat2x4@hpp DB 01H
__7DF67071_type_mat3x2@inl DB 01H
__BC7479D6_type_mat3x2@hpp DB 01H
__6FB26673_matrix_double3x2@hpp DB 01H
__2186D3C4_matrix_double3x2_precision@hpp DB 01H
__0A8D8A84_matrix_float3x2@hpp DB 01H
__8A771448_matrix_float3x2_precision@hpp DB 01H
__283CEF60_mat3x2@hpp DB 01H
__409659C1_type_mat3x3@inl DB 01H
__81145066_type_mat3x3@hpp DB 01H
__52D24FC3_matrix_double3x3@hpp DB 01H
__987D082C_matrix_double3x3_precision@hpp DB 01H
__37EDA334_matrix_float3x3@hpp DB 01H
__338CCFA0_matrix_float3x3_precision@hpp DB 01H
__155CC6D0_mat3x3@hpp DB 01H
__F2B685D1_type_mat3x4@inl DB 01H
__33348C76_type_mat3x4@hpp DB 01H
__E0F293D3_matrix_double3x4@hpp DB 01H
__037C0736_matrix_double3x4_precision@hpp DB 01H
__85CD7F24_matrix_float3x4@hpp DB 01H
__A88DC0BA_matrix_float3x4_precision@hpp DB 01H
__A77C1AC0_mat3x4@hpp DB 01H
__B8514EFF_type_mat4x2@inl DB 01H
__79D34758_type_mat4x2@hpp DB 01H
__AA1558FD_matrix_double4x2@hpp DB 01H
__0114AF8F_matrix_double4x2_precision@hpp DB 01H
__CF2AB40A_matrix_float4x2@hpp DB 01H
__AAE56803_matrix_float4x2_precision@hpp DB 01H
__ED9BD1EE_mat4x2@hpp DB 01H
__8531674F_type_mat4x3@inl DB 01H
__44B36EE8_type_mat4x3@hpp DB 01H
__9775714D_matrix_double4x3@hpp DB 01H
__B8EF7467_matrix_double4x3_precision@hpp DB 01H
__F24A9DBA_matrix_float4x3@hpp DB 01H
__131EB3EB_matrix_float4x3_precision@hpp DB 01H
__D0FBF85E_mat4x3@hpp DB 01H
__3711BB5F_type_mat4x4@inl DB 01H
__F693B2F8_type_mat4x4@hpp DB 01H
__2555AD5D_matrix_double4x4@hpp DB 01H
__23EE7B7D_matrix_double4x4_precision@hpp DB 01H
__406A41AA_matrix_float4x4@hpp DB 01H
__881FBCF1_matrix_float4x4_precision@hpp DB 01H
__62DB244E_mat4x4@hpp DB 01H
__8533E337_type_vec1@inl DB 01H
__44B1EA90_type_vec1@hpp DB 01H
__D98155C6_func_vector_relational@inl DB 01H
__3537A1E9_vector_relational@hpp DB 01H
__FA4A9892__vectorize@hpp DB 01H
__9946677D_func_exponential@inl DB 01H
__6EB78A27_exponential@hpp DB 01H
__1522F2D5_compute_common@hpp DB 01H
__3F1E832A_func_common@inl DB 01H
__0D19AC42_common@hpp DB 01H
__0048E598_func_geometric@inl DB 01H
__0535C93A_geometric@hpp DB 01H
__228E2F13_func_matrix@inl DB 01H
__1089007B_matrix@hpp DB 01H
__DB817BC5_type_mat2x2@inl DB 01H
__1A037262_type_mat2x2@hpp DB 01H
__C9C56DC7_matrix_double2x2@hpp DB 01H
__A6201887_matrix_double2x2_precision@hpp DB 01H
__ACFA8130_matrix_float2x2@hpp DB 01H
__0DD1DF0B_matrix_float2x2_precision@hpp DB 01H
__8E4BE4D4_mat2x2@hpp DB 01H
__05BDE45A_func_trigonometric@inl DB 01H
__C24A621F_trigonometric@hpp DB 01H
__63284533_type_half@inl DB 01H
__A2AA4C94_type_half@hpp DB 01H
__BF79A1CB_func_packing@inl DB 01H
__75D3F26B_packing@hpp DB 01H
__811C45EA_setjmp@h DB 01H
__2750C08C_mmintrin@h DB 01H
__66619DC9_xmmintrin@h DB 01H
__03031405_emmintrin@h DB 01H
__DCA27C8C_pmmintrin@h DB 01H
__6C7B0F0E_tmmintrin@h DB 01H
__45401A8D_smmintrin@h DB 01H
__20229341_nmmintrin@h DB 01H
__F599690F_wmmintrin@h DB 01H
__3E0D2408_zmmintrin@h DB 01H
__091986C2_immintrin@h DB 01H
__B3DA6787_ammintrin@h DB 01H
__A72AF99D_intrin@h DB 01H
__D41AAEEE_func_integer@inl DB 01H
__1EB0FD4E_integer@hpp DB 01H
__0FF791AE_glm@hpp DB 01H
__63D5BD4C_vector DB 01H
__60F9E005_Helper@hpp DB 01H
__C70F9156_Instance@hpp DB 01H
__0ED14FEE_winpackagefamily@h DB 01H
__F92EF742_winapifamily@h DB 01H
__B064E8EE_gl@h DB 01H
__D81DEF64_glfw3@h DB 01H
__E8A7DAC2_Window@hpp DB 01H
__1B6E63DA_xsmf_control@h DB 01H
__14737915_optional DB 01H
__61615CFA_Device@hpp DB 01H
__32DA32DB_Pipelines@hpp DB 01H
__3E8FDD3A_Pipelines@cpp DB 01H
msvcjmc	ENDS
PUBLIC	__JustMyCode_Default
; Function compile flags: /Odt
;	COMDAT __JustMyCode_Default
_TEXT	SEGMENT
__JustMyCode_Default PROC				; COMDAT
	ret	0
__JustMyCode_Default ENDP
_TEXT	ENDS
END
