; Listing generated by Microsoft (R) Optimizing Compiler Version 19.32.31332.0 

include listing.inc

INCLUDELIB MSVCRTD
INCLUDELIB OLDNAMES

msvcjmc	SEGMENT
__29CF54F3_concurrencysal@h DB 01H
__413FEA08_sal@h DB 01H
__6972C38F_vadefs@h DB 01H
__E6B4F19D_vcruntime@h DB 01H
__0269B480_xkeycheck@h DB 01H
__4A835745_yvals_core@h DB 01H
__AF0983D6_limits@h DB 01H
__919AC1A1_climits DB 01H
__1B0272D9_corecrt@h DB 01H
__68FABE09_vcruntime_new@h DB 01H
__6261A715_vcruntime_new_debug@h DB 01H
__935DC21B_crtdbg@h DB 01H
__64C6F398_crtdefs@h DB 01H
__E2706B0F_use_ansi@h DB 01H
__A33555EC_yvals@h DB 01H
__BB16330F_corecrt_math@h DB 01H
__3BF2A406_math@h DB 01H
__45DED006_corecrt_malloc@h DB 01H
__13F5961F_stddef@h DB 01H
__FD6DBD68_corecrt_search@h DB 01H
__E2E33A61_corecrt_wstdlib@h DB 01H
__6E5ACABA_stdlib@h DB 01H
__1575E353_cstdlib DB 01H
__197E5946_xtr1common DB 01H
__AEFC1A78_intrin0@inl@h DB 01H
__7DEB4A93_intrin0@h DB 01H
__61CC25A1_errno@h DB 01H
__946B6786_vcruntime_string@h DB 01H
__E4C945B4_corecrt_memcpy_s@h DB 01H
__8EAFF484_corecrt_memory@h DB 01H
__6490AEC5_corecrt_wstring@h DB 01H
__E8295E1E_string@h DB 01H
__59E74BB3_cstring DB 01H
__117FADE9_stdint@h DB 01H
__A82B022E_cstdint DB 01H
__B0BE39FE_cstddef DB 01H
__330922C0_initializer_list DB 01H
__D567F1CA_xstddef DB 01H
__4CC0724B_type_traits DB 01H
__F90F3CDE_concepts DB 01H
__47E06DF5_isa_availability@h DB 01H
__B9985323_float@h DB 01H
__489E80C8_cfloat DB 01H
__44420885_corecrt_stdio_config@h DB 01H
__AB601D8D_corecrt_wstdio@h DB 01H
__C1EC35D3_stdio@h DB 01H
__3BDA4B4F_cstdio DB 01H
__EF1F6BBA_corecrt_wconio@h DB 01H
__74484FB3_corecrt_wctype@h DB 01H
__3D1D430C_corecrt_wdirect@h DB 01H
__8ECB7138_corecrt_share@h DB 01H
__DB7FEBA6_corecrt_wio@h DB 01H
__9A9F0068_corecrt_wprocess@h DB 01H
__369A9BC3_corecrt_wtime@h DB 01H
__CE789B9D_types@h DB 01H
__9901C817_stat@h DB 01H
__3FCAD62E_wchar@h DB 01H
__A1519D1C_cwchar DB 01H
__2E78CDAC_limits DB 01H
__3819D017_bit DB 01H
__EC60D9E2_compare DB 01H
__227866D8_utility DB 01H
__7DA7D514_xutility DB 01H
__2385E4BF_cmath DB 01H
__E291182A_iosfwd DB 01H
__6C0B6254_iterator DB 01H
__F7972D0B_share@h DB 01H
__33C38951___msvc_system_error_abi@hpp DB 01H
__A6FB3FB4_cerrno DB 01H
__FA77ED4C_malloc@h DB 01H
__89766DA4_corecrt_terminate@h DB 01H
__1CC3922D_eh@h DB 01H
__6A8FA247_vcruntime_exception@h DB 01H
__AC999D0E_exception DB 01H
__04BF37C5_new DB 01H
__A69511D8_xatomic@h DB 01H
__85A6FDFE_tuple DB 01H
__48ED051B_xmemory DB 01H
__01FC9A31_xpolymorphic_allocator@h DB 01H
__3C3E8387_xstring DB 01H
__25D7A753_stdexcept DB 01H
__091B8915_xcall_once@h DB 01H
__0BA040E3_xerrc@h DB 01H
__13D0C879_xatomic_wait@h DB 01H
__0A9237D2_time@h DB 01H
__E53678B7_ctime DB 01H
__CB633655_xtimec@h DB 01H
__833E5CBC_xthreads@h DB 01H
__454D916E_atomic DB 01H
__B6469B35_system_error DB 01H
__2B8D1AA2_vcruntime_typeinfo@h DB 01H
__0D78260D_typeinfo DB 01H
__92D6C122_memory DB 01H
__BE93962D_xfacet DB 01H
__EEE13F19___msvc_xlocinfo_types@hpp DB 01H
__1EC467ED_ctype@h DB 01H
__3411ACE8_cctype DB 01H
__791C33B7_locale@h DB 01H
__86D93F82_clocale DB 01H
__12F1C5C5_xlocinfo DB 01H
__E300F7B6_xlocale DB 01H
__2B14B2D6_xiosbase DB 01H
__27771FEF_streambuf DB 01H
__7D8791A1_xlocnum DB 01H
__FC720DD3_ios DB 01H
__F0102D72_ostream DB 01H
__93C01848_istream DB 01H
__1FDEAF0B_iostream DB 01H
__6F45C614_vk_platform@h DB 01H
__5FA1F762_vulkan_core@h DB 01H
__AD247E74_vulkan@h DB 01H
__654A365E_cowdef@hpp DB 01H
__C70F9156_Instance@hpp DB 01H
__0ED14FEE_winpackagefamily@h DB 01H
__F92EF742_winapifamily@h DB 01H
__B064E8EE_gl@h DB 01H
__D81DEF64_glfw3@h DB 01H
__E8A7DAC2_Window@hpp DB 01H
__63D5BD4C_vector DB 01H
__1B6E63DA_xsmf_control@h DB 01H
__14737915_optional DB 01H
__61615CFA_Device@hpp DB 01H
__125A2BD9_array DB 01H
__CE2F1DBE_Swapchain@hpp DB 01H
__725AB5AE__fixes@hpp DB 01H
__19139D6C_assert@h DB 01H
__76B6B6B1_cassert DB 01H
__36EFFC89_platform@h DB 01H
__6A641594_setup@hpp DB 01H
__E0C30740_qualifier@hpp DB 01H
__CD810A33_fwd@hpp DB 01H
__61FC8754_compute_vector_relational@hpp DB 01H
__C29399E7_type_vec2@inl DB 01H
__03119040_type_vec2@hpp DB 01H
__A79AB51D_vector_bool2@hpp DB 01H
__164332F4_vector_bool2_precision@hpp DB 01H
__B24E1CF4_vector_float2@hpp DB 01H
__2202EB77_vector_float2_precision@hpp DB 01H
__A2BDA1A7_vector_double2@hpp DB 01H
__DF307E91_vector_double2_precision@hpp DB 01H
__047F6988_vector_int2@hpp DB 01H
__175C47BF_scalar_int_sized@hpp DB 01H
__EF96D9E0_vector_int2_sized@hpp DB 01H
__E0A61860_vector_uint2@hpp DB 01H
__0312B24B_scalar_uint_sized@hpp DB 01H
__2484071F_vector_uint2_sized@hpp DB 01H
__77BD92FE_vec2@hpp DB 01H
__FFF3B057_type_vec3@inl DB 01H
__3E71B9F0_type_vec3@hpp DB 01H
__9AFA9CAD_vector_bool3@hpp DB 01H
__AFB8E91C_vector_bool3_precision@hpp DB 01H
__8F2E3544_vector_float3@hpp DB 01H
__9BF9309F_vector_float3_precision@hpp DB 01H
__9FDD8817_vector_double3@hpp DB 01H
__66CBA579_vector_double3_precision@hpp DB 01H
__391F4038_vector_int3@hpp DB 01H
__2E180620_vector_int3_sized@hpp DB 01H
__DDC631D0_vector_uint3@hpp DB 01H
__E50AD8DF_vector_uint3_sized@hpp DB 01H
__4ADDBB4E_vec3@hpp DB 01H
__4DD36C47_type_vec4@inl DB 01H
__8C5165E0_type_vec4@hpp DB 01H
__28DA40BD_vector_bool4@hpp DB 01H
__34B9E606_vector_bool4_precision@hpp DB 01H
__3D0EE954_vector_float4@hpp DB 01H
__00F83F85_vector_float4_precision@hpp DB 01H
__2DFD5407_vector_double4@hpp DB 01H
__FDCAAA63_vector_double4_precision@hpp DB 01H
__8B3F9C28_vector_int4@hpp DB 01H
__072313A3_vector_int4_sized@hpp DB 01H
__6FE6EDC0_vector_uint4@hpp DB 01H
__CC31CD5C_vector_uint4_sized@hpp DB 01H
__F8FD675E_vec4@hpp DB 01H
__E6E15275_type_mat2x3@inl DB 01H
__27635BD2_type_mat2x3@hpp DB 01H
__F4A54477_matrix_double2x3@hpp DB 01H
__1FDBC36F_matrix_double2x3_precision@hpp DB 01H
__919AA880_matrix_float2x3@hpp DB 01H
__B42A04E3_matrix_float2x3_precision@hpp DB 01H
__B32BCD64_mat2x3@hpp DB 01H
__54C18E65_type_mat2x4@inl DB 01H
__954387C2_type_mat2x4@hpp DB 01H
__46859867_matrix_double2x4@hpp DB 01H
__84DACC75_matrix_double2x4_precision@hpp DB 01H
__23BA7490_matrix_float2x4@hpp DB 01H
__2F2B0BF9_matrix_float2x4_precision@hpp DB 01H
__010B1174_mat2x4@hpp DB 01H
__7DF67071_type_mat3x2@inl DB 01H
__BC7479D6_type_mat3x2@hpp DB 01H
__6FB26673_matrix_double3x2@hpp DB 01H
__2186D3C4_matrix_double3x2_precision@hpp DB 01H
__0A8D8A84_matrix_float3x2@hpp DB 01H
__8A771448_matrix_float3x2_precision@hpp DB 01H
__283CEF60_mat3x2@hpp DB 01H
__409659C1_type_mat3x3@inl DB 01H
__81145066_type_mat3x3@hpp DB 01H
__52D24FC3_matrix_double3x3@hpp DB 01H
__987D082C_matrix_double3x3_precision@hpp DB 01H
__37EDA334_matrix_float3x3@hpp DB 01H
__338CCFA0_matrix_float3x3_precision@hpp DB 01H
__155CC6D0_mat3x3@hpp DB 01H
__F2B685D1_type_mat3x4@inl DB 01H
__33348C76_type_mat3x4@hpp DB 01H
__E0F293D3_matrix_double3x4@hpp DB 01H
__037C0736_matrix_double3x4_precision@hpp DB 01H
__85CD7F24_matrix_float3x4@hpp DB 01H
__A88DC0BA_matrix_float3x4_precision@hpp DB 01H
__A77C1AC0_mat3x4@hpp DB 01H
__B8514EFF_type_mat4x2@inl DB 01H
__79D34758_type_mat4x2@hpp DB 01H
__AA1558FD_matrix_double4x2@hpp DB 01H
__0114AF8F_matrix_double4x2_precision@hpp DB 01H
__CF2AB40A_matrix_float4x2@hpp DB 01H
__AAE56803_matrix_float4x2_precision@hpp DB 01H
__ED9BD1EE_mat4x2@hpp DB 01H
__8531674F_type_mat4x3@inl DB 01H
__44B36EE8_type_mat4x3@hpp DB 01H
__9775714D_matrix_double4x3@hpp DB 01H
__B8EF7467_matrix_double4x3_precision@hpp DB 01H
__F24A9DBA_matrix_float4x3@hpp DB 01H
__131EB3EB_matrix_float4x3_precision@hpp DB 01H
__D0FBF85E_mat4x3@hpp DB 01H
__3711BB5F_type_mat4x4@inl DB 01H
__F693B2F8_type_mat4x4@hpp DB 01H
__2555AD5D_matrix_double4x4@hpp DB 01H
__23EE7B7D_matrix_double4x4_precision@hpp DB 01H
__406A41AA_matrix_float4x4@hpp DB 01H
__881FBCF1_matrix_float4x4_precision@hpp DB 01H
__62DB244E_mat4x4@hpp DB 01H
__8533E337_type_vec1@inl DB 01H
__44B1EA90_type_vec1@hpp DB 01H
__D98155C6_func_vector_relational@inl DB 01H
__3537A1E9_vector_relational@hpp DB 01H
__FA4A9892__vectorize@hpp DB 01H
__9946677D_func_exponential@inl DB 01H
__6EB78A27_exponential@hpp DB 01H
__1522F2D5_compute_common@hpp DB 01H
__3F1E832A_func_common@inl DB 01H
__0D19AC42_common@hpp DB 01H
__0048E598_func_geometric@inl DB 01H
__0535C93A_geometric@hpp DB 01H
__228E2F13_func_matrix@inl DB 01H
__1089007B_matrix@hpp DB 01H
__DB817BC5_type_mat2x2@inl DB 01H
__1A037262_type_mat2x2@hpp DB 01H
__C9C56DC7_matrix_double2x2@hpp DB 01H
__A6201887_matrix_double2x2_precision@hpp DB 01H
__ACFA8130_matrix_float2x2@hpp DB 01H
__0DD1DF0B_matrix_float2x2_precision@hpp DB 01H
__8E4BE4D4_mat2x2@hpp DB 01H
__05BDE45A_func_trigonometric@inl DB 01H
__C24A621F_trigonometric@hpp DB 01H
__63284533_type_half@inl DB 01H
__A2AA4C94_type_half@hpp DB 01H
__BF79A1CB_func_packing@inl DB 01H
__75D3F26B_packing@hpp DB 01H
__811C45EA_setjmp@h DB 01H
__2750C08C_mmintrin@h DB 01H
__66619DC9_xmmintrin@h DB 01H
__03031405_emmintrin@h DB 01H
__DCA27C8C_pmmintrin@h DB 01H
__6C7B0F0E_tmmintrin@h DB 01H
__45401A8D_smmintrin@h DB 01H
__20229341_nmmintrin@h DB 01H
__F599690F_wmmintrin@h DB 01H
__3E0D2408_zmmintrin@h DB 01H
__091986C2_immintrin@h DB 01H
__B3DA6787_ammintrin@h DB 01H
__A72AF99D_intrin@h DB 01H
__D41AAEEE_func_integer@inl DB 01H
__1EB0FD4E_integer@hpp DB 01H
__0FF791AE_glm@hpp DB 01H
__60F9E005_Helper@hpp DB 01H
__32DA32DB_Pipelines@hpp DB 01H
__4ED58781_Buffer@hpp DB 01H
__13D4D4C0_GraphicsCommands@hpp DB 01H
__D63E6CC3_Source@cpp DB 01H
msvcjmc	ENDS
PUBLIC	?__empty_global_delete@@YAXPEAX@Z		; __empty_global_delete
PUBLIC	?__empty_global_delete@@YAXPEAX_K@Z		; __empty_global_delete
PUBLIC	?__empty_global_delete@@YAXPEAXW4align_val_t@std@@@Z ; __empty_global_delete
PUBLIC	?__empty_global_delete@@YAXPEAX_KW4align_val_t@std@@@Z ; __empty_global_delete
PUBLIC	??2@YAPEAX_KPEAX@Z				; operator new
PUBLIC	?is_constant_evaluated@std@@YA_NXZ		; std::is_constant_evaluated
PUBLIC	?max@?$numeric_limits@_J@std@@SA_JXZ		; std::numeric_limits<__int64>::max
PUBLIC	??0exception@std@@QEAA@QEBD@Z			; std::exception::exception
PUBLIC	??0exception@std@@QEAA@QEBDH@Z			; std::exception::exception
PUBLIC	??0exception@std@@QEAA@AEBV01@@Z		; std::exception::exception
PUBLIC	??1exception@std@@UEAA@XZ			; std::exception::~exception
PUBLIC	?what@exception@std@@UEBAPEBDXZ			; std::exception::what
PUBLIC	??_Gexception@std@@UEAAPEAXI@Z			; std::exception::`scalar deleting destructor'
PUBLIC	??0bad_alloc@std@@AEAA@QEBD@Z			; std::bad_alloc::bad_alloc
PUBLIC	??1bad_alloc@std@@UEAA@XZ			; std::bad_alloc::~bad_alloc
PUBLIC	??0bad_alloc@std@@QEAA@AEBV01@@Z		; std::bad_alloc::bad_alloc
PUBLIC	??_Gbad_alloc@std@@UEAAPEAXI@Z			; std::bad_alloc::`scalar deleting destructor'
PUBLIC	??0bad_array_new_length@std@@QEAA@XZ		; std::bad_array_new_length::bad_array_new_length
PUBLIC	??1bad_array_new_length@std@@UEAA@XZ		; std::bad_array_new_length::~bad_array_new_length
PUBLIC	??0bad_array_new_length@std@@QEAA@AEBV01@@Z	; std::bad_array_new_length::bad_array_new_length
PUBLIC	??_Gbad_array_new_length@std@@UEAAPEAXI@Z	; std::bad_array_new_length::`scalar deleting destructor'
PUBLIC	?_Throw_bad_array_new_length@std@@YAXXZ		; std::_Throw_bad_array_new_length
PUBLIC	?_Allocate@_Default_allocate_traits@std@@SAPEAX_K@Z ; std::_Default_allocate_traits::_Allocate
PUBLIC	?_Adjust_manually_vector_aligned@std@@YAXAEAPEAXAEA_K@Z ; std::_Adjust_manually_vector_aligned
PUBLIC	??0_Container_proxy@std@@QEAA@PEAU_Container_base12@1@@Z ; std::_Container_proxy::_Container_proxy
PUBLIC	??0_Container_base12@std@@QEAA@XZ		; std::_Container_base12::_Container_base12
PUBLIC	?_Orphan_all@_Container_base12@std@@QEAAXXZ	; std::_Container_base12::_Orphan_all
PUBLIC	?_Orphan_all_unlocked_v3@_Container_base12@std@@AEAAXXZ ; std::_Container_base12::_Orphan_all_unlocked_v3
PUBLIC	?_Orphan_all_locked_v3@_Container_base12@std@@AEAAXXZ ; std::_Container_base12::_Orphan_all_locked_v3
PUBLIC	?_Release@_Basic_container_proxy_ptr12@std@@QEAAXXZ ; std::_Basic_container_proxy_ptr12::_Release
PUBLIC	??0_Basic_container_proxy_ptr12@std@@IEAA@XZ	; std::_Basic_container_proxy_ptr12::_Basic_container_proxy_ptr12
PUBLIC	??$addressof@U_Container_base12@std@@@std@@YAPEAU_Container_base12@0@AEAU10@@Z ; std::addressof<std::_Container_base12>
PUBLIC	??$_Construct_in_place@U_Container_proxy@std@@PEAU_Container_base12@2@@std@@YAXAEAU_Container_proxy@0@$$QEAPEAU_Container_base12@0@@Z ; std::_Construct_in_place<std::_Container_proxy,std::_Container_base12 *>
PUBLIC	?length@?$_Narrow_char_traits@DH@std@@SA_KQEBD@Z ; std::_Narrow_char_traits<char,int>::length
PUBLIC	?eq_int_type@?$_Narrow_char_traits@DH@std@@SA_NAEBH0@Z ; std::_Narrow_char_traits<char,int>::eq_int_type
PUBLIC	?eof@?$_Narrow_char_traits@DH@std@@SAHXZ	; std::_Narrow_char_traits<char,int>::eof
PUBLIC	??0runtime_error@std@@QEAA@PEBD@Z		; std::runtime_error::runtime_error
PUBLIC	??1runtime_error@std@@UEAA@XZ			; std::runtime_error::~runtime_error
PUBLIC	??0runtime_error@std@@QEAA@AEBV01@@Z		; std::runtime_error::runtime_error
PUBLIC	??_Gruntime_error@std@@UEAAPEAXI@Z		; std::runtime_error::`scalar deleting destructor'
PUBLIC	?shouldClose@Window@cow@@QEBA_NXZ		; cow::Window::shouldClose
PUBLIC	?__autoclassinit2@Window@cow@@QEAAX_K@Z		; cow::Window::__autoclassinit2
PUBLIC	?getPhysicalDevice@Device@cow@@QEAAPEAUVkPhysicalDevice_T@@XZ ; cow::Device::getPhysicalDevice
PUBLIC	?getDevice@Device@cow@@QEAAPEAUVkDevice_T@@XZ	; cow::Device::getDevice
PUBLIC	?getCommandPool@Device@cow@@QEAAPEAUVkCommandPool_T@@XZ ; cow::Device::getCommandPool
PUBLIC	?getGraphicsQueue@Device@cow@@QEAAPEAUVkQueue_T@@XZ ; cow::Device::getGraphicsQueue
PUBLIC	?__autoclassinit2@Device@cow@@QEAAX_K@Z		; cow::Device::__autoclassinit2
PUBLIC	?getRenderPass@Swapchain@cow@@QEBAPEAUVkRenderPass_T@@XZ ; cow::Swapchain::getRenderPass
PUBLIC	?getCurrentFrame@Swapchain@cow@@QEBA_KXZ	; cow::Swapchain::getCurrentFrame
PUBLIC	??0?$allocator@W4VkDynamicState@@@std@@QEAA@XZ	; std::allocator<enum VkDynamicState>::allocator<enum VkDynamicState>
PUBLIC	?deallocate@?$allocator@W4VkDynamicState@@@std@@QEAAXQEAW4VkDynamicState@@_K@Z ; std::allocator<enum VkDynamicState>::deallocate
PUBLIC	??0?$vector@W4VkDynamicState@@V?$allocator@W4VkDynamicState@@@std@@@std@@QEAA@XZ ; std::vector<enum VkDynamicState,std::allocator<enum VkDynamicState> >::vector<enum VkDynamicState,std::allocator<enum VkDynamicState> >
PUBLIC	??1?$vector@W4VkDynamicState@@V?$allocator@W4VkDynamicState@@@std@@@std@@QEAA@XZ ; std::vector<enum VkDynamicState,std::allocator<enum VkDynamicState> >::~vector<enum VkDynamicState,std::allocator<enum VkDynamicState> >
PUBLIC	?_Tidy@?$vector@W4VkDynamicState@@V?$allocator@W4VkDynamicState@@@std@@@std@@AEAAXXZ ; std::vector<enum VkDynamicState,std::allocator<enum VkDynamicState> >::_Tidy
PUBLIC	?_Getal@?$vector@W4VkDynamicState@@V?$allocator@W4VkDynamicState@@@std@@@std@@AEAAAEAV?$allocator@W4VkDynamicState@@@2@XZ ; std::vector<enum VkDynamicState,std::allocator<enum VkDynamicState> >::_Getal
PUBLIC	??0?$_Vector_val@U?$_Simple_types@W4VkDynamicState@@@std@@@std@@QEAA@XZ ; std::_Vector_val<std::_Simple_types<enum VkDynamicState> >::_Vector_val<std::_Simple_types<enum VkDynamicState> >
PUBLIC	?_Get_first@?$_Compressed_pair@V?$allocator@W4VkDynamicState@@@std@@V?$_Vector_val@U?$_Simple_types@W4VkDynamicState@@@std@@@2@$00@std@@QEAAAEAV?$allocator@W4VkDynamicState@@@2@XZ ; std::_Compressed_pair<std::allocator<enum VkDynamicState>,std::_Vector_val<std::_Simple_types<enum VkDynamicState> >,1>::_Get_first
PUBLIC	??1GraphicsPipelineSimpleInfo@cow@@QEAA@XZ	; cow::GraphicsPipelineSimpleInfo::~GraphicsPipelineSimpleInfo
PUBLIC	??0Buffer@cow@@QEAA@AEAVDevice@1@_KII@Z		; cow::Buffer::Buffer
PUBLIC	??1Buffer@cow@@QEAA@XZ				; cow::Buffer::~Buffer
PUBLIC	?map@Buffer@cow@@QEAA?AW4VkResult@@_K0@Z	; cow::Buffer::map
PUBLIC	?unmap@Buffer@cow@@QEAAXXZ			; cow::Buffer::unmap
PUBLIC	?write@Buffer@cow@@QEAAPEAXPEAX_K1@Z		; cow::Buffer::write
PUBLIC	?copy@Buffer@cow@@QEAAXPEAUVkBuffer_T@@_K@Z	; cow::Buffer::copy
PUBLIC	?get@Buffer@cow@@QEAAPEAUVkBuffer_T@@XZ		; cow::Buffer::get
PUBLIC	?createBuffer@Buffer@cow@@AEAAXII@Z		; cow::Buffer::createBuffer
PUBLIC	?__autoclassinit2@Buffer@cow@@QEAAX_K@Z		; cow::Buffer::__autoclassinit2
PUBLIC	?getCurrentImageIndex@GraphicsCommands@cow@@QEAAIXZ ; cow::GraphicsCommands::getCurrentImageIndex
PUBLIC	??C?$unique_ptr@VSwapchain@cow@@U?$default_delete@VSwapchain@cow@@@std@@@std@@QEBAPEAVSwapchain@cow@@XZ ; std::unique_ptr<cow::Swapchain,std::default_delete<cow::Swapchain> >::operator->
PUBLIC	?__autoclassinit2@GraphicsCommands@cow@@QEAAX_K@Z ; cow::GraphicsCommands::__autoclassinit2
PUBLIC	?lerp@@YAMMMM@Z					; lerp
PUBLIC	main
PUBLIC	??0?$allocator@PEAUVkCommandBuffer_T@@@std@@QEAA@XZ ; std::allocator<VkCommandBuffer_T *>::allocator<VkCommandBuffer_T *>
PUBLIC	?deallocate@?$allocator@PEAUVkCommandBuffer_T@@@std@@QEAAXQEAPEAUVkCommandBuffer_T@@_K@Z ; std::allocator<VkCommandBuffer_T *>::deallocate
PUBLIC	?allocate@?$allocator@PEAUVkCommandBuffer_T@@@std@@QEAAPEAPEAUVkCommandBuffer_T@@_K@Z ; std::allocator<VkCommandBuffer_T *>::allocate
PUBLIC	?max_size@?$_Default_allocator_traits@V?$allocator@PEAUVkCommandBuffer_T@@@std@@@std@@SA_KAEBV?$allocator@PEAUVkCommandBuffer_T@@@2@@Z ; std::_Default_allocator_traits<std::allocator<VkCommandBuffer_T *> >::max_size
PUBLIC	??0?$vector@PEAUVkCommandBuffer_T@@V?$allocator@PEAUVkCommandBuffer_T@@@std@@@std@@QEAA@_KAEBV?$allocator@PEAUVkCommandBuffer_T@@@1@@Z ; std::vector<VkCommandBuffer_T *,std::allocator<VkCommandBuffer_T *> >::vector<VkCommandBuffer_T *,std::allocator<VkCommandBuffer_T *> >
PUBLIC	??1?$vector@PEAUVkCommandBuffer_T@@V?$allocator@PEAUVkCommandBuffer_T@@@std@@@std@@QEAA@XZ ; std::vector<VkCommandBuffer_T *,std::allocator<VkCommandBuffer_T *> >::~vector<VkCommandBuffer_T *,std::allocator<VkCommandBuffer_T *> >
PUBLIC	?data@?$vector@PEAUVkCommandBuffer_T@@V?$allocator@PEAUVkCommandBuffer_T@@@std@@@std@@QEAAPEAPEAUVkCommandBuffer_T@@XZ ; std::vector<VkCommandBuffer_T *,std::allocator<VkCommandBuffer_T *> >::data
PUBLIC	?size@?$vector@PEAUVkCommandBuffer_T@@V?$allocator@PEAUVkCommandBuffer_T@@@std@@@std@@QEBA_KXZ ; std::vector<VkCommandBuffer_T *,std::allocator<VkCommandBuffer_T *> >::size
PUBLIC	?max_size@?$vector@PEAUVkCommandBuffer_T@@V?$allocator@PEAUVkCommandBuffer_T@@@std@@@std@@QEBA_KXZ ; std::vector<VkCommandBuffer_T *,std::allocator<VkCommandBuffer_T *> >::max_size
PUBLIC	?_Buy_raw@?$vector@PEAUVkCommandBuffer_T@@V?$allocator@PEAUVkCommandBuffer_T@@@std@@@std@@AEAAX_K@Z ; std::vector<VkCommandBuffer_T *,std::allocator<VkCommandBuffer_T *> >::_Buy_raw
PUBLIC	?_Buy_nonzero@?$vector@PEAUVkCommandBuffer_T@@V?$allocator@PEAUVkCommandBuffer_T@@@std@@@std@@AEAAX_K@Z ; std::vector<VkCommandBuffer_T *,std::allocator<VkCommandBuffer_T *> >::_Buy_nonzero
PUBLIC	?_Tidy@?$vector@PEAUVkCommandBuffer_T@@V?$allocator@PEAUVkCommandBuffer_T@@@std@@@std@@AEAAXXZ ; std::vector<VkCommandBuffer_T *,std::allocator<VkCommandBuffer_T *> >::_Tidy
PUBLIC	?_Xlength@?$vector@PEAUVkCommandBuffer_T@@V?$allocator@PEAUVkCommandBuffer_T@@@std@@@std@@CAXXZ ; std::vector<VkCommandBuffer_T *,std::allocator<VkCommandBuffer_T *> >::_Xlength
PUBLIC	?_Getal@?$vector@PEAUVkCommandBuffer_T@@V?$allocator@PEAUVkCommandBuffer_T@@@std@@@std@@AEAAAEAV?$allocator@PEAUVkCommandBuffer_T@@@2@XZ ; std::vector<VkCommandBuffer_T *,std::allocator<VkCommandBuffer_T *> >::_Getal
PUBLIC	?_Getal@?$vector@PEAUVkCommandBuffer_T@@V?$allocator@PEAUVkCommandBuffer_T@@@std@@@std@@AEBAAEBV?$allocator@PEAUVkCommandBuffer_T@@@2@XZ ; std::vector<VkCommandBuffer_T *,std::allocator<VkCommandBuffer_T *> >::_Getal
PUBLIC	??0?$_Vector_val@U?$_Simple_types@PEAUVkCommandBuffer_T@@@std@@@std@@QEAA@XZ ; std::_Vector_val<std::_Simple_types<VkCommandBuffer_T *> >::_Vector_val<std::_Simple_types<VkCommandBuffer_T *> >
PUBLIC	?_Get_first@?$_Compressed_pair@V?$allocator@PEAUVkCommandBuffer_T@@@std@@V?$_Vector_val@U?$_Simple_types@PEAUVkCommandBuffer_T@@@std@@@2@$00@std@@QEAAAEAV?$allocator@PEAUVkCommandBuffer_T@@@2@XZ ; std::_Compressed_pair<std::allocator<VkCommandBuffer_T *>,std::_Vector_val<std::_Simple_types<VkCommandBuffer_T *> >,1>::_Get_first
PUBLIC	?_Get_first@?$_Compressed_pair@V?$allocator@PEAUVkCommandBuffer_T@@@std@@V?$_Vector_val@U?$_Simple_types@PEAUVkCommandBuffer_T@@@std@@@2@$00@std@@QEBAAEBV?$allocator@PEAUVkCommandBuffer_T@@@2@XZ ; std::_Compressed_pair<std::allocator<VkCommandBuffer_T *>,std::_Vector_val<std::_Simple_types<VkCommandBuffer_T *> >,1>::_Get_first
PUBLIC	?__autoclassinit2@?$vector@PEAUVkCommandBuffer_T@@V?$allocator@PEAUVkCommandBuffer_T@@@std@@@std@@QEAAX_K@Z ; std::vector<VkCommandBuffer_T *,std::allocator<VkCommandBuffer_T *> >::__autoclassinit2
PUBLIC	??$?6U?$char_traits@D@std@@@std@@YAAEAV?$basic_ostream@DU?$char_traits@D@std@@@0@AEAV10@PEBD@Z ; std::operator<<<std::char_traits<char> >
PUBLIC	??0?$GraphicsPipeline@UVertex2DRGB@cow@@@cow@@QEAA@AEAVDevice@1@PEAUGraphicsPipelineSimpleInfo@1@@Z ; cow::GraphicsPipeline<cow::Vertex2DRGB>::GraphicsPipeline<cow::Vertex2DRGB>
PUBLIC	??1?$GraphicsPipeline@UVertex2DRGB@cow@@@cow@@QEAA@XZ ; cow::GraphicsPipeline<cow::Vertex2DRGB>::~GraphicsPipeline<cow::Vertex2DRGB>
PUBLIC	?bind@?$GraphicsPipeline@UVertex2DRGB@cow@@@cow@@QEAAXPEAUVkCommandBuffer_T@@@Z ; cow::GraphicsPipeline<cow::Vertex2DRGB>::bind
PUBLIC	?__autoclassinit2@?$GraphicsPipeline@UVertex2DRGB@cow@@@cow@@QEAAX_K@Z ; cow::GraphicsPipeline<cow::Vertex2DRGB>::__autoclassinit2
PUBLIC	??0?$allocator@UVertex2DRGB@cow@@@std@@QEAA@XZ	; std::allocator<cow::Vertex2DRGB>::allocator<cow::Vertex2DRGB>
PUBLIC	?deallocate@?$allocator@UVertex2DRGB@cow@@@std@@QEAAXQEAUVertex2DRGB@cow@@_K@Z ; std::allocator<cow::Vertex2DRGB>::deallocate
PUBLIC	?allocate@?$allocator@UVertex2DRGB@cow@@@std@@QEAAPEAUVertex2DRGB@cow@@_K@Z ; std::allocator<cow::Vertex2DRGB>::allocate
PUBLIC	?max_size@?$_Default_allocator_traits@V?$allocator@UVertex2DRGB@cow@@@std@@@std@@SA_KAEBV?$allocator@UVertex2DRGB@cow@@@2@@Z ; std::_Default_allocator_traits<std::allocator<cow::Vertex2DRGB> >::max_size
PUBLIC	??0?$vector@UVertex2DRGB@cow@@V?$allocator@UVertex2DRGB@cow@@@std@@@std@@QEAA@XZ ; std::vector<cow::Vertex2DRGB,std::allocator<cow::Vertex2DRGB> >::vector<cow::Vertex2DRGB,std::allocator<cow::Vertex2DRGB> >
PUBLIC	??1?$vector@UVertex2DRGB@cow@@V?$allocator@UVertex2DRGB@cow@@@std@@@std@@QEAA@XZ ; std::vector<cow::Vertex2DRGB,std::allocator<cow::Vertex2DRGB> >::~vector<cow::Vertex2DRGB,std::allocator<cow::Vertex2DRGB> >
PUBLIC	?push_back@?$vector@UVertex2DRGB@cow@@V?$allocator@UVertex2DRGB@cow@@@std@@@std@@QEAAX$$QEAUVertex2DRGB@cow@@@Z ; std::vector<cow::Vertex2DRGB,std::allocator<cow::Vertex2DRGB> >::push_back
PUBLIC	?data@?$vector@UVertex2DRGB@cow@@V?$allocator@UVertex2DRGB@cow@@@std@@@std@@QEAAPEAUVertex2DRGB@cow@@XZ ; std::vector<cow::Vertex2DRGB,std::allocator<cow::Vertex2DRGB> >::data
PUBLIC	?size@?$vector@UVertex2DRGB@cow@@V?$allocator@UVertex2DRGB@cow@@@std@@@std@@QEBA_KXZ ; std::vector<cow::Vertex2DRGB,std::allocator<cow::Vertex2DRGB> >::size
PUBLIC	?max_size@?$vector@UVertex2DRGB@cow@@V?$allocator@UVertex2DRGB@cow@@@std@@@std@@QEBA_KXZ ; std::vector<cow::Vertex2DRGB,std::allocator<cow::Vertex2DRGB> >::max_size
PUBLIC	?capacity@?$vector@UVertex2DRGB@cow@@V?$allocator@UVertex2DRGB@cow@@@std@@@std@@QEBA_KXZ ; std::vector<cow::Vertex2DRGB,std::allocator<cow::Vertex2DRGB> >::capacity
PUBLIC	?_Calculate_growth@?$vector@UVertex2DRGB@cow@@V?$allocator@UVertex2DRGB@cow@@@std@@@std@@AEBA_K_K@Z ; std::vector<cow::Vertex2DRGB,std::allocator<cow::Vertex2DRGB> >::_Calculate_growth
PUBLIC	?_Change_array@?$vector@UVertex2DRGB@cow@@V?$allocator@UVertex2DRGB@cow@@@std@@@std@@AEAAXQEAUVertex2DRGB@cow@@_K1@Z ; std::vector<cow::Vertex2DRGB,std::allocator<cow::Vertex2DRGB> >::_Change_array
PUBLIC	?_Tidy@?$vector@UVertex2DRGB@cow@@V?$allocator@UVertex2DRGB@cow@@@std@@@std@@AEAAXXZ ; std::vector<cow::Vertex2DRGB,std::allocator<cow::Vertex2DRGB> >::_Tidy
PUBLIC	?_Xlength@?$vector@UVertex2DRGB@cow@@V?$allocator@UVertex2DRGB@cow@@@std@@@std@@CAXXZ ; std::vector<cow::Vertex2DRGB,std::allocator<cow::Vertex2DRGB> >::_Xlength
PUBLIC	?_Orphan_range_unlocked@?$vector@UVertex2DRGB@cow@@V?$allocator@UVertex2DRGB@cow@@@std@@@std@@AEBAXPEAUVertex2DRGB@cow@@0@Z ; std::vector<cow::Vertex2DRGB,std::allocator<cow::Vertex2DRGB> >::_Orphan_range_unlocked
PUBLIC	?_Orphan_range_locked@?$vector@UVertex2DRGB@cow@@V?$allocator@UVertex2DRGB@cow@@@std@@@std@@AEBAXPEAUVertex2DRGB@cow@@0@Z ; std::vector<cow::Vertex2DRGB,std::allocator<cow::Vertex2DRGB> >::_Orphan_range_locked
PUBLIC	?_Orphan_range@?$vector@UVertex2DRGB@cow@@V?$allocator@UVertex2DRGB@cow@@@std@@@std@@AEBAXPEAUVertex2DRGB@cow@@0@Z ; std::vector<cow::Vertex2DRGB,std::allocator<cow::Vertex2DRGB> >::_Orphan_range
PUBLIC	?_Getal@?$vector@UVertex2DRGB@cow@@V?$allocator@UVertex2DRGB@cow@@@std@@@std@@AEAAAEAV?$allocator@UVertex2DRGB@cow@@@2@XZ ; std::vector<cow::Vertex2DRGB,std::allocator<cow::Vertex2DRGB> >::_Getal
PUBLIC	?_Getal@?$vector@UVertex2DRGB@cow@@V?$allocator@UVertex2DRGB@cow@@@std@@@std@@AEBAAEBV?$allocator@UVertex2DRGB@cow@@@2@XZ ; std::vector<cow::Vertex2DRGB,std::allocator<cow::Vertex2DRGB> >::_Getal
PUBLIC	??0?$_Vector_val@U?$_Simple_types@UVertex2DRGB@cow@@@std@@@std@@QEAA@XZ ; std::_Vector_val<std::_Simple_types<cow::Vertex2DRGB> >::_Vector_val<std::_Simple_types<cow::Vertex2DRGB> >
PUBLIC	?_Get_first@?$_Compressed_pair@V?$allocator@UVertex2DRGB@cow@@@std@@V?$_Vector_val@U?$_Simple_types@UVertex2DRGB@cow@@@std@@@2@$00@std@@QEAAAEAV?$allocator@UVertex2DRGB@cow@@@2@XZ ; std::_Compressed_pair<std::allocator<cow::Vertex2DRGB>,std::_Vector_val<std::_Simple_types<cow::Vertex2DRGB> >,1>::_Get_first
PUBLIC	?_Get_first@?$_Compressed_pair@V?$allocator@UVertex2DRGB@cow@@@std@@V?$_Vector_val@U?$_Simple_types@UVertex2DRGB@cow@@@std@@@2@$00@std@@QEBAAEBV?$allocator@UVertex2DRGB@cow@@@2@XZ ; std::_Compressed_pair<std::allocator<cow::Vertex2DRGB>,std::_Vector_val<std::_Simple_types<cow::Vertex2DRGB> >,1>::_Get_first
PUBLIC	?__autoclassinit2@?$vector@UVertex2DRGB@cow@@V?$allocator@UVertex2DRGB@cow@@@std@@@std@@QEAAX_K@Z ; std::vector<cow::Vertex2DRGB,std::allocator<cow::Vertex2DRGB> >::__autoclassinit2
PUBLIC	??$?0NN@?$vec@$01M$0A@@glm@@QEAA@NN@Z		; glm::vec<2,float,0>::vec<2,float,0><double,double>
PUBLIC	??$?0NNN@?$vec@$02M$0A@@glm@@QEAA@NNN@Z		; glm::vec<3,float,0>::vec<3,float,0><double,double,double>
PUBLIC	??$_Unfancy_maybe_null@UVertex2DRGB@cow@@@std@@YAPEAUVertex2DRGB@cow@@PEAU12@@Z ; std::_Unfancy_maybe_null<cow::Vertex2DRGB>
PUBLIC	??$move@AEAUVertex2DRGB@cow@@@std@@YA$$QEAUVertex2DRGB@cow@@AEAU12@@Z ; std::move<cow::Vertex2DRGB &>
PUBLIC	??$emplace_back@UVertex2DRGB@cow@@@?$vector@UVertex2DRGB@cow@@V?$allocator@UVertex2DRGB@cow@@@std@@@std@@QEAA?A_T$$QEAUVertex2DRGB@cow@@@Z ; std::vector<cow::Vertex2DRGB,std::allocator<cow::Vertex2DRGB> >::emplace_back<cow::Vertex2DRGB>
PUBLIC	??$forward@UVertex2DRGB@cow@@@std@@YA$$QEAUVertex2DRGB@cow@@AEAU12@@Z ; std::forward<cow::Vertex2DRGB>
PUBLIC	??$_Emplace_one_at_back@UVertex2DRGB@cow@@@?$vector@UVertex2DRGB@cow@@V?$allocator@UVertex2DRGB@cow@@@std@@@std@@AEAAAEAUVertex2DRGB@cow@@$$QEAU23@@Z ; std::vector<cow::Vertex2DRGB,std::allocator<cow::Vertex2DRGB> >::_Emplace_one_at_back<cow::Vertex2DRGB>
PUBLIC	?deallocate@?$allocator@U_Container_proxy@std@@@std@@QEAAXQEAU_Container_proxy@2@_K@Z ; std::allocator<std::_Container_proxy>::deallocate
PUBLIC	?allocate@?$allocator@U_Container_proxy@std@@@std@@QEAAPEAU_Container_proxy@2@_K@Z ; std::allocator<std::_Container_proxy>::allocate
PUBLIC	??$?0UVertex2DRGB@cow@@@?$allocator@U_Container_proxy@std@@@std@@QEAA@AEBV?$allocator@UVertex2DRGB@cow@@@1@@Z ; std::allocator<std::_Container_proxy>::allocator<std::_Container_proxy><cow::Vertex2DRGB>
PUBLIC	??$exchange@PEAU_Container_proxy@std@@$$T@std@@YAPEAU_Container_proxy@0@AEAPEAU10@$$QEA$$T@Z ; std::exchange<std::_Container_proxy *,std::nullptr_t>
PUBLIC	??$_Delete_plain_internal@V?$allocator@U_Container_proxy@std@@@std@@@std@@YAXAEAV?$allocator@U_Container_proxy@std@@@0@QEAU_Container_proxy@0@@Z ; std::_Delete_plain_internal<std::allocator<std::_Container_proxy> >
PUBLIC	??$?0$$V@?$_Compressed_pair@V?$allocator@UVertex2DRGB@cow@@@std@@V?$_Vector_val@U?$_Simple_types@UVertex2DRGB@cow@@@std@@@2@$00@std@@QEAA@U_Zero_then_variadic_args_t@1@@Z ; std::_Compressed_pair<std::allocator<cow::Vertex2DRGB>,std::_Vector_val<std::_Simple_types<cow::Vertex2DRGB> >,1>::_Compressed_pair<std::allocator<cow::Vertex2DRGB>,std::_Vector_val<std::_Simple_types<cow::Vertex2DRGB> >,1><>
PUBLIC	??$_Alloc_proxy@V?$allocator@U_Container_proxy@std@@@std@@@_Container_base12@std@@QEAAX$$QEAV?$allocator@U_Container_proxy@std@@@1@@Z ; std::_Container_base12::_Alloc_proxy<std::allocator<std::_Container_proxy> >
PUBLIC	?deallocate@?$allocator@UVkVertexInputAttributeDescription@@@std@@QEAAXQEAUVkVertexInputAttributeDescription@@_K@Z ; std::allocator<VkVertexInputAttributeDescription>::deallocate
PUBLIC	??1?$vector@UVkVertexInputAttributeDescription@@V?$allocator@UVkVertexInputAttributeDescription@@@std@@@std@@QEAA@XZ ; std::vector<VkVertexInputAttributeDescription,std::allocator<VkVertexInputAttributeDescription> >::~vector<VkVertexInputAttributeDescription,std::allocator<VkVertexInputAttributeDescription> >
PUBLIC	?data@?$vector@UVkVertexInputAttributeDescription@@V?$allocator@UVkVertexInputAttributeDescription@@@std@@@std@@QEAAPEAUVkVertexInputAttributeDescription@@XZ ; std::vector<VkVertexInputAttributeDescription,std::allocator<VkVertexInputAttributeDescription> >::data
PUBLIC	?size@?$vector@UVkVertexInputAttributeDescription@@V?$allocator@UVkVertexInputAttributeDescription@@@std@@@std@@QEBA_KXZ ; std::vector<VkVertexInputAttributeDescription,std::allocator<VkVertexInputAttributeDescription> >::size
PUBLIC	?_Tidy@?$vector@UVkVertexInputAttributeDescription@@V?$allocator@UVkVertexInputAttributeDescription@@@std@@@std@@AEAAXXZ ; std::vector<VkVertexInputAttributeDescription,std::allocator<VkVertexInputAttributeDescription> >::_Tidy
PUBLIC	?_Getal@?$vector@UVkVertexInputAttributeDescription@@V?$allocator@UVkVertexInputAttributeDescription@@@std@@@std@@AEAAAEAV?$allocator@UVkVertexInputAttributeDescription@@@2@XZ ; std::vector<VkVertexInputAttributeDescription,std::allocator<VkVertexInputAttributeDescription> >::_Getal
PUBLIC	?_Get_first@?$_Compressed_pair@V?$allocator@UVkVertexInputAttributeDescription@@@std@@V?$_Vector_val@U?$_Simple_types@UVkVertexInputAttributeDescription@@@std@@@2@$00@std@@QEAAAEAV?$allocator@UVkVertexInputAttributeDescription@@@2@XZ ; std::_Compressed_pair<std::allocator<VkVertexInputAttributeDescription>,std::_Vector_val<std::_Simple_types<VkVertexInputAttributeDescription> >,1>::_Get_first
PUBLIC	?__autoclassinit2@?$vector@UVkVertexInputAttributeDescription@@V?$allocator@UVkVertexInputAttributeDescription@@@std@@@std@@QEAAX_K@Z ; std::vector<VkVertexInputAttributeDescription,std::allocator<VkVertexInputAttributeDescription> >::__autoclassinit2
PUBLIC	??$_Unfancy_maybe_null@PEAUVkCommandBuffer_T@@@std@@YAPEAPEAUVkCommandBuffer_T@@PEAPEAU1@@Z ; std::_Unfancy_maybe_null<VkCommandBuffer_T *>
PUBLIC	??$?0PEAUVkCommandBuffer_T@@@?$allocator@U_Container_proxy@std@@@std@@QEAA@AEBV?$allocator@PEAUVkCommandBuffer_T@@@1@@Z ; std::allocator<std::_Container_proxy>::allocator<std::_Container_proxy><VkCommandBuffer_T *>
PUBLIC	??$?0AEBV?$allocator@PEAUVkCommandBuffer_T@@@std@@$$V@?$_Compressed_pair@V?$allocator@PEAUVkCommandBuffer_T@@@std@@V?$_Vector_val@U?$_Simple_types@PEAUVkCommandBuffer_T@@@std@@@2@$00@std@@QEAA@U_One_then_variadic_args_t@1@AEBV?$allocator@PEAUVkCommandBuffer_T@@@1@@Z ; std::_Compressed_pair<std::allocator<VkCommandBuffer_T *>,std::_Vector_val<std::_Simple_types<VkCommandBuffer_T *> >,1>::_Compressed_pair<std::allocator<VkCommandBuffer_T *>,std::_Vector_val<std::_Simple_types<VkCommandBuffer_T *> >,1><std::allocator<VkCommandBuffer_T *> const &>
PUBLIC	??$_Construct_n@$$V@?$vector@PEAUVkCommandBuffer_T@@V?$allocator@PEAUVkCommandBuffer_T@@@std@@@std@@AEAAX_K@Z ; std::vector<VkCommandBuffer_T *,std::allocator<VkCommandBuffer_T *> >::_Construct_n<>
PUBLIC	??$?0W4VkDynamicState@@@?$allocator@U_Container_proxy@std@@@std@@QEAA@AEBV?$allocator@W4VkDynamicState@@@1@@Z ; std::allocator<std::_Container_proxy>::allocator<std::_Container_proxy><enum VkDynamicState>
PUBLIC	??$?0$$V@?$_Compressed_pair@V?$allocator@W4VkDynamicState@@@std@@V?$_Vector_val@U?$_Simple_types@W4VkDynamicState@@@std@@@2@$00@std@@QEAA@U_Zero_then_variadic_args_t@1@@Z ; std::_Compressed_pair<std::allocator<enum VkDynamicState>,std::_Vector_val<std::_Simple_types<enum VkDynamicState> >,1>::_Compressed_pair<std::allocator<enum VkDynamicState>,std::_Vector_val<std::_Simple_types<enum VkDynamicState> >,1><>
PUBLIC	??0_Sentry_base@?$basic_ostream@DU?$char_traits@D@std@@@std@@QEAA@AEAV12@@Z ; std::basic_ostream<char,std::char_traits<char> >::_Sentry_base::_Sentry_base
PUBLIC	??1_Sentry_base@?$basic_ostream@DU?$char_traits@D@std@@@std@@QEAA@XZ ; std::basic_ostream<char,std::char_traits<char> >::_Sentry_base::~_Sentry_base
PUBLIC	??0sentry@?$basic_ostream@DU?$char_traits@D@std@@@std@@QEAA@AEAV12@@Z ; std::basic_ostream<char,std::char_traits<char> >::sentry::sentry
PUBLIC	??1sentry@?$basic_ostream@DU?$char_traits@D@std@@@std@@QEAA@XZ ; std::basic_ostream<char,std::char_traits<char> >::sentry::~sentry
PUBLIC	??Bsentry@?$basic_ostream@DU?$char_traits@D@std@@@std@@QEBA_NXZ ; std::basic_ostream<char,std::char_traits<char> >::sentry::operator bool
PUBLIC	??$min@_K@std@@YAAEB_KAEB_K0@Z			; std::min<unsigned __int64>
PUBLIC	??0?$_Container_proxy_ptr12@V?$allocator@U_Container_proxy@std@@@std@@@std@@QEAA@AEAV?$allocator@U_Container_proxy@std@@@1@AEAU_Container_base12@1@@Z ; std::_Container_proxy_ptr12<std::allocator<std::_Container_proxy> >::_Container_proxy_ptr12<std::allocator<std::_Container_proxy> >
PUBLIC	??1?$_Container_proxy_ptr12@V?$allocator@U_Container_proxy@std@@@std@@@std@@QEAA@XZ ; std::_Container_proxy_ptr12<std::allocator<std::_Container_proxy> >::~_Container_proxy_ptr12<std::allocator<std::_Container_proxy> >
PUBLIC	??$_Unfancy@U_Container_proxy@std@@@std@@YAPEAU_Container_proxy@0@PEAU10@@Z ; std::_Unfancy<std::_Container_proxy>
PUBLIC	??$_Unfancy_maybe_null@UVkVertexInputAttributeDescription@@@std@@YAPEAUVkVertexInputAttributeDescription@@PEAU1@@Z ; std::_Unfancy_maybe_null<VkVertexInputAttributeDescription>
PUBLIC	??$?0UVkVertexInputAttributeDescription@@@?$allocator@U_Container_proxy@std@@@std@@QEAA@AEBV?$allocator@UVkVertexInputAttributeDescription@@@1@@Z ; std::allocator<std::_Container_proxy>::allocator<std::_Container_proxy><VkVertexInputAttributeDescription>
PUBLIC	??$_Destroy_range@V?$allocator@UVertex2DRGB@cow@@@std@@@std@@YAXPEAUVertex2DRGB@cow@@QEAU12@AEAV?$allocator@UVertex2DRGB@cow@@@0@@Z ; std::_Destroy_range<std::allocator<cow::Vertex2DRGB> >
PUBLIC	??$_Destroy_range@V?$allocator@PEAUVkCommandBuffer_T@@@std@@@std@@YAXPEAPEAUVkCommandBuffer_T@@QEAPEAU1@AEAV?$allocator@PEAUVkCommandBuffer_T@@@0@@Z ; std::_Destroy_range<std::allocator<VkCommandBuffer_T *> >
PUBLIC	??$_Destroy_range@V?$allocator@W4VkDynamicState@@@std@@@std@@YAXPEAW4VkDynamicState@@QEAW41@AEAV?$allocator@W4VkDynamicState@@@0@@Z ; std::_Destroy_range<std::allocator<enum VkDynamicState> >
PUBLIC	??$_Destroy_range@V?$allocator@UVkVertexInputAttributeDescription@@@std@@@std@@YAXPEAUVkVertexInputAttributeDescription@@QEAU1@AEAV?$allocator@UVkVertexInputAttributeDescription@@@0@@Z ; std::_Destroy_range<std::allocator<VkVertexInputAttributeDescription> >
PUBLIC	??$_Get_size_of_n@$0BA@@std@@YA_K_K@Z		; std::_Get_size_of_n<16>
PUBLIC	??$_Allocate@$0BA@U_Default_allocate_traits@std@@$0A@@std@@YAPEAX_K@Z ; std::_Allocate<16,std::_Default_allocate_traits,0>
PUBLIC	??$_Deallocate@$0BA@$0A@@std@@YAXPEAX_K@Z	; std::_Deallocate<16,0>
PUBLIC	??$addressof@U_Container_proxy@std@@@std@@YAPEAU_Container_proxy@0@AEAU10@@Z ; std::addressof<std::_Container_proxy>
PUBLIC	??$_Voidify_iter@PEAU_Container_proxy@std@@@std@@YAPEAXPEAU_Container_proxy@0@@Z ; std::_Voidify_iter<std::_Container_proxy *>
PUBLIC	??$forward@PEAU_Container_base12@std@@@std@@YA$$QEAPEAU_Container_base12@0@AEAPEAU10@@Z ; std::forward<std::_Container_base12 *>
PUBLIC	??$construct_at@U_Container_proxy@std@@PEAU_Container_base12@2@X@std@@YAPEAU_Container_proxy@0@QEAU10@$$QEAPEAU_Container_base12@0@@Z ; std::construct_at<std::_Container_proxy,std::_Container_base12 *,void>
PUBLIC	??$_Emplace_back_with_unused_capacity@UVertex2DRGB@cow@@@?$vector@UVertex2DRGB@cow@@V?$allocator@UVertex2DRGB@cow@@@std@@@std@@AEAAAEAUVertex2DRGB@cow@@$$QEAU23@@Z ; std::vector<cow::Vertex2DRGB,std::allocator<cow::Vertex2DRGB> >::_Emplace_back_with_unused_capacity<cow::Vertex2DRGB>
PUBLIC	??$_Emplace_reallocate@UVertex2DRGB@cow@@@?$vector@UVertex2DRGB@cow@@V?$allocator@UVertex2DRGB@cow@@@std@@@std@@AEAAPEAUVertex2DRGB@cow@@QEAU23@$$QEAU23@@Z ; std::vector<cow::Vertex2DRGB,std::allocator<cow::Vertex2DRGB> >::_Emplace_reallocate<cow::Vertex2DRGB>
PUBLIC	??$_Deallocate_plain@V?$allocator@U_Container_proxy@std@@@std@@@std@@YAXAEAV?$allocator@U_Container_proxy@std@@@0@QEAU_Container_proxy@0@@Z ; std::_Deallocate_plain<std::allocator<std::_Container_proxy> >
PUBLIC	??$forward@AEBV?$allocator@PEAUVkCommandBuffer_T@@@std@@@std@@YAAEBV?$allocator@PEAUVkCommandBuffer_T@@@0@AEBV10@@Z ; std::forward<std::allocator<VkCommandBuffer_T *> const &>
PUBLIC	??1?$_Tidy_guard@V?$vector@PEAUVkCommandBuffer_T@@V?$allocator@PEAUVkCommandBuffer_T@@@std@@@std@@@std@@QEAA@XZ ; std::_Tidy_guard<std::vector<VkCommandBuffer_T *,std::allocator<VkCommandBuffer_T *> > >::~_Tidy_guard<std::vector<VkCommandBuffer_T *,std::allocator<VkCommandBuffer_T *> > >
PUBLIC	??$_Uninitialized_value_construct_n@V?$allocator@PEAUVkCommandBuffer_T@@@std@@@std@@YAPEAPEAUVkCommandBuffer_T@@PEAPEAU1@_KAEAV?$allocator@PEAUVkCommandBuffer_T@@@0@@Z ; std::_Uninitialized_value_construct_n<std::allocator<VkCommandBuffer_T *> >
PUBLIC	??$_Allocate_manually_vector_aligned@U_Default_allocate_traits@std@@@std@@YAPEAX_K@Z ; std::_Allocate_manually_vector_aligned<std::_Default_allocate_traits>
PUBLIC	??$_Get_size_of_n@$07@std@@YA_K_K@Z		; std::_Get_size_of_n<8>
PUBLIC	??$_Construct_in_place@UVertex2DRGB@cow@@U12@@std@@YAXAEAUVertex2DRGB@cow@@$$QEAU12@@Z ; std::_Construct_in_place<cow::Vertex2DRGB,cow::Vertex2DRGB>
PUBLIC	??$_Unfancy@UVertex2DRGB@cow@@@std@@YAPEAUVertex2DRGB@cow@@PEAU12@@Z ; std::_Unfancy<cow::Vertex2DRGB>
PUBLIC	??$construct@UVertex2DRGB@cow@@U12@@?$_Default_allocator_traits@V?$allocator@UVertex2DRGB@cow@@@std@@@std@@SAXAEAV?$allocator@UVertex2DRGB@cow@@@1@QEAUVertex2DRGB@cow@@$$QEAU34@@Z ; std::_Default_allocator_traits<std::allocator<cow::Vertex2DRGB> >::construct<cow::Vertex2DRGB,cow::Vertex2DRGB>
PUBLIC	??$_Uninitialized_move@PEAUVertex2DRGB@cow@@V?$allocator@UVertex2DRGB@cow@@@std@@@std@@YAPEAUVertex2DRGB@cow@@QEAU12@0PEAU12@AEAV?$allocator@UVertex2DRGB@cow@@@0@@Z ; std::_Uninitialized_move<cow::Vertex2DRGB *,std::allocator<cow::Vertex2DRGB> >
PUBLIC	?deallocate@?$_Default_allocator_traits@V?$allocator@U_Container_proxy@std@@@std@@@std@@SAXAEAV?$allocator@U_Container_proxy@std@@@2@QEAU_Container_proxy@2@_K@Z ; std::_Default_allocator_traits<std::allocator<std::_Container_proxy> >::deallocate
PUBLIC	??$_Unfancy@PEAUVkCommandBuffer_T@@@std@@YAPEAPEAUVkCommandBuffer_T@@PEAPEAU1@@Z ; std::_Unfancy<VkCommandBuffer_T *>
PUBLIC	??$_Zero_range@PEAPEAUVkCommandBuffer_T@@@std@@YAPEAPEAUVkCommandBuffer_T@@QEAPEAU1@0@Z ; std::_Zero_range<VkCommandBuffer_T * *>
PUBLIC	??0?$_Uninitialized_backout_al@V?$allocator@PEAUVkCommandBuffer_T@@@std@@@std@@QEAA@PEAPEAUVkCommandBuffer_T@@AEAV?$allocator@PEAUVkCommandBuffer_T@@@1@@Z ; std::_Uninitialized_backout_al<std::allocator<VkCommandBuffer_T *> >::_Uninitialized_backout_al<std::allocator<VkCommandBuffer_T *> >
PUBLIC	??1?$_Uninitialized_backout_al@V?$allocator@PEAUVkCommandBuffer_T@@@std@@@std@@QEAA@XZ ; std::_Uninitialized_backout_al<std::allocator<VkCommandBuffer_T *> >::~_Uninitialized_backout_al<std::allocator<VkCommandBuffer_T *> >
PUBLIC	?_Release@?$_Uninitialized_backout_al@V?$allocator@PEAUVkCommandBuffer_T@@@std@@@std@@QEAAPEAPEAUVkCommandBuffer_T@@XZ ; std::_Uninitialized_backout_al<std::allocator<VkCommandBuffer_T *> >::_Release
PUBLIC	?__autoclassinit2@?$_Uninitialized_backout_al@V?$allocator@PEAUVkCommandBuffer_T@@@std@@@std@@QEAAX_K@Z ; std::_Uninitialized_backout_al<std::allocator<VkCommandBuffer_T *> >::__autoclassinit2
PUBLIC	??$_Emplace_back@$$V@?$_Uninitialized_backout_al@V?$allocator@PEAUVkCommandBuffer_T@@@std@@@std@@QEAAXXZ ; std::_Uninitialized_backout_al<std::allocator<VkCommandBuffer_T *> >::_Emplace_back<>
PUBLIC	??$_Get_size_of_n@$0BE@@std@@YA_K_K@Z		; std::_Get_size_of_n<20>
PUBLIC	??$addressof@UVertex2DRGB@cow@@@std@@YAPEAUVertex2DRGB@cow@@AEAU12@@Z ; std::addressof<cow::Vertex2DRGB>
PUBLIC	??$construct_at@UVertex2DRGB@cow@@U12@X@std@@YAPEAUVertex2DRGB@cow@@QEAU12@$$QEAU12@@Z ; std::construct_at<cow::Vertex2DRGB,cow::Vertex2DRGB,void>
PUBLIC	??$_Voidify_iter@PEAUVertex2DRGB@cow@@@std@@YAPEAXPEAUVertex2DRGB@cow@@@Z ; std::_Voidify_iter<cow::Vertex2DRGB *>
PUBLIC	??$_Get_unwrapped@AEBQEAUVertex2DRGB@cow@@@std@@YA?A_TAEBQEAUVertex2DRGB@cow@@@Z ; std::_Get_unwrapped<cow::Vertex2DRGB * const &>
PUBLIC	??$_Copy_memmove@PEAUVertex2DRGB@cow@@PEAU12@@std@@YAPEAUVertex2DRGB@cow@@PEAU12@00@Z ; std::_Copy_memmove<cow::Vertex2DRGB *,cow::Vertex2DRGB *>
PUBLIC	??0?$_Uninitialized_backout_al@V?$allocator@UVertex2DRGB@cow@@@std@@@std@@QEAA@PEAUVertex2DRGB@cow@@AEAV?$allocator@UVertex2DRGB@cow@@@1@@Z ; std::_Uninitialized_backout_al<std::allocator<cow::Vertex2DRGB> >::_Uninitialized_backout_al<std::allocator<cow::Vertex2DRGB> >
PUBLIC	??1?$_Uninitialized_backout_al@V?$allocator@UVertex2DRGB@cow@@@std@@@std@@QEAA@XZ ; std::_Uninitialized_backout_al<std::allocator<cow::Vertex2DRGB> >::~_Uninitialized_backout_al<std::allocator<cow::Vertex2DRGB> >
PUBLIC	?_Release@?$_Uninitialized_backout_al@V?$allocator@UVertex2DRGB@cow@@@std@@@std@@QEAAPEAUVertex2DRGB@cow@@XZ ; std::_Uninitialized_backout_al<std::allocator<cow::Vertex2DRGB> >::_Release
PUBLIC	?__autoclassinit2@?$_Uninitialized_backout_al@V?$allocator@UVertex2DRGB@cow@@@std@@@std@@QEAAX_K@Z ; std::_Uninitialized_backout_al<std::allocator<cow::Vertex2DRGB> >::__autoclassinit2
PUBLIC	??$_Emplace_back@UVertex2DRGB@cow@@@?$_Uninitialized_backout_al@V?$allocator@UVertex2DRGB@cow@@@std@@@std@@QEAAX$$QEAUVertex2DRGB@cow@@@Z ; std::_Uninitialized_backout_al<std::allocator<cow::Vertex2DRGB> >::_Emplace_back<cow::Vertex2DRGB>
PUBLIC	??$_To_address@PEAPEAUVkCommandBuffer_T@@@std@@YA?A_PAEBQEAPEAUVkCommandBuffer_T@@@Z ; std::_To_address<VkCommandBuffer_T * *>
PUBLIC	??$to_address@PEAUVkCommandBuffer_T@@@std@@YAPEAPEAUVkCommandBuffer_T@@QEAPEAU1@@Z ; std::to_address<VkCommandBuffer_T *>
PUBLIC	??$construct@PEAUVkCommandBuffer_T@@$$V@?$_Default_allocator_traits@V?$allocator@PEAUVkCommandBuffer_T@@@std@@@std@@SAXAEAV?$allocator@PEAUVkCommandBuffer_T@@@1@QEAPEAUVkCommandBuffer_T@@@Z ; std::_Default_allocator_traits<std::allocator<VkCommandBuffer_T *> >::construct<VkCommandBuffer_T *>
PUBLIC	??$_To_address@PEAUVertex2DRGB@cow@@@std@@YA?A_PAEBQEAUVertex2DRGB@cow@@@Z ; std::_To_address<cow::Vertex2DRGB *>
PUBLIC	??$to_address@UVertex2DRGB@cow@@@std@@YAPEAUVertex2DRGB@cow@@QEAU12@@Z ; std::to_address<cow::Vertex2DRGB>
PUBLIC	??$construct_at@PEAUVkCommandBuffer_T@@$$VX@std@@YAPEAPEAUVkCommandBuffer_T@@QEAPEAU1@@Z ; std::construct_at<VkCommandBuffer_T *,void>
PUBLIC	??$_Voidify_iter@PEAPEAUVkCommandBuffer_T@@@std@@YAPEAXPEAPEAUVkCommandBuffer_T@@@Z ; std::_Voidify_iter<VkCommandBuffer_T * *>
PUBLIC	__JustMyCode_Default
PUBLIC	??_7exception@std@@6B@				; std::exception::`vftable'
PUBLIC	??_C@_0BC@EOODALEL@Unknown?5exception@		; `string'
PUBLIC	??_7bad_alloc@std@@6B@				; std::bad_alloc::`vftable'
PUBLIC	??_7bad_array_new_length@std@@6B@		; std::bad_array_new_length::`vftable'
PUBLIC	??_C@_0BF@KINCDENJ@bad?5array?5new?5length@	; `string'
PUBLIC	_TI3?AVbad_array_new_length@std@@
PUBLIC	_CTA3?AVbad_array_new_length@std@@
PUBLIC	??_R0?AVbad_array_new_length@std@@@8		; std::bad_array_new_length `RTTI Type Descriptor'
PUBLIC	_CT??_R0?AVbad_array_new_length@std@@@8??0bad_array_new_length@std@@QEAA@AEBV01@@Z24
PUBLIC	??_R0?AVbad_alloc@std@@@8			; std::bad_alloc `RTTI Type Descriptor'
PUBLIC	_CT??_R0?AVbad_alloc@std@@@8??0bad_alloc@std@@QEAA@AEBV01@@Z24
PUBLIC	??_R0?AVexception@std@@@8			; std::exception `RTTI Type Descriptor'
PUBLIC	_CT??_R0?AVexception@std@@@8??0exception@std@@QEAA@AEBV01@@Z24
PUBLIC	?__LINE__Var@?0??_Adjust_manually_vector_aligned@std@@YAXAEAPEAXAEA_K@Z@4JA ; `std::_Adjust_manually_vector_aligned'::`1'::__LINE__Var
PUBLIC	??_C@_0BB@FCMFBGOM@invalid?5argument@		; `string'
PUBLIC	??_C@_02DKCKIIND@?$CFs@				; `string'
PUBLIC	??_C@_0GC@DJFHHHKN@C?3?2Program?5Files?2Microsoft?5Visu@ ; `string'
PUBLIC	??_C@_1ME@GEFGDEOM@?$AAC?$AA?3?$AA?2?$AAP?$AAr?$AAo?$AAg?$AAr?$AAa?$AAm?$AA?5?$AAF?$AAi?$AAl?$AAe@ ; `string'
PUBLIC	??_C@_11LOCGONAA@@				; `string'
PUBLIC	??_C@_1CG@JNLFBNGN@?$AA?$CC?$AAi?$AAn?$AAv?$AAa?$AAl?$AAi?$AAd?$AA?5?$AAa?$AAr?$AAg?$AAu?$AAm?$AAe@ ; `string'
PUBLIC	??_7runtime_error@std@@6B@			; std::runtime_error::`vftable'
PUBLIC	??_R0?AVruntime_error@std@@@8			; std::runtime_error `RTTI Type Descriptor'
PUBLIC	_CT??_R0?AVruntime_error@std@@@8??0runtime_error@std@@QEAA@AEBV01@@Z24
PUBLIC	_TI2?AVruntime_error@std@@
PUBLIC	_CTA2?AVruntime_error@std@@
PUBLIC	??_C@_0CA@IGKKDGOC@failed?5to?5create?5vertex?5buffer?$CB@ ; `string'
PUBLIC	??_C@_0CJ@NNDFOAFL@failed?5to?5allocate?5vertex?5buffe@ ; `string'
PUBLIC	?__LINE__Var@?0??main@@9@4JA			; `main'::`1'::__LINE__Var
PUBLIC	??_C@_02PHMGELLB@?6?6@				; `string'
PUBLIC	??_C@_04MEMAJGDJ@name@				; `string'
PUBLIC	??_C@_04GHJNJNPO@main@				; `string'
PUBLIC	??_C@_0EJ@HKLAAGEK@C?3?2Users?2anton?2source?2repos?2GPU@ ; `string'
PUBLIC	??_C@_0EJ@HDHKIKGP@C?3?2Users?2anton?2source?2repos?2GPU@ ; `string'
PUBLIC	??_C@_0CD@DMDCDDIA@failed?5to?5allocate?5command?5buff@ ; `string'
PUBLIC	??_C@_0BP@JNGFJPNG@Vertex?5Count?5must?5be?5atleast?53@ ; `string'
PUBLIC	??_C@_1GK@IPJOBBDA@?$AAC?$AA?3?$AA?2?$AAU?$AAs?$AAe?$AAr?$AAs?$AA?2?$AAa?$AAn?$AAt?$AAo?$AAn?$AA?2@ ; `string'
PUBLIC	??_C@_1GK@IDNJBOAD@?$AAv?$AAe?$AAr?$AAt?$AAe?$AAx?$AAC?$AAo?$AAu?$AAn?$AAt?$AA?5?$AA?$DO?$AA?$DN?$AA?5@ ; `string'
PUBLIC	??_C@_0BI@KCJMGAAL@failed?5to?5end?5cmdBuffer@	; `string'
PUBLIC	??_C@_0BB@LLDEEIKC@ASFDHFHUFDUHUYIF@		; `string'
PUBLIC	??_C@_0CD@JOEKPGKM@failed?5to?5create?5graphics?5pipel@ ; `string'
PUBLIC	??_C@_0DG@KGHKKGBC@null?5pointer?5cannot?5point?5to?5a?5@ ; `string'
PUBLIC	??_C@_1HA@FACCKGGH@?$AA?$CC?$AAn?$AAu?$AAl?$AAl?$AA?5?$AAp?$AAo?$AAi?$AAn?$AAt?$AAe?$AAr?$AA?5?$AAc@ ; `string'
PUBLIC	??_C@_0BA@FOIKENOD@vector?5too?5long@		; `string'
PUBLIC	??_R4exception@std@@6B@				; std::exception::`RTTI Complete Object Locator'
PUBLIC	??_R3exception@std@@8				; std::exception::`RTTI Class Hierarchy Descriptor'
PUBLIC	??_R2exception@std@@8				; std::exception::`RTTI Base Class Array'
PUBLIC	??_R1A@?0A@EA@exception@std@@8			; std::exception::`RTTI Base Class Descriptor at (0,-1,0,64)'
PUBLIC	??_R4bad_alloc@std@@6B@				; std::bad_alloc::`RTTI Complete Object Locator'
PUBLIC	??_R3bad_alloc@std@@8				; std::bad_alloc::`RTTI Class Hierarchy Descriptor'
PUBLIC	??_R2bad_alloc@std@@8				; std::bad_alloc::`RTTI Base Class Array'
PUBLIC	??_R1A@?0A@EA@bad_alloc@std@@8			; std::bad_alloc::`RTTI Base Class Descriptor at (0,-1,0,64)'
PUBLIC	??_R4bad_array_new_length@std@@6B@		; std::bad_array_new_length::`RTTI Complete Object Locator'
PUBLIC	??_R3bad_array_new_length@std@@8		; std::bad_array_new_length::`RTTI Class Hierarchy Descriptor'
PUBLIC	??_R2bad_array_new_length@std@@8		; std::bad_array_new_length::`RTTI Base Class Array'
PUBLIC	??_R1A@?0A@EA@bad_array_new_length@std@@8	; std::bad_array_new_length::`RTTI Base Class Descriptor at (0,-1,0,64)'
PUBLIC	??_R4runtime_error@std@@6B@			; std::runtime_error::`RTTI Complete Object Locator'
PUBLIC	??_R3runtime_error@std@@8			; std::runtime_error::`RTTI Class Hierarchy Descriptor'
PUBLIC	??_R2runtime_error@std@@8			; std::runtime_error::`RTTI Base Class Array'
PUBLIC	??_R1A@?0A@EA@runtime_error@std@@8		; std::runtime_error::`RTTI Base Class Descriptor at (0,-1,0,64)'
PUBLIC	__real@3dcccccd
PUBLIC	__real@3f000000
PUBLIC	__real@3f35c28f
PUBLIC	__real@3f50624dd2f1a9fc
PUBLIC	__real@3f800000
PUBLIC	__real@3fe0000000000000
PUBLIC	__real@3ff0000000000000
PUBLIC	__real@3ff8000000000000
PUBLIC	__real@4008000000000000
PUBLIC	__real@bfdccccccccccccd
PUBLIC	__real@bfe0000000000000
PUBLIC	__real@bff8000000000000
PUBLIC	__real@c0000000
PUBLIC	__real@c000000000000000
PUBLIC	__real@c004000000000000
EXTRN	??2@YAPEAX_K@Z:PROC				; operator new
EXTRN	??3@YAXPEAX@Z:PROC				; operator delete
EXTRN	??3@YAXPEAX_K@Z:PROC				; operator delete
EXTRN	__imp__invalid_parameter:PROC
EXTRN	__imp__CrtDbgReport:PROC
EXTRN	__imp_??0_Lockit@std@@QEAA@H@Z:PROC
EXTRN	__imp_??1_Lockit@std@@QEAA@XZ:PROC
EXTRN	memcpy:PROC
EXTRN	memmove:PROC
EXTRN	memset:PROC
EXTRN	?_Xlength_error@std@@YAXPEBD@Z:PROC		; std::_Xlength_error
EXTRN	?uncaught_exceptions@std@@YAHXZ:PROC		; std::uncaught_exceptions
EXTRN	__std_exception_copy:PROC
EXTRN	__std_exception_destroy:PROC
EXTRN	??_Eexception@std@@UEAAPEAXI@Z:PROC		; std::exception::`vector deleting destructor'
EXTRN	??_Ebad_alloc@std@@UEAAPEAXI@Z:PROC		; std::bad_alloc::`vector deleting destructor'
EXTRN	??_Ebad_array_new_length@std@@UEAAPEAXI@Z:PROC	; std::bad_array_new_length::`vector deleting destructor'
EXTRN	??_Eruntime_error@std@@UEAAPEAXI@Z:PROC		; std::runtime_error::`vector deleting destructor'
EXTRN	__imp_?good@ios_base@std@@QEBA_NXZ:PROC
EXTRN	__imp_?flags@ios_base@std@@QEBAHXZ:PROC
EXTRN	__imp_?width@ios_base@std@@QEBA_JXZ:PROC
EXTRN	__imp_?width@ios_base@std@@QEAA_J_J@Z:PROC
EXTRN	__imp_?sputc@?$basic_streambuf@DU?$char_traits@D@std@@@std@@QEAAHD@Z:PROC
EXTRN	__imp_?sputn@?$basic_streambuf@DU?$char_traits@D@std@@@std@@QEAA_JPEBD_J@Z:PROC
EXTRN	__imp_?setstate@?$basic_ios@DU?$char_traits@D@std@@@std@@QEAAXH_N@Z:PROC
EXTRN	__imp_?tie@?$basic_ios@DU?$char_traits@D@std@@@std@@QEBAPEAV?$basic_ostream@DU?$char_traits@D@std@@@2@XZ:PROC
EXTRN	__imp_?rdbuf@?$basic_ios@DU?$char_traits@D@std@@@std@@QEBAPEAV?$basic_streambuf@DU?$char_traits@D@std@@@2@XZ:PROC
EXTRN	__imp_?fill@?$basic_ios@DU?$char_traits@D@std@@@std@@QEBADXZ:PROC
EXTRN	__imp_?_Osfx@?$basic_ostream@DU?$char_traits@D@std@@@std@@QEAAXXZ:PROC
EXTRN	__imp_??6?$basic_ostream@DU?$char_traits@D@std@@@std@@QEAAAEAV01@_K@Z:PROC
EXTRN	__imp_?flush@?$basic_ostream@DU?$char_traits@D@std@@@std@@QEAAAEAV12@XZ:PROC
EXTRN	vkGetPhysicalDeviceMemoryProperties:PROC
EXTRN	vkQueueSubmit:PROC
EXTRN	vkQueueWaitIdle:PROC
EXTRN	vkDeviceWaitIdle:PROC
EXTRN	vkAllocateMemory:PROC
EXTRN	vkFreeMemory:PROC
EXTRN	vkMapMemory:PROC
EXTRN	vkUnmapMemory:PROC
EXTRN	vkBindBufferMemory:PROC
EXTRN	vkGetBufferMemoryRequirements:PROC
EXTRN	vkCreateBuffer:PROC
EXTRN	vkDestroyBuffer:PROC
EXTRN	vkDestroyShaderModule:PROC
EXTRN	vkCreateGraphicsPipelines:PROC
EXTRN	vkDestroyPipeline:PROC
EXTRN	vkDestroyPipelineLayout:PROC
EXTRN	vkAllocateCommandBuffers:PROC
EXTRN	vkFreeCommandBuffers:PROC
EXTRN	vkBeginCommandBuffer:PROC
EXTRN	vkEndCommandBuffer:PROC
EXTRN	vkCmdBindPipeline:PROC
EXTRN	vkCmdBindVertexBuffers:PROC
EXTRN	vkCmdDraw:PROC
EXTRN	vkCmdCopyBuffer:PROC
EXTRN	vkCmdEndRenderPass:PROC
EXTRN	glfwWindowShouldClose:PROC
EXTRN	glfwPollEvents:PROC
EXTRN	??0Window@cow@@QEAA@HHPEBD@Z:PROC		; cow::Window::Window
EXTRN	??1Window@cow@@QEAA@XZ:PROC			; cow::Window::~Window
EXTRN	??0Device@cow@@QEAA@AEAVWindow@1@PEAII@Z:PROC	; cow::Device::Device
EXTRN	??1Device@cow@@QEAA@XZ:PROC			; cow::Device::~Device
EXTRN	?submit@Swapchain@cow@@QEAA?AW4VkResult@@PEBQEAUVkCommandBuffer_T@@PEAI@Z:PROC ; cow::Swapchain::submit
EXTRN	__imp__wassert:PROC
EXTRN	?defaultGraphicsPipeline@GraphicsPipelineSimpleInfo@cow@@SAXAEAU12@@Z:PROC ; cow::GraphicsPipelineSimpleInfo::defaultGraphicsPipeline
EXTRN	?bindingDesc@Vertex2DRGB@cow@@SA?AUVkVertexInputBindingDescription@@XZ:PROC ; cow::Vertex2DRGB::bindingDesc
EXTRN	?attributeDesc@Vertex2DRGB@cow@@SA?AV?$vector@UVkVertexInputAttributeDescription@@V?$allocator@UVkVertexInputAttributeDescription@@@std@@@std@@XZ:PROC ; cow::Vertex2DRGB::attributeDesc
EXTRN	?createShaderModule@cow@@YAPEAUVkShaderModule_T@@PEAUVkDevice_T@@PEBD@Z:PROC ; cow::createShaderModule
EXTRN	?defaultPipelineLayout@cow@@YAPEAUVkPipelineLayout_T@@PEAUVkDevice_T@@PEAUPipelineLayoutSimpleInfo@1@@Z:PROC ; cow::defaultPipelineLayout
EXTRN	??0GraphicsCommands@cow@@QEAA@AEAVDevice@1@@Z:PROC ; cow::GraphicsCommands::GraphicsCommands
EXTRN	??1GraphicsCommands@cow@@QEAA@XZ:PROC		; cow::GraphicsCommands::~GraphicsCommands
EXTRN	?begin@GraphicsCommands@cow@@QEAAPEAUVkCommandBuffer_T@@XZ:PROC ; cow::GraphicsCommands::begin
EXTRN	?beginRenderPass@GraphicsCommands@cow@@QEAAXPEAUVkCommandBuffer_T@@TVkClearColorValue@@@Z:PROC ; cow::GraphicsCommands::beginRenderPass
EXTRN	_CxxThrowException:PROC
EXTRN	_RTC_CheckStackVars:PROC
EXTRN	_RTC_InitBase:PROC
EXTRN	_RTC_Shutdown:PROC
EXTRN	__CheckForDebuggerJustMyCode:PROC
EXTRN	__CxxFrameHandler4:PROC
EXTRN	__GSHandlerCheck:PROC
EXTRN	__GSHandlerCheck_EH4:PROC
EXTRN	__security_check_cookie:PROC
EXTRN	??_7type_info@@6B@:BYTE				; type_info::`vftable'
EXTRN	__imp_?cout@std@@3V?$basic_ostream@DU?$char_traits@D@std@@@1@A:BYTE
EXTRN	__security_cookie:QWORD
EXTRN	_fltused:DWORD
;	COMDAT pdata
pdata	SEGMENT
$pdata$?__empty_global_delete@@YAXPEAX@Z DD imagerel $LN3
	DD	imagerel $LN3+41
	DD	imagerel $unwind$?__empty_global_delete@@YAXPEAX@Z
pdata	ENDS
;	COMDAT pdata
pdata	SEGMENT
$pdata$?__empty_global_delete@@YAXPEAX_K@Z DD imagerel $LN3
	DD	imagerel $LN3+46
	DD	imagerel $unwind$?__empty_global_delete@@YAXPEAX_K@Z
pdata	ENDS
;	COMDAT pdata
pdata	SEGMENT
$pdata$?__empty_global_delete@@YAXPEAXW4align_val_t@std@@@Z DD imagerel $LN3
	DD	imagerel $LN3+46
	DD	imagerel $unwind$?__empty_global_delete@@YAXPEAXW4align_val_t@std@@@Z
pdata	ENDS
;	COMDAT pdata
pdata	SEGMENT
$pdata$?__empty_global_delete@@YAXPEAX_KW4align_val_t@std@@@Z DD imagerel $LN3
	DD	imagerel $LN3+51
	DD	imagerel $unwind$?__empty_global_delete@@YAXPEAX_KW4align_val_t@std@@@Z
pdata	ENDS
;	COMDAT pdata
pdata	SEGMENT
$pdata$??2@YAPEAX_KPEAX@Z DD imagerel $LN3
	DD	imagerel $LN3+53
	DD	imagerel $unwind$??2@YAPEAX_KPEAX@Z
pdata	ENDS
;	COMDAT pdata
pdata	SEGMENT
$pdata$?is_constant_evaluated@std@@YA_NXZ DD imagerel $LN3
	DD	imagerel $LN3+39
	DD	imagerel $unwind$?is_constant_evaluated@std@@YA_NXZ
pdata	ENDS
;	COMDAT pdata
pdata	SEGMENT
$pdata$?max@?$numeric_limits@_J@std@@SA_JXZ DD imagerel $LN3
	DD	imagerel $LN3+47
	DD	imagerel $unwind$?max@?$numeric_limits@_J@std@@SA_JXZ
pdata	ENDS
;	COMDAT pdata
pdata	SEGMENT
$pdata$??0exception@std@@QEAA@QEBD@Z DD imagerel $LN3
	DD	imagerel $LN3+210
	DD	imagerel $unwind$??0exception@std@@QEAA@QEBD@Z
pdata	ENDS
;	COMDAT pdata
pdata	SEGMENT
$pdata$??0exception@std@@QEAA@QEBDH@Z DD imagerel $LN3
	DD	imagerel $LN3+116
	DD	imagerel $unwind$??0exception@std@@QEAA@QEBDH@Z
pdata	ENDS
;	COMDAT pdata
pdata	SEGMENT
$pdata$??0exception@std@@QEAA@AEBV01@@Z DD imagerel $LN3
	DD	imagerel $LN3+123
	DD	imagerel $unwind$??0exception@std@@QEAA@AEBV01@@Z
pdata	ENDS
;	COMDAT pdata
pdata	SEGMENT
$pdata$??1exception@std@@UEAA@XZ DD imagerel $LN3
	DD	imagerel $LN3+77
	DD	imagerel $unwind$??1exception@std@@UEAA@XZ
pdata	ENDS
;	COMDAT pdata
pdata	SEGMENT
$pdata$?what@exception@std@@UEBAPEBDXZ DD imagerel $LN5
	DD	imagerel $LN5+96
	DD	imagerel $unwind$?what@exception@std@@UEBAPEBDXZ
pdata	ENDS
;	COMDAT pdata
pdata	SEGMENT
$pdata$??_Gexception@std@@UEAAPEAXI@Z DD imagerel $LN4
	DD	imagerel $LN4+82
	DD	imagerel $unwind$??_Gexception@std@@UEAAPEAXI@Z
pdata	ENDS
;	COMDAT pdata
pdata	SEGMENT
$pdata$??0bad_alloc@std@@AEAA@QEBD@Z DD imagerel $LN3
	DD	imagerel $LN3+95
	DD	imagerel $unwind$??0bad_alloc@std@@AEAA@QEBD@Z
pdata	ENDS
;	COMDAT pdata
pdata	SEGMENT
$pdata$??1bad_alloc@std@@UEAA@XZ DD imagerel $LN3
	DD	imagerel $LN3+41
	DD	imagerel $unwind$??1bad_alloc@std@@UEAA@XZ
pdata	ENDS
;	COMDAT pdata
pdata	SEGMENT
$pdata$??0bad_alloc@std@@QEAA@AEBV01@@Z DD imagerel $LN3
	DD	imagerel $LN3+77
	DD	imagerel $unwind$??0bad_alloc@std@@QEAA@AEBV01@@Z
pdata	ENDS
;	COMDAT pdata
pdata	SEGMENT
$pdata$??_Gbad_alloc@std@@UEAAPEAXI@Z DD imagerel $LN4
	DD	imagerel $LN4+82
	DD	imagerel $unwind$??_Gbad_alloc@std@@UEAAPEAXI@Z
pdata	ENDS
;	COMDAT pdata
pdata	SEGMENT
$pdata$??0bad_array_new_length@std@@QEAA@XZ DD imagerel $LN3
	DD	imagerel $LN3+84
	DD	imagerel $unwind$??0bad_array_new_length@std@@QEAA@XZ
pdata	ENDS
;	COMDAT pdata
pdata	SEGMENT
$pdata$??1bad_array_new_length@std@@UEAA@XZ DD imagerel $LN3
	DD	imagerel $LN3+41
	DD	imagerel $unwind$??1bad_array_new_length@std@@UEAA@XZ
pdata	ENDS
;	COMDAT pdata
pdata	SEGMENT
$pdata$??0bad_array_new_length@std@@QEAA@AEBV01@@Z DD imagerel $LN3
	DD	imagerel $LN3+77
	DD	imagerel $unwind$??0bad_array_new_length@std@@QEAA@AEBV01@@Z
pdata	ENDS
;	COMDAT pdata
pdata	SEGMENT
$pdata$??_Gbad_array_new_length@std@@UEAAPEAXI@Z DD imagerel $LN4
	DD	imagerel $LN4+82
	DD	imagerel $unwind$??_Gbad_array_new_length@std@@UEAAPEAXI@Z
pdata	ENDS
;	COMDAT pdata
pdata	SEGMENT
$pdata$?_Throw_bad_array_new_length@std@@YAXXZ DD imagerel $LN3
	DD	imagerel $LN3+68
	DD	imagerel $unwind$?_Throw_bad_array_new_length@std@@YAXXZ
pdata	ENDS
;	COMDAT pdata
pdata	SEGMENT
$pdata$?_Allocate@_Default_allocate_traits@std@@SAPEAX_K@Z DD imagerel $LN3
	DD	imagerel $LN3+53
	DD	imagerel $unwind$?_Allocate@_Default_allocate_traits@std@@SAPEAX_K@Z
pdata	ENDS
;	COMDAT pdata
pdata	SEGMENT
$pdata$?_Adjust_manually_vector_aligned@std@@YAXAEAPEAXAEA_K@Z DD imagerel $LN21
	DD	imagerel $LN21+453
	DD	imagerel $unwind$?_Adjust_manually_vector_aligned@std@@YAXAEAPEAXAEA_K@Z
pdata	ENDS
;	COMDAT pdata
pdata	SEGMENT
$pdata$??0_Container_proxy@std@@QEAA@PEAU_Container_base12@1@@Z DD imagerel $LN3
	DD	imagerel $LN3+85
	DD	imagerel $unwind$??0_Container_proxy@std@@QEAA@PEAU_Container_base12@1@@Z
pdata	ENDS
;	COMDAT pdata
pdata	SEGMENT
$pdata$??0_Container_base12@std@@QEAA@XZ DD imagerel $LN3
	DD	imagerel $LN3+62
	DD	imagerel $unwind$??0_Container_base12@std@@QEAA@XZ
pdata	ENDS
;	COMDAT pdata
pdata	SEGMENT
$pdata$?_Orphan_all@_Container_base12@std@@QEAAXXZ DD imagerel $LN5
	DD	imagerel $LN5+79
	DD	imagerel $unwind$?_Orphan_all@_Container_base12@std@@QEAAXXZ
pdata	ENDS
;	COMDAT pdata
pdata	SEGMENT
$pdata$?_Orphan_all_unlocked_v3@_Container_base12@std@@AEAAXXZ DD imagerel $LN7
	DD	imagerel $LN7+138
	DD	imagerel $unwind$?_Orphan_all_unlocked_v3@_Container_base12@std@@AEAAXXZ
pdata	ENDS
;	COMDAT pdata
pdata	SEGMENT
$pdata$?_Orphan_all_locked_v3@_Container_base12@std@@AEAAXXZ DD imagerel $LN3
	DD	imagerel $LN3+151
	DD	imagerel $unwind$?_Orphan_all_locked_v3@_Container_base12@std@@AEAAXXZ
pdata	ENDS
;	COMDAT pdata
pdata	SEGMENT
$pdata$?_Release@_Basic_container_proxy_ptr12@std@@QEAAXXZ DD imagerel $LN3
	DD	imagerel $LN3+55
	DD	imagerel $unwind$?_Release@_Basic_container_proxy_ptr12@std@@QEAAXXZ
pdata	ENDS
;	COMDAT pdata
pdata	SEGMENT
$pdata$??0_Basic_container_proxy_ptr12@std@@IEAA@XZ DD imagerel $LN3
	DD	imagerel $LN3+62
	DD	imagerel $unwind$??0_Basic_container_proxy_ptr12@std@@IEAA@XZ
pdata	ENDS
;	COMDAT pdata
pdata	SEGMENT
$pdata$??$addressof@U_Container_base12@std@@@std@@YAPEAU_Container_base12@0@AEAU10@@Z DD imagerel $LN3
	DD	imagerel $LN3+48
	DD	imagerel $unwind$??$addressof@U_Container_base12@std@@@std@@YAPEAU_Container_base12@0@AEAU10@@Z
pdata	ENDS
;	COMDAT pdata
pdata	SEGMENT
$pdata$??$_Construct_in_place@U_Container_proxy@std@@PEAU_Container_base12@2@@std@@YAXAEAU_Container_proxy@0@$$QEAPEAU_Container_base12@0@@Z DD imagerel $LN5
	DD	imagerel $LN5+198
	DD	imagerel $unwind$??$_Construct_in_place@U_Container_proxy@std@@PEAU_Container_base12@2@@std@@YAXAEAU_Container_proxy@0@$$QEAPEAU_Container_base12@0@@Z
pdata	ENDS
;	COMDAT pdata
pdata	SEGMENT
$pdata$?length@?$_Narrow_char_traits@DH@std@@SA_KQEBD@Z DD imagerel $LN4
	DD	imagerel $LN4+100
	DD	imagerel $unwind$?length@?$_Narrow_char_traits@DH@std@@SA_KQEBD@Z
pdata	ENDS
;	COMDAT pdata
pdata	SEGMENT
$pdata$?eq_int_type@?$_Narrow_char_traits@DH@std@@SA_NAEBH0@Z DD imagerel $LN5
	DD	imagerel $LN5+95
	DD	imagerel $unwind$?eq_int_type@?$_Narrow_char_traits@DH@std@@SA_NAEBH0@Z
pdata	ENDS
;	COMDAT pdata
pdata	SEGMENT
$pdata$?eof@?$_Narrow_char_traits@DH@std@@SAHXZ DD imagerel $LN3
	DD	imagerel $LN3+42
	DD	imagerel $unwind$?eof@?$_Narrow_char_traits@DH@std@@SAHXZ
pdata	ENDS
;	COMDAT pdata
pdata	SEGMENT
$pdata$??0runtime_error@std@@QEAA@PEBD@Z DD imagerel $LN4
	DD	imagerel $LN4+89
	DD	imagerel $unwind$??0runtime_error@std@@QEAA@PEBD@Z
pdata	ENDS
;	COMDAT pdata
pdata	SEGMENT
$pdata$??1runtime_error@std@@UEAA@XZ DD imagerel $LN3
	DD	imagerel $LN3+41
	DD	imagerel $unwind$??1runtime_error@std@@UEAA@XZ
pdata	ENDS
;	COMDAT pdata
pdata	SEGMENT
$pdata$??0runtime_error@std@@QEAA@AEBV01@@Z DD imagerel $LN3
	DD	imagerel $LN3+77
	DD	imagerel $unwind$??0runtime_error@std@@QEAA@AEBV01@@Z
pdata	ENDS
;	COMDAT pdata
pdata	SEGMENT
$pdata$??_Gruntime_error@std@@UEAAPEAXI@Z DD imagerel $LN4
	DD	imagerel $LN4+82
	DD	imagerel $unwind$??_Gruntime_error@std@@UEAAPEAXI@Z
pdata	ENDS
;	COMDAT pdata
pdata	SEGMENT
$pdata$?shouldClose@Window@cow@@QEBA_NXZ DD imagerel $LN5
	DD	imagerel $LN5+84
	DD	imagerel $unwind$?shouldClose@Window@cow@@QEBA_NXZ
pdata	ENDS
;	COMDAT pdata
pdata	SEGMENT
$pdata$?__autoclassinit2@Window@cow@@QEAAX_K@Z DD imagerel $LN3
	DD	imagerel $LN3+50
	DD	imagerel $unwind$?__autoclassinit2@Window@cow@@QEAAX_K@Z
pdata	ENDS
;	COMDAT pdata
pdata	SEGMENT
$pdata$?getPhysicalDevice@Device@cow@@QEAAPEAUVkPhysicalDevice_T@@XZ DD imagerel $LN3
	DD	imagerel $LN3+52
	DD	imagerel $unwind$?getPhysicalDevice@Device@cow@@QEAAPEAUVkPhysicalDevice_T@@XZ
pdata	ENDS
;	COMDAT pdata
pdata	SEGMENT
$pdata$?getDevice@Device@cow@@QEAAPEAUVkDevice_T@@XZ DD imagerel $LN3
	DD	imagerel $LN3+52
	DD	imagerel $unwind$?getDevice@Device@cow@@QEAAPEAUVkDevice_T@@XZ
pdata	ENDS
;	COMDAT pdata
pdata	SEGMENT
$pdata$?getCommandPool@Device@cow@@QEAAPEAUVkCommandPool_T@@XZ DD imagerel $LN3
	DD	imagerel $LN3+52
	DD	imagerel $unwind$?getCommandPool@Device@cow@@QEAAPEAUVkCommandPool_T@@XZ
pdata	ENDS
;	COMDAT pdata
pdata	SEGMENT
$pdata$?getGraphicsQueue@Device@cow@@QEAAPEAUVkQueue_T@@XZ DD imagerel $LN3
	DD	imagerel $LN3+52
	DD	imagerel $unwind$?getGraphicsQueue@Device@cow@@QEAAPEAUVkQueue_T@@XZ
pdata	ENDS
;	COMDAT pdata
pdata	SEGMENT
$pdata$?__autoclassinit2@Device@cow@@QEAAX_K@Z DD imagerel $LN3
	DD	imagerel $LN3+50
	DD	imagerel $unwind$?__autoclassinit2@Device@cow@@QEAAX_K@Z
pdata	ENDS
;	COMDAT pdata
pdata	SEGMENT
$pdata$?getRenderPass@Swapchain@cow@@QEBAPEAUVkRenderPass_T@@XZ DD imagerel $LN3
	DD	imagerel $LN3+52
	DD	imagerel $unwind$?getRenderPass@Swapchain@cow@@QEBAPEAUVkRenderPass_T@@XZ
pdata	ENDS
;	COMDAT pdata
pdata	SEGMENT
$pdata$?getCurrentFrame@Swapchain@cow@@QEBA_KXZ DD imagerel $LN3
	DD	imagerel $LN3+52
	DD	imagerel $unwind$?getCurrentFrame@Swapchain@cow@@QEBA_KXZ
pdata	ENDS
;	COMDAT pdata
pdata	SEGMENT
$pdata$??0?$allocator@W4VkDynamicState@@@std@@QEAA@XZ DD imagerel $LN3
	DD	imagerel $LN3+48
	DD	imagerel $unwind$??0?$allocator@W4VkDynamicState@@@std@@QEAA@XZ
pdata	ENDS
;	COMDAT pdata
pdata	SEGMENT
$pdata$?deallocate@?$allocator@W4VkDynamicState@@@std@@QEAAXQEAW4VkDynamicState@@_K@Z DD imagerel $LN13
	DD	imagerel $LN13+216
	DD	imagerel $unwind$?deallocate@?$allocator@W4VkDynamicState@@@std@@QEAAXQEAW4VkDynamicState@@_K@Z
pdata	ENDS
;	COMDAT pdata
pdata	SEGMENT
$pdata$??0?$vector@W4VkDynamicState@@V?$allocator@W4VkDynamicState@@@std@@@std@@QEAA@XZ DD imagerel $LN3
	DD	imagerel $LN3+137
	DD	imagerel $unwind$??0?$vector@W4VkDynamicState@@V?$allocator@W4VkDynamicState@@@std@@@std@@QEAA@XZ
pdata	ENDS
;	COMDAT pdata
pdata	SEGMENT
$pdata$??1?$vector@W4VkDynamicState@@V?$allocator@W4VkDynamicState@@@std@@@std@@QEAA@XZ DD imagerel $LN3
	DD	imagerel $LN3+203
	DD	imagerel $unwind$??1?$vector@W4VkDynamicState@@V?$allocator@W4VkDynamicState@@@std@@@std@@QEAA@XZ
pdata	ENDS
;	COMDAT pdata
pdata	SEGMENT
$pdata$?_Tidy@?$vector@W4VkDynamicState@@V?$allocator@W4VkDynamicState@@@std@@@std@@AEAAXXZ DD imagerel $LN4
	DD	imagerel $LN4+228
	DD	imagerel $unwind$?_Tidy@?$vector@W4VkDynamicState@@V?$allocator@W4VkDynamicState@@@std@@@std@@AEAAXXZ
pdata	ENDS
;	COMDAT pdata
pdata	SEGMENT
$pdata$?_Getal@?$vector@W4VkDynamicState@@V?$allocator@W4VkDynamicState@@@std@@@std@@AEAAAEAV?$allocator@W4VkDynamicState@@@2@XZ DD imagerel $LN3
	DD	imagerel $LN3+56
	DD	imagerel $unwind$?_Getal@?$vector@W4VkDynamicState@@V?$allocator@W4VkDynamicState@@@std@@@std@@AEAAAEAV?$allocator@W4VkDynamicState@@@2@XZ
pdata	ENDS
;	COMDAT pdata
pdata	SEGMENT
$pdata$??0?$_Vector_val@U?$_Simple_types@W4VkDynamicState@@@std@@@std@@QEAA@XZ DD imagerel $LN3
	DD	imagerel $LN3+105
	DD	imagerel $unwind$??0?$_Vector_val@U?$_Simple_types@W4VkDynamicState@@@std@@@std@@QEAA@XZ
pdata	ENDS
;	COMDAT pdata
pdata	SEGMENT
$pdata$?_Get_first@?$_Compressed_pair@V?$allocator@W4VkDynamicState@@@std@@V?$_Vector_val@U?$_Simple_types@W4VkDynamicState@@@std@@@2@$00@std@@QEAAAEAV?$allocator@W4VkDynamicState@@@2@XZ DD imagerel $LN3
	DD	imagerel $LN3+48
	DD	imagerel $unwind$?_Get_first@?$_Compressed_pair@V?$allocator@W4VkDynamicState@@@std@@V?$_Vector_val@U?$_Simple_types@W4VkDynamicState@@@std@@@2@$00@std@@QEAAAEAV?$allocator@W4VkDynamicState@@@2@XZ
pdata	ENDS
;	COMDAT pdata
pdata	SEGMENT
$pdata$??1GraphicsPipelineSimpleInfo@cow@@QEAA@XZ DD imagerel $LN3
	DD	imagerel $LN3+50
	DD	imagerel $unwind$??1GraphicsPipelineSimpleInfo@cow@@QEAA@XZ
pdata	ENDS
;	COMDAT pdata
pdata	SEGMENT
$pdata$??0Buffer@cow@@QEAA@AEAVDevice@1@_KII@Z DD imagerel $LN3
	DD	imagerel $LN3+123
	DD	imagerel $unwind$??0Buffer@cow@@QEAA@AEAVDevice@1@_KII@Z
pdata	ENDS
;	COMDAT pdata
pdata	SEGMENT
$pdata$??1Buffer@cow@@QEAA@XZ DD imagerel $LN3
	DD	imagerel $LN3+168
	DD	imagerel $unwind$??1Buffer@cow@@QEAA@XZ
pdata	ENDS
;	COMDAT pdata
pdata	SEGMENT
$pdata$?map@Buffer@cow@@QEAA?AW4VkResult@@_K0@Z DD imagerel $LN3
	DD	imagerel $LN3+149
	DD	imagerel $unwind$?map@Buffer@cow@@QEAA?AW4VkResult@@_K0@Z
pdata	ENDS
;	COMDAT pdata
pdata	SEGMENT
$pdata$?unmap@Buffer@cow@@QEAAXXZ DD imagerel $LN4
	DD	imagerel $LN4+130
	DD	imagerel $unwind$?unmap@Buffer@cow@@QEAAXXZ
pdata	ENDS
;	COMDAT pdata
pdata	SEGMENT
$pdata$?write@Buffer@cow@@QEAAPEAXPEAX_K1@Z DD imagerel $LN4
	DD	imagerel $LN4+139
	DD	imagerel $unwind$?write@Buffer@cow@@QEAAPEAXPEAX_K1@Z
pdata	ENDS
;	COMDAT pdata
pdata	SEGMENT
$pdata$?copy@Buffer@cow@@QEAAXPEAUVkBuffer_T@@_K@Z DD imagerel $LN3
	DD	imagerel $LN3+553
	DD	imagerel $unwind$?copy@Buffer@cow@@QEAAXPEAUVkBuffer_T@@_K@Z
pdata	ENDS
;	COMDAT pdata
pdata	SEGMENT
$pdata$?get@Buffer@cow@@QEAAPEAUVkBuffer_T@@XZ DD imagerel $LN3
	DD	imagerel $LN3+52
	DD	imagerel $unwind$?get@Buffer@cow@@QEAAPEAUVkBuffer_T@@XZ
pdata	ENDS
;	COMDAT pdata
pdata	SEGMENT
$pdata$?createBuffer@Buffer@cow@@AEAAXII@Z DD imagerel $LN9
	DD	imagerel $LN9+728
	DD	imagerel $unwind$?createBuffer@Buffer@cow@@AEAAXII@Z
pdata	ENDS
;	COMDAT pdata
pdata	SEGMENT
$pdata$?__autoclassinit2@Buffer@cow@@QEAAX_K@Z DD imagerel $LN3
	DD	imagerel $LN3+50
	DD	imagerel $unwind$?__autoclassinit2@Buffer@cow@@QEAAX_K@Z
pdata	ENDS
;	COMDAT pdata
pdata	SEGMENT
$pdata$?getCurrentImageIndex@GraphicsCommands@cow@@QEAAIXZ DD imagerel $LN3
	DD	imagerel $LN3+51
	DD	imagerel $unwind$?getCurrentImageIndex@GraphicsCommands@cow@@QEAAIXZ
pdata	ENDS
;	COMDAT pdata
pdata	SEGMENT
$pdata$??C?$unique_ptr@VSwapchain@cow@@U?$default_delete@VSwapchain@cow@@@std@@@std@@QEBAPEAVSwapchain@cow@@XZ DD imagerel $LN3
	DD	imagerel $LN3+51
	DD	imagerel $unwind$??C?$unique_ptr@VSwapchain@cow@@U?$default_delete@VSwapchain@cow@@@std@@@std@@QEBAPEAVSwapchain@cow@@XZ
pdata	ENDS
;	COMDAT pdata
pdata	SEGMENT
$pdata$?__autoclassinit2@GraphicsCommands@cow@@QEAAX_K@Z DD imagerel $LN3
	DD	imagerel $LN3+50
	DD	imagerel $unwind$?__autoclassinit2@GraphicsCommands@cow@@QEAAX_K@Z
pdata	ENDS
;	COMDAT pdata
pdata	SEGMENT
$pdata$?lerp@@YAMMMM@Z DD imagerel $LN3
	DD	imagerel $LN3+98
	DD	imagerel $unwind$?lerp@@YAMMMM@Z
pdata	ENDS
;	COMDAT pdata
pdata	SEGMENT
$pdata$main DD	imagerel $LN25
	DD	imagerel $LN25+2478
	DD	imagerel $unwind$main
pdata	ENDS
;	COMDAT pdata
pdata	SEGMENT
$pdata$main$dtor$0 DD imagerel main$dtor$0
	DD	imagerel main$dtor$0+36
	DD	imagerel $unwind$main$dtor$0
pdata	ENDS
;	COMDAT pdata
pdata	SEGMENT
$pdata$main$dtor$1 DD imagerel main$dtor$1
	DD	imagerel main$dtor$1+36
	DD	imagerel $unwind$main$dtor$1
pdata	ENDS
;	COMDAT pdata
pdata	SEGMENT
$pdata$main$dtor$2 DD imagerel main$dtor$2
	DD	imagerel main$dtor$2+39
	DD	imagerel $unwind$main$dtor$2
pdata	ENDS
;	COMDAT pdata
pdata	SEGMENT
$pdata$main$dtor$3 DD imagerel main$dtor$3
	DD	imagerel main$dtor$3+39
	DD	imagerel $unwind$main$dtor$3
pdata	ENDS
;	COMDAT pdata
pdata	SEGMENT
$pdata$main$dtor$5 DD imagerel main$dtor$5
	DD	imagerel main$dtor$5+39
	DD	imagerel $unwind$main$dtor$5
pdata	ENDS
;	COMDAT pdata
pdata	SEGMENT
$pdata$main$dtor$6 DD imagerel main$dtor$6
	DD	imagerel main$dtor$6+39
	DD	imagerel $unwind$main$dtor$6
pdata	ENDS
;	COMDAT pdata
pdata	SEGMENT
$pdata$main$dtor$7 DD imagerel main$dtor$7
	DD	imagerel main$dtor$7+39
	DD	imagerel $unwind$main$dtor$7
pdata	ENDS
;	COMDAT pdata
pdata	SEGMENT
$pdata$main$dtor$8 DD imagerel main$dtor$8
	DD	imagerel main$dtor$8+39
	DD	imagerel $unwind$main$dtor$8
pdata	ENDS
;	COMDAT pdata
pdata	SEGMENT
$pdata$main$dtor$9 DD imagerel main$dtor$9
	DD	imagerel main$dtor$9+39
	DD	imagerel $unwind$main$dtor$9
pdata	ENDS
;	COMDAT pdata
pdata	SEGMENT
$pdata$??0?$allocator@PEAUVkCommandBuffer_T@@@std@@QEAA@XZ DD imagerel $LN3
	DD	imagerel $LN3+48
	DD	imagerel $unwind$??0?$allocator@PEAUVkCommandBuffer_T@@@std@@QEAA@XZ
pdata	ENDS
;	COMDAT pdata
pdata	SEGMENT
$pdata$?deallocate@?$allocator@PEAUVkCommandBuffer_T@@@std@@QEAAXQEAPEAUVkCommandBuffer_T@@_K@Z DD imagerel $LN13
	DD	imagerel $LN13+216
	DD	imagerel $unwind$?deallocate@?$allocator@PEAUVkCommandBuffer_T@@@std@@QEAAXQEAPEAUVkCommandBuffer_T@@_K@Z
pdata	ENDS
;	COMDAT pdata
pdata	SEGMENT
$pdata$?allocate@?$allocator@PEAUVkCommandBuffer_T@@@std@@QEAAPEAPEAUVkCommandBuffer_T@@_K@Z DD imagerel $LN3
	DD	imagerel $LN3+66
	DD	imagerel $unwind$?allocate@?$allocator@PEAUVkCommandBuffer_T@@@std@@QEAAPEAPEAUVkCommandBuffer_T@@_K@Z
pdata	ENDS
;	COMDAT pdata
pdata	SEGMENT
$pdata$?max_size@?$_Default_allocator_traits@V?$allocator@PEAUVkCommandBuffer_T@@@std@@@std@@SA_KAEBV?$allocator@PEAUVkCommandBuffer_T@@@2@@Z DD imagerel $LN3
	DD	imagerel $LN3+51
	DD	imagerel $unwind$?max_size@?$_Default_allocator_traits@V?$allocator@PEAUVkCommandBuffer_T@@@std@@@std@@SA_KAEBV?$allocator@PEAUVkCommandBuffer_T@@@2@@Z
pdata	ENDS
;	COMDAT pdata
pdata	SEGMENT
$pdata$??0?$vector@PEAUVkCommandBuffer_T@@V?$allocator@PEAUVkCommandBuffer_T@@@std@@@std@@QEAA@_KAEBV?$allocator@PEAUVkCommandBuffer_T@@@1@@Z DD imagerel $LN3
	DD	imagerel $LN3+117
	DD	imagerel $unwind$??0?$vector@PEAUVkCommandBuffer_T@@V?$allocator@PEAUVkCommandBuffer_T@@@std@@@std@@QEAA@_KAEBV?$allocator@PEAUVkCommandBuffer_T@@@1@@Z
pdata	ENDS
;	COMDAT pdata
pdata	SEGMENT
$pdata$??1?$vector@PEAUVkCommandBuffer_T@@V?$allocator@PEAUVkCommandBuffer_T@@@std@@@std@@QEAA@XZ DD imagerel $LN3
	DD	imagerel $LN3+203
	DD	imagerel $unwind$??1?$vector@PEAUVkCommandBuffer_T@@V?$allocator@PEAUVkCommandBuffer_T@@@std@@@std@@QEAA@XZ
pdata	ENDS
;	COMDAT pdata
pdata	SEGMENT
$pdata$?data@?$vector@PEAUVkCommandBuffer_T@@V?$allocator@PEAUVkCommandBuffer_T@@@std@@@std@@QEAAPEAPEAUVkCommandBuffer_T@@XZ DD imagerel $LN3
	DD	imagerel $LN3+57
	DD	imagerel $unwind$?data@?$vector@PEAUVkCommandBuffer_T@@V?$allocator@PEAUVkCommandBuffer_T@@@std@@@std@@QEAAPEAPEAUVkCommandBuffer_T@@XZ
pdata	ENDS
;	COMDAT pdata
pdata	SEGMENT
$pdata$?size@?$vector@PEAUVkCommandBuffer_T@@V?$allocator@PEAUVkCommandBuffer_T@@@std@@@std@@QEBA_KXZ DD imagerel $LN3
	DD	imagerel $LN3+75
	DD	imagerel $unwind$?size@?$vector@PEAUVkCommandBuffer_T@@V?$allocator@PEAUVkCommandBuffer_T@@@std@@@std@@QEBA_KXZ
pdata	ENDS
;	COMDAT pdata
pdata	SEGMENT
$pdata$?max_size@?$vector@PEAUVkCommandBuffer_T@@V?$allocator@PEAUVkCommandBuffer_T@@@std@@@std@@QEBA_KXZ DD imagerel $LN3
	DD	imagerel $LN3+102
	DD	imagerel $unwind$?max_size@?$vector@PEAUVkCommandBuffer_T@@V?$allocator@PEAUVkCommandBuffer_T@@@std@@@std@@QEBA_KXZ
pdata	ENDS
;	COMDAT pdata
pdata	SEGMENT
$pdata$?_Buy_raw@?$vector@PEAUVkCommandBuffer_T@@V?$allocator@PEAUVkCommandBuffer_T@@@std@@@std@@AEAAX_K@Z DD imagerel $LN3
	DD	imagerel $LN3+191
	DD	imagerel $unwind$?_Buy_raw@?$vector@PEAUVkCommandBuffer_T@@V?$allocator@PEAUVkCommandBuffer_T@@@std@@@std@@AEAAX_K@Z
pdata	ENDS
;	COMDAT pdata
pdata	SEGMENT
$pdata$?_Buy_nonzero@?$vector@PEAUVkCommandBuffer_T@@V?$allocator@PEAUVkCommandBuffer_T@@@std@@@std@@AEAAX_K@Z DD imagerel $LN4
	DD	imagerel $LN4+91
	DD	imagerel $unwind$?_Buy_nonzero@?$vector@PEAUVkCommandBuffer_T@@V?$allocator@PEAUVkCommandBuffer_T@@@std@@@std@@AEAAX_K@Z
pdata	ENDS
;	COMDAT pdata
pdata	SEGMENT
$pdata$?_Tidy@?$vector@PEAUVkCommandBuffer_T@@V?$allocator@PEAUVkCommandBuffer_T@@@std@@@std@@AEAAXXZ DD imagerel $LN4
	DD	imagerel $LN4+228
	DD	imagerel $unwind$?_Tidy@?$vector@PEAUVkCommandBuffer_T@@V?$allocator@PEAUVkCommandBuffer_T@@@std@@@std@@AEAAXXZ
pdata	ENDS
;	COMDAT pdata
pdata	SEGMENT
$pdata$?_Xlength@?$vector@PEAUVkCommandBuffer_T@@V?$allocator@PEAUVkCommandBuffer_T@@@std@@@std@@CAXXZ DD imagerel $LN3
	DD	imagerel $LN3+49
	DD	imagerel $unwind$?_Xlength@?$vector@PEAUVkCommandBuffer_T@@V?$allocator@PEAUVkCommandBuffer_T@@@std@@@std@@CAXXZ
pdata	ENDS
;	COMDAT pdata
pdata	SEGMENT
$pdata$?_Getal@?$vector@PEAUVkCommandBuffer_T@@V?$allocator@PEAUVkCommandBuffer_T@@@std@@@std@@AEAAAEAV?$allocator@PEAUVkCommandBuffer_T@@@2@XZ DD imagerel $LN3
	DD	imagerel $LN3+56
	DD	imagerel $unwind$?_Getal@?$vector@PEAUVkCommandBuffer_T@@V?$allocator@PEAUVkCommandBuffer_T@@@std@@@std@@AEAAAEAV?$allocator@PEAUVkCommandBuffer_T@@@2@XZ
pdata	ENDS
;	COMDAT pdata
pdata	SEGMENT
$pdata$?_Getal@?$vector@PEAUVkCommandBuffer_T@@V?$allocator@PEAUVkCommandBuffer_T@@@std@@@std@@AEBAAEBV?$allocator@PEAUVkCommandBuffer_T@@@2@XZ DD imagerel $LN3
	DD	imagerel $LN3+56
	DD	imagerel $unwind$?_Getal@?$vector@PEAUVkCommandBuffer_T@@V?$allocator@PEAUVkCommandBuffer_T@@@std@@@std@@AEBAAEBV?$allocator@PEAUVkCommandBuffer_T@@@2@XZ
pdata	ENDS
;	COMDAT pdata
pdata	SEGMENT
$pdata$??0?$_Vector_val@U?$_Simple_types@PEAUVkCommandBuffer_T@@@std@@@std@@QEAA@XZ DD imagerel $LN3
	DD	imagerel $LN3+105
	DD	imagerel $unwind$??0?$_Vector_val@U?$_Simple_types@PEAUVkCommandBuffer_T@@@std@@@std@@QEAA@XZ
pdata	ENDS
;	COMDAT pdata
pdata	SEGMENT
$pdata$?_Get_first@?$_Compressed_pair@V?$allocator@PEAUVkCommandBuffer_T@@@std@@V?$_Vector_val@U?$_Simple_types@PEAUVkCommandBuffer_T@@@std@@@2@$00@std@@QEAAAEAV?$allocator@PEAUVkCommandBuffer_T@@@2@XZ DD imagerel $LN3
	DD	imagerel $LN3+48
	DD	imagerel $unwind$?_Get_first@?$_Compressed_pair@V?$allocator@PEAUVkCommandBuffer_T@@@std@@V?$_Vector_val@U?$_Simple_types@PEAUVkCommandBuffer_T@@@std@@@2@$00@std@@QEAAAEAV?$allocator@PEAUVkCommandBuffer_T@@@2@XZ
pdata	ENDS
;	COMDAT pdata
pdata	SEGMENT
$pdata$?_Get_first@?$_Compressed_pair@V?$allocator@PEAUVkCommandBuffer_T@@@std@@V?$_Vector_val@U?$_Simple_types@PEAUVkCommandBuffer_T@@@std@@@2@$00@std@@QEBAAEBV?$allocator@PEAUVkCommandBuffer_T@@@2@XZ DD imagerel $LN3
	DD	imagerel $LN3+48
	DD	imagerel $unwind$?_Get_first@?$_Compressed_pair@V?$allocator@PEAUVkCommandBuffer_T@@@std@@V?$_Vector_val@U?$_Simple_types@PEAUVkCommandBuffer_T@@@std@@@2@$00@std@@QEBAAEBV?$allocator@PEAUVkCommandBuffer_T@@@2@XZ
pdata	ENDS
;	COMDAT pdata
pdata	SEGMENT
$pdata$?__autoclassinit2@?$vector@PEAUVkCommandBuffer_T@@V?$allocator@PEAUVkCommandBuffer_T@@@std@@@std@@QEAAX_K@Z DD imagerel $LN3
	DD	imagerel $LN3+50
	DD	imagerel $unwind$?__autoclassinit2@?$vector@PEAUVkCommandBuffer_T@@V?$allocator@PEAUVkCommandBuffer_T@@@std@@@std@@QEAAX_K@Z
pdata	ENDS
;	COMDAT pdata
pdata	SEGMENT
$pdata$??$?6U?$char_traits@D@std@@@std@@YAAEAV?$basic_ostream@DU?$char_traits@D@std@@@0@AEAV10@PEBD@Z DD imagerel $LN25
	DD	imagerel $LN25+1126
	DD	imagerel $unwind$??$?6U?$char_traits@D@std@@@std@@YAAEAV?$basic_ostream@DU?$char_traits@D@std@@@0@AEAV10@PEBD@Z
pdata	ENDS
;	COMDAT pdata
pdata	SEGMENT
$pdata$?dtor$0@?0???$?6U?$char_traits@D@std@@@std@@YAAEAV?$basic_ostream@DU?$char_traits@D@std@@@0@AEAV10@PEBD@Z@4HA DD imagerel ?dtor$0@?0???$?6U?$char_traits@D@std@@@std@@YAAEAV?$basic_ostream@DU?$char_traits@D@std@@@0@AEAV10@PEBD@Z@4HA
	DD	imagerel ?dtor$0@?0???$?6U?$char_traits@D@std@@@std@@YAAEAV?$basic_ostream@DU?$char_traits@D@std@@@0@AEAV10@PEBD@Z@4HA+36
	DD	imagerel $unwind$?dtor$0@?0???$?6U?$char_traits@D@std@@@std@@YAAEAV?$basic_ostream@DU?$char_traits@D@std@@@0@AEAV10@PEBD@Z@4HA
pdata	ENDS
;	COMDAT pdata
pdata	SEGMENT
$pdata$?catch$1@?0???$?6U?$char_traits@D@std@@@std@@YAAEAV?$basic_ostream@DU?$char_traits@D@std@@@0@AEAV10@PEBD@Z@4HA DD imagerel ?catch$1@?0???$?6U?$char_traits@D@std@@@std@@YAAEAV?$basic_ostream@DU?$char_traits@D@std@@@0@AEAV10@PEBD@Z@4HA
	DD	imagerel ?catch$1@?0???$?6U?$char_traits@D@std@@@std@@YAAEAV?$basic_ostream@DU?$char_traits@D@std@@@0@AEAV10@PEBD@Z@4HA+91
	DD	imagerel $unwind$?catch$1@?0???$?6U?$char_traits@D@std@@@std@@YAAEAV?$basic_ostream@DU?$char_traits@D@std@@@0@AEAV10@PEBD@Z@4HA
pdata	ENDS
;	COMDAT pdata
pdata	SEGMENT
$pdata$??0?$GraphicsPipeline@UVertex2DRGB@cow@@@cow@@QEAA@AEAVDevice@1@PEAUGraphicsPipelineSimpleInfo@1@@Z DD imagerel $LN6
	DD	imagerel $LN6+1438
	DD	imagerel $unwind$??0?$GraphicsPipeline@UVertex2DRGB@cow@@@cow@@QEAA@AEAVDevice@1@PEAUGraphicsPipelineSimpleInfo@1@@Z
pdata	ENDS
;	COMDAT pdata
pdata	SEGMENT
$pdata$?dtor$0@?0???0?$GraphicsPipeline@UVertex2DRGB@cow@@@cow@@QEAA@AEAVDevice@1@PEAUGraphicsPipelineSimpleInfo@1@@Z@4HA DD imagerel ?dtor$0@?0???0?$GraphicsPipeline@UVertex2DRGB@cow@@@cow@@QEAA@AEAVDevice@1@PEAUGraphicsPipelineSimpleInfo@1@@Z@4HA
	DD	imagerel ?dtor$0@?0???0?$GraphicsPipeline@UVertex2DRGB@cow@@@cow@@QEAA@AEAVDevice@1@PEAUGraphicsPipelineSimpleInfo@1@@Z@4HA+39
	DD	imagerel $unwind$?dtor$0@?0???0?$GraphicsPipeline@UVertex2DRGB@cow@@@cow@@QEAA@AEAVDevice@1@PEAUGraphicsPipelineSimpleInfo@1@@Z@4HA
pdata	ENDS
;	COMDAT pdata
pdata	SEGMENT
$pdata$??1?$GraphicsPipeline@UVertex2DRGB@cow@@@cow@@QEAA@XZ DD imagerel $LN3
	DD	imagerel $LN3+230
	DD	imagerel $unwind$??1?$GraphicsPipeline@UVertex2DRGB@cow@@@cow@@QEAA@XZ
pdata	ENDS
;	COMDAT pdata
pdata	SEGMENT
$pdata$?bind@?$GraphicsPipeline@UVertex2DRGB@cow@@@cow@@QEAAXPEAUVkCommandBuffer_T@@@Z DD imagerel $LN3
	DD	imagerel $LN3+71
	DD	imagerel $unwind$?bind@?$GraphicsPipeline@UVertex2DRGB@cow@@@cow@@QEAAXPEAUVkCommandBuffer_T@@@Z
pdata	ENDS
;	COMDAT pdata
pdata	SEGMENT
$pdata$?__autoclassinit2@?$GraphicsPipeline@UVertex2DRGB@cow@@@cow@@QEAAX_K@Z DD imagerel $LN3
	DD	imagerel $LN3+50
	DD	imagerel $unwind$?__autoclassinit2@?$GraphicsPipeline@UVertex2DRGB@cow@@@cow@@QEAAX_K@Z
pdata	ENDS
;	COMDAT pdata
pdata	SEGMENT
$pdata$??0?$allocator@UVertex2DRGB@cow@@@std@@QEAA@XZ DD imagerel $LN3
	DD	imagerel $LN3+48
	DD	imagerel $unwind$??0?$allocator@UVertex2DRGB@cow@@@std@@QEAA@XZ
pdata	ENDS
;	COMDAT pdata
pdata	SEGMENT
$pdata$?deallocate@?$allocator@UVertex2DRGB@cow@@@std@@QEAAXQEAUVertex2DRGB@cow@@_K@Z DD imagerel $LN13
	DD	imagerel $LN13+213
	DD	imagerel $unwind$?deallocate@?$allocator@UVertex2DRGB@cow@@@std@@QEAAXQEAUVertex2DRGB@cow@@_K@Z
pdata	ENDS
;	COMDAT pdata
pdata	SEGMENT
$pdata$?allocate@?$allocator@UVertex2DRGB@cow@@@std@@QEAAPEAUVertex2DRGB@cow@@_K@Z DD imagerel $LN3
	DD	imagerel $LN3+66
	DD	imagerel $unwind$?allocate@?$allocator@UVertex2DRGB@cow@@@std@@QEAAPEAUVertex2DRGB@cow@@_K@Z
pdata	ENDS
;	COMDAT pdata
pdata	SEGMENT
$pdata$?max_size@?$_Default_allocator_traits@V?$allocator@UVertex2DRGB@cow@@@std@@@std@@SA_KAEBV?$allocator@UVertex2DRGB@cow@@@2@@Z DD imagerel $LN3
	DD	imagerel $LN3+51
	DD	imagerel $unwind$?max_size@?$_Default_allocator_traits@V?$allocator@UVertex2DRGB@cow@@@std@@@std@@SA_KAEBV?$allocator@UVertex2DRGB@cow@@@2@@Z
pdata	ENDS
;	COMDAT pdata
pdata	SEGMENT
$pdata$??0?$vector@UVertex2DRGB@cow@@V?$allocator@UVertex2DRGB@cow@@@std@@@std@@QEAA@XZ DD imagerel $LN3
	DD	imagerel $LN3+137
	DD	imagerel $unwind$??0?$vector@UVertex2DRGB@cow@@V?$allocator@UVertex2DRGB@cow@@@std@@@std@@QEAA@XZ
pdata	ENDS
;	COMDAT pdata
pdata	SEGMENT
$pdata$??1?$vector@UVertex2DRGB@cow@@V?$allocator@UVertex2DRGB@cow@@@std@@@std@@QEAA@XZ DD imagerel $LN3
	DD	imagerel $LN3+203
	DD	imagerel $unwind$??1?$vector@UVertex2DRGB@cow@@V?$allocator@UVertex2DRGB@cow@@@std@@@std@@QEAA@XZ
pdata	ENDS
;	COMDAT pdata
pdata	SEGMENT
$pdata$?push_back@?$vector@UVertex2DRGB@cow@@V?$allocator@UVertex2DRGB@cow@@@std@@@std@@QEAAX$$QEAUVertex2DRGB@cow@@@Z DD imagerel $LN3
	DD	imagerel $LN3+73
	DD	imagerel $unwind$?push_back@?$vector@UVertex2DRGB@cow@@V?$allocator@UVertex2DRGB@cow@@@std@@@std@@QEAAX$$QEAUVertex2DRGB@cow@@@Z
pdata	ENDS
;	COMDAT pdata
pdata	SEGMENT
$pdata$?data@?$vector@UVertex2DRGB@cow@@V?$allocator@UVertex2DRGB@cow@@@std@@@std@@QEAAPEAUVertex2DRGB@cow@@XZ DD imagerel $LN3
	DD	imagerel $LN3+57
	DD	imagerel $unwind$?data@?$vector@UVertex2DRGB@cow@@V?$allocator@UVertex2DRGB@cow@@@std@@@std@@QEAAPEAUVertex2DRGB@cow@@XZ
pdata	ENDS
;	COMDAT pdata
pdata	SEGMENT
$pdata$?size@?$vector@UVertex2DRGB@cow@@V?$allocator@UVertex2DRGB@cow@@@std@@@std@@QEBA_KXZ DD imagerel $LN3
	DD	imagerel $LN3+81
	DD	imagerel $unwind$?size@?$vector@UVertex2DRGB@cow@@V?$allocator@UVertex2DRGB@cow@@@std@@@std@@QEBA_KXZ
pdata	ENDS
;	COMDAT pdata
pdata	SEGMENT
$pdata$?max_size@?$vector@UVertex2DRGB@cow@@V?$allocator@UVertex2DRGB@cow@@@std@@@std@@QEBA_KXZ DD imagerel $LN3
	DD	imagerel $LN3+102
	DD	imagerel $unwind$?max_size@?$vector@UVertex2DRGB@cow@@V?$allocator@UVertex2DRGB@cow@@@std@@@std@@QEBA_KXZ
pdata	ENDS
;	COMDAT pdata
pdata	SEGMENT
$pdata$?capacity@?$vector@UVertex2DRGB@cow@@V?$allocator@UVertex2DRGB@cow@@@std@@@std@@QEBA_KXZ DD imagerel $LN3
	DD	imagerel $LN3+81
	DD	imagerel $unwind$?capacity@?$vector@UVertex2DRGB@cow@@V?$allocator@UVertex2DRGB@cow@@@std@@@std@@QEBA_KXZ
pdata	ENDS
;	COMDAT pdata
pdata	SEGMENT
$pdata$?_Calculate_growth@?$vector@UVertex2DRGB@cow@@V?$allocator@UVertex2DRGB@cow@@@std@@@std@@AEBA_K_K@Z DD imagerel $LN5
	DD	imagerel $LN5+168
	DD	imagerel $unwind$?_Calculate_growth@?$vector@UVertex2DRGB@cow@@V?$allocator@UVertex2DRGB@cow@@@std@@@std@@AEBA_K_K@Z
pdata	ENDS
;	COMDAT pdata
pdata	SEGMENT
$pdata$?_Change_array@?$vector@UVertex2DRGB@cow@@V?$allocator@UVertex2DRGB@cow@@@std@@@std@@AEAAXQEAUVertex2DRGB@cow@@_K1@Z DD imagerel $LN4
	DD	imagerel $LN4+286
	DD	imagerel $unwind$?_Change_array@?$vector@UVertex2DRGB@cow@@V?$allocator@UVertex2DRGB@cow@@@std@@@std@@AEAAXQEAUVertex2DRGB@cow@@_K1@Z
pdata	ENDS
;	COMDAT pdata
pdata	SEGMENT
$pdata$?_Tidy@?$vector@UVertex2DRGB@cow@@V?$allocator@UVertex2DRGB@cow@@@std@@@std@@AEAAXXZ DD imagerel $LN4
	DD	imagerel $LN4+234
	DD	imagerel $unwind$?_Tidy@?$vector@UVertex2DRGB@cow@@V?$allocator@UVertex2DRGB@cow@@@std@@@std@@AEAAXXZ
pdata	ENDS
;	COMDAT pdata
pdata	SEGMENT
$pdata$?_Xlength@?$vector@UVertex2DRGB@cow@@V?$allocator@UVertex2DRGB@cow@@@std@@@std@@CAXXZ DD imagerel $LN3
	DD	imagerel $LN3+49
	DD	imagerel $unwind$?_Xlength@?$vector@UVertex2DRGB@cow@@V?$allocator@UVertex2DRGB@cow@@@std@@@std@@CAXXZ
pdata	ENDS
;	COMDAT pdata
pdata	SEGMENT
$pdata$?_Orphan_range_unlocked@?$vector@UVertex2DRGB@cow@@V?$allocator@UVertex2DRGB@cow@@@std@@@std@@AEBAXPEAUVertex2DRGB@cow@@0@Z DD imagerel $LN8
	DD	imagerel $LN8+184
	DD	imagerel $unwind$?_Orphan_range_unlocked@?$vector@UVertex2DRGB@cow@@V?$allocator@UVertex2DRGB@cow@@@std@@@std@@AEBAXPEAUVertex2DRGB@cow@@0@Z
pdata	ENDS
;	COMDAT pdata
pdata	SEGMENT
$pdata$?_Orphan_range_locked@?$vector@UVertex2DRGB@cow@@V?$allocator@UVertex2DRGB@cow@@@std@@@std@@AEBAXPEAUVertex2DRGB@cow@@0@Z DD imagerel $LN4
	DD	imagerel $LN4+177
	DD	imagerel $unwind$?_Orphan_range_locked@?$vector@UVertex2DRGB@cow@@V?$allocator@UVertex2DRGB@cow@@@std@@@std@@AEBAXPEAUVertex2DRGB@cow@@0@Z
pdata	ENDS
;	COMDAT pdata
pdata	SEGMENT
$pdata$?dtor$0@?0??_Orphan_range_locked@?$vector@UVertex2DRGB@cow@@V?$allocator@UVertex2DRGB@cow@@@std@@@std@@AEBAXPEAUVertex2DRGB@cow@@0@Z@4HA DD imagerel ?dtor$0@?0??_Orphan_range_locked@?$vector@UVertex2DRGB@cow@@V?$allocator@UVertex2DRGB@cow@@@std@@@std@@AEBAXPEAUVertex2DRGB@cow@@0@Z@4HA
	DD	imagerel ?dtor$0@?0??_Orphan_range_locked@?$vector@UVertex2DRGB@cow@@V?$allocator@UVertex2DRGB@cow@@@std@@@std@@AEBAXPEAUVertex2DRGB@cow@@0@Z@4HA+37
	DD	imagerel $unwind$?dtor$0@?0??_Orphan_range_locked@?$vector@UVertex2DRGB@cow@@V?$allocator@UVertex2DRGB@cow@@@std@@@std@@AEBAXPEAUVertex2DRGB@cow@@0@Z@4HA
pdata	ENDS
;	COMDAT pdata
pdata	SEGMENT
$pdata$?_Orphan_range@?$vector@UVertex2DRGB@cow@@V?$allocator@UVertex2DRGB@cow@@@std@@@std@@AEBAXPEAUVertex2DRGB@cow@@0@Z DD imagerel $LN5
	DD	imagerel $LN5+117
	DD	imagerel $unwind$?_Orphan_range@?$vector@UVertex2DRGB@cow@@V?$allocator@UVertex2DRGB@cow@@@std@@@std@@AEBAXPEAUVertex2DRGB@cow@@0@Z
pdata	ENDS
;	COMDAT pdata
pdata	SEGMENT
$pdata$?_Getal@?$vector@UVertex2DRGB@cow@@V?$allocator@UVertex2DRGB@cow@@@std@@@std@@AEAAAEAV?$allocator@UVertex2DRGB@cow@@@2@XZ DD imagerel $LN3
	DD	imagerel $LN3+56
	DD	imagerel $unwind$?_Getal@?$vector@UVertex2DRGB@cow@@V?$allocator@UVertex2DRGB@cow@@@std@@@std@@AEAAAEAV?$allocator@UVertex2DRGB@cow@@@2@XZ
pdata	ENDS
;	COMDAT pdata
pdata	SEGMENT
$pdata$?_Getal@?$vector@UVertex2DRGB@cow@@V?$allocator@UVertex2DRGB@cow@@@std@@@std@@AEBAAEBV?$allocator@UVertex2DRGB@cow@@@2@XZ DD imagerel $LN3
	DD	imagerel $LN3+56
	DD	imagerel $unwind$?_Getal@?$vector@UVertex2DRGB@cow@@V?$allocator@UVertex2DRGB@cow@@@std@@@std@@AEBAAEBV?$allocator@UVertex2DRGB@cow@@@2@XZ
pdata	ENDS
;	COMDAT pdata
pdata	SEGMENT
$pdata$??0?$_Vector_val@U?$_Simple_types@UVertex2DRGB@cow@@@std@@@std@@QEAA@XZ DD imagerel $LN3
	DD	imagerel $LN3+105
	DD	imagerel $unwind$??0?$_Vector_val@U?$_Simple_types@UVertex2DRGB@cow@@@std@@@std@@QEAA@XZ
pdata	ENDS
;	COMDAT pdata
pdata	SEGMENT
$pdata$?_Get_first@?$_Compressed_pair@V?$allocator@UVertex2DRGB@cow@@@std@@V?$_Vector_val@U?$_Simple_types@UVertex2DRGB@cow@@@std@@@2@$00@std@@QEAAAEAV?$allocator@UVertex2DRGB@cow@@@2@XZ DD imagerel $LN3
	DD	imagerel $LN3+48
	DD	imagerel $unwind$?_Get_first@?$_Compressed_pair@V?$allocator@UVertex2DRGB@cow@@@std@@V?$_Vector_val@U?$_Simple_types@UVertex2DRGB@cow@@@std@@@2@$00@std@@QEAAAEAV?$allocator@UVertex2DRGB@cow@@@2@XZ
pdata	ENDS
;	COMDAT pdata
pdata	SEGMENT
$pdata$?_Get_first@?$_Compressed_pair@V?$allocator@UVertex2DRGB@cow@@@std@@V?$_Vector_val@U?$_Simple_types@UVertex2DRGB@cow@@@std@@@2@$00@std@@QEBAAEBV?$allocator@UVertex2DRGB@cow@@@2@XZ DD imagerel $LN3
	DD	imagerel $LN3+48
	DD	imagerel $unwind$?_Get_first@?$_Compressed_pair@V?$allocator@UVertex2DRGB@cow@@@std@@V?$_Vector_val@U?$_Simple_types@UVertex2DRGB@cow@@@std@@@2@$00@std@@QEBAAEBV?$allocator@UVertex2DRGB@cow@@@2@XZ
pdata	ENDS
;	COMDAT pdata
pdata	SEGMENT
$pdata$?__autoclassinit2@?$vector@UVertex2DRGB@cow@@V?$allocator@UVertex2DRGB@cow@@@std@@@std@@QEAAX_K@Z DD imagerel $LN3
	DD	imagerel $LN3+50
	DD	imagerel $unwind$?__autoclassinit2@?$vector@UVertex2DRGB@cow@@V?$allocator@UVertex2DRGB@cow@@@std@@@std@@QEAAX_K@Z
pdata	ENDS
;	COMDAT pdata
pdata	SEGMENT
$pdata$??$?0NN@?$vec@$01M$0A@@glm@@QEAA@NN@Z DD imagerel $LN3
	DD	imagerel $LN3+99
	DD	imagerel $unwind$??$?0NN@?$vec@$01M$0A@@glm@@QEAA@NN@Z
pdata	ENDS
;	COMDAT pdata
pdata	SEGMENT
$pdata$??$?0NNN@?$vec@$02M$0A@@glm@@QEAA@NNN@Z DD imagerel $LN3
	DD	imagerel $LN3+125
	DD	imagerel $unwind$??$?0NNN@?$vec@$02M$0A@@glm@@QEAA@NNN@Z
pdata	ENDS
;	COMDAT pdata
pdata	SEGMENT
$pdata$??$_Unfancy_maybe_null@UVertex2DRGB@cow@@@std@@YAPEAUVertex2DRGB@cow@@PEAU12@@Z DD imagerel $LN3
	DD	imagerel $LN3+48
	DD	imagerel $unwind$??$_Unfancy_maybe_null@UVertex2DRGB@cow@@@std@@YAPEAUVertex2DRGB@cow@@PEAU12@@Z
pdata	ENDS
;	COMDAT pdata
pdata	SEGMENT
$pdata$??$move@AEAUVertex2DRGB@cow@@@std@@YA$$QEAUVertex2DRGB@cow@@AEAU12@@Z DD imagerel $LN3
	DD	imagerel $LN3+48
	DD	imagerel $unwind$??$move@AEAUVertex2DRGB@cow@@@std@@YA$$QEAUVertex2DRGB@cow@@AEAU12@@Z
pdata	ENDS
;	COMDAT pdata
pdata	SEGMENT
$pdata$??$emplace_back@UVertex2DRGB@cow@@@?$vector@UVertex2DRGB@cow@@V?$allocator@UVertex2DRGB@cow@@@std@@@std@@QEAA?A_T$$QEAUVertex2DRGB@cow@@@Z DD imagerel $LN3
	DD	imagerel $LN3+81
	DD	imagerel $unwind$??$emplace_back@UVertex2DRGB@cow@@@?$vector@UVertex2DRGB@cow@@V?$allocator@UVertex2DRGB@cow@@@std@@@std@@QEAA?A_T$$QEAUVertex2DRGB@cow@@@Z
pdata	ENDS
;	COMDAT pdata
pdata	SEGMENT
$pdata$??$forward@UVertex2DRGB@cow@@@std@@YA$$QEAUVertex2DRGB@cow@@AEAU12@@Z DD imagerel $LN3
	DD	imagerel $LN3+48
	DD	imagerel $unwind$??$forward@UVertex2DRGB@cow@@@std@@YA$$QEAUVertex2DRGB@cow@@AEAU12@@Z
pdata	ENDS
;	COMDAT pdata
pdata	SEGMENT
$pdata$??$_Emplace_one_at_back@UVertex2DRGB@cow@@@?$vector@UVertex2DRGB@cow@@V?$allocator@UVertex2DRGB@cow@@@std@@@std@@AEAAAEAUVertex2DRGB@cow@@$$QEAU23@@Z DD imagerel $LN4
	DD	imagerel $LN4+174
	DD	imagerel $unwind$??$_Emplace_one_at_back@UVertex2DRGB@cow@@@?$vector@UVertex2DRGB@cow@@V?$allocator@UVertex2DRGB@cow@@@std@@@std@@AEAAAEAUVertex2DRGB@cow@@$$QEAU23@@Z
pdata	ENDS
;	COMDAT pdata
pdata	SEGMENT
$pdata$?deallocate@?$allocator@U_Container_proxy@std@@@std@@QEAAXQEAU_Container_proxy@2@_K@Z DD imagerel $LN13
	DD	imagerel $LN13+213
	DD	imagerel $unwind$?deallocate@?$allocator@U_Container_proxy@std@@@std@@QEAAXQEAU_Container_proxy@2@_K@Z
pdata	ENDS
;	COMDAT pdata
pdata	SEGMENT
$pdata$?allocate@?$allocator@U_Container_proxy@std@@@std@@QEAAPEAU_Container_proxy@2@_K@Z DD imagerel $LN3
	DD	imagerel $LN3+66
	DD	imagerel $unwind$?allocate@?$allocator@U_Container_proxy@std@@@std@@QEAAPEAU_Container_proxy@2@_K@Z
pdata	ENDS
;	COMDAT pdata
pdata	SEGMENT
$pdata$??$?0UVertex2DRGB@cow@@@?$allocator@U_Container_proxy@std@@@std@@QEAA@AEBV?$allocator@UVertex2DRGB@cow@@@1@@Z DD imagerel $LN3
	DD	imagerel $LN3+53
	DD	imagerel $unwind$??$?0UVertex2DRGB@cow@@@?$allocator@U_Container_proxy@std@@@std@@QEAA@AEBV?$allocator@UVertex2DRGB@cow@@@1@@Z
pdata	ENDS
;	COMDAT pdata
pdata	SEGMENT
$pdata$??$exchange@PEAU_Container_proxy@std@@$$T@std@@YAPEAU_Container_proxy@0@AEAPEAU10@$$QEA$$T@Z DD imagerel $LN3
	DD	imagerel $LN3+84
	DD	imagerel $unwind$??$exchange@PEAU_Container_proxy@std@@$$T@std@@YAPEAU_Container_proxy@0@AEAPEAU10@$$QEA$$T@Z
pdata	ENDS
;	COMDAT pdata
pdata	SEGMENT
$pdata$??$_Delete_plain_internal@V?$allocator@U_Container_proxy@std@@@std@@@std@@YAXAEAV?$allocator@U_Container_proxy@std@@@0@QEAU_Container_proxy@0@@Z DD imagerel $LN3
	DD	imagerel $LN3+65
	DD	imagerel $unwind$??$_Delete_plain_internal@V?$allocator@U_Container_proxy@std@@@std@@@std@@YAXAEAV?$allocator@U_Container_proxy@std@@@0@QEAU_Container_proxy@0@@Z
pdata	ENDS
;	COMDAT pdata
pdata	SEGMENT
$pdata$??$?0$$V@?$_Compressed_pair@V?$allocator@UVertex2DRGB@cow@@@std@@V?$_Vector_val@U?$_Simple_types@UVertex2DRGB@cow@@@std@@@2@$00@std@@QEAA@U_Zero_then_variadic_args_t@1@@Z DD imagerel $LN3
	DD	imagerel $LN3+79
	DD	imagerel $unwind$??$?0$$V@?$_Compressed_pair@V?$allocator@UVertex2DRGB@cow@@@std@@V?$_Vector_val@U?$_Simple_types@UVertex2DRGB@cow@@@std@@@2@$00@std@@QEAA@U_Zero_then_variadic_args_t@1@@Z
pdata	ENDS
;	COMDAT pdata
pdata	SEGMENT
$pdata$??$_Alloc_proxy@V?$allocator@U_Container_proxy@std@@@std@@@_Container_base12@std@@QEAAX$$QEAV?$allocator@U_Container_proxy@std@@@1@@Z DD imagerel $LN3
	DD	imagerel $LN3+133
	DD	imagerel $unwind$??$_Alloc_proxy@V?$allocator@U_Container_proxy@std@@@std@@@_Container_base12@std@@QEAAX$$QEAV?$allocator@U_Container_proxy@std@@@1@@Z
pdata	ENDS
;	COMDAT pdata
pdata	SEGMENT
$pdata$?deallocate@?$allocator@UVkVertexInputAttributeDescription@@@std@@QEAAXQEAUVkVertexInputAttributeDescription@@_K@Z DD imagerel $LN13
	DD	imagerel $LN13+213
	DD	imagerel $unwind$?deallocate@?$allocator@UVkVertexInputAttributeDescription@@@std@@QEAAXQEAUVkVertexInputAttributeDescription@@_K@Z
pdata	ENDS
;	COMDAT pdata
pdata	SEGMENT
$pdata$??1?$vector@UVkVertexInputAttributeDescription@@V?$allocator@UVkVertexInputAttributeDescription@@@std@@@std@@QEAA@XZ DD imagerel $LN3
	DD	imagerel $LN3+203
	DD	imagerel $unwind$??1?$vector@UVkVertexInputAttributeDescription@@V?$allocator@UVkVertexInputAttributeDescription@@@std@@@std@@QEAA@XZ
pdata	ENDS
;	COMDAT pdata
pdata	SEGMENT
$pdata$?data@?$vector@UVkVertexInputAttributeDescription@@V?$allocator@UVkVertexInputAttributeDescription@@@std@@@std@@QEAAPEAUVkVertexInputAttributeDescription@@XZ DD imagerel $LN3
	DD	imagerel $LN3+57
	DD	imagerel $unwind$?data@?$vector@UVkVertexInputAttributeDescription@@V?$allocator@UVkVertexInputAttributeDescription@@@std@@@std@@QEAAPEAUVkVertexInputAttributeDescription@@XZ
pdata	ENDS
;	COMDAT pdata
pdata	SEGMENT
$pdata$?size@?$vector@UVkVertexInputAttributeDescription@@V?$allocator@UVkVertexInputAttributeDescription@@@std@@@std@@QEBA_KXZ DD imagerel $LN3
	DD	imagerel $LN3+75
	DD	imagerel $unwind$?size@?$vector@UVkVertexInputAttributeDescription@@V?$allocator@UVkVertexInputAttributeDescription@@@std@@@std@@QEBA_KXZ
pdata	ENDS
;	COMDAT pdata
pdata	SEGMENT
$pdata$?_Tidy@?$vector@UVkVertexInputAttributeDescription@@V?$allocator@UVkVertexInputAttributeDescription@@@std@@@std@@AEAAXXZ DD imagerel $LN4
	DD	imagerel $LN4+228
	DD	imagerel $unwind$?_Tidy@?$vector@UVkVertexInputAttributeDescription@@V?$allocator@UVkVertexInputAttributeDescription@@@std@@@std@@AEAAXXZ
pdata	ENDS
;	COMDAT pdata
pdata	SEGMENT
$pdata$?_Getal@?$vector@UVkVertexInputAttributeDescription@@V?$allocator@UVkVertexInputAttributeDescription@@@std@@@std@@AEAAAEAV?$allocator@UVkVertexInputAttributeDescription@@@2@XZ DD imagerel $LN3
	DD	imagerel $LN3+56
	DD	imagerel $unwind$?_Getal@?$vector@UVkVertexInputAttributeDescription@@V?$allocator@UVkVertexInputAttributeDescription@@@std@@@std@@AEAAAEAV?$allocator@UVkVertexInputAttributeDescription@@@2@XZ
pdata	ENDS
;	COMDAT pdata
pdata	SEGMENT
$pdata$?_Get_first@?$_Compressed_pair@V?$allocator@UVkVertexInputAttributeDescription@@@std@@V?$_Vector_val@U?$_Simple_types@UVkVertexInputAttributeDescription@@@std@@@2@$00@std@@QEAAAEAV?$allocator@UVkVertexInputAttributeDescription@@@2@XZ DD imagerel $LN3
	DD	imagerel $LN3+48
	DD	imagerel $unwind$?_Get_first@?$_Compressed_pair@V?$allocator@UVkVertexInputAttributeDescription@@@std@@V?$_Vector_val@U?$_Simple_types@UVkVertexInputAttributeDescription@@@std@@@2@$00@std@@QEAAAEAV?$allocator@UVkVertexInputAttributeDescription@@@2@XZ
pdata	ENDS
;	COMDAT pdata
pdata	SEGMENT
$pdata$?__autoclassinit2@?$vector@UVkVertexInputAttributeDescription@@V?$allocator@UVkVertexInputAttributeDescription@@@std@@@std@@QEAAX_K@Z DD imagerel $LN3
	DD	imagerel $LN3+50
	DD	imagerel $unwind$?__autoclassinit2@?$vector@UVkVertexInputAttributeDescription@@V?$allocator@UVkVertexInputAttributeDescription@@@std@@@std@@QEAAX_K@Z
pdata	ENDS
;	COMDAT pdata
pdata	SEGMENT
$pdata$??$_Unfancy_maybe_null@PEAUVkCommandBuffer_T@@@std@@YAPEAPEAUVkCommandBuffer_T@@PEAPEAU1@@Z DD imagerel $LN3
	DD	imagerel $LN3+48
	DD	imagerel $unwind$??$_Unfancy_maybe_null@PEAUVkCommandBuffer_T@@@std@@YAPEAPEAUVkCommandBuffer_T@@PEAPEAU1@@Z
pdata	ENDS
;	COMDAT pdata
pdata	SEGMENT
$pdata$??$?0PEAUVkCommandBuffer_T@@@?$allocator@U_Container_proxy@std@@@std@@QEAA@AEBV?$allocator@PEAUVkCommandBuffer_T@@@1@@Z DD imagerel $LN3
	DD	imagerel $LN3+53
	DD	imagerel $unwind$??$?0PEAUVkCommandBuffer_T@@@?$allocator@U_Container_proxy@std@@@std@@QEAA@AEBV?$allocator@PEAUVkCommandBuffer_T@@@1@@Z
pdata	ENDS
;	COMDAT pdata
pdata	SEGMENT
$pdata$??$?0AEBV?$allocator@PEAUVkCommandBuffer_T@@@std@@$$V@?$_Compressed_pair@V?$allocator@PEAUVkCommandBuffer_T@@@std@@V?$_Vector_val@U?$_Simple_types@PEAUVkCommandBuffer_T@@@std@@@2@$00@std@@QEAA@U_One_then_variadic_args_t@1@AEBV?$allocator@PEAUVkCommandBuffer_T@@@1@@Z DD imagerel $LN3
	DD	imagerel $LN3+84
	DD	imagerel $unwind$??$?0AEBV?$allocator@PEAUVkCommandBuffer_T@@@std@@$$V@?$_Compressed_pair@V?$allocator@PEAUVkCommandBuffer_T@@@std@@V?$_Vector_val@U?$_Simple_types@PEAUVkCommandBuffer_T@@@std@@@2@$00@std@@QEAA@U_One_then_variadic_args_t@1@AEBV?$allocator@PEAUVkCommandBuffer_T@@@1@@Z
pdata	ENDS
;	COMDAT pdata
pdata	SEGMENT
$pdata$??$_Construct_n@$$V@?$vector@PEAUVkCommandBuffer_T@@V?$allocator@PEAUVkCommandBuffer_T@@@std@@@std@@AEAAX_K@Z DD imagerel $LN6
	DD	imagerel $LN6+311
	DD	imagerel $unwind$??$_Construct_n@$$V@?$vector@PEAUVkCommandBuffer_T@@V?$allocator@PEAUVkCommandBuffer_T@@@std@@@std@@AEAAX_K@Z
pdata	ENDS
;	COMDAT pdata
pdata	SEGMENT
$pdata$?dtor$0@?0???$_Construct_n@$$V@?$vector@PEAUVkCommandBuffer_T@@V?$allocator@PEAUVkCommandBuffer_T@@@std@@@std@@AEAAX_K@Z@4HA DD imagerel ?dtor$0@?0???$_Construct_n@$$V@?$vector@PEAUVkCommandBuffer_T@@V?$allocator@PEAUVkCommandBuffer_T@@@std@@@std@@AEAAX_K@Z@4HA
	DD	imagerel ?dtor$0@?0???$_Construct_n@$$V@?$vector@PEAUVkCommandBuffer_T@@V?$allocator@PEAUVkCommandBuffer_T@@@std@@@std@@AEAAX_K@Z@4HA+39
	DD	imagerel $unwind$?dtor$0@?0???$_Construct_n@$$V@?$vector@PEAUVkCommandBuffer_T@@V?$allocator@PEAUVkCommandBuffer_T@@@std@@@std@@AEAAX_K@Z@4HA
pdata	ENDS
;	COMDAT pdata
pdata	SEGMENT
$pdata$?dtor$1@?0???$_Construct_n@$$V@?$vector@PEAUVkCommandBuffer_T@@V?$allocator@PEAUVkCommandBuffer_T@@@std@@@std@@AEAAX_K@Z@4HA DD imagerel ?dtor$1@?0???$_Construct_n@$$V@?$vector@PEAUVkCommandBuffer_T@@V?$allocator@PEAUVkCommandBuffer_T@@@std@@@std@@AEAAX_K@Z@4HA
	DD	imagerel ?dtor$1@?0???$_Construct_n@$$V@?$vector@PEAUVkCommandBuffer_T@@V?$allocator@PEAUVkCommandBuffer_T@@@std@@@std@@AEAAX_K@Z@4HA+39
	DD	imagerel $unwind$?dtor$1@?0???$_Construct_n@$$V@?$vector@PEAUVkCommandBuffer_T@@V?$allocator@PEAUVkCommandBuffer_T@@@std@@@std@@AEAAX_K@Z@4HA
pdata	ENDS
;	COMDAT pdata
pdata	SEGMENT
$pdata$??$?0W4VkDynamicState@@@?$allocator@U_Container_proxy@std@@@std@@QEAA@AEBV?$allocator@W4VkDynamicState@@@1@@Z DD imagerel $LN3
	DD	imagerel $LN3+53
	DD	imagerel $unwind$??$?0W4VkDynamicState@@@?$allocator@U_Container_proxy@std@@@std@@QEAA@AEBV?$allocator@W4VkDynamicState@@@1@@Z
pdata	ENDS
;	COMDAT pdata
pdata	SEGMENT
$pdata$??$?0$$V@?$_Compressed_pair@V?$allocator@W4VkDynamicState@@@std@@V?$_Vector_val@U?$_Simple_types@W4VkDynamicState@@@std@@@2@$00@std@@QEAA@U_Zero_then_variadic_args_t@1@@Z DD imagerel $LN3
	DD	imagerel $LN3+79
	DD	imagerel $unwind$??$?0$$V@?$_Compressed_pair@V?$allocator@W4VkDynamicState@@@std@@V?$_Vector_val@U?$_Simple_types@W4VkDynamicState@@@std@@@2@$00@std@@QEAA@U_Zero_then_variadic_args_t@1@@Z
pdata	ENDS
;	COMDAT pdata
pdata	SEGMENT
$pdata$??0_Sentry_base@?$basic_ostream@DU?$char_traits@D@std@@@std@@QEAA@AEAV12@@Z DD imagerel $LN4
	DD	imagerel $LN4+148
	DD	imagerel $unwind$??0_Sentry_base@?$basic_ostream@DU?$char_traits@D@std@@@std@@QEAA@AEAV12@@Z
pdata	ENDS
;	COMDAT pdata
pdata	SEGMENT
$pdata$??1_Sentry_base@?$basic_ostream@DU?$char_traits@D@std@@@std@@QEAA@XZ DD imagerel $LN4
	DD	imagerel $LN4+120
	DD	imagerel $unwind$??1_Sentry_base@?$basic_ostream@DU?$char_traits@D@std@@@std@@QEAA@XZ
pdata	ENDS
;	COMDAT pdata
pdata	SEGMENT
$pdata$??0sentry@?$basic_ostream@DU?$char_traits@D@std@@@std@@QEAA@AEAV12@@Z DD imagerel $LN7
	DD	imagerel $LN7+261
	DD	imagerel $unwind$??0sentry@?$basic_ostream@DU?$char_traits@D@std@@@std@@QEAA@AEAV12@@Z
pdata	ENDS
;	COMDAT pdata
pdata	SEGMENT
$pdata$?dtor$0@?0???0sentry@?$basic_ostream@DU?$char_traits@D@std@@@std@@QEAA@AEAV12@@Z@4HA DD imagerel ?dtor$0@?0???0sentry@?$basic_ostream@DU?$char_traits@D@std@@@std@@QEAA@AEAV12@@Z@4HA
	DD	imagerel ?dtor$0@?0???0sentry@?$basic_ostream@DU?$char_traits@D@std@@@std@@QEAA@AEAV12@@Z@4HA+39
	DD	imagerel $unwind$?dtor$0@?0???0sentry@?$basic_ostream@DU?$char_traits@D@std@@@std@@QEAA@AEAV12@@Z@4HA
pdata	ENDS
;	COMDAT pdata
pdata	SEGMENT
$pdata$??1sentry@?$basic_ostream@DU?$char_traits@D@std@@@std@@QEAA@XZ DD imagerel $LN6
	DD	imagerel $LN6+113
	DD	imagerel $unwind$??1sentry@?$basic_ostream@DU?$char_traits@D@std@@@std@@QEAA@XZ
pdata	ENDS
;	COMDAT pdata
pdata	SEGMENT
$pdata$??Bsentry@?$basic_ostream@DU?$char_traits@D@std@@@std@@QEBA_NXZ DD imagerel $LN3
	DD	imagerel $LN3+52
	DD	imagerel $unwind$??Bsentry@?$basic_ostream@DU?$char_traits@D@std@@@std@@QEBA_NXZ
pdata	ENDS
;	COMDAT pdata
pdata	SEGMENT
$pdata$??$min@_K@std@@YAAEB_KAEB_K0@Z DD imagerel $LN5
	DD	imagerel $LN5+119
	DD	imagerel $unwind$??$min@_K@std@@YAAEB_KAEB_K0@Z
pdata	ENDS
;	COMDAT pdata
pdata	SEGMENT
$pdata$??0?$_Container_proxy_ptr12@V?$allocator@U_Container_proxy@std@@@std@@@std@@QEAA@AEAV?$allocator@U_Container_proxy@std@@@1@AEAU_Container_base12@1@@Z DD imagerel $LN3
	DD	imagerel $LN3+184
	DD	imagerel $unwind$??0?$_Container_proxy_ptr12@V?$allocator@U_Container_proxy@std@@@std@@@std@@QEAA@AEAV?$allocator@U_Container_proxy@std@@@1@AEAU_Container_base12@1@@Z
pdata	ENDS
;	COMDAT pdata
pdata	SEGMENT
$pdata$??1?$_Container_proxy_ptr12@V?$allocator@U_Container_proxy@std@@@std@@@std@@QEAA@XZ DD imagerel $LN4
	DD	imagerel $LN4+80
	DD	imagerel $unwind$??1?$_Container_proxy_ptr12@V?$allocator@U_Container_proxy@std@@@std@@@std@@QEAA@XZ
pdata	ENDS
;	COMDAT pdata
pdata	SEGMENT
$pdata$??$_Unfancy@U_Container_proxy@std@@@std@@YAPEAU_Container_proxy@0@PEAU10@@Z DD imagerel $LN3
	DD	imagerel $LN3+48
	DD	imagerel $unwind$??$_Unfancy@U_Container_proxy@std@@@std@@YAPEAU_Container_proxy@0@PEAU10@@Z
pdata	ENDS
;	COMDAT pdata
pdata	SEGMENT
$pdata$??$_Unfancy_maybe_null@UVkVertexInputAttributeDescription@@@std@@YAPEAUVkVertexInputAttributeDescription@@PEAU1@@Z DD imagerel $LN3
	DD	imagerel $LN3+48
	DD	imagerel $unwind$??$_Unfancy_maybe_null@UVkVertexInputAttributeDescription@@@std@@YAPEAUVkVertexInputAttributeDescription@@PEAU1@@Z
pdata	ENDS
;	COMDAT pdata
pdata	SEGMENT
$pdata$??$?0UVkVertexInputAttributeDescription@@@?$allocator@U_Container_proxy@std@@@std@@QEAA@AEBV?$allocator@UVkVertexInputAttributeDescription@@@1@@Z DD imagerel $LN3
	DD	imagerel $LN3+53
	DD	imagerel $unwind$??$?0UVkVertexInputAttributeDescription@@@?$allocator@U_Container_proxy@std@@@std@@QEAA@AEBV?$allocator@UVkVertexInputAttributeDescription@@@1@@Z
pdata	ENDS
;	COMDAT pdata
pdata	SEGMENT
$pdata$??$_Destroy_range@V?$allocator@UVertex2DRGB@cow@@@std@@@std@@YAXPEAUVertex2DRGB@cow@@QEAU12@AEAV?$allocator@UVertex2DRGB@cow@@@0@@Z DD imagerel $LN3
	DD	imagerel $LN3+51
	DD	imagerel $unwind$??$_Destroy_range@V?$allocator@UVertex2DRGB@cow@@@std@@@std@@YAXPEAUVertex2DRGB@cow@@QEAU12@AEAV?$allocator@UVertex2DRGB@cow@@@0@@Z
pdata	ENDS
;	COMDAT pdata
pdata	SEGMENT
$pdata$??$_Destroy_range@V?$allocator@PEAUVkCommandBuffer_T@@@std@@@std@@YAXPEAPEAUVkCommandBuffer_T@@QEAPEAU1@AEAV?$allocator@PEAUVkCommandBuffer_T@@@0@@Z DD imagerel $LN3
	DD	imagerel $LN3+51
	DD	imagerel $unwind$??$_Destroy_range@V?$allocator@PEAUVkCommandBuffer_T@@@std@@@std@@YAXPEAPEAUVkCommandBuffer_T@@QEAPEAU1@AEAV?$allocator@PEAUVkCommandBuffer_T@@@0@@Z
pdata	ENDS
;	COMDAT pdata
pdata	SEGMENT
$pdata$??$_Destroy_range@V?$allocator@W4VkDynamicState@@@std@@@std@@YAXPEAW4VkDynamicState@@QEAW41@AEAV?$allocator@W4VkDynamicState@@@0@@Z DD imagerel $LN3
	DD	imagerel $LN3+51
	DD	imagerel $unwind$??$_Destroy_range@V?$allocator@W4VkDynamicState@@@std@@@std@@YAXPEAW4VkDynamicState@@QEAW41@AEAV?$allocator@W4VkDynamicState@@@0@@Z
pdata	ENDS
;	COMDAT pdata
pdata	SEGMENT
$pdata$??$_Destroy_range@V?$allocator@UVkVertexInputAttributeDescription@@@std@@@std@@YAXPEAUVkVertexInputAttributeDescription@@QEAU1@AEAV?$allocator@UVkVertexInputAttributeDescription@@@0@@Z DD imagerel $LN3
	DD	imagerel $LN3+51
	DD	imagerel $unwind$??$_Destroy_range@V?$allocator@UVkVertexInputAttributeDescription@@@std@@@std@@YAXPEAUVkVertexInputAttributeDescription@@QEAU1@AEAV?$allocator@UVkVertexInputAttributeDescription@@@0@@Z
pdata	ENDS
;	COMDAT pdata
pdata	SEGMENT
$pdata$??$_Get_size_of_n@$0BA@@std@@YA_K_K@Z DD imagerel $LN4
	DD	imagerel $LN4+91
	DD	imagerel $unwind$??$_Get_size_of_n@$0BA@@std@@YA_K_K@Z
pdata	ENDS
;	COMDAT pdata
pdata	SEGMENT
$pdata$??$_Allocate@$0BA@U_Default_allocate_traits@std@@$0A@@std@@YAPEAX_K@Z DD imagerel $LN6
	DD	imagerel $LN6+106
	DD	imagerel $unwind$??$_Allocate@$0BA@U_Default_allocate_traits@std@@$0A@@std@@YAPEAX_K@Z
pdata	ENDS
;	COMDAT pdata
pdata	SEGMENT
$pdata$??$_Deallocate@$0BA@$0A@@std@@YAXPEAX_K@Z DD imagerel $LN6
	DD	imagerel $LN6+124
	DD	imagerel $unwind$??$_Deallocate@$0BA@$0A@@std@@YAXPEAX_K@Z
pdata	ENDS
;	COMDAT pdata
pdata	SEGMENT
$pdata$??$addressof@U_Container_proxy@std@@@std@@YAPEAU_Container_proxy@0@AEAU10@@Z DD imagerel $LN3
	DD	imagerel $LN3+48
	DD	imagerel $unwind$??$addressof@U_Container_proxy@std@@@std@@YAPEAU_Container_proxy@0@AEAU10@@Z
pdata	ENDS
;	COMDAT pdata
pdata	SEGMENT
$pdata$??$_Voidify_iter@PEAU_Container_proxy@std@@@std@@YAPEAXPEAU_Container_proxy@0@@Z DD imagerel $LN3
	DD	imagerel $LN3+48
	DD	imagerel $unwind$??$_Voidify_iter@PEAU_Container_proxy@std@@@std@@YAPEAXPEAU_Container_proxy@0@@Z
pdata	ENDS
;	COMDAT pdata
pdata	SEGMENT
$pdata$??$forward@PEAU_Container_base12@std@@@std@@YA$$QEAPEAU_Container_base12@0@AEAPEAU10@@Z DD imagerel $LN3
	DD	imagerel $LN3+48
	DD	imagerel $unwind$??$forward@PEAU_Container_base12@std@@@std@@YA$$QEAPEAU_Container_base12@0@AEAPEAU10@@Z
pdata	ENDS
;	COMDAT pdata
pdata	SEGMENT
$pdata$??$construct_at@U_Container_proxy@std@@PEAU_Container_base12@2@X@std@@YAPEAU_Container_proxy@0@QEAU10@$$QEAPEAU_Container_base12@0@@Z DD imagerel $LN3
	DD	imagerel $LN3+119
	DD	imagerel $unwind$??$construct_at@U_Container_proxy@std@@PEAU_Container_base12@2@X@std@@YAPEAU_Container_proxy@0@QEAU10@$$QEAPEAU_Container_base12@0@@Z
pdata	ENDS
;	COMDAT pdata
pdata	SEGMENT
$pdata$??$_Emplace_back_with_unused_capacity@UVertex2DRGB@cow@@@?$vector@UVertex2DRGB@cow@@V?$allocator@UVertex2DRGB@cow@@@std@@@std@@AEAAAEAUVertex2DRGB@cow@@$$QEAU23@@Z DD imagerel $LN3
	DD	imagerel $LN3+180
	DD	imagerel $unwind$??$_Emplace_back_with_unused_capacity@UVertex2DRGB@cow@@@?$vector@UVertex2DRGB@cow@@V?$allocator@UVertex2DRGB@cow@@@std@@@std@@AEAAAEAUVertex2DRGB@cow@@$$QEAU23@@Z
pdata	ENDS
;	COMDAT pdata
pdata	SEGMENT
$pdata$??$_Emplace_reallocate@UVertex2DRGB@cow@@@?$vector@UVertex2DRGB@cow@@V?$allocator@UVertex2DRGB@cow@@@std@@@std@@AEAAPEAUVertex2DRGB@cow@@QEAU23@$$QEAU23@@Z DD imagerel $LN13
	DD	imagerel $LN13+607
	DD	imagerel $unwind$??$_Emplace_reallocate@UVertex2DRGB@cow@@@?$vector@UVertex2DRGB@cow@@V?$allocator@UVertex2DRGB@cow@@@std@@@std@@AEAAPEAUVertex2DRGB@cow@@QEAU23@$$QEAU23@@Z
pdata	ENDS
;	COMDAT pdata
pdata	SEGMENT
$pdata$?catch$0@?0???$_Emplace_reallocate@UVertex2DRGB@cow@@@?$vector@UVertex2DRGB@cow@@V?$allocator@UVertex2DRGB@cow@@@std@@@std@@AEAAPEAUVertex2DRGB@cow@@QEAU23@$$QEAU23@@Z@4HA DD imagerel ?catch$0@?0???$_Emplace_reallocate@UVertex2DRGB@cow@@@?$vector@UVertex2DRGB@cow@@V?$allocator@UVertex2DRGB@cow@@@std@@@std@@AEAAPEAUVertex2DRGB@cow@@QEAU23@$$QEAU23@@Z@4HA
	DD	imagerel ?catch$0@?0???$_Emplace_reallocate@UVertex2DRGB@cow@@@?$vector@UVertex2DRGB@cow@@V?$allocator@UVertex2DRGB@cow@@@std@@@std@@AEAAPEAUVertex2DRGB@cow@@QEAU23@$$QEAU23@@Z@4HA+91
	DD	imagerel $unwind$?catch$0@?0???$_Emplace_reallocate@UVertex2DRGB@cow@@@?$vector@UVertex2DRGB@cow@@V?$allocator@UVertex2DRGB@cow@@@std@@@std@@AEAAPEAUVertex2DRGB@cow@@QEAU23@$$QEAU23@@Z@4HA
pdata	ENDS
;	COMDAT pdata
pdata	SEGMENT
$pdata$??$_Deallocate_plain@V?$allocator@U_Container_proxy@std@@@std@@@std@@YAXAEAV?$allocator@U_Container_proxy@std@@@0@QEAU_Container_proxy@0@@Z DD imagerel $LN3
	DD	imagerel $LN3+72
	DD	imagerel $unwind$??$_Deallocate_plain@V?$allocator@U_Container_proxy@std@@@std@@@std@@YAXAEAV?$allocator@U_Container_proxy@std@@@0@QEAU_Container_proxy@0@@Z
pdata	ENDS
;	COMDAT pdata
pdata	SEGMENT
$pdata$??$forward@AEBV?$allocator@PEAUVkCommandBuffer_T@@@std@@@std@@YAAEBV?$allocator@PEAUVkCommandBuffer_T@@@0@AEBV10@@Z DD imagerel $LN3
	DD	imagerel $LN3+48
	DD	imagerel $unwind$??$forward@AEBV?$allocator@PEAUVkCommandBuffer_T@@@std@@@std@@YAAEBV?$allocator@PEAUVkCommandBuffer_T@@@0@AEBV10@@Z
pdata	ENDS
;	COMDAT pdata
pdata	SEGMENT
$pdata$??1?$_Tidy_guard@V?$vector@PEAUVkCommandBuffer_T@@V?$allocator@PEAUVkCommandBuffer_T@@@std@@@std@@@std@@QEAA@XZ DD imagerel $LN4
	DD	imagerel $LN4+69
	DD	imagerel $unwind$??1?$_Tidy_guard@V?$vector@PEAUVkCommandBuffer_T@@V?$allocator@PEAUVkCommandBuffer_T@@@std@@@std@@@std@@QEAA@XZ
pdata	ENDS
;	COMDAT pdata
pdata	SEGMENT
$pdata$??$_Uninitialized_value_construct_n@V?$allocator@PEAUVkCommandBuffer_T@@@std@@@std@@YAPEAPEAUVkCommandBuffer_T@@PEAPEAU1@_KAEAV?$allocator@PEAUVkCommandBuffer_T@@@0@@Z DD imagerel $LN8
	DD	imagerel $LN8+315
	DD	imagerel $unwind$??$_Uninitialized_value_construct_n@V?$allocator@PEAUVkCommandBuffer_T@@@std@@@std@@YAPEAPEAUVkCommandBuffer_T@@PEAPEAU1@_KAEAV?$allocator@PEAUVkCommandBuffer_T@@@0@@Z
pdata	ENDS
;	COMDAT pdata
pdata	SEGMENT
$pdata$?dtor$0@?0???$_Uninitialized_value_construct_n@V?$allocator@PEAUVkCommandBuffer_T@@@std@@@std@@YAPEAPEAUVkCommandBuffer_T@@PEAPEAU1@_KAEAV?$allocator@PEAUVkCommandBuffer_T@@@0@@Z@4HA DD imagerel ?dtor$0@?0???$_Uninitialized_value_construct_n@V?$allocator@PEAUVkCommandBuffer_T@@@std@@@std@@YAPEAPEAUVkCommandBuffer_T@@PEAPEAU1@_KAEAV?$allocator@PEAUVkCommandBuffer_T@@@0@@Z@4HA
	DD	imagerel ?dtor$0@?0???$_Uninitialized_value_construct_n@V?$allocator@PEAUVkCommandBuffer_T@@@std@@@std@@YAPEAPEAUVkCommandBuffer_T@@PEAPEAU1@_KAEAV?$allocator@PEAUVkCommandBuffer_T@@@0@@Z@4HA+36
	DD	imagerel $unwind$?dtor$0@?0???$_Uninitialized_value_construct_n@V?$allocator@PEAUVkCommandBuffer_T@@@std@@@std@@YAPEAPEAUVkCommandBuffer_T@@PEAPEAU1@_KAEAV?$allocator@PEAUVkCommandBuffer_T@@@0@@Z@4HA
pdata	ENDS
;	COMDAT pdata
pdata	SEGMENT
$pdata$??$_Allocate_manually_vector_aligned@U_Default_allocate_traits@std@@@std@@YAPEAX_K@Z DD imagerel $LN13
	DD	imagerel $LN13+277
	DD	imagerel $unwind$??$_Allocate_manually_vector_aligned@U_Default_allocate_traits@std@@@std@@YAPEAX_K@Z
pdata	ENDS
;	COMDAT pdata
pdata	SEGMENT
$pdata$??$_Get_size_of_n@$07@std@@YA_K_K@Z DD imagerel $LN4
	DD	imagerel $LN4+94
	DD	imagerel $unwind$??$_Get_size_of_n@$07@std@@YA_K_K@Z
pdata	ENDS
;	COMDAT pdata
pdata	SEGMENT
$pdata$??$_Construct_in_place@UVertex2DRGB@cow@@U12@@std@@YAXAEAUVertex2DRGB@cow@@$$QEAU12@@Z DD imagerel $LN5
	DD	imagerel $LN5+188
	DD	imagerel $unwind$??$_Construct_in_place@UVertex2DRGB@cow@@U12@@std@@YAXAEAUVertex2DRGB@cow@@$$QEAU12@@Z
pdata	ENDS
;	COMDAT pdata
pdata	SEGMENT
$pdata$??$_Unfancy@UVertex2DRGB@cow@@@std@@YAPEAUVertex2DRGB@cow@@PEAU12@@Z DD imagerel $LN3
	DD	imagerel $LN3+48
	DD	imagerel $unwind$??$_Unfancy@UVertex2DRGB@cow@@@std@@YAPEAUVertex2DRGB@cow@@PEAU12@@Z
pdata	ENDS
;	COMDAT pdata
pdata	SEGMENT
$pdata$??$construct@UVertex2DRGB@cow@@U12@@?$_Default_allocator_traits@V?$allocator@UVertex2DRGB@cow@@@std@@@std@@SAXAEAV?$allocator@UVertex2DRGB@cow@@@1@QEAUVertex2DRGB@cow@@$$QEAU34@@Z DD imagerel $LN5
	DD	imagerel $LN5+155
	DD	imagerel $unwind$??$construct@UVertex2DRGB@cow@@U12@@?$_Default_allocator_traits@V?$allocator@UVertex2DRGB@cow@@@std@@@std@@SAXAEAV?$allocator@UVertex2DRGB@cow@@@1@QEAUVertex2DRGB@cow@@$$QEAU34@@Z
pdata	ENDS
;	COMDAT pdata
pdata	SEGMENT
$pdata$??$_Uninitialized_move@PEAUVertex2DRGB@cow@@V?$allocator@UVertex2DRGB@cow@@@std@@@std@@YAPEAUVertex2DRGB@cow@@QEAU12@0PEAU12@AEAV?$allocator@UVertex2DRGB@cow@@@0@@Z DD imagerel $LN8
	DD	imagerel $LN8+367
	DD	imagerel $unwind$??$_Uninitialized_move@PEAUVertex2DRGB@cow@@V?$allocator@UVertex2DRGB@cow@@@std@@@std@@YAPEAUVertex2DRGB@cow@@QEAU12@0PEAU12@AEAV?$allocator@UVertex2DRGB@cow@@@0@@Z
pdata	ENDS
;	COMDAT pdata
pdata	SEGMENT
$pdata$?dtor$0@?0???$_Uninitialized_move@PEAUVertex2DRGB@cow@@V?$allocator@UVertex2DRGB@cow@@@std@@@std@@YAPEAUVertex2DRGB@cow@@QEAU12@0PEAU12@AEAV?$allocator@UVertex2DRGB@cow@@@0@@Z@4HA DD imagerel ?dtor$0@?0???$_Uninitialized_move@PEAUVertex2DRGB@cow@@V?$allocator@UVertex2DRGB@cow@@@std@@@std@@YAPEAUVertex2DRGB@cow@@QEAU12@0PEAU12@AEAV?$allocator@UVertex2DRGB@cow@@@0@@Z@4HA
	DD	imagerel ?dtor$0@?0???$_Uninitialized_move@PEAUVertex2DRGB@cow@@V?$allocator@UVertex2DRGB@cow@@@std@@@std@@YAPEAUVertex2DRGB@cow@@QEAU12@0PEAU12@AEAV?$allocator@UVertex2DRGB@cow@@@0@@Z@4HA+36
	DD	imagerel $unwind$?dtor$0@?0???$_Uninitialized_move@PEAUVertex2DRGB@cow@@V?$allocator@UVertex2DRGB@cow@@@std@@@std@@YAPEAUVertex2DRGB@cow@@QEAU12@0PEAU12@AEAV?$allocator@UVertex2DRGB@cow@@@0@@Z@4HA
pdata	ENDS
;	COMDAT pdata
pdata	SEGMENT
$pdata$?deallocate@?$_Default_allocator_traits@V?$allocator@U_Container_proxy@std@@@std@@@std@@SAXAEAV?$allocator@U_Container_proxy@std@@@2@QEAU_Container_proxy@2@_K@Z DD imagerel $LN5
	DD	imagerel $LN5+114
	DD	imagerel $unwind$?deallocate@?$_Default_allocator_traits@V?$allocator@U_Container_proxy@std@@@std@@@std@@SAXAEAV?$allocator@U_Container_proxy@std@@@2@QEAU_Container_proxy@2@_K@Z
pdata	ENDS
;	COMDAT pdata
pdata	SEGMENT
$pdata$??$_Unfancy@PEAUVkCommandBuffer_T@@@std@@YAPEAPEAUVkCommandBuffer_T@@PEAPEAU1@@Z DD imagerel $LN3
	DD	imagerel $LN3+48
	DD	imagerel $unwind$??$_Unfancy@PEAUVkCommandBuffer_T@@@std@@YAPEAPEAUVkCommandBuffer_T@@PEAPEAU1@@Z
pdata	ENDS
;	COMDAT pdata
pdata	SEGMENT
$pdata$??$_Zero_range@PEAPEAUVkCommandBuffer_T@@@std@@YAPEAPEAUVkCommandBuffer_T@@QEAPEAU1@0@Z DD imagerel $LN3
	DD	imagerel $LN3+113
	DD	imagerel $unwind$??$_Zero_range@PEAPEAUVkCommandBuffer_T@@@std@@YAPEAPEAUVkCommandBuffer_T@@QEAPEAU1@0@Z
pdata	ENDS
;	COMDAT pdata
pdata	SEGMENT
$pdata$??0?$_Uninitialized_backout_al@V?$allocator@PEAUVkCommandBuffer_T@@@std@@@std@@QEAA@PEAPEAUVkCommandBuffer_T@@AEAV?$allocator@PEAUVkCommandBuffer_T@@@1@@Z DD imagerel $LN3
	DD	imagerel $LN3+111
	DD	imagerel $unwind$??0?$_Uninitialized_backout_al@V?$allocator@PEAUVkCommandBuffer_T@@@std@@@std@@QEAA@PEAPEAUVkCommandBuffer_T@@AEAV?$allocator@PEAUVkCommandBuffer_T@@@1@@Z
pdata	ENDS
;	COMDAT pdata
pdata	SEGMENT
$pdata$??1?$_Uninitialized_backout_al@V?$allocator@PEAUVkCommandBuffer_T@@@std@@@std@@QEAA@XZ DD imagerel $LN3
	DD	imagerel $LN3+78
	DD	imagerel $unwind$??1?$_Uninitialized_backout_al@V?$allocator@PEAUVkCommandBuffer_T@@@std@@@std@@QEAA@XZ
pdata	ENDS
;	COMDAT pdata
pdata	SEGMENT
$pdata$?_Release@?$_Uninitialized_backout_al@V?$allocator@PEAUVkCommandBuffer_T@@@std@@@std@@QEAAPEAPEAUVkCommandBuffer_T@@XZ DD imagerel $LN3
	DD	imagerel $LN3+73
	DD	imagerel $unwind$?_Release@?$_Uninitialized_backout_al@V?$allocator@PEAUVkCommandBuffer_T@@@std@@@std@@QEAAPEAPEAUVkCommandBuffer_T@@XZ
pdata	ENDS
;	COMDAT pdata
pdata	SEGMENT
$pdata$?__autoclassinit2@?$_Uninitialized_backout_al@V?$allocator@PEAUVkCommandBuffer_T@@@std@@@std@@QEAAX_K@Z DD imagerel $LN3
	DD	imagerel $LN3+50
	DD	imagerel $unwind$?__autoclassinit2@?$_Uninitialized_backout_al@V?$allocator@PEAUVkCommandBuffer_T@@@std@@@std@@QEAAX_K@Z
pdata	ENDS
;	COMDAT pdata
pdata	SEGMENT
$pdata$??$_Emplace_back@$$V@?$_Uninitialized_backout_al@V?$allocator@PEAUVkCommandBuffer_T@@@std@@@std@@QEAAXXZ DD imagerel $LN3
	DD	imagerel $LN3+127
	DD	imagerel $unwind$??$_Emplace_back@$$V@?$_Uninitialized_backout_al@V?$allocator@PEAUVkCommandBuffer_T@@@std@@@std@@QEAAXXZ
pdata	ENDS
;	COMDAT pdata
pdata	SEGMENT
$pdata$??$_Get_size_of_n@$0BE@@std@@YA_K_K@Z DD imagerel $LN4
	DD	imagerel $LN4+91
	DD	imagerel $unwind$??$_Get_size_of_n@$0BE@@std@@YA_K_K@Z
pdata	ENDS
;	COMDAT pdata
pdata	SEGMENT
$pdata$??$addressof@UVertex2DRGB@cow@@@std@@YAPEAUVertex2DRGB@cow@@AEAU12@@Z DD imagerel $LN3
	DD	imagerel $LN3+48
	DD	imagerel $unwind$??$addressof@UVertex2DRGB@cow@@@std@@YAPEAUVertex2DRGB@cow@@AEAU12@@Z
pdata	ENDS
;	COMDAT pdata
pdata	SEGMENT
$pdata$??$construct_at@UVertex2DRGB@cow@@U12@X@std@@YAPEAUVertex2DRGB@cow@@QEAU12@$$QEAU12@@Z DD imagerel $LN3
	DD	imagerel $LN3+116
	DD	imagerel $unwind$??$construct_at@UVertex2DRGB@cow@@U12@X@std@@YAPEAUVertex2DRGB@cow@@QEAU12@$$QEAU12@@Z
pdata	ENDS
;	COMDAT pdata
pdata	SEGMENT
$pdata$??$_Voidify_iter@PEAUVertex2DRGB@cow@@@std@@YAPEAXPEAUVertex2DRGB@cow@@@Z DD imagerel $LN3
	DD	imagerel $LN3+48
	DD	imagerel $unwind$??$_Voidify_iter@PEAUVertex2DRGB@cow@@@std@@YAPEAXPEAUVertex2DRGB@cow@@@Z
pdata	ENDS
;	COMDAT pdata
pdata	SEGMENT
$pdata$??$_Get_unwrapped@AEBQEAUVertex2DRGB@cow@@@std@@YA?A_TAEBQEAUVertex2DRGB@cow@@@Z DD imagerel $LN3
	DD	imagerel $LN3+51
	DD	imagerel $unwind$??$_Get_unwrapped@AEBQEAUVertex2DRGB@cow@@@std@@YA?A_TAEBQEAUVertex2DRGB@cow@@@Z
pdata	ENDS
;	COMDAT pdata
pdata	SEGMENT
$pdata$??$_Copy_memmove@PEAUVertex2DRGB@cow@@PEAU12@@std@@YAPEAUVertex2DRGB@cow@@PEAU12@00@Z DD imagerel $LN3
	DD	imagerel $LN3+196
	DD	imagerel $unwind$??$_Copy_memmove@PEAUVertex2DRGB@cow@@PEAU12@@std@@YAPEAUVertex2DRGB@cow@@PEAU12@00@Z
pdata	ENDS
;	COMDAT pdata
pdata	SEGMENT
$pdata$??0?$_Uninitialized_backout_al@V?$allocator@UVertex2DRGB@cow@@@std@@@std@@QEAA@PEAUVertex2DRGB@cow@@AEAV?$allocator@UVertex2DRGB@cow@@@1@@Z DD imagerel $LN3
	DD	imagerel $LN3+111
	DD	imagerel $unwind$??0?$_Uninitialized_backout_al@V?$allocator@UVertex2DRGB@cow@@@std@@@std@@QEAA@PEAUVertex2DRGB@cow@@AEAV?$allocator@UVertex2DRGB@cow@@@1@@Z
pdata	ENDS
;	COMDAT pdata
pdata	SEGMENT
$pdata$??1?$_Uninitialized_backout_al@V?$allocator@UVertex2DRGB@cow@@@std@@@std@@QEAA@XZ DD imagerel $LN3
	DD	imagerel $LN3+78
	DD	imagerel $unwind$??1?$_Uninitialized_backout_al@V?$allocator@UVertex2DRGB@cow@@@std@@@std@@QEAA@XZ
pdata	ENDS
;	COMDAT pdata
pdata	SEGMENT
$pdata$?_Release@?$_Uninitialized_backout_al@V?$allocator@UVertex2DRGB@cow@@@std@@@std@@QEAAPEAUVertex2DRGB@cow@@XZ DD imagerel $LN3
	DD	imagerel $LN3+73
	DD	imagerel $unwind$?_Release@?$_Uninitialized_backout_al@V?$allocator@UVertex2DRGB@cow@@@std@@@std@@QEAAPEAUVertex2DRGB@cow@@XZ
pdata	ENDS
;	COMDAT pdata
pdata	SEGMENT
$pdata$?__autoclassinit2@?$_Uninitialized_backout_al@V?$allocator@UVertex2DRGB@cow@@@std@@@std@@QEAAX_K@Z DD imagerel $LN3
	DD	imagerel $LN3+50
	DD	imagerel $unwind$?__autoclassinit2@?$_Uninitialized_backout_al@V?$allocator@UVertex2DRGB@cow@@@std@@@std@@QEAAX_K@Z
pdata	ENDS
;	COMDAT pdata
pdata	SEGMENT
$pdata$??$_Emplace_back@UVertex2DRGB@cow@@@?$_Uninitialized_backout_al@V?$allocator@UVertex2DRGB@cow@@@std@@@std@@QEAAX$$QEAUVertex2DRGB@cow@@@Z DD imagerel $LN3
	DD	imagerel $LN3+158
	DD	imagerel $unwind$??$_Emplace_back@UVertex2DRGB@cow@@@?$_Uninitialized_backout_al@V?$allocator@UVertex2DRGB@cow@@@std@@@std@@QEAAX$$QEAUVertex2DRGB@cow@@@Z
pdata	ENDS
;	COMDAT pdata
pdata	SEGMENT
$pdata$??$_To_address@PEAPEAUVkCommandBuffer_T@@@std@@YA?A_PAEBQEAPEAUVkCommandBuffer_T@@@Z DD imagerel $LN3
	DD	imagerel $LN3+56
	DD	imagerel $unwind$??$_To_address@PEAPEAUVkCommandBuffer_T@@@std@@YA?A_PAEBQEAPEAUVkCommandBuffer_T@@@Z
pdata	ENDS
;	COMDAT pdata
pdata	SEGMENT
$pdata$??$to_address@PEAUVkCommandBuffer_T@@@std@@YAPEAPEAUVkCommandBuffer_T@@QEAPEAU1@@Z DD imagerel $LN3
	DD	imagerel $LN3+48
	DD	imagerel $unwind$??$to_address@PEAUVkCommandBuffer_T@@@std@@YAPEAPEAUVkCommandBuffer_T@@QEAPEAU1@@Z
pdata	ENDS
;	COMDAT pdata
pdata	SEGMENT
$pdata$??$construct@PEAUVkCommandBuffer_T@@$$V@?$_Default_allocator_traits@V?$allocator@PEAUVkCommandBuffer_T@@@std@@@std@@SAXAEAV?$allocator@PEAUVkCommandBuffer_T@@@1@QEAPEAUVkCommandBuffer_T@@@Z DD imagerel $LN5
	DD	imagerel $LN5+160
	DD	imagerel $unwind$??$construct@PEAUVkCommandBuffer_T@@$$V@?$_Default_allocator_traits@V?$allocator@PEAUVkCommandBuffer_T@@@std@@@std@@SAXAEAV?$allocator@PEAUVkCommandBuffer_T@@@1@QEAPEAUVkCommandBuffer_T@@@Z
pdata	ENDS
;	COMDAT pdata
pdata	SEGMENT
$pdata$??$_To_address@PEAUVertex2DRGB@cow@@@std@@YA?A_PAEBQEAUVertex2DRGB@cow@@@Z DD imagerel $LN3
	DD	imagerel $LN3+56
	DD	imagerel $unwind$??$_To_address@PEAUVertex2DRGB@cow@@@std@@YA?A_PAEBQEAUVertex2DRGB@cow@@@Z
pdata	ENDS
;	COMDAT pdata
pdata	SEGMENT
$pdata$??$to_address@UVertex2DRGB@cow@@@std@@YAPEAUVertex2DRGB@cow@@QEAU12@@Z DD imagerel $LN3
	DD	imagerel $LN3+48
	DD	imagerel $unwind$??$to_address@UVertex2DRGB@cow@@@std@@YAPEAUVertex2DRGB@cow@@QEAU12@@Z
pdata	ENDS
;	COMDAT pdata
pdata	SEGMENT
$pdata$??$construct_at@PEAUVkCommandBuffer_T@@$$VX@std@@YAPEAPEAUVkCommandBuffer_T@@QEAPEAU1@@Z DD imagerel $LN3
	DD	imagerel $LN3+136
	DD	imagerel $unwind$??$construct_at@PEAUVkCommandBuffer_T@@$$VX@std@@YAPEAPEAUVkCommandBuffer_T@@QEAPEAU1@@Z
pdata	ENDS
;	COMDAT pdata
pdata	SEGMENT
$pdata$??$_Voidify_iter@PEAPEAUVkCommandBuffer_T@@@std@@YAPEAXPEAPEAUVkCommandBuffer_T@@@Z DD imagerel $LN3
	DD	imagerel $LN3+48
	DD	imagerel $unwind$??$_Voidify_iter@PEAPEAUVkCommandBuffer_T@@@std@@YAPEAXPEAPEAUVkCommandBuffer_T@@@Z
pdata	ENDS
;	COMDAT __real@c004000000000000
CONST	SEGMENT
__real@c004000000000000 DQ 0c004000000000000r	; -2.5
CONST	ENDS
;	COMDAT __real@c000000000000000
CONST	SEGMENT
__real@c000000000000000 DQ 0c000000000000000r	; -2
CONST	ENDS
;	COMDAT __real@c0000000
CONST	SEGMENT
__real@c0000000 DD 0c0000000r			; -2
CONST	ENDS
;	COMDAT __real@bff8000000000000
CONST	SEGMENT
__real@bff8000000000000 DQ 0bff8000000000000r	; -1.5
CONST	ENDS
;	COMDAT __real@bfe0000000000000
CONST	SEGMENT
__real@bfe0000000000000 DQ 0bfe0000000000000r	; -0.5
CONST	ENDS
;	COMDAT __real@bfdccccccccccccd
CONST	SEGMENT
__real@bfdccccccccccccd DQ 0bfdccccccccccccdr	; -0.45
CONST	ENDS
;	COMDAT __real@4008000000000000
CONST	SEGMENT
__real@4008000000000000 DQ 04008000000000000r	; 3
CONST	ENDS
;	COMDAT __real@3ff8000000000000
CONST	SEGMENT
__real@3ff8000000000000 DQ 03ff8000000000000r	; 1.5
CONST	ENDS
;	COMDAT __real@3ff0000000000000
CONST	SEGMENT
__real@3ff0000000000000 DQ 03ff0000000000000r	; 1
CONST	ENDS
;	COMDAT __real@3fe0000000000000
CONST	SEGMENT
__real@3fe0000000000000 DQ 03fe0000000000000r	; 0.5
CONST	ENDS
;	COMDAT __real@3f800000
CONST	SEGMENT
__real@3f800000 DD 03f800000r			; 1
CONST	ENDS
;	COMDAT __real@3f50624dd2f1a9fc
CONST	SEGMENT
__real@3f50624dd2f1a9fc DQ 03f50624dd2f1a9fcr	; 0.001
CONST	ENDS
;	COMDAT __real@3f35c28f
CONST	SEGMENT
__real@3f35c28f DD 03f35c28fr			; 0.71
CONST	ENDS
;	COMDAT __real@3f000000
CONST	SEGMENT
__real@3f000000 DD 03f000000r			; 0.5
CONST	ENDS
;	COMDAT __real@3dcccccd
CONST	SEGMENT
__real@3dcccccd DD 03dcccccdr			; 0.1
CONST	ENDS
;	COMDAT rtc$TMZ
rtc$TMZ	SEGMENT
_RTC_Shutdown.rtc$TMZ DQ FLAT:_RTC_Shutdown
rtc$TMZ	ENDS
;	COMDAT rtc$IMZ
rtc$IMZ	SEGMENT
_RTC_InitBase.rtc$IMZ DQ FLAT:_RTC_InitBase
rtc$IMZ	ENDS
;	COMDAT ??_R1A@?0A@EA@runtime_error@std@@8
rdata$r	SEGMENT
??_R1A@?0A@EA@runtime_error@std@@8 DD imagerel ??_R0?AVruntime_error@std@@@8 ; std::runtime_error::`RTTI Base Class Descriptor at (0,-1,0,64)'
	DD	01H
	DD	00H
	DD	0ffffffffH
	DD	00H
	DD	040H
	DD	imagerel ??_R3runtime_error@std@@8
rdata$r	ENDS
;	COMDAT ??_R2runtime_error@std@@8
rdata$r	SEGMENT
??_R2runtime_error@std@@8 DD imagerel ??_R1A@?0A@EA@runtime_error@std@@8 ; std::runtime_error::`RTTI Base Class Array'
	DD	imagerel ??_R1A@?0A@EA@exception@std@@8
	ORG $+3
rdata$r	ENDS
;	COMDAT ??_R3runtime_error@std@@8
rdata$r	SEGMENT
??_R3runtime_error@std@@8 DD 00H			; std::runtime_error::`RTTI Class Hierarchy Descriptor'
	DD	00H
	DD	02H
	DD	imagerel ??_R2runtime_error@std@@8
rdata$r	ENDS
;	COMDAT ??_R4runtime_error@std@@6B@
rdata$r	SEGMENT
??_R4runtime_error@std@@6B@ DD 01H			; std::runtime_error::`RTTI Complete Object Locator'
	DD	00H
	DD	00H
	DD	imagerel ??_R0?AVruntime_error@std@@@8
	DD	imagerel ??_R3runtime_error@std@@8
	DD	imagerel ??_R4runtime_error@std@@6B@
rdata$r	ENDS
;	COMDAT ??_R1A@?0A@EA@bad_array_new_length@std@@8
rdata$r	SEGMENT
??_R1A@?0A@EA@bad_array_new_length@std@@8 DD imagerel ??_R0?AVbad_array_new_length@std@@@8 ; std::bad_array_new_length::`RTTI Base Class Descriptor at (0,-1,0,64)'
	DD	02H
	DD	00H
	DD	0ffffffffH
	DD	00H
	DD	040H
	DD	imagerel ??_R3bad_array_new_length@std@@8
rdata$r	ENDS
;	COMDAT ??_R2bad_array_new_length@std@@8
rdata$r	SEGMENT
??_R2bad_array_new_length@std@@8 DD imagerel ??_R1A@?0A@EA@bad_array_new_length@std@@8 ; std::bad_array_new_length::`RTTI Base Class Array'
	DD	imagerel ??_R1A@?0A@EA@bad_alloc@std@@8
	DD	imagerel ??_R1A@?0A@EA@exception@std@@8
	ORG $+3
rdata$r	ENDS
;	COMDAT ??_R3bad_array_new_length@std@@8
rdata$r	SEGMENT
??_R3bad_array_new_length@std@@8 DD 00H			; std::bad_array_new_length::`RTTI Class Hierarchy Descriptor'
	DD	00H
	DD	03H
	DD	imagerel ??_R2bad_array_new_length@std@@8
rdata$r	ENDS
;	COMDAT ??_R4bad_array_new_length@std@@6B@
rdata$r	SEGMENT
??_R4bad_array_new_length@std@@6B@ DD 01H		; std::bad_array_new_length::`RTTI Complete Object Locator'
	DD	00H
	DD	00H
	DD	imagerel ??_R0?AVbad_array_new_length@std@@@8
	DD	imagerel ??_R3bad_array_new_length@std@@8
	DD	imagerel ??_R4bad_array_new_length@std@@6B@
rdata$r	ENDS
;	COMDAT ??_R1A@?0A@EA@bad_alloc@std@@8
rdata$r	SEGMENT
??_R1A@?0A@EA@bad_alloc@std@@8 DD imagerel ??_R0?AVbad_alloc@std@@@8 ; std::bad_alloc::`RTTI Base Class Descriptor at (0,-1,0,64)'
	DD	01H
	DD	00H
	DD	0ffffffffH
	DD	00H
	DD	040H
	DD	imagerel ??_R3bad_alloc@std@@8
rdata$r	ENDS
;	COMDAT ??_R2bad_alloc@std@@8
rdata$r	SEGMENT
??_R2bad_alloc@std@@8 DD imagerel ??_R1A@?0A@EA@bad_alloc@std@@8 ; std::bad_alloc::`RTTI Base Class Array'
	DD	imagerel ??_R1A@?0A@EA@exception@std@@8
	ORG $+3
rdata$r	ENDS
;	COMDAT ??_R3bad_alloc@std@@8
rdata$r	SEGMENT
??_R3bad_alloc@std@@8 DD 00H				; std::bad_alloc::`RTTI Class Hierarchy Descriptor'
	DD	00H
	DD	02H
	DD	imagerel ??_R2bad_alloc@std@@8
rdata$r	ENDS
;	COMDAT ??_R4bad_alloc@std@@6B@
rdata$r	SEGMENT
??_R4bad_alloc@std@@6B@ DD 01H				; std::bad_alloc::`RTTI Complete Object Locator'
	DD	00H
	DD	00H
	DD	imagerel ??_R0?AVbad_alloc@std@@@8
	DD	imagerel ??_R3bad_alloc@std@@8
	DD	imagerel ??_R4bad_alloc@std@@6B@
rdata$r	ENDS
;	COMDAT ??_R1A@?0A@EA@exception@std@@8
rdata$r	SEGMENT
??_R1A@?0A@EA@exception@std@@8 DD imagerel ??_R0?AVexception@std@@@8 ; std::exception::`RTTI Base Class Descriptor at (0,-1,0,64)'
	DD	00H
	DD	00H
	DD	0ffffffffH
	DD	00H
	DD	040H
	DD	imagerel ??_R3exception@std@@8
rdata$r	ENDS
;	COMDAT ??_R2exception@std@@8
rdata$r	SEGMENT
??_R2exception@std@@8 DD imagerel ??_R1A@?0A@EA@exception@std@@8 ; std::exception::`RTTI Base Class Array'
	ORG $+3
rdata$r	ENDS
;	COMDAT ??_R3exception@std@@8
rdata$r	SEGMENT
??_R3exception@std@@8 DD 00H				; std::exception::`RTTI Class Hierarchy Descriptor'
	DD	00H
	DD	01H
	DD	imagerel ??_R2exception@std@@8
rdata$r	ENDS
;	COMDAT ??_R4exception@std@@6B@
rdata$r	SEGMENT
??_R4exception@std@@6B@ DD 01H				; std::exception::`RTTI Complete Object Locator'
	DD	00H
	DD	00H
	DD	imagerel ??_R0?AVexception@std@@@8
	DD	imagerel ??_R3exception@std@@8
	DD	imagerel ??_R4exception@std@@6B@
rdata$r	ENDS
;	COMDAT ??_C@_0BA@FOIKENOD@vector?5too?5long@
CONST	SEGMENT
??_C@_0BA@FOIKENOD@vector?5too?5long@ DB 'vector too long', 00H ; `string'
CONST	ENDS
;	COMDAT ??_C@_1HA@FACCKGGH@?$AA?$CC?$AAn?$AAu?$AAl?$AAl?$AA?5?$AAp?$AAo?$AAi?$AAn?$AAt?$AAe?$AAr?$AA?5?$AAc@
CONST	SEGMENT
??_C@_1HA@FACCKGGH@?$AA?$CC?$AAn?$AAu?$AAl?$AAl?$AA?5?$AAp?$AAo?$AAi?$AAn?$AAt?$AAe?$AAr?$AA?5?$AAc@ DB '"'
	DB	00H, 'n', 00H, 'u', 00H, 'l', 00H, 'l', 00H, ' ', 00H, 'p', 00H
	DB	'o', 00H, 'i', 00H, 'n', 00H, 't', 00H, 'e', 00H, 'r', 00H, ' '
	DB	00H, 'c', 00H, 'a', 00H, 'n', 00H, 'n', 00H, 'o', 00H, 't', 00H
	DB	' ', 00H, 'p', 00H, 'o', 00H, 'i', 00H, 'n', 00H, 't', 00H, ' '
	DB	00H, 't', 00H, 'o', 00H, ' ', 00H, 'a', 00H, ' ', 00H, 'b', 00H
	DB	'l', 00H, 'o', 00H, 'c', 00H, 'k', 00H, ' ', 00H, 'o', 00H, 'f'
	DB	00H, ' ', 00H, 'n', 00H, 'o', 00H, 'n', 00H, '-', 00H, 'z', 00H
	DB	'e', 00H, 'r', 00H, 'o', 00H, ' ', 00H, 's', 00H, 'i', 00H, 'z'
	DB	00H, 'e', 00H, '"', 00H, 00H, 00H		; `string'
CONST	ENDS
;	COMDAT ??_C@_0DG@KGHKKGBC@null?5pointer?5cannot?5point?5to?5a?5@
CONST	SEGMENT
??_C@_0DG@KGHKKGBC@null?5pointer?5cannot?5point?5to?5a?5@ DB 'null pointe'
	DB	'r cannot point to a block of non-zero size', 00H ; `string'
CONST	ENDS
;	COMDAT ??_C@_0CD@JOEKPGKM@failed?5to?5create?5graphics?5pipel@
CONST	SEGMENT
??_C@_0CD@JOEKPGKM@failed?5to?5create?5graphics?5pipel@ DB 'failed to cre'
	DB	'ate graphics pipeline', 00H			; `string'
CONST	ENDS
;	COMDAT ??_C@_0BB@LLDEEIKC@ASFDHFHUFDUHUYIF@
CONST	SEGMENT
??_C@_0BB@LLDEEIKC@ASFDHFHUFDUHUYIF@ DB 'ASFDHFHUFDUHUYIF', 00H ; `string'
CONST	ENDS
;	COMDAT ??_C@_0BI@KCJMGAAL@failed?5to?5end?5cmdBuffer@
CONST	SEGMENT
??_C@_0BI@KCJMGAAL@failed?5to?5end?5cmdBuffer@ DB 'failed to end cmdBuffe'
	DB	'r', 00H					; `string'
CONST	ENDS
;	COMDAT ??_C@_1GK@IDNJBOAD@?$AAv?$AAe?$AAr?$AAt?$AAe?$AAx?$AAC?$AAo?$AAu?$AAn?$AAt?$AA?5?$AA?$DO?$AA?$DN?$AA?5@
CONST	SEGMENT
??_C@_1GK@IDNJBOAD@?$AAv?$AAe?$AAr?$AAt?$AAe?$AAx?$AAC?$AAo?$AAu?$AAn?$AAt?$AA?5?$AA?$DO?$AA?$DN?$AA?5@ DB 'v'
	DB	00H, 'e', 00H, 'r', 00H, 't', 00H, 'e', 00H, 'x', 00H, 'C', 00H
	DB	'o', 00H, 'u', 00H, 'n', 00H, 't', 00H, ' ', 00H, '>', 00H, '='
	DB	00H, ' ', 00H, '3', 00H, ' ', 00H, '&', 00H, '&', 00H, ' ', 00H
	DB	'"', 00H, 'V', 00H, 'e', 00H, 'r', 00H, 't', 00H, 'e', 00H, 'x'
	DB	00H, ' ', 00H, 'C', 00H, 'o', 00H, 'u', 00H, 'n', 00H, 't', 00H
	DB	' ', 00H, 'm', 00H, 'u', 00H, 's', 00H, 't', 00H, ' ', 00H, 'b'
	DB	00H, 'e', 00H, ' ', 00H, 'a', 00H, 't', 00H, 'l', 00H, 'e', 00H
	DB	'a', 00H, 's', 00H, 't', 00H, ' ', 00H, '3', 00H, '"', 00H, 00H
	DB	00H						; `string'
CONST	ENDS
;	COMDAT ??_C@_1GK@IPJOBBDA@?$AAC?$AA?3?$AA?2?$AAU?$AAs?$AAe?$AAr?$AAs?$AA?2?$AAa?$AAn?$AAt?$AAo?$AAn?$AA?2@
CONST	SEGMENT
??_C@_1GK@IPJOBBDA@?$AAC?$AA?3?$AA?2?$AAU?$AAs?$AAe?$AAr?$AAs?$AA?2?$AAa?$AAn?$AAt?$AAo?$AAn?$AA?2@ DB 'C'
	DB	00H, ':', 00H, '\', 00H, 'U', 00H, 's', 00H, 'e', 00H, 'r', 00H
	DB	's', 00H, '\', 00H, 'a', 00H, 'n', 00H, 't', 00H, 'o', 00H, 'n'
	DB	00H, '\', 00H, 's', 00H, 'o', 00H, 'u', 00H, 'r', 00H, 'c', 00H
	DB	'e', 00H, '\', 00H, 'r', 00H, 'e', 00H, 'p', 00H, 'o', 00H, 's'
	DB	00H, '\', 00H, 'G', 00H, 'P', 00H, 'U', 00H, '-', 00H, 'V', 00H
	DB	'M', 00H, '\', 00H, 'G', 00H, 'P', 00H, 'U', 00H, '-', 00H, 'V'
	DB	00H, 'M', 00H, '\', 00H, 'S', 00H, 'o', 00H, 'u', 00H, 'r', 00H
	DB	'c', 00H, 'e', 00H, '.', 00H, 'c', 00H, 'p', 00H, 'p', 00H, 00H
	DB	00H						; `string'
CONST	ENDS
;	COMDAT ??_C@_0BP@JNGFJPNG@Vertex?5Count?5must?5be?5atleast?53@
CONST	SEGMENT
??_C@_0BP@JNGFJPNG@Vertex?5Count?5must?5be?5atleast?53@ DB 'Vertex Count '
	DB	'must be atleast 3', 00H			; `string'
CONST	ENDS
;	COMDAT ??_C@_0CD@DMDCDDIA@failed?5to?5allocate?5command?5buff@
CONST	SEGMENT
??_C@_0CD@DMDCDDIA@failed?5to?5allocate?5command?5buff@ DB 'failed to all'
	DB	'ocate command buffers', 00H			; `string'
CONST	ENDS
;	COMDAT ??_C@_0EJ@HDHKIKGP@C?3?2Users?2anton?2source?2repos?2GPU@
CONST	SEGMENT
??_C@_0EJ@HDHKIKGP@C?3?2Users?2anton?2source?2repos?2GPU@ DB 'C:\Users\an'
	DB	'ton\source\repos\GPU-VM\GPU-VM\Shaders\simple_shader.vert.spv'
	DB	00H						; `string'
CONST	ENDS
;	COMDAT ??_C@_0EJ@HKLAAGEK@C?3?2Users?2anton?2source?2repos?2GPU@
CONST	SEGMENT
??_C@_0EJ@HKLAAGEK@C?3?2Users?2anton?2source?2repos?2GPU@ DB 'C:\Users\an'
	DB	'ton\source\repos\GPU-VM\GPU-VM\Shaders\simple_shader.frag.spv'
	DB	00H						; `string'
CONST	ENDS
;	COMDAT ??_C@_04GHJNJNPO@main@
CONST	SEGMENT
??_C@_04GHJNJNPO@main@ DB 'main', 00H			; `string'
CONST	ENDS
;	COMDAT ??_C@_04MEMAJGDJ@name@
CONST	SEGMENT
??_C@_04MEMAJGDJ@name@ DB 'name', 00H			; `string'
CONST	ENDS
;	COMDAT ??_C@_02PHMGELLB@?6?6@
CONST	SEGMENT
??_C@_02PHMGELLB@?6?6@ DB 0aH, 0aH, 00H			; `string'
CONST	ENDS
;	COMDAT ?__LINE__Var@?0??main@@9@4JA
_DATA	SEGMENT
?__LINE__Var@?0??main@@9@4JA DD 013H			; `main'::`1'::__LINE__Var
_DATA	ENDS
;	COMDAT ??_C@_0CJ@NNDFOAFL@failed?5to?5allocate?5vertex?5buffe@
CONST	SEGMENT
??_C@_0CJ@NNDFOAFL@failed?5to?5allocate?5vertex?5buffe@ DB 'failed to all'
	DB	'ocate vertex buffer memory!', 00H		; `string'
CONST	ENDS
;	COMDAT ??_C@_0CA@IGKKDGOC@failed?5to?5create?5vertex?5buffer?$CB@
CONST	SEGMENT
??_C@_0CA@IGKKDGOC@failed?5to?5create?5vertex?5buffer?$CB@ DB 'failed to '
	DB	'create vertex buffer!', 00H			; `string'
CONST	ENDS
;	COMDAT _CTA2?AVruntime_error@std@@
xdata$x	SEGMENT
_CTA2?AVruntime_error@std@@ DD 02H
	DD	imagerel _CT??_R0?AVruntime_error@std@@@8??0runtime_error@std@@QEAA@AEBV01@@Z24
	DD	imagerel _CT??_R0?AVexception@std@@@8??0exception@std@@QEAA@AEBV01@@Z24
xdata$x	ENDS
;	COMDAT _TI2?AVruntime_error@std@@
xdata$x	SEGMENT
_TI2?AVruntime_error@std@@ DD 00H
	DD	imagerel ??1runtime_error@std@@UEAA@XZ
	DD	00H
	DD	imagerel _CTA2?AVruntime_error@std@@
xdata$x	ENDS
;	COMDAT _CT??_R0?AVruntime_error@std@@@8??0runtime_error@std@@QEAA@AEBV01@@Z24
xdata$x	SEGMENT
_CT??_R0?AVruntime_error@std@@@8??0runtime_error@std@@QEAA@AEBV01@@Z24 DD 00H
	DD	imagerel ??_R0?AVruntime_error@std@@@8
	DD	00H
	DD	0ffffffffH
	ORG $+4
	DD	018H
	DD	imagerel ??0runtime_error@std@@QEAA@AEBV01@@Z
xdata$x	ENDS
;	COMDAT ??_R0?AVruntime_error@std@@@8
data$r	SEGMENT
??_R0?AVruntime_error@std@@@8 DQ FLAT:??_7type_info@@6B@ ; std::runtime_error `RTTI Type Descriptor'
	DQ	0000000000000000H
	DB	'.?AVruntime_error@std@@', 00H
data$r	ENDS
;	COMDAT ??_7runtime_error@std@@6B@
CONST	SEGMENT
??_7runtime_error@std@@6B@ DQ FLAT:??_R4runtime_error@std@@6B@ ; std::runtime_error::`vftable'
	DQ	FLAT:??_Eruntime_error@std@@UEAAPEAXI@Z
	DQ	FLAT:?what@exception@std@@UEBAPEBDXZ
CONST	ENDS
;	COMDAT ??_C@_1CG@JNLFBNGN@?$AA?$CC?$AAi?$AAn?$AAv?$AAa?$AAl?$AAi?$AAd?$AA?5?$AAa?$AAr?$AAg?$AAu?$AAm?$AAe@
CONST	SEGMENT
??_C@_1CG@JNLFBNGN@?$AA?$CC?$AAi?$AAn?$AAv?$AAa?$AAl?$AAi?$AAd?$AA?5?$AAa?$AAr?$AAg?$AAu?$AAm?$AAe@ DB '"'
	DB	00H, 'i', 00H, 'n', 00H, 'v', 00H, 'a', 00H, 'l', 00H, 'i', 00H
	DB	'd', 00H, ' ', 00H, 'a', 00H, 'r', 00H, 'g', 00H, 'u', 00H, 'm'
	DB	00H, 'e', 00H, 'n', 00H, 't', 00H, '"', 00H, 00H, 00H ; `string'
CONST	ENDS
;	COMDAT ??_C@_11LOCGONAA@@
CONST	SEGMENT
??_C@_11LOCGONAA@@ DB 00H, 00H				; `string'
CONST	ENDS
;	COMDAT ??_C@_1ME@GEFGDEOM@?$AAC?$AA?3?$AA?2?$AAP?$AAr?$AAo?$AAg?$AAr?$AAa?$AAm?$AA?5?$AAF?$AAi?$AAl?$AAe@
CONST	SEGMENT
??_C@_1ME@GEFGDEOM@?$AAC?$AA?3?$AA?2?$AAP?$AAr?$AAo?$AAg?$AAr?$AAa?$AAm?$AA?5?$AAF?$AAi?$AAl?$AAe@ DB 'C'
	DB	00H, ':', 00H, '\', 00H, 'P', 00H, 'r', 00H, 'o', 00H, 'g', 00H
	DB	'r', 00H, 'a', 00H, 'm', 00H, ' ', 00H, 'F', 00H, 'i', 00H, 'l'
	DB	00H, 'e', 00H, 's', 00H, '\', 00H, 'M', 00H, 'i', 00H, 'c', 00H
	DB	'r', 00H, 'o', 00H, 's', 00H, 'o', 00H, 'f', 00H, 't', 00H, ' '
	DB	00H, 'V', 00H, 'i', 00H, 's', 00H, 'u', 00H, 'a', 00H, 'l', 00H
	DB	' ', 00H, 'S', 00H, 't', 00H, 'u', 00H, 'd', 00H, 'i', 00H, 'o'
	DB	00H, '\', 00H, '2', 00H, '0', 00H, '2', 00H, '2', 00H, '\', 00H
	DB	'C', 00H, 'o', 00H, 'm', 00H, 'm', 00H, 'u', 00H, 'n', 00H, 'i'
	DB	00H, 't', 00H, 'y', 00H, '\', 00H, 'V', 00H, 'C', 00H, '\', 00H
	DB	'T', 00H, 'o', 00H, 'o', 00H, 'l', 00H, 's', 00H, '\', 00H, 'M'
	DB	00H, 'S', 00H, 'V', 00H, 'C', 00H, '\', 00H, '1', 00H, '4', 00H
	DB	'.', 00H, '3', 00H, '2', 00H, '.', 00H, '3', 00H, '1', 00H, '3'
	DB	00H, '2', 00H, '6', 00H, '\', 00H, 'i', 00H, 'n', 00H, 'c', 00H
	DB	'l', 00H, 'u', 00H, 'd', 00H, 'e', 00H, '\', 00H, 'x', 00H, 'm'
	DB	00H, 'e', 00H, 'm', 00H, 'o', 00H, 'r', 00H, 'y', 00H, 00H, 00H ; `string'
CONST	ENDS
;	COMDAT ??_C@_0GC@DJFHHHKN@C?3?2Program?5Files?2Microsoft?5Visu@
CONST	SEGMENT
??_C@_0GC@DJFHHHKN@C?3?2Program?5Files?2Microsoft?5Visu@ DB 'C:\Program F'
	DB	'iles\Microsoft Visual Studio\2022\Community\VC\Tools\MSVC\14.'
	DB	'32.31326\include\xmemory', 00H		; `string'
CONST	ENDS
;	COMDAT ??_C@_02DKCKIIND@?$CFs@
CONST	SEGMENT
??_C@_02DKCKIIND@?$CFs@ DB '%s', 00H			; `string'
CONST	ENDS
;	COMDAT ??_C@_0BB@FCMFBGOM@invalid?5argument@
CONST	SEGMENT
??_C@_0BB@FCMFBGOM@invalid?5argument@ DB 'invalid argument', 00H ; `string'
CONST	ENDS
;	COMDAT ?__LINE__Var@?0??_Adjust_manually_vector_aligned@std@@YAXAEAPEAXAEA_K@Z@4JA
_DATA	SEGMENT
?__LINE__Var@?0??_Adjust_manually_vector_aligned@std@@YAXAEAPEAXAEA_K@Z@4JA DD 091H ; `std::_Adjust_manually_vector_aligned'::`1'::__LINE__Var
_DATA	ENDS
;	COMDAT _CT??_R0?AVexception@std@@@8??0exception@std@@QEAA@AEBV01@@Z24
xdata$x	SEGMENT
_CT??_R0?AVexception@std@@@8??0exception@std@@QEAA@AEBV01@@Z24 DD 00H
	DD	imagerel ??_R0?AVexception@std@@@8
	DD	00H
	DD	0ffffffffH
	ORG $+4
	DD	018H
	DD	imagerel ??0exception@std@@QEAA@AEBV01@@Z
xdata$x	ENDS
;	COMDAT ??_R0?AVexception@std@@@8
data$r	SEGMENT
??_R0?AVexception@std@@@8 DQ FLAT:??_7type_info@@6B@	; std::exception `RTTI Type Descriptor'
	DQ	0000000000000000H
	DB	'.?AVexception@std@@', 00H
data$r	ENDS
;	COMDAT _CT??_R0?AVbad_alloc@std@@@8??0bad_alloc@std@@QEAA@AEBV01@@Z24
xdata$x	SEGMENT
_CT??_R0?AVbad_alloc@std@@@8??0bad_alloc@std@@QEAA@AEBV01@@Z24 DD 010H
	DD	imagerel ??_R0?AVbad_alloc@std@@@8
	DD	00H
	DD	0ffffffffH
	ORG $+4
	DD	018H
	DD	imagerel ??0bad_alloc@std@@QEAA@AEBV01@@Z
xdata$x	ENDS
;	COMDAT ??_R0?AVbad_alloc@std@@@8
data$r	SEGMENT
??_R0?AVbad_alloc@std@@@8 DQ FLAT:??_7type_info@@6B@	; std::bad_alloc `RTTI Type Descriptor'
	DQ	0000000000000000H
	DB	'.?AVbad_alloc@std@@', 00H
data$r	ENDS
;	COMDAT _CT??_R0?AVbad_array_new_length@std@@@8??0bad_array_new_length@std@@QEAA@AEBV01@@Z24
xdata$x	SEGMENT
_CT??_R0?AVbad_array_new_length@std@@@8??0bad_array_new_length@std@@QEAA@AEBV01@@Z24 DD 00H
	DD	imagerel ??_R0?AVbad_array_new_length@std@@@8
	DD	00H
	DD	0ffffffffH
	ORG $+4
	DD	018H
	DD	imagerel ??0bad_array_new_length@std@@QEAA@AEBV01@@Z
xdata$x	ENDS
;	COMDAT ??_R0?AVbad_array_new_length@std@@@8
data$r	SEGMENT
??_R0?AVbad_array_new_length@std@@@8 DQ FLAT:??_7type_info@@6B@ ; std::bad_array_new_length `RTTI Type Descriptor'
	DQ	0000000000000000H
	DB	'.?AVbad_array_new_length@std@@', 00H
data$r	ENDS
;	COMDAT _CTA3?AVbad_array_new_length@std@@
xdata$x	SEGMENT
_CTA3?AVbad_array_new_length@std@@ DD 03H
	DD	imagerel _CT??_R0?AVbad_array_new_length@std@@@8??0bad_array_new_length@std@@QEAA@AEBV01@@Z24
	DD	imagerel _CT??_R0?AVbad_alloc@std@@@8??0bad_alloc@std@@QEAA@AEBV01@@Z24
	DD	imagerel _CT??_R0?AVexception@std@@@8??0exception@std@@QEAA@AEBV01@@Z24
xdata$x	ENDS
;	COMDAT _TI3?AVbad_array_new_length@std@@
xdata$x	SEGMENT
_TI3?AVbad_array_new_length@std@@ DD 00H
	DD	imagerel ??1bad_array_new_length@std@@UEAA@XZ
	DD	00H
	DD	imagerel _CTA3?AVbad_array_new_length@std@@
xdata$x	ENDS
;	COMDAT ??_C@_0BF@KINCDENJ@bad?5array?5new?5length@
CONST	SEGMENT
??_C@_0BF@KINCDENJ@bad?5array?5new?5length@ DB 'bad array new length', 00H ; `string'
CONST	ENDS
;	COMDAT ??_7bad_array_new_length@std@@6B@
CONST	SEGMENT
??_7bad_array_new_length@std@@6B@ DQ FLAT:??_R4bad_array_new_length@std@@6B@ ; std::bad_array_new_length::`vftable'
	DQ	FLAT:??_Ebad_array_new_length@std@@UEAAPEAXI@Z
	DQ	FLAT:?what@exception@std@@UEBAPEBDXZ
CONST	ENDS
;	COMDAT ??_7bad_alloc@std@@6B@
CONST	SEGMENT
??_7bad_alloc@std@@6B@ DQ FLAT:??_R4bad_alloc@std@@6B@	; std::bad_alloc::`vftable'
	DQ	FLAT:??_Ebad_alloc@std@@UEAAPEAXI@Z
	DQ	FLAT:?what@exception@std@@UEBAPEBDXZ
CONST	ENDS
;	COMDAT ??_C@_0BC@EOODALEL@Unknown?5exception@
CONST	SEGMENT
??_C@_0BC@EOODALEL@Unknown?5exception@ DB 'Unknown exception', 00H ; `string'
CONST	ENDS
;	COMDAT ??_7exception@std@@6B@
CONST	SEGMENT
??_7exception@std@@6B@ DQ FLAT:??_R4exception@std@@6B@	; std::exception::`vftable'
	DQ	FLAT:??_Eexception@std@@UEAAPEAXI@Z
	DQ	FLAT:?what@exception@std@@UEBAPEBDXZ
CONST	ENDS
;	COMDAT xdata
xdata	SEGMENT
$unwind$??$_Voidify_iter@PEAPEAUVkCommandBuffer_T@@@std@@YAPEAXPEAPEAUVkCommandBuffer_T@@@Z DD 025051301H
	DD	010e2313H
	DD	07007001dH
	DD	05006H
xdata	ENDS
;	COMDAT xdata
xdata	SEGMENT
$unwind$??$construct_at@PEAUVkCommandBuffer_T@@$$VX@std@@YAPEAPEAUVkCommandBuffer_T@@QEAPEAU1@@Z DD 025051301H
	DD	010e2313H
	DD	070070027H
	DD	05006H
xdata	ENDS
;	COMDAT xdata
xdata	SEGMENT
$unwind$??$to_address@UVertex2DRGB@cow@@@std@@YAPEAUVertex2DRGB@cow@@QEAU12@@Z DD 025051301H
	DD	010e2313H
	DD	07007001dH
	DD	05006H
xdata	ENDS
;	COMDAT xdata
xdata	SEGMENT
$unwind$??$_To_address@PEAUVertex2DRGB@cow@@@std@@YA?A_PAEBQEAUVertex2DRGB@cow@@@Z DD 025051301H
	DD	010e2313H
	DD	07007001dH
	DD	05006H
xdata	ENDS
;	COMDAT xdata
xdata	SEGMENT
$unwind$??$construct@PEAUVkCommandBuffer_T@@$$V@?$_Default_allocator_traits@V?$allocator@PEAUVkCommandBuffer_T@@@std@@@std@@SAXAEAV?$allocator@PEAUVkCommandBuffer_T@@@1@QEAPEAUVkCommandBuffer_T@@@Z DD 025051801H
	DD	01132318H
	DD	0700c0027H
	DD	0500bH
xdata	ENDS
;	COMDAT xdata
xdata	SEGMENT
$unwind$??$to_address@PEAUVkCommandBuffer_T@@@std@@YAPEAPEAUVkCommandBuffer_T@@QEAPEAU1@@Z DD 025051301H
	DD	010e2313H
	DD	07007001dH
	DD	05006H
xdata	ENDS
;	COMDAT xdata
xdata	SEGMENT
$unwind$??$_To_address@PEAPEAUVkCommandBuffer_T@@@std@@YA?A_PAEBQEAPEAUVkCommandBuffer_T@@@Z DD 025051301H
	DD	010e2313H
	DD	07007001dH
	DD	05006H
xdata	ENDS
;	COMDAT xdata
xdata	SEGMENT
$unwind$??$_Emplace_back@UVertex2DRGB@cow@@@?$_Uninitialized_backout_al@V?$allocator@UVertex2DRGB@cow@@@std@@@std@@QEAAX$$QEAUVertex2DRGB@cow@@@Z DD 025051801H
	DD	01132318H
	DD	0700c0021H
	DD	0500bH
xdata	ENDS
;	COMDAT xdata
xdata	SEGMENT
$unwind$?__autoclassinit2@?$_Uninitialized_backout_al@V?$allocator@UVertex2DRGB@cow@@@std@@@std@@QEAAX_K@Z DD 05051601H
	DD	01130316H
	DD	0700c0019H
	DD	0500bH
xdata	ENDS
;	COMDAT xdata
xdata	SEGMENT
$unwind$?_Release@?$_Uninitialized_backout_al@V?$allocator@UVertex2DRGB@cow@@@std@@@std@@QEAAPEAUVertex2DRGB@cow@@XZ DD 025051301H
	DD	010e2313H
	DD	07007001dH
	DD	05006H
xdata	ENDS
;	COMDAT xdata
xdata	SEGMENT
$unwind$??1?$_Uninitialized_backout_al@V?$allocator@UVertex2DRGB@cow@@@std@@@std@@QEAA@XZ DD 025051301H
	DD	010e2313H
	DD	07007001dH
	DD	05006H
xdata	ENDS
;	COMDAT xdata
xdata	SEGMENT
$unwind$??0?$_Uninitialized_backout_al@V?$allocator@UVertex2DRGB@cow@@@std@@@std@@QEAA@PEAUVertex2DRGB@cow@@AEAV?$allocator@UVertex2DRGB@cow@@@1@@Z DD 025051d01H
	DD	0118231dH
	DD	07011001dH
	DD	05010H
xdata	ENDS
;	COMDAT xdata
xdata	SEGMENT
$unwind$??$_Copy_memmove@PEAUVertex2DRGB@cow@@PEAU12@@std@@YAPEAUVertex2DRGB@cow@@PEAU12@00@Z DD 025051d01H
	DD	0118231dH
	DD	070110039H
	DD	05010H
xdata	ENDS
;	COMDAT xdata
xdata	SEGMENT
$unwind$??$_Get_unwrapped@AEBQEAUVertex2DRGB@cow@@@std@@YA?A_TAEBQEAUVertex2DRGB@cow@@@Z DD 025051301H
	DD	010e2313H
	DD	07007001dH
	DD	05006H
xdata	ENDS
;	COMDAT xdata
xdata	SEGMENT
$unwind$??$_Voidify_iter@PEAUVertex2DRGB@cow@@@std@@YAPEAXPEAUVertex2DRGB@cow@@@Z DD 025051301H
	DD	010e2313H
	DD	07007001dH
	DD	05006H
xdata	ENDS
;	COMDAT xdata
xdata	SEGMENT
$unwind$??$construct_at@UVertex2DRGB@cow@@U12@X@std@@YAPEAUVertex2DRGB@cow@@QEAU12@$$QEAU12@@Z DD 025061901H
	DD	01142319H
	DD	0700d0020H
	DD	0500b600cH
xdata	ENDS
;	COMDAT xdata
xdata	SEGMENT
$unwind$??$addressof@UVertex2DRGB@cow@@@std@@YAPEAUVertex2DRGB@cow@@AEAU12@@Z DD 025051301H
	DD	010e2313H
	DD	07007001dH
	DD	05006H
xdata	ENDS
;	COMDAT xdata
xdata	SEGMENT
$unwind$??$_Get_size_of_n@$0BE@@std@@YA_K_K@Z DD 025051301H
	DD	010e2313H
	DD	070070025H
	DD	05006H
xdata	ENDS
;	COMDAT xdata
xdata	SEGMENT
$unwind$??$_Emplace_back@$$V@?$_Uninitialized_backout_al@V?$allocator@PEAUVkCommandBuffer_T@@@std@@@std@@QEAAXXZ DD 025051301H
	DD	010e2313H
	DD	07007001fH
	DD	05006H
xdata	ENDS
;	COMDAT xdata
xdata	SEGMENT
$unwind$?__autoclassinit2@?$_Uninitialized_backout_al@V?$allocator@PEAUVkCommandBuffer_T@@@std@@@std@@QEAAX_K@Z DD 05051601H
	DD	01130316H
	DD	0700c0019H
	DD	0500bH
xdata	ENDS
;	COMDAT xdata
xdata	SEGMENT
$unwind$?_Release@?$_Uninitialized_backout_al@V?$allocator@PEAUVkCommandBuffer_T@@@std@@@std@@QEAAPEAPEAUVkCommandBuffer_T@@XZ DD 025051301H
	DD	010e2313H
	DD	07007001dH
	DD	05006H
xdata	ENDS
;	COMDAT xdata
xdata	SEGMENT
$unwind$??1?$_Uninitialized_backout_al@V?$allocator@PEAUVkCommandBuffer_T@@@std@@@std@@QEAA@XZ DD 025051301H
	DD	010e2313H
	DD	07007001dH
	DD	05006H
xdata	ENDS
;	COMDAT xdata
xdata	SEGMENT
$unwind$??0?$_Uninitialized_backout_al@V?$allocator@PEAUVkCommandBuffer_T@@@std@@@std@@QEAA@PEAPEAUVkCommandBuffer_T@@AEAV?$allocator@PEAUVkCommandBuffer_T@@@1@@Z DD 025051d01H
	DD	0118231dH
	DD	07011001dH
	DD	05010H
xdata	ENDS
;	COMDAT xdata
xdata	SEGMENT
$unwind$??$_Zero_range@PEAPEAUVkCommandBuffer_T@@@std@@YAPEAPEAUVkCommandBuffer_T@@QEAPEAU1@0@Z DD 025051801H
	DD	01132318H
	DD	0700c0025H
	DD	0500bH
xdata	ENDS
;	COMDAT xdata
xdata	SEGMENT
$unwind$??$_Unfancy@PEAUVkCommandBuffer_T@@@std@@YAPEAPEAUVkCommandBuffer_T@@PEAPEAU1@@Z DD 025051301H
	DD	010e2313H
	DD	07007001dH
	DD	05006H
xdata	ENDS
;	COMDAT xdata
xdata	SEGMENT
$unwind$?deallocate@?$_Default_allocator_traits@V?$allocator@U_Container_proxy@std@@@std@@@std@@SAXAEAV?$allocator@U_Container_proxy@std@@@2@QEAU_Container_proxy@2@_K@Z DD 025051d01H
	DD	0118231dH
	DD	07011001dH
	DD	05010H
xdata	ENDS
;	COMDAT voltbl
voltbl	SEGMENT
_volmd	DB	00H
	DB	05H
voltbl	ENDS
;	COMDAT voltbl
voltbl	SEGMENT
_volmd	DW	045H
	DW	0156H
voltbl	ENDS
;	COMDAT xdata
xdata	SEGMENT
$unwind$?dtor$0@?0???$_Uninitialized_move@PEAUVertex2DRGB@cow@@V?$allocator@UVertex2DRGB@cow@@@std@@@std@@YAPEAUVertex2DRGB@cow@@QEAU12@0PEAU12@AEAV?$allocator@UVertex2DRGB@cow@@@0@@Z@4HA DD 031001H
	DD	0700c4210H
	DD	0500bH
xdata	ENDS
;	COMDAT xdata
xdata	SEGMENT
$ip2state$??$_Uninitialized_move@PEAUVertex2DRGB@cow@@V?$allocator@UVertex2DRGB@cow@@@std@@@std@@YAPEAUVertex2DRGB@cow@@QEAU12@0PEAU12@AEAV?$allocator@UVertex2DRGB@cow@@@0@@Z DB 06H
	DB	00H
	DB	00H
	DB	0c5H, 03H
	DB	02H
	DB	'~'
	DB	00H
xdata	ENDS
;	COMDAT xdata
xdata	SEGMENT
$stateUnwindMap$??$_Uninitialized_move@PEAUVertex2DRGB@cow@@V?$allocator@UVertex2DRGB@cow@@@std@@@std@@YAPEAUVertex2DRGB@cow@@QEAU12@0PEAU12@AEAV?$allocator@UVertex2DRGB@cow@@@0@@Z DB 02H
	DB	0eH
	DD	imagerel ?dtor$0@?0???$_Uninitialized_move@PEAUVertex2DRGB@cow@@V?$allocator@UVertex2DRGB@cow@@@std@@@std@@YAPEAUVertex2DRGB@cow@@QEAU12@0PEAU12@AEAV?$allocator@UVertex2DRGB@cow@@@0@@Z@4HA
xdata	ENDS
;	COMDAT xdata
xdata	SEGMENT
$cppxdata$??$_Uninitialized_move@PEAUVertex2DRGB@cow@@V?$allocator@UVertex2DRGB@cow@@@std@@@std@@YAPEAUVertex2DRGB@cow@@QEAU12@0PEAU12@AEAV?$allocator@UVertex2DRGB@cow@@@0@@Z DB 028H
	DD	imagerel $stateUnwindMap$??$_Uninitialized_move@PEAUVertex2DRGB@cow@@V?$allocator@UVertex2DRGB@cow@@@std@@@std@@YAPEAUVertex2DRGB@cow@@QEAU12@0PEAU12@AEAV?$allocator@UVertex2DRGB@cow@@@0@@Z
	DD	imagerel $ip2state$??$_Uninitialized_move@PEAUVertex2DRGB@cow@@V?$allocator@UVertex2DRGB@cow@@@std@@@std@@YAPEAUVertex2DRGB@cow@@QEAU12@0PEAU12@AEAV?$allocator@UVertex2DRGB@cow@@@0@@Z
xdata	ENDS
;	COMDAT xdata
xdata	SEGMENT
$unwind$??$_Uninitialized_move@PEAUVertex2DRGB@cow@@V?$allocator@UVertex2DRGB@cow@@@std@@@std@@YAPEAUVertex2DRGB@cow@@QEAU12@0PEAU12@AEAV?$allocator@UVertex2DRGB@cow@@@0@@Z DD 025054c19H
	DD	011d2322H
	DD	07016002fH
	DD	05015H
	DD	imagerel __GSHandlerCheck_EH4
	DD	imagerel $cppxdata$??$_Uninitialized_move@PEAUVertex2DRGB@cow@@V?$allocator@UVertex2DRGB@cow@@@std@@@std@@YAPEAUVertex2DRGB@cow@@QEAU12@0PEAU12@AEAV?$allocator@UVertex2DRGB@cow@@@0@@Z
	DD	016aH
xdata	ENDS
;	COMDAT CONST
CONST	SEGMENT
??$_Uninitialized_move@PEAUVertex2DRGB@cow@@V?$allocator@UVertex2DRGB@cow@@@std@@@std@@YAPEAUVertex2DRGB@cow@@QEAU12@0PEAU12@AEAV?$allocator@UVertex2DRGB@cow@@@0@@Z$rtcName$0 DB 05fH ; std::_Uninitialized_move<cow::Vertex2DRGB *,std::allocator<cow::Vertex2DRGB> >
	DB	042H
	DB	061H
	DB	063H
	DB	06bH
	DB	06fH
	DB	075H
	DB	074H
	DB	00H
	ORG $+7
??$_Uninitialized_move@PEAUVertex2DRGB@cow@@V?$allocator@UVertex2DRGB@cow@@@std@@@std@@YAPEAUVertex2DRGB@cow@@QEAU12@0PEAU12@AEAV?$allocator@UVertex2DRGB@cow@@@0@@Z$rtcVarDesc DD 068H ; std::_Uninitialized_move<cow::Vertex2DRGB *,std::allocator<cow::Vertex2DRGB> >
	DD	018H
	DQ	FLAT:??$_Uninitialized_move@PEAUVertex2DRGB@cow@@V?$allocator@UVertex2DRGB@cow@@@std@@@std@@YAPEAUVertex2DRGB@cow@@QEAU12@0PEAU12@AEAV?$allocator@UVertex2DRGB@cow@@@0@@Z$rtcName$0
	ORG $+48
??$_Uninitialized_move@PEAUVertex2DRGB@cow@@V?$allocator@UVertex2DRGB@cow@@@std@@@std@@YAPEAUVertex2DRGB@cow@@QEAU12@0PEAU12@AEAV?$allocator@UVertex2DRGB@cow@@@0@@Z$rtcFrameData DD 01H ; std::_Uninitialized_move<cow::Vertex2DRGB *,std::allocator<cow::Vertex2DRGB> >
	DD	00H
	DQ	FLAT:??$_Uninitialized_move@PEAUVertex2DRGB@cow@@V?$allocator@UVertex2DRGB@cow@@@std@@@std@@YAPEAUVertex2DRGB@cow@@QEAU12@0PEAU12@AEAV?$allocator@UVertex2DRGB@cow@@@0@@Z$rtcVarDesc
CONST	ENDS
;	COMDAT xdata
xdata	SEGMENT
$unwind$??$construct@UVertex2DRGB@cow@@U12@@?$_Default_allocator_traits@V?$allocator@UVertex2DRGB@cow@@@std@@@std@@SAXAEAV?$allocator@UVertex2DRGB@cow@@@1@QEAUVertex2DRGB@cow@@$$QEAU34@@Z DD 025061e01H
	DD	0119231eH
	DD	070120020H
	DD	050106011H
xdata	ENDS
;	COMDAT xdata
xdata	SEGMENT
$unwind$??$_Unfancy@UVertex2DRGB@cow@@@std@@YAPEAUVertex2DRGB@cow@@PEAU12@@Z DD 025051301H
	DD	010e2313H
	DD	07007001dH
	DD	05006H
xdata	ENDS
;	COMDAT xdata
xdata	SEGMENT
$unwind$??$_Construct_in_place@UVertex2DRGB@cow@@U12@@std@@YAXAEAUVertex2DRGB@cow@@$$QEAU12@@Z DD 025061901H
	DD	01142319H
	DD	0700d0022H
	DD	0500b600cH
xdata	ENDS
;	COMDAT xdata
xdata	SEGMENT
$unwind$??$_Get_size_of_n@$07@std@@YA_K_K@Z DD 025051301H
	DD	010e2313H
	DD	070070025H
	DD	05006H
xdata	ENDS
;	COMDAT xdata
xdata	SEGMENT
$unwind$??$_Allocate_manually_vector_aligned@U_Default_allocate_traits@std@@@std@@YAPEAX_K@Z DD 035051301H
	DD	010e3313H
	DD	07007002bH
	DD	05006H
xdata	ENDS
;	COMDAT voltbl
voltbl	SEGMENT
_volmd	DB	00H
	DB	05H
voltbl	ENDS
;	COMDAT voltbl
voltbl	SEGMENT
_volmd	DW	040H
	DW	0122H
voltbl	ENDS
;	COMDAT xdata
xdata	SEGMENT
$unwind$?dtor$0@?0???$_Uninitialized_value_construct_n@V?$allocator@PEAUVkCommandBuffer_T@@@std@@@std@@YAPEAPEAUVkCommandBuffer_T@@PEAPEAU1@_KAEAV?$allocator@PEAUVkCommandBuffer_T@@@0@@Z@4HA DD 031001H
	DD	0700c4210H
	DD	0500bH
xdata	ENDS
;	COMDAT xdata
xdata	SEGMENT
$ip2state$??$_Uninitialized_value_construct_n@V?$allocator@PEAUVkCommandBuffer_T@@@std@@@std@@YAPEAPEAUVkCommandBuffer_T@@PEAPEAU1@_KAEAV?$allocator@PEAUVkCommandBuffer_T@@@0@@Z DB 06H
	DB	00H
	DB	00H
	DB	011H, 03H
	DB	02H
	DB	'p'
	DB	00H
xdata	ENDS
;	COMDAT xdata
xdata	SEGMENT
$stateUnwindMap$??$_Uninitialized_value_construct_n@V?$allocator@PEAUVkCommandBuffer_T@@@std@@@std@@YAPEAPEAUVkCommandBuffer_T@@PEAPEAU1@_KAEAV?$allocator@PEAUVkCommandBuffer_T@@@0@@Z DB 02H
	DB	0eH
	DD	imagerel ?dtor$0@?0???$_Uninitialized_value_construct_n@V?$allocator@PEAUVkCommandBuffer_T@@@std@@@std@@YAPEAPEAUVkCommandBuffer_T@@PEAPEAU1@_KAEAV?$allocator@PEAUVkCommandBuffer_T@@@0@@Z@4HA
xdata	ENDS
;	COMDAT xdata
xdata	SEGMENT
$cppxdata$??$_Uninitialized_value_construct_n@V?$allocator@PEAUVkCommandBuffer_T@@@std@@@std@@YAPEAPEAUVkCommandBuffer_T@@PEAPEAU1@_KAEAV?$allocator@PEAUVkCommandBuffer_T@@@0@@Z DB 028H
	DD	imagerel $stateUnwindMap$??$_Uninitialized_value_construct_n@V?$allocator@PEAUVkCommandBuffer_T@@@std@@@std@@YAPEAPEAUVkCommandBuffer_T@@PEAPEAU1@_KAEAV?$allocator@PEAUVkCommandBuffer_T@@@0@@Z
	DD	imagerel $ip2state$??$_Uninitialized_value_construct_n@V?$allocator@PEAUVkCommandBuffer_T@@@std@@@std@@YAPEAPEAUVkCommandBuffer_T@@PEAPEAU1@_KAEAV?$allocator@PEAUVkCommandBuffer_T@@@0@@Z
xdata	ENDS
;	COMDAT xdata
xdata	SEGMENT
$unwind$??$_Uninitialized_value_construct_n@V?$allocator@PEAUVkCommandBuffer_T@@@std@@@std@@YAPEAPEAUVkCommandBuffer_T@@PEAPEAU1@_KAEAV?$allocator@PEAUVkCommandBuffer_T@@@0@@Z DD 025054719H
	DD	0118231dH
	DD	07011002bH
	DD	05010H
	DD	imagerel __GSHandlerCheck_EH4
	DD	imagerel $cppxdata$??$_Uninitialized_value_construct_n@V?$allocator@PEAUVkCommandBuffer_T@@@std@@@std@@YAPEAPEAUVkCommandBuffer_T@@PEAPEAU1@_KAEAV?$allocator@PEAUVkCommandBuffer_T@@@0@@Z
	DD	014aH
xdata	ENDS
;	COMDAT CONST
CONST	SEGMENT
??$_Uninitialized_value_construct_n@V?$allocator@PEAUVkCommandBuffer_T@@@std@@@std@@YAPEAPEAUVkCommandBuffer_T@@PEAPEAU1@_KAEAV?$allocator@PEAUVkCommandBuffer_T@@@0@@Z$rtcName$0 DB 05fH ; std::_Uninitialized_value_construct_n<std::allocator<VkCommandBuffer_T *> >
	DB	042H
	DB	061H
	DB	063H
	DB	06bH
	DB	06fH
	DB	075H
	DB	074H
	DB	00H
	ORG $+7
??$_Uninitialized_value_construct_n@V?$allocator@PEAUVkCommandBuffer_T@@@std@@@std@@YAPEAPEAUVkCommandBuffer_T@@PEAPEAU1@_KAEAV?$allocator@PEAUVkCommandBuffer_T@@@0@@Z$rtcVarDesc DD 048H ; std::_Uninitialized_value_construct_n<std::allocator<VkCommandBuffer_T *> >
	DD	018H
	DQ	FLAT:??$_Uninitialized_value_construct_n@V?$allocator@PEAUVkCommandBuffer_T@@@std@@@std@@YAPEAPEAUVkCommandBuffer_T@@PEAPEAU1@_KAEAV?$allocator@PEAUVkCommandBuffer_T@@@0@@Z$rtcName$0
	ORG $+48
??$_Uninitialized_value_construct_n@V?$allocator@PEAUVkCommandBuffer_T@@@std@@@std@@YAPEAPEAUVkCommandBuffer_T@@PEAPEAU1@_KAEAV?$allocator@PEAUVkCommandBuffer_T@@@0@@Z$rtcFrameData DD 01H ; std::_Uninitialized_value_construct_n<std::allocator<VkCommandBuffer_T *> >
	DD	00H
	DQ	FLAT:??$_Uninitialized_value_construct_n@V?$allocator@PEAUVkCommandBuffer_T@@@std@@@std@@YAPEAPEAUVkCommandBuffer_T@@PEAPEAU1@_KAEAV?$allocator@PEAUVkCommandBuffer_T@@@0@@Z$rtcVarDesc
CONST	ENDS
;	COMDAT xdata
xdata	SEGMENT
$unwind$??1?$_Tidy_guard@V?$vector@PEAUVkCommandBuffer_T@@V?$allocator@PEAUVkCommandBuffer_T@@@std@@@std@@@std@@QEAA@XZ DD 025051301H
	DD	010e2313H
	DD	07007001dH
	DD	05006H
xdata	ENDS
;	COMDAT xdata
xdata	SEGMENT
$unwind$??$forward@AEBV?$allocator@PEAUVkCommandBuffer_T@@@std@@@std@@YAAEBV?$allocator@PEAUVkCommandBuffer_T@@@0@AEBV10@@Z DD 025051301H
	DD	010e2313H
	DD	07007001dH
	DD	05006H
xdata	ENDS
;	COMDAT xdata
xdata	SEGMENT
$ip2state$??$_Deallocate_plain@V?$allocator@U_Container_proxy@std@@@std@@@std@@YAXAEAV?$allocator@U_Container_proxy@std@@@0@QEAU_Container_proxy@0@@Z DB 02H
	DB	00H
	DB	00H
xdata	ENDS
;	COMDAT xdata
xdata	SEGMENT
$cppxdata$??$_Deallocate_plain@V?$allocator@U_Container_proxy@std@@@std@@@std@@YAXAEAV?$allocator@U_Container_proxy@std@@@0@QEAU_Container_proxy@0@@Z DB 060H
	DD	imagerel $ip2state$??$_Deallocate_plain@V?$allocator@U_Container_proxy@std@@@std@@@std@@YAXAEAV?$allocator@U_Container_proxy@std@@@0@QEAU_Container_proxy@0@@Z
xdata	ENDS
;	COMDAT xdata
xdata	SEGMENT
$unwind$??$_Deallocate_plain@V?$allocator@U_Container_proxy@std@@@std@@@std@@YAXAEAV?$allocator@U_Container_proxy@std@@@0@QEAU_Container_proxy@0@@Z DD 025051819H
	DD	01132318H
	DD	0700c001dH
	DD	0500bH
	DD	imagerel __CxxFrameHandler4
	DD	imagerel $cppxdata$??$_Deallocate_plain@V?$allocator@U_Container_proxy@std@@@std@@@std@@YAXAEAV?$allocator@U_Container_proxy@std@@@0@QEAU_Container_proxy@0@@Z
xdata	ENDS
;	COMDAT voltbl
voltbl	SEGMENT
_volmd	DB	00H
	DB	05H
voltbl	ENDS
;	COMDAT xdata
xdata	SEGMENT
$unwind$?catch$0@?0???$_Emplace_reallocate@UVertex2DRGB@cow@@@?$vector@UVertex2DRGB@cow@@V?$allocator@UVertex2DRGB@cow@@@std@@@std@@AEAAPEAUVertex2DRGB@cow@@QEAU23@$$QEAU23@@Z@4HA DD 031001H
	DD	0700c4210H
	DD	0500bH
xdata	ENDS
;	COMDAT xdata
xdata	SEGMENT
$ip2state$??$_Emplace_reallocate@UVertex2DRGB@cow@@@?$vector@UVertex2DRGB@cow@@V?$allocator@UVertex2DRGB@cow@@@std@@@std@@AEAAPEAUVertex2DRGB@cow@@QEAU23@$$QEAU23@@Z DB 06H
	DB	00H
	DB	00H
	DB	0a1H, 04H
	DB	02H
	DB	0d5H, 03H
	DB	00H
xdata	ENDS
;	COMDAT xdata
xdata	SEGMENT
$handlerMap$??$_Emplace_reallocate@UVertex2DRGB@cow@@@?$vector@UVertex2DRGB@cow@@V?$allocator@UVertex2DRGB@cow@@@std@@@std@@AEAAPEAUVertex2DRGB@cow@@QEAU23@$$QEAU23@@Z DB 02H
	DB	01H
	DB	080H
	DD	imagerel ?catch$0@?0???$_Emplace_reallocate@UVertex2DRGB@cow@@@?$vector@UVertex2DRGB@cow@@V?$allocator@UVertex2DRGB@cow@@@std@@@std@@AEAAPEAUVertex2DRGB@cow@@QEAU23@$$QEAU23@@Z@4HA
xdata	ENDS
;	COMDAT xdata
xdata	SEGMENT
$tryMap$??$_Emplace_reallocate@UVertex2DRGB@cow@@@?$vector@UVertex2DRGB@cow@@V?$allocator@UVertex2DRGB@cow@@@std@@@std@@AEAAPEAUVertex2DRGB@cow@@QEAU23@$$QEAU23@@Z DB 02H
	DB	00H
	DB	00H
	DB	02H
	DD	imagerel $handlerMap$??$_Emplace_reallocate@UVertex2DRGB@cow@@@?$vector@UVertex2DRGB@cow@@V?$allocator@UVertex2DRGB@cow@@@std@@@std@@AEAAPEAUVertex2DRGB@cow@@QEAU23@$$QEAU23@@Z
xdata	ENDS
;	COMDAT xdata
xdata	SEGMENT
$stateUnwindMap$??$_Emplace_reallocate@UVertex2DRGB@cow@@@?$vector@UVertex2DRGB@cow@@V?$allocator@UVertex2DRGB@cow@@@std@@@std@@AEAAPEAUVertex2DRGB@cow@@QEAU23@$$QEAU23@@Z DB 04H
	DB	08H
	DB	010H
xdata	ENDS
;	COMDAT xdata
xdata	SEGMENT
$cppxdata$??$_Emplace_reallocate@UVertex2DRGB@cow@@@?$vector@UVertex2DRGB@cow@@V?$allocator@UVertex2DRGB@cow@@@std@@@std@@AEAAPEAUVertex2DRGB@cow@@QEAU23@$$QEAU23@@Z DB 038H
	DD	imagerel $stateUnwindMap$??$_Emplace_reallocate@UVertex2DRGB@cow@@@?$vector@UVertex2DRGB@cow@@V?$allocator@UVertex2DRGB@cow@@@std@@@std@@AEAAPEAUVertex2DRGB@cow@@QEAU23@$$QEAU23@@Z
	DD	imagerel $tryMap$??$_Emplace_reallocate@UVertex2DRGB@cow@@@?$vector@UVertex2DRGB@cow@@V?$allocator@UVertex2DRGB@cow@@@std@@@std@@AEAAPEAUVertex2DRGB@cow@@QEAU23@$$QEAU23@@Z
	DD	imagerel $ip2state$??$_Emplace_reallocate@UVertex2DRGB@cow@@@?$vector@UVertex2DRGB@cow@@V?$allocator@UVertex2DRGB@cow@@@std@@@std@@AEAAPEAUVertex2DRGB@cow@@QEAU23@$$QEAU23@@Z
xdata	ENDS
;	COMDAT xdata
xdata	SEGMENT
$unwind$??$_Emplace_reallocate@UVertex2DRGB@cow@@@?$vector@UVertex2DRGB@cow@@V?$allocator@UVertex2DRGB@cow@@@std@@@std@@AEAAPEAUVertex2DRGB@cow@@QEAU23@$$QEAU23@@Z DD 025051d19H
	DD	0118231dH
	DD	07011004bH
	DD	05010H
	DD	imagerel __CxxFrameHandler4
	DD	imagerel $cppxdata$??$_Emplace_reallocate@UVertex2DRGB@cow@@@?$vector@UVertex2DRGB@cow@@V?$allocator@UVertex2DRGB@cow@@@std@@@std@@AEAAPEAUVertex2DRGB@cow@@QEAU23@$$QEAU23@@Z
xdata	ENDS
;	COMDAT xdata
xdata	SEGMENT
$unwind$??$_Emplace_back_with_unused_capacity@UVertex2DRGB@cow@@@?$vector@UVertex2DRGB@cow@@V?$allocator@UVertex2DRGB@cow@@@std@@@std@@AEAAAEAUVertex2DRGB@cow@@$$QEAU23@@Z DD 025051801H
	DD	01132318H
	DD	0700c002bH
	DD	0500bH
xdata	ENDS
;	COMDAT xdata
xdata	SEGMENT
$unwind$??$construct_at@U_Container_proxy@std@@PEAU_Container_base12@2@X@std@@YAPEAU_Container_proxy@0@QEAU10@$$QEAPEAU_Container_base12@0@@Z DD 025051801H
	DD	01132318H
	DD	0700c0021H
	DD	0500bH
xdata	ENDS
;	COMDAT xdata
xdata	SEGMENT
$unwind$??$forward@PEAU_Container_base12@std@@@std@@YA$$QEAPEAU_Container_base12@0@AEAPEAU10@@Z DD 025051301H
	DD	010e2313H
	DD	07007001dH
	DD	05006H
xdata	ENDS
;	COMDAT xdata
xdata	SEGMENT
$unwind$??$_Voidify_iter@PEAU_Container_proxy@std@@@std@@YAPEAXPEAU_Container_proxy@0@@Z DD 025051301H
	DD	010e2313H
	DD	07007001dH
	DD	05006H
xdata	ENDS
;	COMDAT xdata
xdata	SEGMENT
$unwind$??$addressof@U_Container_proxy@std@@@std@@YAPEAU_Container_proxy@0@AEAU10@@Z DD 025051301H
	DD	010e2313H
	DD	07007001dH
	DD	05006H
xdata	ENDS
;	COMDAT xdata
xdata	SEGMENT
$ip2state$??$_Deallocate@$0BA@$0A@@std@@YAXPEAX_K@Z DB 02H
	DB	00H
	DB	00H
xdata	ENDS
;	COMDAT xdata
xdata	SEGMENT
$cppxdata$??$_Deallocate@$0BA@$0A@@std@@YAXPEAX_K@Z DB 060H
	DD	imagerel $ip2state$??$_Deallocate@$0BA@$0A@@std@@YAXPEAX_K@Z
xdata	ENDS
;	COMDAT xdata
xdata	SEGMENT
$unwind$??$_Deallocate@$0BA@$0A@@std@@YAXPEAX_K@Z DD 025051819H
	DD	01132318H
	DD	0700c001dH
	DD	0500bH
	DD	imagerel __CxxFrameHandler4
	DD	imagerel $cppxdata$??$_Deallocate@$0BA@$0A@@std@@YAXPEAX_K@Z
xdata	ENDS
;	COMDAT xdata
xdata	SEGMENT
$unwind$??$_Allocate@$0BA@U_Default_allocate_traits@std@@$0A@@std@@YAPEAX_K@Z DD 025051301H
	DD	010e2313H
	DD	07007001dH
	DD	05006H
xdata	ENDS
;	COMDAT xdata
xdata	SEGMENT
$unwind$??$_Get_size_of_n@$0BA@@std@@YA_K_K@Z DD 025051301H
	DD	010e2313H
	DD	070070025H
	DD	05006H
xdata	ENDS
;	COMDAT xdata
xdata	SEGMENT
$unwind$??$_Destroy_range@V?$allocator@UVkVertexInputAttributeDescription@@@std@@@std@@YAXPEAUVkVertexInputAttributeDescription@@QEAU1@AEAV?$allocator@UVkVertexInputAttributeDescription@@@0@@Z DD 025051d01H
	DD	0118231dH
	DD	07011001dH
	DD	05010H
xdata	ENDS
;	COMDAT xdata
xdata	SEGMENT
$unwind$??$_Destroy_range@V?$allocator@W4VkDynamicState@@@std@@@std@@YAXPEAW4VkDynamicState@@QEAW41@AEAV?$allocator@W4VkDynamicState@@@0@@Z DD 025051d01H
	DD	0118231dH
	DD	07011001dH
	DD	05010H
xdata	ENDS
;	COMDAT xdata
xdata	SEGMENT
$unwind$??$_Destroy_range@V?$allocator@PEAUVkCommandBuffer_T@@@std@@@std@@YAXPEAPEAUVkCommandBuffer_T@@QEAPEAU1@AEAV?$allocator@PEAUVkCommandBuffer_T@@@0@@Z DD 025051d01H
	DD	0118231dH
	DD	07011001dH
	DD	05010H
xdata	ENDS
;	COMDAT xdata
xdata	SEGMENT
$unwind$??$_Destroy_range@V?$allocator@UVertex2DRGB@cow@@@std@@@std@@YAXPEAUVertex2DRGB@cow@@QEAU12@AEAV?$allocator@UVertex2DRGB@cow@@@0@@Z DD 025051d01H
	DD	0118231dH
	DD	07011001dH
	DD	05010H
xdata	ENDS
;	COMDAT xdata
xdata	SEGMENT
$unwind$??$?0UVkVertexInputAttributeDescription@@@?$allocator@U_Container_proxy@std@@@std@@QEAA@AEBV?$allocator@UVkVertexInputAttributeDescription@@@1@@Z DD 025051801H
	DD	01132318H
	DD	0700c001dH
	DD	0500bH
xdata	ENDS
;	COMDAT xdata
xdata	SEGMENT
$unwind$??$_Unfancy_maybe_null@UVkVertexInputAttributeDescription@@@std@@YAPEAUVkVertexInputAttributeDescription@@PEAU1@@Z DD 025051301H
	DD	010e2313H
	DD	07007001dH
	DD	05006H
xdata	ENDS
;	COMDAT xdata
xdata	SEGMENT
$unwind$??$_Unfancy@U_Container_proxy@std@@@std@@YAPEAU_Container_proxy@0@PEAU10@@Z DD 025051301H
	DD	010e2313H
	DD	07007001dH
	DD	05006H
xdata	ENDS
;	COMDAT xdata
xdata	SEGMENT
$unwind$??1?$_Container_proxy_ptr12@V?$allocator@U_Container_proxy@std@@@std@@@std@@QEAA@XZ DD 025051301H
	DD	010e2313H
	DD	07007001dH
	DD	05006H
xdata	ENDS
;	COMDAT xdata
xdata	SEGMENT
$unwind$??0?$_Container_proxy_ptr12@V?$allocator@U_Container_proxy@std@@@std@@@std@@QEAA@AEAV?$allocator@U_Container_proxy@std@@@1@AEAU_Container_base12@1@@Z DD 025051d01H
	DD	0118231dH
	DD	070110021H
	DD	05010H
xdata	ENDS
;	COMDAT xdata
xdata	SEGMENT
$unwind$??$min@_K@std@@YAAEB_KAEB_K0@Z DD 025051801H
	DD	01132318H
	DD	0700c0021H
	DD	0500bH
xdata	ENDS
;	COMDAT xdata
xdata	SEGMENT
$unwind$??Bsentry@?$basic_ostream@DU?$char_traits@D@std@@@std@@QEBA_NXZ DD 025051301H
	DD	010e2313H
	DD	07007001dH
	DD	05006H
xdata	ENDS
;	COMDAT xdata
xdata	SEGMENT
$ip2state$??1sentry@?$basic_ostream@DU?$char_traits@D@std@@@std@@QEAA@XZ DB 02H
	DB	00H
	DB	00H
xdata	ENDS
;	COMDAT xdata
xdata	SEGMENT
$cppxdata$??1sentry@?$basic_ostream@DU?$char_traits@D@std@@@std@@QEAA@XZ DB 060H
	DD	imagerel $ip2state$??1sentry@?$basic_ostream@DU?$char_traits@D@std@@@std@@QEAA@XZ
xdata	ENDS
;	COMDAT xdata
xdata	SEGMENT
$unwind$??1sentry@?$basic_ostream@DU?$char_traits@D@std@@@std@@QEAA@XZ DD 025051319H
	DD	010e2313H
	DD	070070021H
	DD	05006H
	DD	imagerel __CxxFrameHandler4
	DD	imagerel $cppxdata$??1sentry@?$basic_ostream@DU?$char_traits@D@std@@@std@@QEAA@XZ
xdata	ENDS
;	COMDAT voltbl
voltbl	SEGMENT
_volmd	DB	00H
	DB	05H
voltbl	ENDS
;	COMDAT xdata
xdata	SEGMENT
$unwind$?dtor$0@?0???0sentry@?$basic_ostream@DU?$char_traits@D@std@@@std@@QEAA@AEAV12@@Z@4HA DD 031001H
	DD	0700c4210H
	DD	0500bH
xdata	ENDS
;	COMDAT xdata
xdata	SEGMENT
$ip2state$??0sentry@?$basic_ostream@DU?$char_traits@D@std@@@std@@QEAA@AEAV12@@Z DB 06H
	DB	00H
	DB	00H
	DB	'p'
	DB	02H
	DB	0f1H, 02H
	DB	00H
xdata	ENDS
;	COMDAT xdata
xdata	SEGMENT
$stateUnwindMap$??0sentry@?$basic_ostream@DU?$char_traits@D@std@@@std@@QEAA@AEAV12@@Z DB 02H
	DB	0eH
	DD	imagerel ?dtor$0@?0???0sentry@?$basic_ostream@DU?$char_traits@D@std@@@std@@QEAA@AEAV12@@Z@4HA
xdata	ENDS
;	COMDAT xdata
xdata	SEGMENT
$cppxdata$??0sentry@?$basic_ostream@DU?$char_traits@D@std@@@std@@QEAA@AEAV12@@Z DB 028H
	DD	imagerel $stateUnwindMap$??0sentry@?$basic_ostream@DU?$char_traits@D@std@@@std@@QEAA@AEAV12@@Z
	DD	imagerel $ip2state$??0sentry@?$basic_ostream@DU?$char_traits@D@std@@@std@@QEAA@AEAV12@@Z
xdata	ENDS
;	COMDAT xdata
xdata	SEGMENT
$unwind$??0sentry@?$basic_ostream@DU?$char_traits@D@std@@@std@@QEAA@AEAV12@@Z DD 025051811H
	DD	01132318H
	DD	0700c0021H
	DD	0500bH
	DD	imagerel __CxxFrameHandler4
	DD	imagerel $cppxdata$??0sentry@?$basic_ostream@DU?$char_traits@D@std@@@std@@QEAA@AEAV12@@Z
xdata	ENDS
;	COMDAT xdata
xdata	SEGMENT
$ip2state$??1_Sentry_base@?$basic_ostream@DU?$char_traits@D@std@@@std@@QEAA@XZ DB 02H
	DB	00H
	DB	00H
xdata	ENDS
;	COMDAT xdata
xdata	SEGMENT
$cppxdata$??1_Sentry_base@?$basic_ostream@DU?$char_traits@D@std@@@std@@QEAA@XZ DB 060H
	DD	imagerel $ip2state$??1_Sentry_base@?$basic_ostream@DU?$char_traits@D@std@@@std@@QEAA@XZ
xdata	ENDS
;	COMDAT xdata
xdata	SEGMENT
$unwind$??1_Sentry_base@?$basic_ostream@DU?$char_traits@D@std@@@std@@QEAA@XZ DD 025051319H
	DD	010e2313H
	DD	070070021H
	DD	05006H
	DD	imagerel __CxxFrameHandler4
	DD	imagerel $cppxdata$??1_Sentry_base@?$basic_ostream@DU?$char_traits@D@std@@@std@@QEAA@XZ
xdata	ENDS
;	COMDAT xdata
xdata	SEGMENT
$unwind$??0_Sentry_base@?$basic_ostream@DU?$char_traits@D@std@@@std@@QEAA@AEAV12@@Z DD 025051801H
	DD	01132318H
	DD	0700c0021H
	DD	0500bH
xdata	ENDS
;	COMDAT xdata
xdata	SEGMENT
$unwind$??$?0$$V@?$_Compressed_pair@V?$allocator@W4VkDynamicState@@@std@@V?$_Vector_val@U?$_Simple_types@W4VkDynamicState@@@std@@@2@$00@std@@QEAA@U_Zero_then_variadic_args_t@1@@Z DD 025051701H
	DD	01122317H
	DD	0700b001dH
	DD	0500aH
xdata	ENDS
;	COMDAT xdata
xdata	SEGMENT
$unwind$??$?0W4VkDynamicState@@@?$allocator@U_Container_proxy@std@@@std@@QEAA@AEBV?$allocator@W4VkDynamicState@@@1@@Z DD 025051801H
	DD	01132318H
	DD	0700c001dH
	DD	0500bH
xdata	ENDS
;	COMDAT voltbl
voltbl	SEGMENT
_volmd	DB	00H
	DB	05H
voltbl	ENDS
;	COMDAT voltbl
voltbl	SEGMENT
_volmd	DB	00H
	DB	05H
voltbl	ENDS
;	COMDAT voltbl
voltbl	SEGMENT
_volmd	DW	03bH
	DW	011eH
voltbl	ENDS
;	COMDAT xdata
xdata	SEGMENT
$unwind$?dtor$1@?0???$_Construct_n@$$V@?$vector@PEAUVkCommandBuffer_T@@V?$allocator@PEAUVkCommandBuffer_T@@@std@@@std@@AEAAX_K@Z@4HA DD 031001H
	DD	0700c4210H
	DD	0500bH
xdata	ENDS
;	COMDAT xdata
xdata	SEGMENT
$unwind$?dtor$0@?0???$_Construct_n@$$V@?$vector@PEAUVkCommandBuffer_T@@V?$allocator@PEAUVkCommandBuffer_T@@@std@@@std@@AEAAX_K@Z@4HA DD 031001H
	DD	0700c4210H
	DD	0500bH
xdata	ENDS
;	COMDAT xdata
xdata	SEGMENT
$ip2state$??$_Construct_n@$$V@?$vector@PEAUVkCommandBuffer_T@@V?$allocator@PEAUVkCommandBuffer_T@@@std@@@std@@AEAAX_K@Z DB 0aH
	DB	00H
	DB	00H
	DB	'M', 02H
	DB	02H
	DB	'V'
	DB	04H
	DB	'V'
	DB	02H
	DB	'2'
	DB	00H
xdata	ENDS
;	COMDAT xdata
xdata	SEGMENT
$stateUnwindMap$??$_Construct_n@$$V@?$vector@PEAUVkCommandBuffer_T@@V?$allocator@PEAUVkCommandBuffer_T@@@std@@@std@@AEAAX_K@Z DB 04H
	DB	0eH
	DD	imagerel ?dtor$0@?0???$_Construct_n@$$V@?$vector@PEAUVkCommandBuffer_T@@V?$allocator@PEAUVkCommandBuffer_T@@@std@@@std@@AEAAX_K@Z@4HA
	DB	02eH
	DD	imagerel ?dtor$1@?0???$_Construct_n@$$V@?$vector@PEAUVkCommandBuffer_T@@V?$allocator@PEAUVkCommandBuffer_T@@@std@@@std@@AEAAX_K@Z@4HA
xdata	ENDS
;	COMDAT xdata
xdata	SEGMENT
$cppxdata$??$_Construct_n@$$V@?$vector@PEAUVkCommandBuffer_T@@V?$allocator@PEAUVkCommandBuffer_T@@@std@@@std@@AEAAX_K@Z DB 028H
	DD	imagerel $stateUnwindMap$??$_Construct_n@$$V@?$vector@PEAUVkCommandBuffer_T@@V?$allocator@PEAUVkCommandBuffer_T@@@std@@@std@@AEAAX_K@Z
	DD	imagerel $ip2state$??$_Construct_n@$$V@?$vector@PEAUVkCommandBuffer_T@@V?$allocator@PEAUVkCommandBuffer_T@@@std@@@std@@AEAAX_K@Z
xdata	ENDS
;	COMDAT xdata
xdata	SEGMENT
$unwind$??$_Construct_n@$$V@?$vector@PEAUVkCommandBuffer_T@@V?$allocator@PEAUVkCommandBuffer_T@@@std@@@std@@AEAAX_K@Z DD 025054219H
	DD	01132318H
	DD	0700c0037H
	DD	0500bH
	DD	imagerel __GSHandlerCheck_EH4
	DD	imagerel $cppxdata$??$_Construct_n@$$V@?$vector@PEAUVkCommandBuffer_T@@V?$allocator@PEAUVkCommandBuffer_T@@@std@@@std@@AEAAX_K@Z
	DD	01aaH
xdata	ENDS
;	COMDAT CONST
CONST	SEGMENT
??$_Construct_n@$$V@?$vector@PEAUVkCommandBuffer_T@@V?$allocator@PEAUVkCommandBuffer_T@@@std@@@std@@AEAAX_K@Z$rtcName$0 DB 024H ; std::vector<VkCommandBuffer_T *,std::allocator<VkCommandBuffer_T *> >::_Construct_n<>
	DB	053H
	DB	032H
	DB	030H
	DB	00H
	ORG $+3
??$_Construct_n@$$V@?$vector@PEAUVkCommandBuffer_T@@V?$allocator@PEAUVkCommandBuffer_T@@@std@@@std@@AEAAX_K@Z$rtcName$1 DB 05fH ; std::vector<VkCommandBuffer_T *,std::allocator<VkCommandBuffer_T *> >::_Construct_n<>
	DB	050H
	DB	072H
	DB	06fH
	DB	078H
	DB	079H
	DB	00H
	ORG $+1
??$_Construct_n@$$V@?$vector@PEAUVkCommandBuffer_T@@V?$allocator@PEAUVkCommandBuffer_T@@@std@@@std@@AEAAX_K@Z$rtcName$2 DB 05fH ; std::vector<VkCommandBuffer_T *,std::allocator<VkCommandBuffer_T *> >::_Construct_n<>
	DB	047H
	DB	075H
	DB	061H
	DB	072H
	DB	064H
	DB	00H
	ORG $+1
??$_Construct_n@$$V@?$vector@PEAUVkCommandBuffer_T@@V?$allocator@PEAUVkCommandBuffer_T@@@std@@@std@@AEAAX_K@Z$rtcFrameData DD 03H ; std::vector<VkCommandBuffer_T *,std::allocator<VkCommandBuffer_T *> >::_Construct_n<>
	DD	00H
	DQ	FLAT:??$_Construct_n@$$V@?$vector@PEAUVkCommandBuffer_T@@V?$allocator@PEAUVkCommandBuffer_T@@@std@@@std@@AEAAX_K@Z$rtcVarDesc
	ORG $+8
??$_Construct_n@$$V@?$vector@PEAUVkCommandBuffer_T@@V?$allocator@PEAUVkCommandBuffer_T@@@std@@@std@@AEAAX_K@Z$rtcVarDesc DD 0d8H ; std::vector<VkCommandBuffer_T *,std::allocator<VkCommandBuffer_T *> >::_Construct_n<>
	DD	08H
	DQ	FLAT:??$_Construct_n@$$V@?$vector@PEAUVkCommandBuffer_T@@V?$allocator@PEAUVkCommandBuffer_T@@@std@@@std@@AEAAX_K@Z$rtcName$2
	DD	0a8H
	DD	010H
	DQ	FLAT:??$_Construct_n@$$V@?$vector@PEAUVkCommandBuffer_T@@V?$allocator@PEAUVkCommandBuffer_T@@@std@@@std@@AEAAX_K@Z$rtcName$1
	DD	064H
	DD	01H
	DQ	FLAT:??$_Construct_n@$$V@?$vector@PEAUVkCommandBuffer_T@@V?$allocator@PEAUVkCommandBuffer_T@@@std@@@std@@AEAAX_K@Z$rtcName$0
CONST	ENDS
;	COMDAT xdata
xdata	SEGMENT
$unwind$??$?0AEBV?$allocator@PEAUVkCommandBuffer_T@@@std@@$$V@?$_Compressed_pair@V?$allocator@PEAUVkCommandBuffer_T@@@std@@V?$_Vector_val@U?$_Simple_types@PEAUVkCommandBuffer_T@@@std@@@2@$00@std@@QEAA@U_One_then_variadic_args_t@1@AEBV?$allocator@PEAUVkCommandBuffer_T@@@1@@Z DD 025051c01H
	DD	0117231cH
	DD	07010001dH
	DD	0500fH
xdata	ENDS
;	COMDAT xdata
xdata	SEGMENT
$unwind$??$?0PEAUVkCommandBuffer_T@@@?$allocator@U_Container_proxy@std@@@std@@QEAA@AEBV?$allocator@PEAUVkCommandBuffer_T@@@1@@Z DD 025051801H
	DD	01132318H
	DD	0700c001dH
	DD	0500bH
xdata	ENDS
;	COMDAT xdata
xdata	SEGMENT
$unwind$??$_Unfancy_maybe_null@PEAUVkCommandBuffer_T@@@std@@YAPEAPEAUVkCommandBuffer_T@@PEAPEAU1@@Z DD 025051301H
	DD	010e2313H
	DD	07007001dH
	DD	05006H
xdata	ENDS
;	COMDAT xdata
xdata	SEGMENT
$unwind$?__autoclassinit2@?$vector@UVkVertexInputAttributeDescription@@V?$allocator@UVkVertexInputAttributeDescription@@@std@@@std@@QEAAX_K@Z DD 05051601H
	DD	01130316H
	DD	0700c0019H
	DD	0500bH
xdata	ENDS
;	COMDAT xdata
xdata	SEGMENT
$unwind$?_Get_first@?$_Compressed_pair@V?$allocator@UVkVertexInputAttributeDescription@@@std@@V?$_Vector_val@U?$_Simple_types@UVkVertexInputAttributeDescription@@@std@@@2@$00@std@@QEAAAEAV?$allocator@UVkVertexInputAttributeDescription@@@2@XZ DD 025051301H
	DD	010e2313H
	DD	07007001dH
	DD	05006H
xdata	ENDS
;	COMDAT xdata
xdata	SEGMENT
$unwind$?_Getal@?$vector@UVkVertexInputAttributeDescription@@V?$allocator@UVkVertexInputAttributeDescription@@@std@@@std@@AEAAAEAV?$allocator@UVkVertexInputAttributeDescription@@@2@XZ DD 025051301H
	DD	010e2313H
	DD	07007001dH
	DD	05006H
xdata	ENDS
;	COMDAT xdata
xdata	SEGMENT
$ip2state$?_Tidy@?$vector@UVkVertexInputAttributeDescription@@V?$allocator@UVkVertexInputAttributeDescription@@@std@@@std@@AEAAXXZ DB 02H
	DB	00H
	DB	00H
xdata	ENDS
;	COMDAT xdata
xdata	SEGMENT
$cppxdata$?_Tidy@?$vector@UVkVertexInputAttributeDescription@@V?$allocator@UVkVertexInputAttributeDescription@@@std@@@std@@AEAAXXZ DB 060H
	DD	imagerel $ip2state$?_Tidy@?$vector@UVkVertexInputAttributeDescription@@V?$allocator@UVkVertexInputAttributeDescription@@@std@@@std@@AEAAXXZ
xdata	ENDS
;	COMDAT xdata
xdata	SEGMENT
$unwind$?_Tidy@?$vector@UVkVertexInputAttributeDescription@@V?$allocator@UVkVertexInputAttributeDescription@@@std@@@std@@AEAAXXZ DD 025051319H
	DD	010e2313H
	DD	070070031H
	DD	05006H
	DD	imagerel __CxxFrameHandler4
	DD	imagerel $cppxdata$?_Tidy@?$vector@UVkVertexInputAttributeDescription@@V?$allocator@UVkVertexInputAttributeDescription@@@std@@@std@@AEAAXXZ
xdata	ENDS
;	COMDAT xdata
xdata	SEGMENT
$unwind$?size@?$vector@UVkVertexInputAttributeDescription@@V?$allocator@UVkVertexInputAttributeDescription@@@std@@@std@@QEBA_KXZ DD 025051301H
	DD	010e2313H
	DD	070070021H
	DD	05006H
xdata	ENDS
;	COMDAT xdata
xdata	SEGMENT
$unwind$?data@?$vector@UVkVertexInputAttributeDescription@@V?$allocator@UVkVertexInputAttributeDescription@@@std@@@std@@QEAAPEAUVkVertexInputAttributeDescription@@XZ DD 025051301H
	DD	010e2313H
	DD	07007001dH
	DD	05006H
xdata	ENDS
;	COMDAT voltbl
voltbl	SEGMENT
_volmd	DB	036H
	DB	0b2H
voltbl	ENDS
;	COMDAT xdata
xdata	SEGMENT
$unwind$??1?$vector@UVkVertexInputAttributeDescription@@V?$allocator@UVkVertexInputAttributeDescription@@@std@@@std@@QEAA@XZ DD 025053d19H
	DD	010e2313H
	DD	070070029H
	DD	05006H
	DD	imagerel __GSHandlerCheck
	DD	0138H
xdata	ENDS
;	COMDAT CONST
CONST	SEGMENT
??1?$vector@UVkVertexInputAttributeDescription@@V?$allocator@UVkVertexInputAttributeDescription@@@std@@@std@@QEAA@XZ$rtcName$0 DB 024H ; std::vector<VkVertexInputAttributeDescription,std::allocator<VkVertexInputAttributeDescription> >::~vector<VkVertexInputAttributeDescription,std::allocator<VkVertexInputAttributeDescription> >
	DB	053H
	DB	031H
	DB	036H
	DB	00H
	ORG $+11
??1?$vector@UVkVertexInputAttributeDescription@@V?$allocator@UVkVertexInputAttributeDescription@@@std@@@std@@QEAA@XZ$rtcVarDesc DD 044H ; std::vector<VkVertexInputAttributeDescription,std::allocator<VkVertexInputAttributeDescription> >::~vector<VkVertexInputAttributeDescription,std::allocator<VkVertexInputAttributeDescription> >
	DD	01H
	DQ	FLAT:??1?$vector@UVkVertexInputAttributeDescription@@V?$allocator@UVkVertexInputAttributeDescription@@@std@@@std@@QEAA@XZ$rtcName$0
	ORG $+48
??1?$vector@UVkVertexInputAttributeDescription@@V?$allocator@UVkVertexInputAttributeDescription@@@std@@@std@@QEAA@XZ$rtcFrameData DD 01H ; std::vector<VkVertexInputAttributeDescription,std::allocator<VkVertexInputAttributeDescription> >::~vector<VkVertexInputAttributeDescription,std::allocator<VkVertexInputAttributeDescription> >
	DD	00H
	DQ	FLAT:??1?$vector@UVkVertexInputAttributeDescription@@V?$allocator@UVkVertexInputAttributeDescription@@@std@@@std@@QEAA@XZ$rtcVarDesc
CONST	ENDS
;	COMDAT xdata
xdata	SEGMENT
$unwind$?deallocate@?$allocator@UVkVertexInputAttributeDescription@@@std@@QEAAXQEAUVkVertexInputAttributeDescription@@_K@Z DD 035051d01H
	DD	0118331dH
	DD	07011001fH
	DD	05010H
xdata	ENDS
;	COMDAT xdata
xdata	SEGMENT
$unwind$??$_Alloc_proxy@V?$allocator@U_Container_proxy@std@@@std@@@_Container_base12@std@@QEAAX$$QEAV?$allocator@U_Container_proxy@std@@@1@@Z DD 025051801H
	DD	01132318H
	DD	0700c0025H
	DD	0500bH
xdata	ENDS
;	COMDAT xdata
xdata	SEGMENT
$unwind$??$?0$$V@?$_Compressed_pair@V?$allocator@UVertex2DRGB@cow@@@std@@V?$_Vector_val@U?$_Simple_types@UVertex2DRGB@cow@@@std@@@2@$00@std@@QEAA@U_Zero_then_variadic_args_t@1@@Z DD 025051701H
	DD	01122317H
	DD	0700b001dH
	DD	0500aH
xdata	ENDS
;	COMDAT xdata
xdata	SEGMENT
$unwind$??$_Delete_plain_internal@V?$allocator@U_Container_proxy@std@@@std@@@std@@YAXAEAV?$allocator@U_Container_proxy@std@@@0@QEAU_Container_proxy@0@@Z DD 025051801H
	DD	01132318H
	DD	0700c001dH
	DD	0500bH
xdata	ENDS
;	COMDAT xdata
xdata	SEGMENT
$unwind$??$exchange@PEAU_Container_proxy@std@@$$T@std@@YAPEAU_Container_proxy@0@AEAPEAU10@$$QEA$$T@Z DD 025051801H
	DD	01132318H
	DD	0700c0021H
	DD	0500bH
xdata	ENDS
;	COMDAT xdata
xdata	SEGMENT
$unwind$??$?0UVertex2DRGB@cow@@@?$allocator@U_Container_proxy@std@@@std@@QEAA@AEBV?$allocator@UVertex2DRGB@cow@@@1@@Z DD 025051801H
	DD	01132318H
	DD	0700c001dH
	DD	0500bH
xdata	ENDS
;	COMDAT xdata
xdata	SEGMENT
$unwind$?allocate@?$allocator@U_Container_proxy@std@@@std@@QEAAPEAU_Container_proxy@2@_K@Z DD 025051801H
	DD	01132318H
	DD	0700c001dH
	DD	0500bH
xdata	ENDS
;	COMDAT xdata
xdata	SEGMENT
$unwind$?deallocate@?$allocator@U_Container_proxy@std@@@std@@QEAAXQEAU_Container_proxy@2@_K@Z DD 035051d01H
	DD	0118331dH
	DD	07011001fH
	DD	05010H
xdata	ENDS
;	COMDAT xdata
xdata	SEGMENT
$unwind$??$_Emplace_one_at_back@UVertex2DRGB@cow@@@?$vector@UVertex2DRGB@cow@@V?$allocator@UVertex2DRGB@cow@@@std@@@std@@AEAAAEAUVertex2DRGB@cow@@$$QEAU23@@Z DD 025051801H
	DD	01132318H
	DD	0700c0027H
	DD	0500bH
xdata	ENDS
;	COMDAT xdata
xdata	SEGMENT
$unwind$??$forward@UVertex2DRGB@cow@@@std@@YA$$QEAUVertex2DRGB@cow@@AEAU12@@Z DD 025051301H
	DD	010e2313H
	DD	07007001dH
	DD	05006H
xdata	ENDS
;	COMDAT xdata
xdata	SEGMENT
$unwind$??$emplace_back@UVertex2DRGB@cow@@@?$vector@UVertex2DRGB@cow@@V?$allocator@UVertex2DRGB@cow@@@std@@@std@@QEAA?A_T$$QEAUVertex2DRGB@cow@@@Z DD 025051801H
	DD	01132318H
	DD	0700c0021H
	DD	0500bH
xdata	ENDS
;	COMDAT xdata
xdata	SEGMENT
$unwind$??$move@AEAUVertex2DRGB@cow@@@std@@YA$$QEAUVertex2DRGB@cow@@AEAU12@@Z DD 025051301H
	DD	010e2313H
	DD	07007001dH
	DD	05006H
xdata	ENDS
;	COMDAT xdata
xdata	SEGMENT
$unwind$??$_Unfancy_maybe_null@UVertex2DRGB@cow@@@std@@YAPEAUVertex2DRGB@cow@@PEAU12@@Z DD 025051301H
	DD	010e2313H
	DD	07007001dH
	DD	05006H
xdata	ENDS
;	COMDAT xdata
xdata	SEGMENT
$unwind$??$?0NNN@?$vec@$02M$0A@@glm@@QEAA@NNN@Z DD 025052501H
	DD	01202325H
	DD	07019001dH
	DD	05018H
xdata	ENDS
;	COMDAT xdata
xdata	SEGMENT
$unwind$??$?0NN@?$vec@$01M$0A@@glm@@QEAA@NN@Z DD 025051f01H
	DD	011a231fH
	DD	07013001dH
	DD	05012H
xdata	ENDS
;	COMDAT xdata
xdata	SEGMENT
$unwind$?__autoclassinit2@?$vector@UVertex2DRGB@cow@@V?$allocator@UVertex2DRGB@cow@@@std@@@std@@QEAAX_K@Z DD 05051601H
	DD	01130316H
	DD	0700c0019H
	DD	0500bH
xdata	ENDS
;	COMDAT xdata
xdata	SEGMENT
$unwind$?_Get_first@?$_Compressed_pair@V?$allocator@UVertex2DRGB@cow@@@std@@V?$_Vector_val@U?$_Simple_types@UVertex2DRGB@cow@@@std@@@2@$00@std@@QEBAAEBV?$allocator@UVertex2DRGB@cow@@@2@XZ DD 025051301H
	DD	010e2313H
	DD	07007001dH
	DD	05006H
xdata	ENDS
;	COMDAT xdata
xdata	SEGMENT
$unwind$?_Get_first@?$_Compressed_pair@V?$allocator@UVertex2DRGB@cow@@@std@@V?$_Vector_val@U?$_Simple_types@UVertex2DRGB@cow@@@std@@@2@$00@std@@QEAAAEAV?$allocator@UVertex2DRGB@cow@@@2@XZ DD 025051301H
	DD	010e2313H
	DD	07007001dH
	DD	05006H
xdata	ENDS
;	COMDAT xdata
xdata	SEGMENT
$unwind$??0?$_Vector_val@U?$_Simple_types@UVertex2DRGB@cow@@@std@@@std@@QEAA@XZ DD 025051301H
	DD	010e2313H
	DD	07007001dH
	DD	05006H
xdata	ENDS
;	COMDAT xdata
xdata	SEGMENT
$unwind$?_Getal@?$vector@UVertex2DRGB@cow@@V?$allocator@UVertex2DRGB@cow@@@std@@@std@@AEBAAEBV?$allocator@UVertex2DRGB@cow@@@2@XZ DD 025051301H
	DD	010e2313H
	DD	07007001dH
	DD	05006H
xdata	ENDS
;	COMDAT xdata
xdata	SEGMENT
$unwind$?_Getal@?$vector@UVertex2DRGB@cow@@V?$allocator@UVertex2DRGB@cow@@@std@@@std@@AEAAAEAV?$allocator@UVertex2DRGB@cow@@@2@XZ DD 025051301H
	DD	010e2313H
	DD	07007001dH
	DD	05006H
xdata	ENDS
;	COMDAT xdata
xdata	SEGMENT
$unwind$?_Orphan_range@?$vector@UVertex2DRGB@cow@@V?$allocator@UVertex2DRGB@cow@@@std@@@std@@AEBAXPEAUVertex2DRGB@cow@@0@Z DD 025051d01H
	DD	0118231dH
	DD	07011001dH
	DD	05010H
xdata	ENDS
;	COMDAT voltbl
voltbl	SEGMENT
_volmd	DB	00H
	DB	05H
voltbl	ENDS
;	COMDAT voltbl
voltbl	SEGMENT
_volmd	DB	040H
	DB	098H
voltbl	ENDS
;	COMDAT xdata
xdata	SEGMENT
$unwind$?dtor$0@?0??_Orphan_range_locked@?$vector@UVertex2DRGB@cow@@V?$allocator@UVertex2DRGB@cow@@@std@@@std@@AEBAXPEAUVertex2DRGB@cow@@0@Z@4HA DD 031001H
	DD	0700c4210H
	DD	0500bH
xdata	ENDS
;	COMDAT xdata
xdata	SEGMENT
$ip2state$?_Orphan_range_locked@?$vector@UVertex2DRGB@cow@@V?$allocator@UVertex2DRGB@cow@@@std@@@std@@AEBAXPEAUVertex2DRGB@cow@@0@Z DB 06H
	DB	00H
	DB	00H
	DB	0c6H
	DB	02H
	DB	'6'
	DB	00H
xdata	ENDS
;	COMDAT xdata
xdata	SEGMENT
$stateUnwindMap$?_Orphan_range_locked@?$vector@UVertex2DRGB@cow@@V?$allocator@UVertex2DRGB@cow@@@std@@@std@@AEBAXPEAUVertex2DRGB@cow@@0@Z DB 02H
	DB	0eH
	DD	imagerel ?dtor$0@?0??_Orphan_range_locked@?$vector@UVertex2DRGB@cow@@V?$allocator@UVertex2DRGB@cow@@@std@@@std@@AEBAXPEAUVertex2DRGB@cow@@0@Z@4HA
xdata	ENDS
;	COMDAT xdata
xdata	SEGMENT
$cppxdata$?_Orphan_range_locked@?$vector@UVertex2DRGB@cow@@V?$allocator@UVertex2DRGB@cow@@@std@@@std@@AEBAXPEAUVertex2DRGB@cow@@0@Z DB 028H
	DD	imagerel $stateUnwindMap$?_Orphan_range_locked@?$vector@UVertex2DRGB@cow@@V?$allocator@UVertex2DRGB@cow@@@std@@@std@@AEBAXPEAUVertex2DRGB@cow@@0@Z
	DD	imagerel $ip2state$?_Orphan_range_locked@?$vector@UVertex2DRGB@cow@@V?$allocator@UVertex2DRGB@cow@@@std@@@std@@AEBAXPEAUVertex2DRGB@cow@@0@Z
xdata	ENDS
;	COMDAT xdata
xdata	SEGMENT
$unwind$?_Orphan_range_locked@?$vector@UVertex2DRGB@cow@@V?$allocator@UVertex2DRGB@cow@@@std@@@std@@AEBAXPEAUVertex2DRGB@cow@@0@Z DD 025054719H
	DD	0118231dH
	DD	070110021H
	DD	05010H
	DD	imagerel __GSHandlerCheck_EH4
	DD	imagerel $cppxdata$?_Orphan_range_locked@?$vector@UVertex2DRGB@cow@@V?$allocator@UVertex2DRGB@cow@@@std@@@std@@AEBAXPEAUVertex2DRGB@cow@@0@Z
	DD	0faH
xdata	ENDS
;	COMDAT CONST
CONST	SEGMENT
?_Orphan_range_locked@?$vector@UVertex2DRGB@cow@@V?$allocator@UVertex2DRGB@cow@@@std@@@std@@AEBAXPEAUVertex2DRGB@cow@@0@Z$rtcName$0 DB 05fH ; std::vector<cow::Vertex2DRGB,std::allocator<cow::Vertex2DRGB> >::_Orphan_range_locked
	DB	04cH
	DB	06fH
	DB	063H
	DB	06bH
	DB	00H
	ORG $+10
?_Orphan_range_locked@?$vector@UVertex2DRGB@cow@@V?$allocator@UVertex2DRGB@cow@@@std@@@std@@AEBAXPEAUVertex2DRGB@cow@@0@Z$rtcVarDesc DD 024H ; std::vector<cow::Vertex2DRGB,std::allocator<cow::Vertex2DRGB> >::_Orphan_range_locked
	DD	04H
	DQ	FLAT:?_Orphan_range_locked@?$vector@UVertex2DRGB@cow@@V?$allocator@UVertex2DRGB@cow@@@std@@@std@@AEBAXPEAUVertex2DRGB@cow@@0@Z$rtcName$0
	ORG $+48
?_Orphan_range_locked@?$vector@UVertex2DRGB@cow@@V?$allocator@UVertex2DRGB@cow@@@std@@@std@@AEBAXPEAUVertex2DRGB@cow@@0@Z$rtcFrameData DD 01H ; std::vector<cow::Vertex2DRGB,std::allocator<cow::Vertex2DRGB> >::_Orphan_range_locked
	DD	00H
	DQ	FLAT:?_Orphan_range_locked@?$vector@UVertex2DRGB@cow@@V?$allocator@UVertex2DRGB@cow@@@std@@@std@@AEBAXPEAUVertex2DRGB@cow@@0@Z$rtcVarDesc
CONST	ENDS
;	COMDAT xdata
xdata	SEGMENT
$unwind$?_Orphan_range_unlocked@?$vector@UVertex2DRGB@cow@@V?$allocator@UVertex2DRGB@cow@@@std@@@std@@AEBAXPEAUVertex2DRGB@cow@@0@Z DD 025051d01H
	DD	0118231dH
	DD	07011002dH
	DD	05010H
xdata	ENDS
;	COMDAT xdata
xdata	SEGMENT
$unwind$?_Xlength@?$vector@UVertex2DRGB@cow@@V?$allocator@UVertex2DRGB@cow@@@std@@@std@@CAXXZ DD 025050f01H
	DD	010a230fH
	DD	07003001dH
	DD	05002H
xdata	ENDS
;	COMDAT xdata
xdata	SEGMENT
$ip2state$?_Tidy@?$vector@UVertex2DRGB@cow@@V?$allocator@UVertex2DRGB@cow@@@std@@@std@@AEAAXXZ DB 02H
	DB	00H
	DB	00H
xdata	ENDS
;	COMDAT xdata
xdata	SEGMENT
$cppxdata$?_Tidy@?$vector@UVertex2DRGB@cow@@V?$allocator@UVertex2DRGB@cow@@@std@@@std@@AEAAXXZ DB 060H
	DD	imagerel $ip2state$?_Tidy@?$vector@UVertex2DRGB@cow@@V?$allocator@UVertex2DRGB@cow@@@std@@@std@@AEAAXXZ
xdata	ENDS
;	COMDAT xdata
xdata	SEGMENT
$unwind$?_Tidy@?$vector@UVertex2DRGB@cow@@V?$allocator@UVertex2DRGB@cow@@@std@@@std@@AEAAXXZ DD 025051319H
	DD	010e2313H
	DD	070070031H
	DD	05006H
	DD	imagerel __CxxFrameHandler4
	DD	imagerel $cppxdata$?_Tidy@?$vector@UVertex2DRGB@cow@@V?$allocator@UVertex2DRGB@cow@@@std@@@std@@AEAAXXZ
xdata	ENDS
;	COMDAT xdata
xdata	SEGMENT
$unwind$?_Change_array@?$vector@UVertex2DRGB@cow@@V?$allocator@UVertex2DRGB@cow@@@std@@@std@@AEAAXQEAUVertex2DRGB@cow@@_K1@Z DD 025052201H
	DD	011d2322H
	DD	070160031H
	DD	05015H
xdata	ENDS
;	COMDAT xdata
xdata	SEGMENT
$unwind$?_Calculate_growth@?$vector@UVertex2DRGB@cow@@V?$allocator@UVertex2DRGB@cow@@@std@@@std@@AEBA_K_K@Z DD 025051801H
	DD	01132318H
	DD	0700c0029H
	DD	0500bH
xdata	ENDS
;	COMDAT xdata
xdata	SEGMENT
$unwind$?capacity@?$vector@UVertex2DRGB@cow@@V?$allocator@UVertex2DRGB@cow@@@std@@@std@@QEBA_KXZ DD 025051301H
	DD	010e2313H
	DD	070070021H
	DD	05006H
xdata	ENDS
;	COMDAT xdata
xdata	SEGMENT
$unwind$?max_size@?$vector@UVertex2DRGB@cow@@V?$allocator@UVertex2DRGB@cow@@@std@@@std@@QEBA_KXZ DD 025051301H
	DD	010e2313H
	DD	070070025H
	DD	05006H
xdata	ENDS
;	COMDAT xdata
xdata	SEGMENT
$unwind$?size@?$vector@UVertex2DRGB@cow@@V?$allocator@UVertex2DRGB@cow@@@std@@@std@@QEBA_KXZ DD 025051301H
	DD	010e2313H
	DD	070070021H
	DD	05006H
xdata	ENDS
;	COMDAT xdata
xdata	SEGMENT
$unwind$?data@?$vector@UVertex2DRGB@cow@@V?$allocator@UVertex2DRGB@cow@@@std@@@std@@QEAAPEAUVertex2DRGB@cow@@XZ DD 025051301H
	DD	010e2313H
	DD	07007001dH
	DD	05006H
xdata	ENDS
;	COMDAT xdata
xdata	SEGMENT
$unwind$?push_back@?$vector@UVertex2DRGB@cow@@V?$allocator@UVertex2DRGB@cow@@@std@@@std@@QEAAX$$QEAUVertex2DRGB@cow@@@Z DD 025051801H
	DD	01132318H
	DD	0700c001dH
	DD	0500bH
xdata	ENDS
;	COMDAT voltbl
voltbl	SEGMENT
_volmd	DB	036H
	DB	0b2H
voltbl	ENDS
;	COMDAT xdata
xdata	SEGMENT
$unwind$??1?$vector@UVertex2DRGB@cow@@V?$allocator@UVertex2DRGB@cow@@@std@@@std@@QEAA@XZ DD 025053d19H
	DD	010e2313H
	DD	070070029H
	DD	05006H
	DD	imagerel __GSHandlerCheck
	DD	0138H
xdata	ENDS
;	COMDAT CONST
CONST	SEGMENT
??1?$vector@UVertex2DRGB@cow@@V?$allocator@UVertex2DRGB@cow@@@std@@@std@@QEAA@XZ$rtcName$0 DB 024H ; std::vector<cow::Vertex2DRGB,std::allocator<cow::Vertex2DRGB> >::~vector<cow::Vertex2DRGB,std::allocator<cow::Vertex2DRGB> >
	DB	053H
	DB	031H
	DB	00H
	ORG $+12
??1?$vector@UVertex2DRGB@cow@@V?$allocator@UVertex2DRGB@cow@@@std@@@std@@QEAA@XZ$rtcVarDesc DD 044H ; std::vector<cow::Vertex2DRGB,std::allocator<cow::Vertex2DRGB> >::~vector<cow::Vertex2DRGB,std::allocator<cow::Vertex2DRGB> >
	DD	01H
	DQ	FLAT:??1?$vector@UVertex2DRGB@cow@@V?$allocator@UVertex2DRGB@cow@@@std@@@std@@QEAA@XZ$rtcName$0
	ORG $+48
??1?$vector@UVertex2DRGB@cow@@V?$allocator@UVertex2DRGB@cow@@@std@@@std@@QEAA@XZ$rtcFrameData DD 01H ; std::vector<cow::Vertex2DRGB,std::allocator<cow::Vertex2DRGB> >::~vector<cow::Vertex2DRGB,std::allocator<cow::Vertex2DRGB> >
	DD	00H
	DQ	FLAT:??1?$vector@UVertex2DRGB@cow@@V?$allocator@UVertex2DRGB@cow@@@std@@@std@@QEAA@XZ$rtcVarDesc
CONST	ENDS
;	COMDAT xdata
xdata	SEGMENT
$ip2state$??0?$vector@UVertex2DRGB@cow@@V?$allocator@UVertex2DRGB@cow@@@std@@@std@@QEAA@XZ DB 02H
	DB	00H
	DB	00H
xdata	ENDS
;	COMDAT xdata
xdata	SEGMENT
$cppxdata$??0?$vector@UVertex2DRGB@cow@@V?$allocator@UVertex2DRGB@cow@@@std@@@std@@QEAA@XZ DB 060H
	DD	imagerel $ip2state$??0?$vector@UVertex2DRGB@cow@@V?$allocator@UVertex2DRGB@cow@@@std@@@std@@QEAA@XZ
xdata	ENDS
;	COMDAT xdata
xdata	SEGMENT
$unwind$??0?$vector@UVertex2DRGB@cow@@V?$allocator@UVertex2DRGB@cow@@@std@@@std@@QEAA@XZ DD 025051319H
	DD	010e2313H
	DD	070070025H
	DD	05006H
	DD	imagerel __CxxFrameHandler4
	DD	imagerel $cppxdata$??0?$vector@UVertex2DRGB@cow@@V?$allocator@UVertex2DRGB@cow@@@std@@@std@@QEAA@XZ
xdata	ENDS
;	COMDAT xdata
xdata	SEGMENT
$unwind$?max_size@?$_Default_allocator_traits@V?$allocator@UVertex2DRGB@cow@@@std@@@std@@SA_KAEBV?$allocator@UVertex2DRGB@cow@@@2@@Z DD 025051301H
	DD	010e2313H
	DD	07007001dH
	DD	05006H
xdata	ENDS
;	COMDAT xdata
xdata	SEGMENT
$unwind$?allocate@?$allocator@UVertex2DRGB@cow@@@std@@QEAAPEAUVertex2DRGB@cow@@_K@Z DD 025051801H
	DD	01132318H
	DD	0700c001dH
	DD	0500bH
xdata	ENDS
;	COMDAT xdata
xdata	SEGMENT
$unwind$?deallocate@?$allocator@UVertex2DRGB@cow@@@std@@QEAAXQEAUVertex2DRGB@cow@@_K@Z DD 035051d01H
	DD	0118331dH
	DD	07011001fH
	DD	05010H
xdata	ENDS
;	COMDAT xdata
xdata	SEGMENT
$unwind$??0?$allocator@UVertex2DRGB@cow@@@std@@QEAA@XZ DD 025051301H
	DD	010e2313H
	DD	07007001dH
	DD	05006H
xdata	ENDS
;	COMDAT xdata
xdata	SEGMENT
$unwind$?__autoclassinit2@?$GraphicsPipeline@UVertex2DRGB@cow@@@cow@@QEAAX_K@Z DD 05051601H
	DD	01130316H
	DD	0700c0019H
	DD	0500bH
xdata	ENDS
;	COMDAT xdata
xdata	SEGMENT
$unwind$?bind@?$GraphicsPipeline@UVertex2DRGB@cow@@@cow@@QEAAXPEAUVkCommandBuffer_T@@@Z DD 025051801H
	DD	01132318H
	DD	0700c001dH
	DD	0500bH
xdata	ENDS
;	COMDAT xdata
xdata	SEGMENT
$ip2state$??1?$GraphicsPipeline@UVertex2DRGB@cow@@@cow@@QEAA@XZ DB 02H
	DB	00H
	DB	00H
xdata	ENDS
;	COMDAT xdata
xdata	SEGMENT
$cppxdata$??1?$GraphicsPipeline@UVertex2DRGB@cow@@@cow@@QEAA@XZ DB 060H
	DD	imagerel $ip2state$??1?$GraphicsPipeline@UVertex2DRGB@cow@@@cow@@QEAA@XZ
xdata	ENDS
;	COMDAT xdata
xdata	SEGMENT
$unwind$??1?$GraphicsPipeline@UVertex2DRGB@cow@@@cow@@QEAA@XZ DD 025051319H
	DD	010e2313H
	DD	07007001fH
	DD	05006H
	DD	imagerel __CxxFrameHandler4
	DD	imagerel $cppxdata$??1?$GraphicsPipeline@UVertex2DRGB@cow@@@cow@@QEAA@XZ
xdata	ENDS
;	COMDAT voltbl
voltbl	SEGMENT
_volmd	DB	00H
	DB	05H
voltbl	ENDS
;	COMDAT voltbl
voltbl	SEGMENT
_volmd	DW	041H
	DW	0584H
voltbl	ENDS
;	COMDAT xdata
xdata	SEGMENT
$unwind$?dtor$0@?0???0?$GraphicsPipeline@UVertex2DRGB@cow@@@cow@@QEAA@AEAVDevice@1@PEAUGraphicsPipelineSimpleInfo@1@@Z@4HA DD 031001H
	DD	0700c4210H
	DD	0500bH
xdata	ENDS
;	COMDAT xdata
xdata	SEGMENT
$ip2state$??0?$GraphicsPipeline@UVertex2DRGB@cow@@@cow@@QEAA@AEAVDevice@1@PEAUGraphicsPipelineSimpleInfo@1@@Z DB 06H
	DB	00H
	DB	00H
	DB	'%', 09H
	DB	02H
	DB	'I', 0cH
	DB	00H
xdata	ENDS
;	COMDAT xdata
xdata	SEGMENT
$stateUnwindMap$??0?$GraphicsPipeline@UVertex2DRGB@cow@@@cow@@QEAA@AEAVDevice@1@PEAUGraphicsPipelineSimpleInfo@1@@Z DB 02H
	DB	0eH
	DD	imagerel ?dtor$0@?0???0?$GraphicsPipeline@UVertex2DRGB@cow@@@cow@@QEAA@AEAVDevice@1@PEAUGraphicsPipelineSimpleInfo@1@@Z@4HA
xdata	ENDS
;	COMDAT xdata
xdata	SEGMENT
$cppxdata$??0?$GraphicsPipeline@UVertex2DRGB@cow@@@cow@@QEAA@AEAVDevice@1@PEAUGraphicsPipelineSimpleInfo@1@@Z DB 028H
	DD	imagerel $stateUnwindMap$??0?$GraphicsPipeline@UVertex2DRGB@cow@@@cow@@QEAA@AEAVDevice@1@PEAUGraphicsPipelineSimpleInfo@1@@Z
	DD	imagerel $ip2state$??0?$GraphicsPipeline@UVertex2DRGB@cow@@@cow@@QEAA@AEAVDevice@1@PEAUGraphicsPipelineSimpleInfo@1@@Z
xdata	ENDS
;	COMDAT xdata
xdata	SEGMENT
$unwind$??0?$GraphicsPipeline@UVertex2DRGB@cow@@@cow@@QEAA@AEAVDevice@1@PEAUGraphicsPipelineSimpleInfo@1@@Z DD 035064819H
	DD	0119331eH
	DD	0701200a0H
	DD	050106011H
	DD	imagerel __GSHandlerCheck_EH4
	DD	imagerel $cppxdata$??0?$GraphicsPipeline@UVertex2DRGB@cow@@@cow@@QEAA@AEAVDevice@1@PEAUGraphicsPipelineSimpleInfo@1@@Z
	DD	04faH
xdata	ENDS
;	COMDAT CONST
CONST	SEGMENT
??0?$GraphicsPipeline@UVertex2DRGB@cow@@@cow@@QEAA@AEAVDevice@1@PEAUGraphicsPipelineSimpleInfo@1@@Z$rtcName$0 DB 073H ; cow::GraphicsPipeline<cow::Vertex2DRGB>::GraphicsPipeline<cow::Vertex2DRGB>
	DB	068H
	DB	061H
	DB	064H
	DB	065H
	DB	072H
	DB	053H
	DB	074H
	DB	061H
	DB	067H
	DB	065H
	DB	073H
	DB	00H
	ORG $+3
??0?$GraphicsPipeline@UVertex2DRGB@cow@@@cow@@QEAA@AEAVDevice@1@PEAUGraphicsPipelineSimpleInfo@1@@Z$rtcName$1 DB 062H ; cow::GraphicsPipeline<cow::Vertex2DRGB>::GraphicsPipeline<cow::Vertex2DRGB>
	DB	069H
	DB	06eH
	DB	064H
	DB	044H
	DB	065H
	DB	073H
	DB	063H
	DB	00H
	ORG $+7
??0?$GraphicsPipeline@UVertex2DRGB@cow@@@cow@@QEAA@AEAVDevice@1@PEAUGraphicsPipelineSimpleInfo@1@@Z$rtcName$2 DB 061H ; cow::GraphicsPipeline<cow::Vertex2DRGB>::GraphicsPipeline<cow::Vertex2DRGB>
	DB	074H
	DB	074H
	DB	072H
	DB	044H
	DB	065H
	DB	073H
	DB	063H
	DB	00H
	ORG $+7
??0?$GraphicsPipeline@UVertex2DRGB@cow@@@cow@@QEAA@AEAVDevice@1@PEAUGraphicsPipelineSimpleInfo@1@@Z$rtcName$3 DB 076H ; cow::GraphicsPipeline<cow::Vertex2DRGB>::GraphicsPipeline<cow::Vertex2DRGB>
	DB	065H
	DB	072H
	DB	074H
	DB	065H
	DB	078H
	DB	049H
	DB	06eH
	DB	070H
	DB	075H
	DB	074H
	DB	049H
	DB	06eH
	DB	066H
	DB	06fH
	DB	00H
??0?$GraphicsPipeline@UVertex2DRGB@cow@@@cow@@QEAA@AEAVDevice@1@PEAUGraphicsPipelineSimpleInfo@1@@Z$rtcName$4 DB 069H ; cow::GraphicsPipeline<cow::Vertex2DRGB>::GraphicsPipeline<cow::Vertex2DRGB>
	DB	06eH
	DB	070H
	DB	075H
	DB	074H
	DB	041H
	DB	073H
	DB	073H
	DB	065H
	DB	06dH
	DB	062H
	DB	06cH
	DB	079H
	DB	049H
	DB	06eH
	DB	066H
	DB	06fH
	DB	00H
	ORG $+6
??0?$GraphicsPipeline@UVertex2DRGB@cow@@@cow@@QEAA@AEAVDevice@1@PEAUGraphicsPipelineSimpleInfo@1@@Z$rtcName$5 DB 076H ; cow::GraphicsPipeline<cow::Vertex2DRGB>::GraphicsPipeline<cow::Vertex2DRGB>
	DB	069H
	DB	065H
	DB	077H
	DB	070H
	DB	06fH
	DB	072H
	DB	074H
	DB	049H
	DB	06eH
	DB	066H
	DB	06fH
	DB	00H
	ORG $+3
??0?$GraphicsPipeline@UVertex2DRGB@cow@@@cow@@QEAA@AEAVDevice@1@PEAUGraphicsPipelineSimpleInfo@1@@Z$rtcName$6 DB 072H ; cow::GraphicsPipeline<cow::Vertex2DRGB>::GraphicsPipeline<cow::Vertex2DRGB>
	DB	061H
	DB	073H
	DB	074H
	DB	065H
	DB	072H
	DB	069H
	DB	07aH
	DB	061H
	DB	074H
	DB	069H
	DB	06fH
	DB	06eH
	DB	049H
	DB	06eH
	DB	066H
	DB	06fH
	DB	00H
	ORG $+6
??0?$GraphicsPipeline@UVertex2DRGB@cow@@@cow@@QEAA@AEAVDevice@1@PEAUGraphicsPipelineSimpleInfo@1@@Z$rtcName$7 DB 063H ; cow::GraphicsPipeline<cow::Vertex2DRGB>::GraphicsPipeline<cow::Vertex2DRGB>
	DB	072H
	DB	065H
	DB	061H
	DB	074H
	DB	065H
	DB	049H
	DB	06eH
	DB	066H
	DB	06fH
	DB	00H
	ORG $+5
??0?$GraphicsPipeline@UVertex2DRGB@cow@@@cow@@QEAA@AEAVDevice@1@PEAUGraphicsPipelineSimpleInfo@1@@Z$rtcVarDesc DD 0270H ; cow::GraphicsPipeline<cow::Vertex2DRGB>::GraphicsPipeline<cow::Vertex2DRGB>
	DD	090H
	DQ	FLAT:??0?$GraphicsPipeline@UVertex2DRGB@cow@@@cow@@QEAA@AEAVDevice@1@PEAUGraphicsPipelineSimpleInfo@1@@Z$rtcName$7
	DD	0210H
	DD	040H
	DQ	FLAT:??0?$GraphicsPipeline@UVertex2DRGB@cow@@@cow@@QEAA@AEAVDevice@1@PEAUGraphicsPipelineSimpleInfo@1@@Z$rtcName$6
	DD	01b8H
	DD	030H
	DQ	FLAT:??0?$GraphicsPipeline@UVertex2DRGB@cow@@@cow@@QEAA@AEAVDevice@1@PEAUGraphicsPipelineSimpleInfo@1@@Z$rtcName$5
	DD	0178H
	DD	020H
	DQ	FLAT:??0?$GraphicsPipeline@UVertex2DRGB@cow@@@cow@@QEAA@AEAVDevice@1@PEAUGraphicsPipelineSimpleInfo@1@@Z$rtcName$4
	DD	0128H
	DD	030H
	DQ	FLAT:??0?$GraphicsPipeline@UVertex2DRGB@cow@@@cow@@QEAA@AEAVDevice@1@PEAUGraphicsPipelineSimpleInfo@1@@Z$rtcName$3
	DD	0e8H
	DD	020H
	DQ	FLAT:??0?$GraphicsPipeline@UVertex2DRGB@cow@@@cow@@QEAA@AEAVDevice@1@PEAUGraphicsPipelineSimpleInfo@1@@Z$rtcName$2
	DD	0b8H
	DD	0cH
	DQ	FLAT:??0?$GraphicsPipeline@UVertex2DRGB@cow@@@cow@@QEAA@AEAVDevice@1@PEAUGraphicsPipelineSimpleInfo@1@@Z$rtcName$1
	DD	040H
	DD	060H
	DQ	FLAT:??0?$GraphicsPipeline@UVertex2DRGB@cow@@@cow@@QEAA@AEAVDevice@1@PEAUGraphicsPipelineSimpleInfo@1@@Z$rtcName$0
	ORG $+384
??0?$GraphicsPipeline@UVertex2DRGB@cow@@@cow@@QEAA@AEAVDevice@1@PEAUGraphicsPipelineSimpleInfo@1@@Z$rtcFrameData DD 08H ; cow::GraphicsPipeline<cow::Vertex2DRGB>::GraphicsPipeline<cow::Vertex2DRGB>
	DD	00H
	DQ	FLAT:??0?$GraphicsPipeline@UVertex2DRGB@cow@@@cow@@QEAA@AEAVDevice@1@PEAUGraphicsPipelineSimpleInfo@1@@Z$rtcVarDesc
CONST	ENDS
;	COMDAT voltbl
voltbl	SEGMENT
_volmd	DB	00H
	DB	05H
voltbl	ENDS
;	COMDAT voltbl
voltbl	SEGMENT
_volmd	DB	00H
	DB	05H
voltbl	ENDS
;	COMDAT voltbl
voltbl	SEGMENT
_volmd	DW	03bH
	DW	044dH
voltbl	ENDS
;	COMDAT xdata
xdata	SEGMENT
$unwind$?catch$1@?0???$?6U?$char_traits@D@std@@@std@@YAAEAV?$basic_ostream@DU?$char_traits@D@std@@@0@AEAV10@PEBD@Z@4HA DD 031001H
	DD	0700c4210H
	DD	0500bH
xdata	ENDS
;	COMDAT xdata
xdata	SEGMENT
$unwind$?dtor$0@?0???$?6U?$char_traits@D@std@@@std@@YAAEAV?$basic_ostream@DU?$char_traits@D@std@@@0@AEAV10@PEBD@Z@4HA DD 031001H
	DD	0700c4210H
	DD	0500bH
xdata	ENDS
;	COMDAT xdata
xdata	SEGMENT
$ip2state$??$?6U?$char_traits@D@std@@@std@@YAAEAV?$basic_ostream@DU?$char_traits@D@std@@@0@AEAV10@PEBD@Z DB 0aH
	DB	00H
	DB	00H
	DB	'A', 04H
	DB	02H
	DB	'<'
	DB	04H
	DB	0d1H, 0aH
	DB	02H
	DB	08aH
	DB	00H
xdata	ENDS
;	COMDAT xdata
xdata	SEGMENT
$handlerMap$??$?6U?$char_traits@D@std@@@std@@YAAEAV?$basic_ostream@DU?$char_traits@D@std@@@0@AEAV10@PEBD@Z DB 02H
	DB	01H
	DB	080H
	DD	imagerel ?catch$1@?0???$?6U?$char_traits@D@std@@@std@@YAAEAV?$basic_ostream@DU?$char_traits@D@std@@@0@AEAV10@PEBD@Z@4HA
xdata	ENDS
;	COMDAT xdata
xdata	SEGMENT
$tryMap$??$?6U?$char_traits@D@std@@@std@@YAAEAV?$basic_ostream@DU?$char_traits@D@std@@@0@AEAV10@PEBD@Z DB 02H
	DB	02H
	DB	02H
	DB	04H
	DD	imagerel $handlerMap$??$?6U?$char_traits@D@std@@@std@@YAAEAV?$basic_ostream@DU?$char_traits@D@std@@@0@AEAV10@PEBD@Z
xdata	ENDS
;	COMDAT xdata
xdata	SEGMENT
$stateUnwindMap$??$?6U?$char_traits@D@std@@@std@@YAAEAV?$basic_ostream@DU?$char_traits@D@std@@@0@AEAV10@PEBD@Z DB 06H
	DB	0eH
	DD	imagerel ?dtor$0@?0???$?6U?$char_traits@D@std@@@std@@YAAEAV?$basic_ostream@DU?$char_traits@D@std@@@0@AEAV10@PEBD@Z@4HA
	DB	028H
	DB	030H
xdata	ENDS
;	COMDAT xdata
xdata	SEGMENT
$cppxdata$??$?6U?$char_traits@D@std@@@std@@YAAEAV?$basic_ostream@DU?$char_traits@D@std@@@0@AEAV10@PEBD@Z DB 038H
	DD	imagerel $stateUnwindMap$??$?6U?$char_traits@D@std@@@std@@YAAEAV?$basic_ostream@DU?$char_traits@D@std@@@0@AEAV10@PEBD@Z
	DD	imagerel $tryMap$??$?6U?$char_traits@D@std@@@std@@YAAEAV?$basic_ostream@DU?$char_traits@D@std@@@0@AEAV10@PEBD@Z
	DD	imagerel $ip2state$??$?6U?$char_traits@D@std@@@std@@YAAEAV?$basic_ostream@DU?$char_traits@D@std@@@0@AEAV10@PEBD@Z
xdata	ENDS
;	COMDAT xdata
xdata	SEGMENT
$unwind$??$?6U?$char_traits@D@std@@@std@@YAAEAV?$basic_ostream@DU?$char_traits@D@std@@@0@AEAV10@PEBD@Z DD 025054219H
	DD	01132318H
	DD	0700c0047H
	DD	0500bH
	DD	imagerel __GSHandlerCheck_EH4
	DD	imagerel $cppxdata$??$?6U?$char_traits@D@std@@@std@@YAAEAV?$basic_ostream@DU?$char_traits@D@std@@@0@AEAV10@PEBD@Z
	DD	0223H
xdata	ENDS
;	COMDAT CONST
CONST	SEGMENT
??$?6U?$char_traits@D@std@@@std@@YAAEAV?$basic_ostream@DU?$char_traits@D@std@@@0@AEAV10@PEBD@Z$rtcName$0 DB 05fH ; std::operator<<<std::char_traits<char> >
	DB	04fH
	DB	06bH
	DB	00H
	ORG $+12
??$?6U?$char_traits@D@std@@@std@@YAAEAV?$basic_ostream@DU?$char_traits@D@std@@@0@AEAV10@PEBD@Z$rtcVarDesc DD 088H ; std::operator<<<std::char_traits<char> >
	DD	010H
	DQ	FLAT:??$?6U?$char_traits@D@std@@@std@@YAAEAV?$basic_ostream@DU?$char_traits@D@std@@@0@AEAV10@PEBD@Z$rtcName$0
	ORG $+48
??$?6U?$char_traits@D@std@@@std@@YAAEAV?$basic_ostream@DU?$char_traits@D@std@@@0@AEAV10@PEBD@Z$rtcFrameData DD 01H ; std::operator<<<std::char_traits<char> >
	DD	00H
	DQ	FLAT:??$?6U?$char_traits@D@std@@@std@@YAAEAV?$basic_ostream@DU?$char_traits@D@std@@@0@AEAV10@PEBD@Z$rtcVarDesc
CONST	ENDS
;	COMDAT xdata
xdata	SEGMENT
$unwind$?__autoclassinit2@?$vector@PEAUVkCommandBuffer_T@@V?$allocator@PEAUVkCommandBuffer_T@@@std@@@std@@QEAAX_K@Z DD 05051601H
	DD	01130316H
	DD	0700c0019H
	DD	0500bH
xdata	ENDS
;	COMDAT xdata
xdata	SEGMENT
$unwind$?_Get_first@?$_Compressed_pair@V?$allocator@PEAUVkCommandBuffer_T@@@std@@V?$_Vector_val@U?$_Simple_types@PEAUVkCommandBuffer_T@@@std@@@2@$00@std@@QEBAAEBV?$allocator@PEAUVkCommandBuffer_T@@@2@XZ DD 025051301H
	DD	010e2313H
	DD	07007001dH
	DD	05006H
xdata	ENDS
;	COMDAT xdata
xdata	SEGMENT
$unwind$?_Get_first@?$_Compressed_pair@V?$allocator@PEAUVkCommandBuffer_T@@@std@@V?$_Vector_val@U?$_Simple_types@PEAUVkCommandBuffer_T@@@std@@@2@$00@std@@QEAAAEAV?$allocator@PEAUVkCommandBuffer_T@@@2@XZ DD 025051301H
	DD	010e2313H
	DD	07007001dH
	DD	05006H
xdata	ENDS
;	COMDAT xdata
xdata	SEGMENT
$unwind$??0?$_Vector_val@U?$_Simple_types@PEAUVkCommandBuffer_T@@@std@@@std@@QEAA@XZ DD 025051301H
	DD	010e2313H
	DD	07007001dH
	DD	05006H
xdata	ENDS
;	COMDAT xdata
xdata	SEGMENT
$unwind$?_Getal@?$vector@PEAUVkCommandBuffer_T@@V?$allocator@PEAUVkCommandBuffer_T@@@std@@@std@@AEBAAEBV?$allocator@PEAUVkCommandBuffer_T@@@2@XZ DD 025051301H
	DD	010e2313H
	DD	07007001dH
	DD	05006H
xdata	ENDS
;	COMDAT xdata
xdata	SEGMENT
$unwind$?_Getal@?$vector@PEAUVkCommandBuffer_T@@V?$allocator@PEAUVkCommandBuffer_T@@@std@@@std@@AEAAAEAV?$allocator@PEAUVkCommandBuffer_T@@@2@XZ DD 025051301H
	DD	010e2313H
	DD	07007001dH
	DD	05006H
xdata	ENDS
;	COMDAT xdata
xdata	SEGMENT
$unwind$?_Xlength@?$vector@PEAUVkCommandBuffer_T@@V?$allocator@PEAUVkCommandBuffer_T@@@std@@@std@@CAXXZ DD 025050f01H
	DD	010a230fH
	DD	07003001dH
	DD	05002H
xdata	ENDS
;	COMDAT xdata
xdata	SEGMENT
$ip2state$?_Tidy@?$vector@PEAUVkCommandBuffer_T@@V?$allocator@PEAUVkCommandBuffer_T@@@std@@@std@@AEAAXXZ DB 02H
	DB	00H
	DB	00H
xdata	ENDS
;	COMDAT xdata
xdata	SEGMENT
$cppxdata$?_Tidy@?$vector@PEAUVkCommandBuffer_T@@V?$allocator@PEAUVkCommandBuffer_T@@@std@@@std@@AEAAXXZ DB 060H
	DD	imagerel $ip2state$?_Tidy@?$vector@PEAUVkCommandBuffer_T@@V?$allocator@PEAUVkCommandBuffer_T@@@std@@@std@@AEAAXXZ
xdata	ENDS
;	COMDAT xdata
xdata	SEGMENT
$unwind$?_Tidy@?$vector@PEAUVkCommandBuffer_T@@V?$allocator@PEAUVkCommandBuffer_T@@@std@@@std@@AEAAXXZ DD 025051319H
	DD	010e2313H
	DD	070070031H
	DD	05006H
	DD	imagerel __CxxFrameHandler4
	DD	imagerel $cppxdata$?_Tidy@?$vector@PEAUVkCommandBuffer_T@@V?$allocator@PEAUVkCommandBuffer_T@@@std@@@std@@AEAAXXZ
xdata	ENDS
;	COMDAT xdata
xdata	SEGMENT
$unwind$?_Buy_nonzero@?$vector@PEAUVkCommandBuffer_T@@V?$allocator@PEAUVkCommandBuffer_T@@@std@@@std@@AEAAX_K@Z DD 025051801H
	DD	01132318H
	DD	0700c001dH
	DD	0500bH
xdata	ENDS
;	COMDAT xdata
xdata	SEGMENT
$unwind$?_Buy_raw@?$vector@PEAUVkCommandBuffer_T@@V?$allocator@PEAUVkCommandBuffer_T@@@std@@@std@@AEAAX_K@Z DD 025051801H
	DD	01132318H
	DD	0700c0031H
	DD	0500bH
xdata	ENDS
;	COMDAT xdata
xdata	SEGMENT
$unwind$?max_size@?$vector@PEAUVkCommandBuffer_T@@V?$allocator@PEAUVkCommandBuffer_T@@@std@@@std@@QEBA_KXZ DD 025051301H
	DD	010e2313H
	DD	070070025H
	DD	05006H
xdata	ENDS
;	COMDAT xdata
xdata	SEGMENT
$unwind$?size@?$vector@PEAUVkCommandBuffer_T@@V?$allocator@PEAUVkCommandBuffer_T@@@std@@@std@@QEBA_KXZ DD 025051301H
	DD	010e2313H
	DD	070070021H
	DD	05006H
xdata	ENDS
;	COMDAT xdata
xdata	SEGMENT
$unwind$?data@?$vector@PEAUVkCommandBuffer_T@@V?$allocator@PEAUVkCommandBuffer_T@@@std@@@std@@QEAAPEAPEAUVkCommandBuffer_T@@XZ DD 025051301H
	DD	010e2313H
	DD	07007001dH
	DD	05006H
xdata	ENDS
;	COMDAT voltbl
voltbl	SEGMENT
_volmd	DB	036H
	DB	0b2H
voltbl	ENDS
;	COMDAT xdata
xdata	SEGMENT
$unwind$??1?$vector@PEAUVkCommandBuffer_T@@V?$allocator@PEAUVkCommandBuffer_T@@@std@@@std@@QEAA@XZ DD 025053d19H
	DD	010e2313H
	DD	070070029H
	DD	05006H
	DD	imagerel __GSHandlerCheck
	DD	0138H
xdata	ENDS
;	COMDAT CONST
CONST	SEGMENT
??1?$vector@PEAUVkCommandBuffer_T@@V?$allocator@PEAUVkCommandBuffer_T@@@std@@@std@@QEAA@XZ$rtcName$0 DB 024H ; std::vector<VkCommandBuffer_T *,std::allocator<VkCommandBuffer_T *> >::~vector<VkCommandBuffer_T *,std::allocator<VkCommandBuffer_T *> >
	DB	053H
	DB	032H
	DB	00H
	ORG $+12
??1?$vector@PEAUVkCommandBuffer_T@@V?$allocator@PEAUVkCommandBuffer_T@@@std@@@std@@QEAA@XZ$rtcVarDesc DD 044H ; std::vector<VkCommandBuffer_T *,std::allocator<VkCommandBuffer_T *> >::~vector<VkCommandBuffer_T *,std::allocator<VkCommandBuffer_T *> >
	DD	01H
	DQ	FLAT:??1?$vector@PEAUVkCommandBuffer_T@@V?$allocator@PEAUVkCommandBuffer_T@@@std@@@std@@QEAA@XZ$rtcName$0
	ORG $+48
??1?$vector@PEAUVkCommandBuffer_T@@V?$allocator@PEAUVkCommandBuffer_T@@@std@@@std@@QEAA@XZ$rtcFrameData DD 01H ; std::vector<VkCommandBuffer_T *,std::allocator<VkCommandBuffer_T *> >::~vector<VkCommandBuffer_T *,std::allocator<VkCommandBuffer_T *> >
	DD	00H
	DQ	FLAT:??1?$vector@PEAUVkCommandBuffer_T@@V?$allocator@PEAUVkCommandBuffer_T@@@std@@@std@@QEAA@XZ$rtcVarDesc
CONST	ENDS
;	COMDAT xdata
xdata	SEGMENT
$unwind$??0?$vector@PEAUVkCommandBuffer_T@@V?$allocator@PEAUVkCommandBuffer_T@@@std@@@std@@QEAA@_KAEBV?$allocator@PEAUVkCommandBuffer_T@@@1@@Z DD 025051d01H
	DD	0118231dH
	DD	070110021H
	DD	05010H
xdata	ENDS
;	COMDAT xdata
xdata	SEGMENT
$unwind$?max_size@?$_Default_allocator_traits@V?$allocator@PEAUVkCommandBuffer_T@@@std@@@std@@SA_KAEBV?$allocator@PEAUVkCommandBuffer_T@@@2@@Z DD 025051301H
	DD	010e2313H
	DD	07007001dH
	DD	05006H
xdata	ENDS
;	COMDAT xdata
xdata	SEGMENT
$unwind$?allocate@?$allocator@PEAUVkCommandBuffer_T@@@std@@QEAAPEAPEAUVkCommandBuffer_T@@_K@Z DD 025051801H
	DD	01132318H
	DD	0700c001dH
	DD	0500bH
xdata	ENDS
;	COMDAT xdata
xdata	SEGMENT
$unwind$?deallocate@?$allocator@PEAUVkCommandBuffer_T@@@std@@QEAAXQEAPEAUVkCommandBuffer_T@@_K@Z DD 035051d01H
	DD	0118331dH
	DD	07011001fH
	DD	05010H
xdata	ENDS
;	COMDAT xdata
xdata	SEGMENT
$unwind$??0?$allocator@PEAUVkCommandBuffer_T@@@std@@QEAA@XZ DD 025051301H
	DD	010e2313H
	DD	07007001dH
	DD	05006H
xdata	ENDS
;	COMDAT voltbl
voltbl	SEGMENT
_volmd	DB	00H
	DB	05H
voltbl	ENDS
;	COMDAT voltbl
voltbl	SEGMENT
_volmd	DB	00H
	DB	05H
voltbl	ENDS
;	COMDAT voltbl
voltbl	SEGMENT
_volmd	DB	00H
	DB	05H
voltbl	ENDS
;	COMDAT voltbl
voltbl	SEGMENT
_volmd	DB	00H
	DB	05H
voltbl	ENDS
;	COMDAT voltbl
voltbl	SEGMENT
_volmd	DB	00H
	DB	05H
voltbl	ENDS
;	COMDAT voltbl
voltbl	SEGMENT
_volmd	DB	00H
	DB	05H
voltbl	ENDS
;	COMDAT voltbl
voltbl	SEGMENT
_volmd	DB	00H
	DB	05H
voltbl	ENDS
;	COMDAT voltbl
voltbl	SEGMENT
_volmd	DB	00H
	DB	05H
voltbl	ENDS
;	COMDAT voltbl
voltbl	SEGMENT
_volmd	DB	00H
	DB	05H
voltbl	ENDS
;	COMDAT voltbl
voltbl	SEGMENT
_volmd	DW	02bH
	DW	0994H
voltbl	ENDS
;	COMDAT xdata
xdata	SEGMENT
$unwind$main$dtor$9 DD 031001H
	DD	0700c4210H
	DD	0500bH
xdata	ENDS
;	COMDAT xdata
xdata	SEGMENT
$unwind$main$dtor$8 DD 031001H
	DD	0700c4210H
	DD	0500bH
xdata	ENDS
;	COMDAT xdata
xdata	SEGMENT
$unwind$main$dtor$7 DD 031001H
	DD	0700c4210H
	DD	0500bH
xdata	ENDS
;	COMDAT xdata
xdata	SEGMENT
$unwind$main$dtor$6 DD 031001H
	DD	0700c4210H
	DD	0500bH
xdata	ENDS
;	COMDAT xdata
xdata	SEGMENT
$unwind$main$dtor$5 DD 031001H
	DD	0700c4210H
	DD	0500bH
xdata	ENDS
;	COMDAT xdata
xdata	SEGMENT
$unwind$main$dtor$3 DD 031001H
	DD	0700c4210H
	DD	0500bH
xdata	ENDS
;	COMDAT xdata
xdata	SEGMENT
$unwind$main$dtor$2 DD 031001H
	DD	0700c4210H
	DD	0500bH
xdata	ENDS
;	COMDAT xdata
xdata	SEGMENT
$unwind$main$dtor$1 DD 031001H
	DD	0700c4210H
	DD	0500bH
xdata	ENDS
;	COMDAT xdata
xdata	SEGMENT
$unwind$main$dtor$0 DD 031001H
	DD	0700c4210H
	DD	0500bH
xdata	ENDS
;	COMDAT xdata
xdata	SEGMENT
$ip2state$main DB '&'
	DB	00H
	DB	00H
	DB	0d4H
	DB	02H
	DB	0caH
	DB	04H
	DB	'P'
	DB	06H
	DB	'J'
	DB	08H
	DB	'@'
	DB	0aH
	DB	0a1H, 03H
	DB	0cH
	DB	0cdH, 07H
	DB	0eH
	DB	0e9H, 0bH
	DB	010H
	DB	05H, 02H
	DB	012H
	DB	'U', 05H
	DB	010H
	DB	01aH
	DB	0eH
	DB	01aH
	DB	0cH
	DB	'`'
	DB	0aH
	DB	01aH
	DB	08H
	DB	01aH
	DB	06H
	DB	01aH
	DB	04H
	DB	01aH
	DB	02H
	DB	014H
	DB	00H
xdata	ENDS
;	COMDAT xdata
xdata	SEGMENT
$stateUnwindMap$main DB 012H
	DB	0eH
	DD	imagerel main$dtor$0
	DB	02eH
	DD	imagerel main$dtor$1
	DB	02eH
	DD	imagerel main$dtor$2
	DB	02eH
	DD	imagerel main$dtor$3
	DB	02eH
	DD	imagerel main$dtor$5
	DB	02eH
	DD	imagerel main$dtor$6
	DB	02eH
	DD	imagerel main$dtor$7
	DB	02eH
	DD	imagerel main$dtor$8
	DB	02eH
	DD	imagerel main$dtor$9
xdata	ENDS
;	COMDAT xdata
xdata	SEGMENT
$cppxdata$main DB 028H
	DD	imagerel $stateUnwindMap$main
	DD	imagerel $ip2state$main
xdata	ENDS
;	COMDAT xdata
xdata	SEGMENT
$unwind$main DD	035063219H
	DD	010b3310H
	DD	070040180H
	DD	050026003H
	DD	imagerel __GSHandlerCheck_EH4
	DD	imagerel $cppxdata$main
	DD	0bfaH
xdata	ENDS
;	COMDAT CONST
CONST	SEGMENT
main$rtcName$0 DB 063H
	DB	06fH
	DB	06dH
	DB	06dH
	DB	061H
	DB	06eH
	DB	064H
	DB	042H
	DB	075H
	DB	066H
	DB	066H
	DB	065H
	DB	072H
	DB	073H
	DB	00H
	ORG $+1
main$rtcName$1 DB 077H
	DB	069H
	DB	06eH
	DB	064H
	DB	06fH
	DB	077H
	DB	00H
	ORG $+1
main$rtcName$2 DB 064H
	DB	065H
	DB	076H
	DB	069H
	DB	063H
	DB	065H
	DB	00H
	ORG $+1
main$rtcName$3 DB 063H
	DB	06fH
	DB	06dH
	DB	06dH
	DB	061H
	DB	06eH
	DB	064H
	DB	073H
	DB	00H
	ORG $+3
main$rtcName$4 DB 067H
	DB	070H
	DB	073H
	DB	069H
	DB	00H
	ORG $+7
main$rtcName$5 DB 073H
	DB	069H
	DB	06dH
	DB	070H
	DB	06cH
	DB	065H
	DB	049H
	DB	06eH
	DB	066H
	DB	06fH
	DB	00H
	ORG $+5
main$rtcName$6 DB 067H
	DB	072H
	DB	061H
	DB	070H
	DB	068H
	DB	069H
	DB	063H
	DB	073H
	DB	050H
	DB	069H
	DB	070H
	DB	065H
	DB	06cH
	DB	069H
	DB	06eH
	DB	065H
	DB	00H
	ORG $+7
main$rtcName$7 DB 063H
	DB	06dH
	DB	064H
	DB	041H
	DB	06cH
	DB	06cH
	DB	06fH
	DB	063H
	DB	049H
	DB	06eH
	DB	066H
	DB	06fH
	DB	00H
	ORG $+3
main$rtcName$8 DB 076H
	DB	061H
	DB	06cH
	DB	075H
	DB	065H
	DB	00H
	ORG $+2
main$rtcName$9 DB 063H
	DB	06dH
	DB	064H
	DB	042H
	DB	075H
	DB	066H
	DB	066H
	DB	065H
	DB	072H
	DB	00H
	ORG $+6
main$rtcName$10 DB 076H
	DB	065H
	DB	072H
	DB	074H
	DB	069H
	DB	063H
	DB	065H
	DB	073H
	DB	00H
	ORG $+7
main$rtcName$11 DB 073H
	DB	074H
	DB	061H
	DB	067H
	DB	069H
	DB	06eH
	DB	067H
	DB	042H
	DB	075H
	DB	066H
	DB	066H
	DB	065H
	DB	072H
	DB	00H
	ORG $+2
main$rtcName$12 DB 076H
	DB	065H
	DB	072H
	DB	074H
	DB	065H
	DB	078H
	DB	042H
	DB	075H
	DB	066H
	DB	066H
	DB	065H
	DB	072H
	DB	00H
	ORG $+3
main$rtcName$13 DB 070H
	DB	056H
	DB	065H
	DB	072H
	DB	074H
	DB	065H
	DB	078H
	DB	042H
	DB	075H
	DB	066H
	DB	066H
	DB	065H
	DB	072H
	DB	073H
	DB	00H
	ORG $+1
main$rtcName$14 DB 06fH
	DB	066H
	DB	066H
	DB	073H
	DB	065H
	DB	074H
	DB	073H
	DB	00H
main$rtcName$15 DB 069H
	DB	06eH
	DB	064H
	DB	065H
	DB	078H
	DB	00H
	ORG $+2
main$rtcFrameData DD 010H
	DD	00H
	DQ	FLAT:main$rtcVarDesc
	ORG $+8
main$rtcVarDesc DD 05f4H
	DD	04H
	DQ	FLAT:main$rtcName$15
	DD	05d8H
	DD	08H
	DQ	FLAT:main$rtcName$14
	DD	05b8H
	DD	08H
	DQ	FLAT:main$rtcName$13
	DD	0578H
	DD	028H
	DQ	FLAT:main$rtcName$12
	DD	0538H
	DD	028H
	DQ	FLAT:main$rtcName$11
	DD	0458H
	DD	020H
	DQ	FLAT:main$rtcName$10
	DD	0438H
	DD	08H
	DQ	FLAT:main$rtcName$9
	DD	03e8H
	DD	010H
	DQ	FLAT:main$rtcName$8
	DD	0368H
	DD	020H
	DQ	FLAT:main$rtcName$7
	DD	0328H
	DD	020H
	DQ	FLAT:main$rtcName$6
	DD	02c8H
	DD	020H
	DQ	FLAT:main$rtcName$5
	DD	0150H
	DD	0160H
	DQ	FLAT:main$rtcName$4
	DD	0108H
	DD	020H
	DQ	FLAT:main$rtcName$3
	DD	0b0H
	DD	040H
	DQ	FLAT:main$rtcName$2
	DD	078H
	DD	018H
	DQ	FLAT:main$rtcName$1
	DD	038H
	DD	020H
	DQ	FLAT:main$rtcName$0
CONST	ENDS
;	COMDAT xdata
xdata	SEGMENT
$unwind$?lerp@@YAMMMM@Z DD 035052001H
	DD	011b3320H
	DD	07014001fH
	DD	05013H
xdata	ENDS
;	COMDAT xdata
xdata	SEGMENT
$unwind$?__autoclassinit2@GraphicsCommands@cow@@QEAAX_K@Z DD 05051601H
	DD	01130316H
	DD	0700c0019H
	DD	0500bH
xdata	ENDS
;	COMDAT xdata
xdata	SEGMENT
$unwind$??C?$unique_ptr@VSwapchain@cow@@U?$default_delete@VSwapchain@cow@@@std@@@std@@QEBAPEAVSwapchain@cow@@XZ DD 025051301H
	DD	010e2313H
	DD	07007001dH
	DD	05006H
xdata	ENDS
;	COMDAT xdata
xdata	SEGMENT
$unwind$?getCurrentImageIndex@GraphicsCommands@cow@@QEAAIXZ DD 025051301H
	DD	010e2313H
	DD	07007001dH
	DD	05006H
xdata	ENDS
;	COMDAT xdata
xdata	SEGMENT
$unwind$?__autoclassinit2@Buffer@cow@@QEAAX_K@Z DD 05051601H
	DD	01130316H
	DD	0700c0019H
	DD	0500bH
xdata	ENDS
;	COMDAT voltbl
voltbl	SEGMENT
_volmd	DW	03fH
	DW	02bfH
voltbl	ENDS
;	COMDAT xdata
xdata	SEGMENT
$unwind$?createBuffer@Buffer@cow@@AEAAXII@Z DD 025054619H
	DD	0117231cH
	DD	0701000a7H
	DD	0500fH
	DD	imagerel __GSHandlerCheck
	DD	0520H
xdata	ENDS
;	COMDAT CONST
CONST	SEGMENT
?createBuffer@Buffer@cow@@AEAAXII@Z$rtcName$0 DB 063H	; cow::Buffer::createBuffer
	DB	072H
	DB	065H
	DB	061H
	DB	074H
	DB	065H
	DB	049H
	DB	06eH
	DB	066H
	DB	06fH
	DB	00H
	ORG $+5
?createBuffer@Buffer@cow@@AEAAXII@Z$rtcName$1 DB 06dH	; cow::Buffer::createBuffer
	DB	065H
	DB	06dH
	DB	052H
	DB	065H
	DB	071H
	DB	075H
	DB	069H
	DB	072H
	DB	065H
	DB	06dH
	DB	065H
	DB	06eH
	DB	074H
	DB	073H
	DB	00H
?createBuffer@Buffer@cow@@AEAAXII@Z$rtcName$2 DB 061H	; cow::Buffer::createBuffer
	DB	06cH
	DB	06cH
	DB	06fH
	DB	063H
	DB	049H
	DB	06eH
	DB	066H
	DB	06fH
	DB	00H
	ORG $+6
?createBuffer@Buffer@cow@@AEAAXII@Z$rtcName$3 DB 06dH	; cow::Buffer::createBuffer
	DB	065H
	DB	06dH
	DB	050H
	DB	072H
	DB	06fH
	DB	070H
	DB	065H
	DB	072H
	DB	074H
	DB	069H
	DB	065H
	DB	073H
	DB	00H
	ORG $+2
?createBuffer@Buffer@cow@@AEAAXII@Z$rtcVarDesc DD 0f0H	; cow::Buffer::createBuffer
	DD	0208H
	DQ	FLAT:?createBuffer@Buffer@cow@@AEAAXII@Z$rtcName$3
	DD	0a8H
	DD	020H
	DQ	FLAT:?createBuffer@Buffer@cow@@AEAAXII@Z$rtcName$2
	DD	078H
	DD	018H
	DQ	FLAT:?createBuffer@Buffer@cow@@AEAAXII@Z$rtcName$1
	DD	028H
	DD	038H
	DQ	FLAT:?createBuffer@Buffer@cow@@AEAAXII@Z$rtcName$0
	ORG $+192
?createBuffer@Buffer@cow@@AEAAXII@Z$rtcFrameData DD 04H	; cow::Buffer::createBuffer
	DD	00H
	DQ	FLAT:?createBuffer@Buffer@cow@@AEAAXII@Z$rtcVarDesc
CONST	ENDS
;	COMDAT xdata
xdata	SEGMENT
$unwind$?get@Buffer@cow@@QEAAPEAUVkBuffer_T@@XZ DD 025051301H
	DD	010e2313H
	DD	07007001dH
	DD	05006H
xdata	ENDS
;	COMDAT voltbl
voltbl	SEGMENT
_volmd	DW	040H
	DW	0210H
voltbl	ENDS
;	COMDAT xdata
xdata	SEGMENT
$unwind$?copy@Buffer@cow@@QEAAXPEAUVkBuffer_T@@_K@Z DD 035054719H
	DD	0118331dH
	DD	070110049H
	DD	05010H
	DD	imagerel __GSHandlerCheck
	DD	0238H
xdata	ENDS
;	COMDAT CONST
CONST	SEGMENT
?copy@Buffer@cow@@QEAAXPEAUVkBuffer_T@@_K@Z$rtcName$0 DB 061H ; cow::Buffer::copy
	DB	06cH
	DB	06cH
	DB	06fH
	DB	063H
	DB	049H
	DB	06eH
	DB	066H
	DB	06fH
	DB	00H
	ORG $+6
?copy@Buffer@cow@@QEAAXPEAUVkBuffer_T@@_K@Z$rtcName$1 DB 063H ; cow::Buffer::copy
	DB	06fH
	DB	06dH
	DB	06dH
	DB	061H
	DB	06eH
	DB	064H
	DB	042H
	DB	075H
	DB	066H
	DB	066H
	DB	065H
	DB	072H
	DB	00H
	ORG $+2
?copy@Buffer@cow@@QEAAXPEAUVkBuffer_T@@_K@Z$rtcName$2 DB 062H ; cow::Buffer::copy
	DB	065H
	DB	067H
	DB	069H
	DB	06eH
	DB	049H
	DB	06eH
	DB	066H
	DB	06fH
	DB	00H
	ORG $+6
?copy@Buffer@cow@@QEAAXPEAUVkBuffer_T@@_K@Z$rtcName$3 DB 063H ; cow::Buffer::copy
	DB	06fH
	DB	070H
	DB	079H
	DB	052H
	DB	065H
	DB	067H
	DB	069H
	DB	06fH
	DB	06eH
	DB	00H
	ORG $+5
?copy@Buffer@cow@@QEAAXPEAUVkBuffer_T@@_K@Z$rtcName$4 DB 073H ; cow::Buffer::copy
	DB	075H
	DB	062H
	DB	06dH
	DB	069H
	DB	074H
	DB	049H
	DB	06eH
	DB	066H
	DB	06fH
	DB	00H
	ORG $+5
?copy@Buffer@cow@@QEAAXPEAUVkBuffer_T@@_K@Z$rtcVarDesc DD 0110H ; cow::Buffer::copy
	DD	048H
	DQ	FLAT:?copy@Buffer@cow@@QEAAXPEAUVkBuffer_T@@_K@Z$rtcName$4
	DD	0d8H
	DD	018H
	DQ	FLAT:?copy@Buffer@cow@@QEAAXPEAUVkBuffer_T@@_K@Z$rtcName$3
	DD	098H
	DD	020H
	DQ	FLAT:?copy@Buffer@cow@@QEAAXPEAUVkBuffer_T@@_K@Z$rtcName$2
	DD	078H
	DD	08H
	DQ	FLAT:?copy@Buffer@cow@@QEAAXPEAUVkBuffer_T@@_K@Z$rtcName$1
	DD	038H
	DD	020H
	DQ	FLAT:?copy@Buffer@cow@@QEAAXPEAUVkBuffer_T@@_K@Z$rtcName$0
	ORG $+240
?copy@Buffer@cow@@QEAAXPEAUVkBuffer_T@@_K@Z$rtcFrameData DD 05H ; cow::Buffer::copy
	DD	00H
	DQ	FLAT:?copy@Buffer@cow@@QEAAXPEAUVkBuffer_T@@_K@Z$rtcVarDesc
CONST	ENDS
;	COMDAT xdata
xdata	SEGMENT
$unwind$?write@Buffer@cow@@QEAAPEAXPEAX_K1@Z DD 025052201H
	DD	011d2322H
	DD	07016001dH
	DD	05015H
xdata	ENDS
;	COMDAT xdata
xdata	SEGMENT
$unwind$?unmap@Buffer@cow@@QEAAXXZ DD 025051301H
	DD	010e2313H
	DD	07007001fH
	DD	05006H
xdata	ENDS
;	COMDAT xdata
xdata	SEGMENT
$unwind$?map@Buffer@cow@@QEAA?AW4VkResult@@_K0@Z DD 035051d01H
	DD	0118331dH
	DD	070110021H
	DD	05010H
xdata	ENDS
;	COMDAT xdata
xdata	SEGMENT
$ip2state$??1Buffer@cow@@QEAA@XZ DB 02H
	DB	00H
	DB	00H
xdata	ENDS
;	COMDAT xdata
xdata	SEGMENT
$cppxdata$??1Buffer@cow@@QEAA@XZ DB 060H
	DD	imagerel $ip2state$??1Buffer@cow@@QEAA@XZ
xdata	ENDS
;	COMDAT xdata
xdata	SEGMENT
$unwind$??1Buffer@cow@@QEAA@XZ DD 025051319H
	DD	010e2313H
	DD	07007001fH
	DD	05006H
	DD	imagerel __CxxFrameHandler4
	DD	imagerel $cppxdata$??1Buffer@cow@@QEAA@XZ
xdata	ENDS
;	COMDAT xdata
xdata	SEGMENT
$unwind$??0Buffer@cow@@QEAA@AEAVDevice@1@_KII@Z DD 025052201H
	DD	011d2322H
	DD	07016001dH
	DD	05015H
xdata	ENDS
;	COMDAT xdata
xdata	SEGMENT
$unwind$??1GraphicsPipelineSimpleInfo@cow@@QEAA@XZ DD 025051301H
	DD	010e2313H
	DD	07007001dH
	DD	05006H
xdata	ENDS
;	COMDAT xdata
xdata	SEGMENT
$unwind$?_Get_first@?$_Compressed_pair@V?$allocator@W4VkDynamicState@@@std@@V?$_Vector_val@U?$_Simple_types@W4VkDynamicState@@@std@@@2@$00@std@@QEAAAEAV?$allocator@W4VkDynamicState@@@2@XZ DD 025051301H
	DD	010e2313H
	DD	07007001dH
	DD	05006H
xdata	ENDS
;	COMDAT xdata
xdata	SEGMENT
$unwind$??0?$_Vector_val@U?$_Simple_types@W4VkDynamicState@@@std@@@std@@QEAA@XZ DD 025051301H
	DD	010e2313H
	DD	07007001dH
	DD	05006H
xdata	ENDS
;	COMDAT xdata
xdata	SEGMENT
$unwind$?_Getal@?$vector@W4VkDynamicState@@V?$allocator@W4VkDynamicState@@@std@@@std@@AEAAAEAV?$allocator@W4VkDynamicState@@@2@XZ DD 025051301H
	DD	010e2313H
	DD	07007001dH
	DD	05006H
xdata	ENDS
;	COMDAT xdata
xdata	SEGMENT
$ip2state$?_Tidy@?$vector@W4VkDynamicState@@V?$allocator@W4VkDynamicState@@@std@@@std@@AEAAXXZ DB 02H
	DB	00H
	DB	00H
xdata	ENDS
;	COMDAT xdata
xdata	SEGMENT
$cppxdata$?_Tidy@?$vector@W4VkDynamicState@@V?$allocator@W4VkDynamicState@@@std@@@std@@AEAAXXZ DB 060H
	DD	imagerel $ip2state$?_Tidy@?$vector@W4VkDynamicState@@V?$allocator@W4VkDynamicState@@@std@@@std@@AEAAXXZ
xdata	ENDS
;	COMDAT xdata
xdata	SEGMENT
$unwind$?_Tidy@?$vector@W4VkDynamicState@@V?$allocator@W4VkDynamicState@@@std@@@std@@AEAAXXZ DD 025051319H
	DD	010e2313H
	DD	070070031H
	DD	05006H
	DD	imagerel __CxxFrameHandler4
	DD	imagerel $cppxdata$?_Tidy@?$vector@W4VkDynamicState@@V?$allocator@W4VkDynamicState@@@std@@@std@@AEAAXXZ
xdata	ENDS
;	COMDAT voltbl
voltbl	SEGMENT
_volmd	DB	036H
	DB	0b2H
voltbl	ENDS
;	COMDAT xdata
xdata	SEGMENT
$unwind$??1?$vector@W4VkDynamicState@@V?$allocator@W4VkDynamicState@@@std@@@std@@QEAA@XZ DD 025053d19H
	DD	010e2313H
	DD	070070029H
	DD	05006H
	DD	imagerel __GSHandlerCheck
	DD	0138H
xdata	ENDS
;	COMDAT CONST
CONST	SEGMENT
??1?$vector@W4VkDynamicState@@V?$allocator@W4VkDynamicState@@@std@@@std@@QEAA@XZ$rtcName$0 DB 024H ; std::vector<enum VkDynamicState,std::allocator<enum VkDynamicState> >::~vector<enum VkDynamicState,std::allocator<enum VkDynamicState> >
	DB	053H
	DB	033H
	DB	00H
	ORG $+12
??1?$vector@W4VkDynamicState@@V?$allocator@W4VkDynamicState@@@std@@@std@@QEAA@XZ$rtcVarDesc DD 044H ; std::vector<enum VkDynamicState,std::allocator<enum VkDynamicState> >::~vector<enum VkDynamicState,std::allocator<enum VkDynamicState> >
	DD	01H
	DQ	FLAT:??1?$vector@W4VkDynamicState@@V?$allocator@W4VkDynamicState@@@std@@@std@@QEAA@XZ$rtcName$0
	ORG $+48
??1?$vector@W4VkDynamicState@@V?$allocator@W4VkDynamicState@@@std@@@std@@QEAA@XZ$rtcFrameData DD 01H ; std::vector<enum VkDynamicState,std::allocator<enum VkDynamicState> >::~vector<enum VkDynamicState,std::allocator<enum VkDynamicState> >
	DD	00H
	DQ	FLAT:??1?$vector@W4VkDynamicState@@V?$allocator@W4VkDynamicState@@@std@@@std@@QEAA@XZ$rtcVarDesc
CONST	ENDS
;	COMDAT xdata
xdata	SEGMENT
$ip2state$??0?$vector@W4VkDynamicState@@V?$allocator@W4VkDynamicState@@@std@@@std@@QEAA@XZ DB 02H
	DB	00H
	DB	00H
xdata	ENDS
;	COMDAT xdata
xdata	SEGMENT
$cppxdata$??0?$vector@W4VkDynamicState@@V?$allocator@W4VkDynamicState@@@std@@@std@@QEAA@XZ DB 060H
	DD	imagerel $ip2state$??0?$vector@W4VkDynamicState@@V?$allocator@W4VkDynamicState@@@std@@@std@@QEAA@XZ
xdata	ENDS
;	COMDAT xdata
xdata	SEGMENT
$unwind$??0?$vector@W4VkDynamicState@@V?$allocator@W4VkDynamicState@@@std@@@std@@QEAA@XZ DD 025051319H
	DD	010e2313H
	DD	070070025H
	DD	05006H
	DD	imagerel __CxxFrameHandler4
	DD	imagerel $cppxdata$??0?$vector@W4VkDynamicState@@V?$allocator@W4VkDynamicState@@@std@@@std@@QEAA@XZ
xdata	ENDS
;	COMDAT xdata
xdata	SEGMENT
$unwind$?deallocate@?$allocator@W4VkDynamicState@@@std@@QEAAXQEAW4VkDynamicState@@_K@Z DD 035051d01H
	DD	0118331dH
	DD	07011001fH
	DD	05010H
xdata	ENDS
;	COMDAT xdata
xdata	SEGMENT
$unwind$??0?$allocator@W4VkDynamicState@@@std@@QEAA@XZ DD 025051301H
	DD	010e2313H
	DD	07007001dH
	DD	05006H
xdata	ENDS
;	COMDAT xdata
xdata	SEGMENT
$unwind$?getCurrentFrame@Swapchain@cow@@QEBA_KXZ DD 025051301H
	DD	010e2313H
	DD	07007001dH
	DD	05006H
xdata	ENDS
;	COMDAT xdata
xdata	SEGMENT
$unwind$?getRenderPass@Swapchain@cow@@QEBAPEAUVkRenderPass_T@@XZ DD 025051301H
	DD	010e2313H
	DD	07007001dH
	DD	05006H
xdata	ENDS
;	COMDAT xdata
xdata	SEGMENT
$unwind$?__autoclassinit2@Device@cow@@QEAAX_K@Z DD 05051601H
	DD	01130316H
	DD	0700c0019H
	DD	0500bH
xdata	ENDS
;	COMDAT xdata
xdata	SEGMENT
$unwind$?getGraphicsQueue@Device@cow@@QEAAPEAUVkQueue_T@@XZ DD 025051301H
	DD	010e2313H
	DD	07007001dH
	DD	05006H
xdata	ENDS
;	COMDAT xdata
xdata	SEGMENT
$unwind$?getCommandPool@Device@cow@@QEAAPEAUVkCommandPool_T@@XZ DD 025051301H
	DD	010e2313H
	DD	07007001dH
	DD	05006H
xdata	ENDS
;	COMDAT xdata
xdata	SEGMENT
$unwind$?getDevice@Device@cow@@QEAAPEAUVkDevice_T@@XZ DD 025051301H
	DD	010e2313H
	DD	07007001dH
	DD	05006H
xdata	ENDS
;	COMDAT xdata
xdata	SEGMENT
$unwind$?getPhysicalDevice@Device@cow@@QEAAPEAUVkPhysicalDevice_T@@XZ DD 025051301H
	DD	010e2313H
	DD	07007001dH
	DD	05006H
xdata	ENDS
;	COMDAT xdata
xdata	SEGMENT
$unwind$?__autoclassinit2@Window@cow@@QEAAX_K@Z DD 05051601H
	DD	01130316H
	DD	0700c0019H
	DD	0500bH
xdata	ENDS
;	COMDAT xdata
xdata	SEGMENT
$unwind$?shouldClose@Window@cow@@QEBA_NXZ DD 025051301H
	DD	010e2313H
	DD	07007001fH
	DD	05006H
xdata	ENDS
;	COMDAT xdata
xdata	SEGMENT
$unwind$??_Gruntime_error@std@@UEAAPEAXI@Z DD 025051701H
	DD	01122317H
	DD	0700b001dH
	DD	0500aH
xdata	ENDS
;	COMDAT xdata
xdata	SEGMENT
$unwind$??0runtime_error@std@@QEAA@AEBV01@@Z DD 025051801H
	DD	01132318H
	DD	0700c001dH
	DD	0500bH
xdata	ENDS
;	COMDAT xdata
xdata	SEGMENT
$unwind$??1runtime_error@std@@UEAA@XZ DD 025051301H
	DD	010e2313H
	DD	07007001dH
	DD	05006H
xdata	ENDS
;	COMDAT xdata
xdata	SEGMENT
$unwind$??0runtime_error@std@@QEAA@PEBD@Z DD 025051801H
	DD	01132318H
	DD	0700c001dH
	DD	0500bH
xdata	ENDS
;	COMDAT xdata
xdata	SEGMENT
$unwind$?eof@?$_Narrow_char_traits@DH@std@@SAHXZ DD 025050f01H
	DD	010a230fH
	DD	07003001dH
	DD	05002H
xdata	ENDS
;	COMDAT xdata
xdata	SEGMENT
$unwind$?eq_int_type@?$_Narrow_char_traits@DH@std@@SA_NAEBH0@Z DD 025051801H
	DD	01132318H
	DD	0700c001fH
	DD	0500bH
xdata	ENDS
;	COMDAT xdata
xdata	SEGMENT
$unwind$?length@?$_Narrow_char_traits@DH@std@@SA_KQEBD@Z DD 025051301H
	DD	010e2313H
	DD	07007001fH
	DD	05006H
xdata	ENDS
;	COMDAT xdata
xdata	SEGMENT
$unwind$??$_Construct_in_place@U_Container_proxy@std@@PEAU_Container_base12@2@@std@@YAXAEAU_Container_proxy@0@$$QEAPEAU_Container_base12@0@@Z DD 025051801H
	DD	01132318H
	DD	0700c0023H
	DD	0500bH
xdata	ENDS
;	COMDAT xdata
xdata	SEGMENT
$unwind$??$addressof@U_Container_base12@std@@@std@@YAPEAU_Container_base12@0@AEAU10@@Z DD 025051301H
	DD	010e2313H
	DD	07007001dH
	DD	05006H
xdata	ENDS
;	COMDAT xdata
xdata	SEGMENT
$unwind$??0_Basic_container_proxy_ptr12@std@@IEAA@XZ DD 025051301H
	DD	010e2313H
	DD	07007001dH
	DD	05006H
xdata	ENDS
;	COMDAT xdata
xdata	SEGMENT
$unwind$?_Release@_Basic_container_proxy_ptr12@std@@QEAAXXZ DD 025051301H
	DD	010e2313H
	DD	07007001dH
	DD	05006H
xdata	ENDS
;	COMDAT voltbl
voltbl	SEGMENT
_volmd	DB	036H
	DB	07eH
voltbl	ENDS
;	COMDAT xdata
xdata	SEGMENT
$unwind$?_Orphan_all_locked_v3@_Container_base12@std@@AEAAXXZ DD 025053d19H
	DD	010e2313H
	DD	070070021H
	DD	05006H
	DD	imagerel __GSHandlerCheck
	DD	0f8H
xdata	ENDS
;	COMDAT CONST
CONST	SEGMENT
?_Orphan_all_locked_v3@_Container_base12@std@@AEAAXXZ$rtcName$0 DB 05fH ; std::_Container_base12::_Orphan_all_locked_v3
	DB	04cH
	DB	06fH
	DB	063H
	DB	06bH
	DB	00H
	ORG $+10
?_Orphan_all_locked_v3@_Container_base12@std@@AEAAXXZ$rtcVarDesc DD 024H ; std::_Container_base12::_Orphan_all_locked_v3
	DD	04H
	DQ	FLAT:?_Orphan_all_locked_v3@_Container_base12@std@@AEAAXXZ$rtcName$0
	ORG $+48
?_Orphan_all_locked_v3@_Container_base12@std@@AEAAXXZ$rtcFrameData DD 01H ; std::_Container_base12::_Orphan_all_locked_v3
	DD	00H
	DQ	FLAT:?_Orphan_all_locked_v3@_Container_base12@std@@AEAAXXZ$rtcVarDesc
CONST	ENDS
;	COMDAT xdata
xdata	SEGMENT
$unwind$?_Orphan_all_unlocked_v3@_Container_base12@std@@AEAAXXZ DD 025051301H
	DD	010e2313H
	DD	070070021H
	DD	05006H
xdata	ENDS
;	COMDAT xdata
xdata	SEGMENT
$unwind$?_Orphan_all@_Container_base12@std@@QEAAXXZ DD 025051301H
	DD	010e2313H
	DD	07007001dH
	DD	05006H
xdata	ENDS
;	COMDAT xdata
xdata	SEGMENT
$unwind$??0_Container_base12@std@@QEAA@XZ DD 025051301H
	DD	010e2313H
	DD	07007001dH
	DD	05006H
xdata	ENDS
;	COMDAT xdata
xdata	SEGMENT
$unwind$??0_Container_proxy@std@@QEAA@PEAU_Container_base12@1@@Z DD 025051801H
	DD	01132318H
	DD	0700c001dH
	DD	0500bH
xdata	ENDS
;	COMDAT xdata
xdata	SEGMENT
$unwind$?_Adjust_manually_vector_aligned@std@@YAXAEAPEAXAEA_K@Z DD 035051801H
	DD	01133318H
	DD	0700c002fH
	DD	0500bH
xdata	ENDS
;	COMDAT xdata
xdata	SEGMENT
$unwind$?_Allocate@_Default_allocate_traits@std@@SAPEAX_K@Z DD 025051301H
	DD	010e2313H
	DD	07007001dH
	DD	05006H
xdata	ENDS
;	COMDAT xdata
xdata	SEGMENT
$unwind$?_Throw_bad_array_new_length@std@@YAXXZ DD 025050f01H
	DD	010a230fH
	DD	070030023H
	DD	05002H
xdata	ENDS
;	COMDAT xdata
xdata	SEGMENT
$unwind$??_Gbad_array_new_length@std@@UEAAPEAXI@Z DD 025051701H
	DD	01122317H
	DD	0700b001dH
	DD	0500aH
xdata	ENDS
;	COMDAT xdata
xdata	SEGMENT
$unwind$??0bad_array_new_length@std@@QEAA@AEBV01@@Z DD 025051801H
	DD	01132318H
	DD	0700c001dH
	DD	0500bH
xdata	ENDS
;	COMDAT xdata
xdata	SEGMENT
$unwind$??1bad_array_new_length@std@@UEAA@XZ DD 025051301H
	DD	010e2313H
	DD	07007001dH
	DD	05006H
xdata	ENDS
;	COMDAT xdata
xdata	SEGMENT
$unwind$??0bad_array_new_length@std@@QEAA@XZ DD 025051301H
	DD	010e2313H
	DD	07007001dH
	DD	05006H
xdata	ENDS
;	COMDAT xdata
xdata	SEGMENT
$unwind$??_Gbad_alloc@std@@UEAAPEAXI@Z DD 025051701H
	DD	01122317H
	DD	0700b001dH
	DD	0500aH
xdata	ENDS
;	COMDAT xdata
xdata	SEGMENT
$unwind$??0bad_alloc@std@@QEAA@AEBV01@@Z DD 025051801H
	DD	01132318H
	DD	0700c001dH
	DD	0500bH
xdata	ENDS
;	COMDAT xdata
xdata	SEGMENT
$unwind$??1bad_alloc@std@@UEAA@XZ DD 025051301H
	DD	010e2313H
	DD	07007001dH
	DD	05006H
xdata	ENDS
;	COMDAT xdata
xdata	SEGMENT
$unwind$??0bad_alloc@std@@AEAA@QEBD@Z DD 025051801H
	DD	01132318H
	DD	0700c001dH
	DD	0500bH
xdata	ENDS
;	COMDAT xdata
xdata	SEGMENT
$unwind$??_Gexception@std@@UEAAPEAXI@Z DD 025051701H
	DD	01122317H
	DD	0700b001dH
	DD	0500aH
xdata	ENDS
;	COMDAT xdata
xdata	SEGMENT
$unwind$?what@exception@std@@UEBAPEBDXZ DD 025051301H
	DD	010e2313H
	DD	07007001fH
	DD	05006H
xdata	ENDS
;	COMDAT xdata
xdata	SEGMENT
$unwind$??1exception@std@@UEAA@XZ DD 025051301H
	DD	010e2313H
	DD	07007001dH
	DD	05006H
xdata	ENDS
;	COMDAT xdata
xdata	SEGMENT
$unwind$??0exception@std@@QEAA@AEBV01@@Z DD 025051801H
	DD	01132318H
	DD	0700c001dH
	DD	0500bH
xdata	ENDS
;	COMDAT xdata
xdata	SEGMENT
$unwind$??0exception@std@@QEAA@QEBDH@Z DD 025051d01H
	DD	0118231dH
	DD	07011001dH
	DD	05010H
xdata	ENDS
;	COMDAT voltbl
voltbl	SEGMENT
_volmd	DB	03bH
	DB	0b9H
voltbl	ENDS
;	COMDAT xdata
xdata	SEGMENT
$unwind$??0exception@std@@QEAA@QEBD@Z DD 025054219H
	DD	01132318H
	DD	0700c0023H
	DD	0500bH
	DD	imagerel __GSHandlerCheck
	DD	0108H
xdata	ENDS
;	COMDAT CONST
CONST	SEGMENT
??0exception@std@@QEAA@QEBD@Z$rtcName$0 DB 05fH		; std::exception::exception
	DB	049H
	DB	06eH
	DB	069H
	DB	074H
	DB	044H
	DB	061H
	DB	074H
	DB	061H
	DB	00H
	ORG $+6
??0exception@std@@QEAA@QEBD@Z$rtcVarDesc DD 028H	; std::exception::exception
	DD	010H
	DQ	FLAT:??0exception@std@@QEAA@QEBD@Z$rtcName$0
	ORG $+48
??0exception@std@@QEAA@QEBD@Z$rtcFrameData DD 01H	; std::exception::exception
	DD	00H
	DQ	FLAT:??0exception@std@@QEAA@QEBD@Z$rtcVarDesc
CONST	ENDS
;	COMDAT xdata
xdata	SEGMENT
$unwind$?max@?$numeric_limits@_J@std@@SA_JXZ DD 025050f01H
	DD	010a230fH
	DD	07003001dH
	DD	05002H
xdata	ENDS
;	COMDAT xdata
xdata	SEGMENT
$unwind$?is_constant_evaluated@std@@YA_NXZ DD 025050f01H
	DD	010a230fH
	DD	07003001dH
	DD	05002H
xdata	ENDS
;	COMDAT xdata
xdata	SEGMENT
$unwind$??2@YAPEAX_KPEAX@Z DD 025051801H
	DD	01132318H
	DD	0700c001dH
	DD	0500bH
xdata	ENDS
;	COMDAT xdata
xdata	SEGMENT
$unwind$?__empty_global_delete@@YAXPEAX_KW4align_val_t@std@@@Z DD 025051d01H
	DD	0118231dH
	DD	07011001dH
	DD	05010H
xdata	ENDS
;	COMDAT xdata
xdata	SEGMENT
$unwind$?__empty_global_delete@@YAXPEAXW4align_val_t@std@@@Z DD 025051801H
	DD	01132318H
	DD	0700c001dH
	DD	0500bH
xdata	ENDS
;	COMDAT xdata
xdata	SEGMENT
$unwind$?__empty_global_delete@@YAXPEAX_K@Z DD 025051801H
	DD	01132318H
	DD	0700c001dH
	DD	0500bH
xdata	ENDS
;	COMDAT xdata
xdata	SEGMENT
$unwind$?__empty_global_delete@@YAXPEAX@Z DD 025051301H
	DD	010e2313H
	DD	07007001dH
	DD	05006H
xdata	ENDS
; Function compile flags: /Odt
;	COMDAT __JustMyCode_Default
_TEXT	SEGMENT
__JustMyCode_Default PROC				; COMDAT
	ret	0
__JustMyCode_Default ENDP
_TEXT	ENDS
; Function compile flags: /Odtp /RTCsu /ZI
;	COMDAT ??$_Voidify_iter@PEAPEAUVkCommandBuffer_T@@@std@@YAPEAXPEAPEAUVkCommandBuffer_T@@@Z
_TEXT	SEGMENT
_It$ = 224
??$_Voidify_iter@PEAPEAUVkCommandBuffer_T@@@std@@YAPEAXPEAPEAUVkCommandBuffer_T@@@Z PROC ; std::_Voidify_iter<VkCommandBuffer_T * *>, COMDAT
; File C:\Program Files\Microsoft Visual Studio\2022\Community\VC\Tools\MSVC\14.32.31326\include\xutility
; Line 123
$LN3:
	mov	QWORD PTR [rsp+8], rcx
	push	rbp
	push	rdi
	sub	rsp, 232				; 000000e8H
	lea	rbp, QWORD PTR [rsp+32]
	lea	rcx, OFFSET FLAT:__7DA7D514_xutility
	call	__CheckForDebuggerJustMyCode
; Line 125
	mov	rax, QWORD PTR _It$[rbp]
; Line 129
	lea	rsp, QWORD PTR [rbp+200]
	pop	rdi
	pop	rbp
	ret	0
??$_Voidify_iter@PEAPEAUVkCommandBuffer_T@@@std@@YAPEAXPEAPEAUVkCommandBuffer_T@@@Z ENDP ; std::_Voidify_iter<VkCommandBuffer_T * *>
_TEXT	ENDS
; Function compile flags: /Odtp /RTCsu /ZI
;	COMDAT ??$construct_at@PEAUVkCommandBuffer_T@@$$VX@std@@YAPEAPEAUVkCommandBuffer_T@@QEAPEAU1@@Z
_TEXT	SEGMENT
$T1 = 200
$T2 = 232
tv74 = 248
tv72 = 256
_Location$ = 304
??$construct_at@PEAUVkCommandBuffer_T@@$$VX@std@@YAPEAPEAUVkCommandBuffer_T@@QEAPEAU1@@Z PROC ; std::construct_at<VkCommandBuffer_T *,void>, COMDAT
; File C:\Program Files\Microsoft Visual Studio\2022\Community\VC\Tools\MSVC\14.32.31326\include\xutility
; Line 135
$LN3:
	mov	QWORD PTR [rsp+8], rcx
	push	rbp
	push	rdi
	sub	rsp, 312				; 00000138H
	lea	rbp, QWORD PTR [rsp+32]
	lea	rcx, OFFSET FLAT:__7DA7D514_xutility
	call	__CheckForDebuggerJustMyCode
; Line 136
	mov	QWORD PTR $T1[rbp], 8
	mov	rcx, QWORD PTR _Location$[rbp]
	call	??$_Voidify_iter@PEAPEAUVkCommandBuffer_T@@@std@@YAPEAXPEAPEAUVkCommandBuffer_T@@@Z ; std::_Voidify_iter<VkCommandBuffer_T * *>
	mov	QWORD PTR tv74[rbp], rax
	mov	rax, QWORD PTR $T1[rbp]
	mov	QWORD PTR tv72[rbp], rax
	mov	rdx, QWORD PTR tv74[rbp]
	mov	rcx, QWORD PTR tv72[rbp]
	call	??2@YAPEAX_KPEAX@Z			; operator new
	mov	QWORD PTR $T2[rbp], rax
	mov	rdi, QWORD PTR $T2[rbp]
	xor	eax, eax
	mov	rcx, QWORD PTR $T1[rbp]
	rep stosb
	mov	rax, QWORD PTR $T2[rbp]
; Line 137
	lea	rsp, QWORD PTR [rbp+280]
	pop	rdi
	pop	rbp
	ret	0
??$construct_at@PEAUVkCommandBuffer_T@@$$VX@std@@YAPEAPEAUVkCommandBuffer_T@@QEAPEAU1@@Z ENDP ; std::construct_at<VkCommandBuffer_T *,void>
_TEXT	ENDS
; Function compile flags: /Odtp /RTCsu /ZI
;	COMDAT ??$to_address@UVertex2DRGB@cow@@@std@@YAPEAUVertex2DRGB@cow@@QEAU12@@Z
_TEXT	SEGMENT
_Val$ = 224
??$to_address@UVertex2DRGB@cow@@@std@@YAPEAUVertex2DRGB@cow@@QEAU12@@Z PROC ; std::to_address<cow::Vertex2DRGB>, COMDAT
; File C:\Program Files\Microsoft Visual Studio\2022\Community\VC\Tools\MSVC\14.32.31326\include\xutility
; Line 207
$LN3:
	mov	QWORD PTR [rsp+8], rcx
	push	rbp
	push	rdi
	sub	rsp, 232				; 000000e8H
	lea	rbp, QWORD PTR [rsp+32]
	lea	rcx, OFFSET FLAT:__7DA7D514_xutility
	call	__CheckForDebuggerJustMyCode
; Line 210
	mov	rax, QWORD PTR _Val$[rbp]
; Line 211
	lea	rsp, QWORD PTR [rbp+200]
	pop	rdi
	pop	rbp
	ret	0
??$to_address@UVertex2DRGB@cow@@@std@@YAPEAUVertex2DRGB@cow@@QEAU12@@Z ENDP ; std::to_address<cow::Vertex2DRGB>
_TEXT	ENDS
; Function compile flags: /Odtp /RTCsu /ZI
;	COMDAT ??$_To_address@PEAUVertex2DRGB@cow@@@std@@YA?A_PAEBQEAUVertex2DRGB@cow@@@Z
_TEXT	SEGMENT
_Val$ = 224
??$_To_address@PEAUVertex2DRGB@cow@@@std@@YA?A_PAEBQEAUVertex2DRGB@cow@@@Z PROC ; std::_To_address<cow::Vertex2DRGB *>, COMDAT
; File C:\Program Files\Microsoft Visual Studio\2022\Community\VC\Tools\MSVC\14.32.31326\include\xutility
; Line 3936
$LN3:
	mov	QWORD PTR [rsp+8], rcx
	push	rbp
	push	rdi
	sub	rsp, 232				; 000000e8H
	lea	rbp, QWORD PTR [rsp+32]
	lea	rcx, OFFSET FLAT:__7DA7D514_xutility
	call	__CheckForDebuggerJustMyCode
; Line 3938
	mov	rax, QWORD PTR _Val$[rbp]
	mov	rcx, QWORD PTR [rax]
	call	??$to_address@UVertex2DRGB@cow@@@std@@YAPEAUVertex2DRGB@cow@@QEAU12@@Z ; std::to_address<cow::Vertex2DRGB>
; Line 3939
	lea	rsp, QWORD PTR [rbp+200]
	pop	rdi
	pop	rbp
	ret	0
??$_To_address@PEAUVertex2DRGB@cow@@@std@@YA?A_PAEBQEAUVertex2DRGB@cow@@@Z ENDP ; std::_To_address<cow::Vertex2DRGB *>
_TEXT	ENDS
; Function compile flags: /Odtp /RTCsu /ZI
;	COMDAT ??$construct@PEAUVkCommandBuffer_T@@$$V@?$_Default_allocator_traits@V?$allocator@PEAUVkCommandBuffer_T@@@std@@@std@@SAXAEAV?$allocator@PEAUVkCommandBuffer_T@@@1@QEAPEAUVkCommandBuffer_T@@@Z
_TEXT	SEGMENT
$T1 = 200
$T2 = 232
tv78 = 248
tv76 = 256
__formal$ = 304
_Ptr$ = 312
??$construct@PEAUVkCommandBuffer_T@@$$V@?$_Default_allocator_traits@V?$allocator@PEAUVkCommandBuffer_T@@@std@@@std@@SAXAEAV?$allocator@PEAUVkCommandBuffer_T@@@1@QEAPEAUVkCommandBuffer_T@@@Z PROC ; std::_Default_allocator_traits<std::allocator<VkCommandBuffer_T *> >::construct<VkCommandBuffer_T *>, COMDAT
; File C:\Program Files\Microsoft Visual Studio\2022\Community\VC\Tools\MSVC\14.32.31326\include\xmemory
; Line 673
$LN5:
	mov	QWORD PTR [rsp+16], rdx
	mov	QWORD PTR [rsp+8], rcx
	push	rbp
	push	rdi
	sub	rsp, 312				; 00000138H
	lea	rbp, QWORD PTR [rsp+32]
	lea	rcx, OFFSET FLAT:__48ED051B_xmemory
	call	__CheckForDebuggerJustMyCode
; Line 675
	call	?is_constant_evaluated@std@@YA_NXZ	; std::is_constant_evaluated
	movzx	eax, al
	test	eax, eax
	je	SHORT $LN2@construct
; Line 676
	mov	rcx, QWORD PTR _Ptr$[rbp]
	call	??$construct_at@PEAUVkCommandBuffer_T@@$$VX@std@@YAPEAPEAUVkCommandBuffer_T@@QEAPEAU1@@Z ; std::construct_at<VkCommandBuffer_T *,void>
; Line 677
	jmp	SHORT $LN3@construct
$LN2@construct:
; Line 680
	mov	QWORD PTR $T1[rbp], 8
	mov	rcx, QWORD PTR _Ptr$[rbp]
	call	??$_Voidify_iter@PEAPEAUVkCommandBuffer_T@@@std@@YAPEAXPEAPEAUVkCommandBuffer_T@@@Z ; std::_Voidify_iter<VkCommandBuffer_T * *>
	mov	QWORD PTR tv78[rbp], rax
	mov	rax, QWORD PTR $T1[rbp]
	mov	QWORD PTR tv76[rbp], rax
	mov	rdx, QWORD PTR tv78[rbp]
	mov	rcx, QWORD PTR tv76[rbp]
	call	??2@YAPEAX_KPEAX@Z			; operator new
	mov	QWORD PTR $T2[rbp], rax
	mov	rdi, QWORD PTR $T2[rbp]
	xor	eax, eax
	mov	rcx, QWORD PTR $T1[rbp]
	rep stosb
$LN3@construct:
; Line 682
	lea	rsp, QWORD PTR [rbp+280]
	pop	rdi
	pop	rbp
	ret	0
??$construct@PEAUVkCommandBuffer_T@@$$V@?$_Default_allocator_traits@V?$allocator@PEAUVkCommandBuffer_T@@@std@@@std@@SAXAEAV?$allocator@PEAUVkCommandBuffer_T@@@1@QEAPEAUVkCommandBuffer_T@@@Z ENDP ; std::_Default_allocator_traits<std::allocator<VkCommandBuffer_T *> >::construct<VkCommandBuffer_T *>
_TEXT	ENDS
; Function compile flags: /Odtp /RTCsu /ZI
;	COMDAT ??$to_address@PEAUVkCommandBuffer_T@@@std@@YAPEAPEAUVkCommandBuffer_T@@QEAPEAU1@@Z
_TEXT	SEGMENT
_Val$ = 224
??$to_address@PEAUVkCommandBuffer_T@@@std@@YAPEAPEAUVkCommandBuffer_T@@QEAPEAU1@@Z PROC ; std::to_address<VkCommandBuffer_T *>, COMDAT
; File C:\Program Files\Microsoft Visual Studio\2022\Community\VC\Tools\MSVC\14.32.31326\include\xutility
; Line 207
$LN3:
	mov	QWORD PTR [rsp+8], rcx
	push	rbp
	push	rdi
	sub	rsp, 232				; 000000e8H
	lea	rbp, QWORD PTR [rsp+32]
	lea	rcx, OFFSET FLAT:__7DA7D514_xutility
	call	__CheckForDebuggerJustMyCode
; Line 210
	mov	rax, QWORD PTR _Val$[rbp]
; Line 211
	lea	rsp, QWORD PTR [rbp+200]
	pop	rdi
	pop	rbp
	ret	0
??$to_address@PEAUVkCommandBuffer_T@@@std@@YAPEAPEAUVkCommandBuffer_T@@QEAPEAU1@@Z ENDP ; std::to_address<VkCommandBuffer_T *>
_TEXT	ENDS
; Function compile flags: /Odtp /RTCsu /ZI
;	COMDAT ??$_To_address@PEAPEAUVkCommandBuffer_T@@@std@@YA?A_PAEBQEAPEAUVkCommandBuffer_T@@@Z
_TEXT	SEGMENT
_Val$ = 224
??$_To_address@PEAPEAUVkCommandBuffer_T@@@std@@YA?A_PAEBQEAPEAUVkCommandBuffer_T@@@Z PROC ; std::_To_address<VkCommandBuffer_T * *>, COMDAT
; File C:\Program Files\Microsoft Visual Studio\2022\Community\VC\Tools\MSVC\14.32.31326\include\xutility
; Line 3936
$LN3:
	mov	QWORD PTR [rsp+8], rcx
	push	rbp
	push	rdi
	sub	rsp, 232				; 000000e8H
	lea	rbp, QWORD PTR [rsp+32]
	lea	rcx, OFFSET FLAT:__7DA7D514_xutility
	call	__CheckForDebuggerJustMyCode
; Line 3938
	mov	rax, QWORD PTR _Val$[rbp]
	mov	rcx, QWORD PTR [rax]
	call	??$to_address@PEAUVkCommandBuffer_T@@@std@@YAPEAPEAUVkCommandBuffer_T@@QEAPEAU1@@Z ; std::to_address<VkCommandBuffer_T *>
; Line 3939
	lea	rsp, QWORD PTR [rbp+200]
	pop	rdi
	pop	rbp
	ret	0
??$_To_address@PEAPEAUVkCommandBuffer_T@@@std@@YA?A_PAEBQEAPEAUVkCommandBuffer_T@@@Z ENDP ; std::_To_address<VkCommandBuffer_T * *>
_TEXT	ENDS
; Function compile flags: /Odtp /RTCsu /ZI
;	COMDAT ??$_Emplace_back@UVertex2DRGB@cow@@@?$_Uninitialized_backout_al@V?$allocator@UVertex2DRGB@cow@@@std@@@std@@QEAAX$$QEAUVertex2DRGB@cow@@@Z
_TEXT	SEGMENT
tv78 = 192
tv76 = 200
tv74 = 208
this$ = 256
<_Vals_0>$ = 264
??$_Emplace_back@UVertex2DRGB@cow@@@?$_Uninitialized_backout_al@V?$allocator@UVertex2DRGB@cow@@@std@@@std@@QEAAX$$QEAUVertex2DRGB@cow@@@Z PROC ; std::_Uninitialized_backout_al<std::allocator<cow::Vertex2DRGB> >::_Emplace_back<cow::Vertex2DRGB>, COMDAT
; File C:\Program Files\Microsoft Visual Studio\2022\Community\VC\Tools\MSVC\14.32.31326\include\xmemory
; Line 1655
$LN3:
	mov	QWORD PTR [rsp+16], rdx
	mov	QWORD PTR [rsp+8], rcx
	push	rbp
	push	rdi
	sub	rsp, 264				; 00000108H
	lea	rbp, QWORD PTR [rsp+32]
	lea	rcx, OFFSET FLAT:__48ED051B_xmemory
	call	__CheckForDebuggerJustMyCode
; Line 1656
	mov	rcx, QWORD PTR <_Vals_0>$[rbp]
	call	??$forward@UVertex2DRGB@cow@@@std@@YA$$QEAUVertex2DRGB@cow@@AEAU12@@Z ; std::forward<cow::Vertex2DRGB>
	mov	QWORD PTR tv78[rbp], rax
	mov	rax, QWORD PTR this$[rbp]
	mov	rcx, QWORD PTR [rax+8]
	call	??$_Unfancy@UVertex2DRGB@cow@@@std@@YAPEAUVertex2DRGB@cow@@PEAU12@@Z ; std::_Unfancy<cow::Vertex2DRGB>
	mov	QWORD PTR tv76[rbp], rax
	mov	rax, QWORD PTR this$[rbp]
	mov	rax, QWORD PTR [rax+16]
	mov	QWORD PTR tv74[rbp], rax
	mov	r8, QWORD PTR tv78[rbp]
	mov	rdx, QWORD PTR tv76[rbp]
	mov	rcx, QWORD PTR tv74[rbp]
	call	??$construct@UVertex2DRGB@cow@@U12@@?$_Default_allocator_traits@V?$allocator@UVertex2DRGB@cow@@@std@@@std@@SAXAEAV?$allocator@UVertex2DRGB@cow@@@1@QEAUVertex2DRGB@cow@@$$QEAU34@@Z ; std::_Default_allocator_traits<std::allocator<cow::Vertex2DRGB> >::construct<cow::Vertex2DRGB,cow::Vertex2DRGB>
; Line 1657
	mov	rax, QWORD PTR this$[rbp]
	mov	rax, QWORD PTR [rax+8]
	add	rax, 20
	mov	rcx, QWORD PTR this$[rbp]
	mov	QWORD PTR [rcx+8], rax
; Line 1658
	lea	rsp, QWORD PTR [rbp+232]
	pop	rdi
	pop	rbp
	ret	0
??$_Emplace_back@UVertex2DRGB@cow@@@?$_Uninitialized_backout_al@V?$allocator@UVertex2DRGB@cow@@@std@@@std@@QEAAX$$QEAUVertex2DRGB@cow@@@Z ENDP ; std::_Uninitialized_backout_al<std::allocator<cow::Vertex2DRGB> >::_Emplace_back<cow::Vertex2DRGB>
_TEXT	ENDS
; Function compile flags: /Odtp /RTCsu /ZI
;	COMDAT ?__autoclassinit2@?$_Uninitialized_backout_al@V?$allocator@UVertex2DRGB@cow@@@std@@@std@@QEAAX_K@Z
_TEXT	SEGMENT
this$ = 224
classSize$ = 232
?__autoclassinit2@?$_Uninitialized_backout_al@V?$allocator@UVertex2DRGB@cow@@@std@@@std@@QEAAX_K@Z PROC ; std::_Uninitialized_backout_al<std::allocator<cow::Vertex2DRGB> >::__autoclassinit2, COMDAT
$LN3:
	mov	QWORD PTR [rsp+16], rdx
	mov	QWORD PTR [rsp+8], rcx
	push	rbp
	push	rdi
	sub	rsp, 200				; 000000c8H
	mov	rbp, rsp
	mov	rdi, QWORD PTR this$[rbp]
	xor	eax, eax
	mov	rcx, QWORD PTR classSize$[rbp]
	rep stosb
	lea	rsp, QWORD PTR [rbp+200]
	pop	rdi
	pop	rbp
	ret	0
?__autoclassinit2@?$_Uninitialized_backout_al@V?$allocator@UVertex2DRGB@cow@@@std@@@std@@QEAAX_K@Z ENDP ; std::_Uninitialized_backout_al<std::allocator<cow::Vertex2DRGB> >::__autoclassinit2
_TEXT	ENDS
; Function compile flags: /Odtp /RTCsu /ZI
;	COMDAT ?_Release@?$_Uninitialized_backout_al@V?$allocator@UVertex2DRGB@cow@@@std@@@std@@QEAAPEAUVertex2DRGB@cow@@XZ
_TEXT	SEGMENT
this$ = 224
?_Release@?$_Uninitialized_backout_al@V?$allocator@UVertex2DRGB@cow@@@std@@@std@@QEAAPEAUVertex2DRGB@cow@@XZ PROC ; std::_Uninitialized_backout_al<std::allocator<cow::Vertex2DRGB> >::_Release, COMDAT
; File C:\Program Files\Microsoft Visual Studio\2022\Community\VC\Tools\MSVC\14.32.31326\include\xmemory
; Line 1660
$LN3:
	mov	QWORD PTR [rsp+8], rcx
	push	rbp
	push	rdi
	sub	rsp, 232				; 000000e8H
	lea	rbp, QWORD PTR [rsp+32]
	lea	rcx, OFFSET FLAT:__48ED051B_xmemory
	call	__CheckForDebuggerJustMyCode
; Line 1661
	mov	rax, QWORD PTR this$[rbp]
	mov	rcx, QWORD PTR this$[rbp]
	mov	rcx, QWORD PTR [rcx+8]
	mov	QWORD PTR [rax], rcx
; Line 1662
	mov	rax, QWORD PTR this$[rbp]
	mov	rax, QWORD PTR [rax+8]
; Line 1663
	lea	rsp, QWORD PTR [rbp+200]
	pop	rdi
	pop	rbp
	ret	0
?_Release@?$_Uninitialized_backout_al@V?$allocator@UVertex2DRGB@cow@@@std@@@std@@QEAAPEAUVertex2DRGB@cow@@XZ ENDP ; std::_Uninitialized_backout_al<std::allocator<cow::Vertex2DRGB> >::_Release
_TEXT	ENDS
; Function compile flags: /Odtp /RTCsu /ZI
;	COMDAT ??1?$_Uninitialized_backout_al@V?$allocator@UVertex2DRGB@cow@@@std@@@std@@QEAA@XZ
_TEXT	SEGMENT
this$ = 224
??1?$_Uninitialized_backout_al@V?$allocator@UVertex2DRGB@cow@@@std@@@std@@QEAA@XZ PROC ; std::_Uninitialized_backout_al<std::allocator<cow::Vertex2DRGB> >::~_Uninitialized_backout_al<std::allocator<cow::Vertex2DRGB> >, COMDAT
; File C:\Program Files\Microsoft Visual Studio\2022\Community\VC\Tools\MSVC\14.32.31326\include\xmemory
; Line 1650
$LN3:
	mov	QWORD PTR [rsp+8], rcx
	push	rbp
	push	rdi
	sub	rsp, 232				; 000000e8H
	lea	rbp, QWORD PTR [rsp+32]
	lea	rcx, OFFSET FLAT:__48ED051B_xmemory
	call	__CheckForDebuggerJustMyCode
; Line 1651
	mov	rax, QWORD PTR this$[rbp]
	mov	r8, QWORD PTR [rax+16]
	mov	rax, QWORD PTR this$[rbp]
	mov	rdx, QWORD PTR [rax+8]
	mov	rax, QWORD PTR this$[rbp]
	mov	rcx, QWORD PTR [rax]
	call	??$_Destroy_range@V?$allocator@UVertex2DRGB@cow@@@std@@@std@@YAXPEAUVertex2DRGB@cow@@QEAU12@AEAV?$allocator@UVertex2DRGB@cow@@@0@@Z ; std::_Destroy_range<std::allocator<cow::Vertex2DRGB> >
; Line 1652
	lea	rsp, QWORD PTR [rbp+200]
	pop	rdi
	pop	rbp
	ret	0
??1?$_Uninitialized_backout_al@V?$allocator@UVertex2DRGB@cow@@@std@@@std@@QEAA@XZ ENDP ; std::_Uninitialized_backout_al<std::allocator<cow::Vertex2DRGB> >::~_Uninitialized_backout_al<std::allocator<cow::Vertex2DRGB> >
_TEXT	ENDS
; Function compile flags: /Odtp /RTCsu /ZI
;	COMDAT ??0?$_Uninitialized_backout_al@V?$allocator@UVertex2DRGB@cow@@@std@@@std@@QEAA@PEAUVertex2DRGB@cow@@AEAV?$allocator@UVertex2DRGB@cow@@@1@@Z
_TEXT	SEGMENT
this$ = 224
_Dest$ = 232
_Al_$ = 240
??0?$_Uninitialized_backout_al@V?$allocator@UVertex2DRGB@cow@@@std@@@std@@QEAA@PEAUVertex2DRGB@cow@@AEAV?$allocator@UVertex2DRGB@cow@@@1@@Z PROC ; std::_Uninitialized_backout_al<std::allocator<cow::Vertex2DRGB> >::_Uninitialized_backout_al<std::allocator<cow::Vertex2DRGB> >, COMDAT
; File C:\Program Files\Microsoft Visual Studio\2022\Community\VC\Tools\MSVC\14.32.31326\include\xmemory
; Line 1645
$LN3:
	mov	QWORD PTR [rsp+24], r8
	mov	QWORD PTR [rsp+16], rdx
	mov	QWORD PTR [rsp+8], rcx
	push	rbp
	push	rdi
	sub	rsp, 232				; 000000e8H
	lea	rbp, QWORD PTR [rsp+32]
	lea	rcx, OFFSET FLAT:__48ED051B_xmemory
	call	__CheckForDebuggerJustMyCode
	mov	rax, QWORD PTR this$[rbp]
	mov	rcx, QWORD PTR _Dest$[rbp]
	mov	QWORD PTR [rax], rcx
	mov	rax, QWORD PTR this$[rbp]
	mov	rcx, QWORD PTR _Dest$[rbp]
	mov	QWORD PTR [rax+8], rcx
	mov	rax, QWORD PTR this$[rbp]
	mov	rcx, QWORD PTR _Al_$[rbp]
	mov	QWORD PTR [rax+16], rcx
	mov	rax, QWORD PTR this$[rbp]
	lea	rsp, QWORD PTR [rbp+200]
	pop	rdi
	pop	rbp
	ret	0
??0?$_Uninitialized_backout_al@V?$allocator@UVertex2DRGB@cow@@@std@@@std@@QEAA@PEAUVertex2DRGB@cow@@AEAV?$allocator@UVertex2DRGB@cow@@@1@@Z ENDP ; std::_Uninitialized_backout_al<std::allocator<cow::Vertex2DRGB> >::_Uninitialized_backout_al<std::allocator<cow::Vertex2DRGB> >
_TEXT	ENDS
; Function compile flags: /Odtp /RTCsu /ZI
;	COMDAT ??$_Copy_memmove@PEAUVertex2DRGB@cow@@PEAU12@@std@@YAPEAUVertex2DRGB@cow@@PEAU12@00@Z
_TEXT	SEGMENT
_FirstPtr$ = 8
_LastPtr$ = 40
_DestPtr$ = 72
_First_ch$ = 104
_Last_ch$ = 136
_Dest_ch$ = 168
_Count$ = 200
_First$ = 448
_Last$ = 456
_Dest$ = 464
??$_Copy_memmove@PEAUVertex2DRGB@cow@@PEAU12@@std@@YAPEAUVertex2DRGB@cow@@PEAU12@00@Z PROC ; std::_Copy_memmove<cow::Vertex2DRGB *,cow::Vertex2DRGB *>, COMDAT
; File C:\Program Files\Microsoft Visual Studio\2022\Community\VC\Tools\MSVC\14.32.31326\include\xutility
; Line 4035
$LN3:
	mov	QWORD PTR [rsp+24], r8
	mov	QWORD PTR [rsp+16], rdx
	mov	QWORD PTR [rsp+8], rcx
	push	rbp
	push	rdi
	sub	rsp, 456				; 000001c8H
	lea	rbp, QWORD PTR [rsp+32]
	lea	rcx, OFFSET FLAT:__7DA7D514_xutility
	call	__CheckForDebuggerJustMyCode
; Line 4036
	lea	rcx, QWORD PTR _First$[rbp]
	call	??$_To_address@PEAUVertex2DRGB@cow@@@std@@YA?A_PAEBQEAUVertex2DRGB@cow@@@Z ; std::_To_address<cow::Vertex2DRGB *>
	mov	QWORD PTR _FirstPtr$[rbp], rax
; Line 4037
	lea	rcx, QWORD PTR _Last$[rbp]
	call	??$_To_address@PEAUVertex2DRGB@cow@@@std@@YA?A_PAEBQEAUVertex2DRGB@cow@@@Z ; std::_To_address<cow::Vertex2DRGB *>
	mov	QWORD PTR _LastPtr$[rbp], rax
; Line 4038
	lea	rcx, QWORD PTR _Dest$[rbp]
	call	??$_To_address@PEAUVertex2DRGB@cow@@@std@@YA?A_PAEBQEAUVertex2DRGB@cow@@@Z ; std::_To_address<cow::Vertex2DRGB *>
	mov	QWORD PTR _DestPtr$[rbp], rax
; Line 4039
	mov	rax, QWORD PTR _FirstPtr$[rbp]
	mov	QWORD PTR _First_ch$[rbp], rax
; Line 4040
	mov	rax, QWORD PTR _LastPtr$[rbp]
	mov	QWORD PTR _Last_ch$[rbp], rax
; Line 4041
	mov	rax, QWORD PTR _DestPtr$[rbp]
	mov	QWORD PTR _Dest_ch$[rbp], rax
; Line 4042
	mov	rax, QWORD PTR _First_ch$[rbp]
	mov	rcx, QWORD PTR _Last_ch$[rbp]
	sub	rcx, rax
	mov	rax, rcx
	mov	QWORD PTR _Count$[rbp], rax
; Line 4043
	mov	r8, QWORD PTR _Count$[rbp]
	mov	rdx, QWORD PTR _First_ch$[rbp]
	mov	rcx, QWORD PTR _Dest_ch$[rbp]
	call	memmove
; Line 4045
	mov	rax, QWORD PTR _Count$[rbp]
	mov	rcx, QWORD PTR _Dest_ch$[rbp]
	add	rcx, rax
	mov	rax, rcx
; Line 4049
	lea	rsp, QWORD PTR [rbp+424]
	pop	rdi
	pop	rbp
	ret	0
??$_Copy_memmove@PEAUVertex2DRGB@cow@@PEAU12@@std@@YAPEAUVertex2DRGB@cow@@PEAU12@00@Z ENDP ; std::_Copy_memmove<cow::Vertex2DRGB *,cow::Vertex2DRGB *>
_TEXT	ENDS
; Function compile flags: /Odtp /RTCsu /ZI
;	COMDAT ??$_Get_unwrapped@AEBQEAUVertex2DRGB@cow@@@std@@YA?A_TAEBQEAUVertex2DRGB@cow@@@Z
_TEXT	SEGMENT
_It$ = 224
??$_Get_unwrapped@AEBQEAUVertex2DRGB@cow@@@std@@YA?A_TAEBQEAUVertex2DRGB@cow@@@Z PROC ; std::_Get_unwrapped<cow::Vertex2DRGB * const &>, COMDAT
; File C:\Program Files\Microsoft Visual Studio\2022\Community\VC\Tools\MSVC\14.32.31326\include\xutility
; Line 1270
$LN3:
	mov	QWORD PTR [rsp+8], rcx
	push	rbp
	push	rdi
	sub	rsp, 232				; 000000e8H
	lea	rbp, QWORD PTR [rsp+32]
	lea	rcx, OFFSET FLAT:__7DA7D514_xutility
	call	__CheckForDebuggerJustMyCode
; Line 1273
	mov	rax, QWORD PTR _It$[rbp]
	mov	rax, QWORD PTR [rax]
; Line 1279
	lea	rsp, QWORD PTR [rbp+200]
	pop	rdi
	pop	rbp
	ret	0
??$_Get_unwrapped@AEBQEAUVertex2DRGB@cow@@@std@@YA?A_TAEBQEAUVertex2DRGB@cow@@@Z ENDP ; std::_Get_unwrapped<cow::Vertex2DRGB * const &>
_TEXT	ENDS
; Function compile flags: /Odtp /RTCsu /ZI
;	COMDAT ??$_Voidify_iter@PEAUVertex2DRGB@cow@@@std@@YAPEAXPEAUVertex2DRGB@cow@@@Z
_TEXT	SEGMENT
_It$ = 224
??$_Voidify_iter@PEAUVertex2DRGB@cow@@@std@@YAPEAXPEAUVertex2DRGB@cow@@@Z PROC ; std::_Voidify_iter<cow::Vertex2DRGB *>, COMDAT
; File C:\Program Files\Microsoft Visual Studio\2022\Community\VC\Tools\MSVC\14.32.31326\include\xutility
; Line 123
$LN3:
	mov	QWORD PTR [rsp+8], rcx
	push	rbp
	push	rdi
	sub	rsp, 232				; 000000e8H
	lea	rbp, QWORD PTR [rsp+32]
	lea	rcx, OFFSET FLAT:__7DA7D514_xutility
	call	__CheckForDebuggerJustMyCode
; Line 125
	mov	rax, QWORD PTR _It$[rbp]
; Line 129
	lea	rsp, QWORD PTR [rbp+200]
	pop	rdi
	pop	rbp
	ret	0
??$_Voidify_iter@PEAUVertex2DRGB@cow@@@std@@YAPEAXPEAUVertex2DRGB@cow@@@Z ENDP ; std::_Voidify_iter<cow::Vertex2DRGB *>
_TEXT	ENDS
; Function compile flags: /Odtp /RTCsu /ZI
;	COMDAT ??$construct_at@UVertex2DRGB@cow@@U12@X@std@@YAPEAUVertex2DRGB@cow@@QEAU12@$$QEAU12@@Z
_TEXT	SEGMENT
$T1 = 200
_Location$ = 256
<_Args_0>$ = 264
??$construct_at@UVertex2DRGB@cow@@U12@X@std@@YAPEAUVertex2DRGB@cow@@QEAU12@$$QEAU12@@Z PROC ; std::construct_at<cow::Vertex2DRGB,cow::Vertex2DRGB,void>, COMDAT
; File C:\Program Files\Microsoft Visual Studio\2022\Community\VC\Tools\MSVC\14.32.31326\include\xutility
; Line 135
$LN3:
	mov	QWORD PTR [rsp+16], rdx
	mov	QWORD PTR [rsp+8], rcx
	push	rbp
	push	rsi
	push	rdi
	sub	rsp, 256				; 00000100H
	lea	rbp, QWORD PTR [rsp+32]
	lea	rcx, OFFSET FLAT:__7DA7D514_xutility
	call	__CheckForDebuggerJustMyCode
; Line 136
	mov	rcx, QWORD PTR _Location$[rbp]
	call	??$_Voidify_iter@PEAUVertex2DRGB@cow@@@std@@YAPEAXPEAUVertex2DRGB@cow@@@Z ; std::_Voidify_iter<cow::Vertex2DRGB *>
	mov	rdx, rax
	mov	ecx, 20
	call	??2@YAPEAX_KPEAX@Z			; operator new
	mov	QWORD PTR $T1[rbp], rax
	mov	rcx, QWORD PTR <_Args_0>$[rbp]
	call	??$forward@UVertex2DRGB@cow@@@std@@YA$$QEAUVertex2DRGB@cow@@AEAU12@@Z ; std::forward<cow::Vertex2DRGB>
	mov	rdi, QWORD PTR $T1[rbp]
	mov	rsi, rax
	mov	ecx, 20
	rep movsb
	mov	rax, QWORD PTR $T1[rbp]
; Line 137
	lea	rsp, QWORD PTR [rbp+224]
	pop	rdi
	pop	rsi
	pop	rbp
	ret	0
??$construct_at@UVertex2DRGB@cow@@U12@X@std@@YAPEAUVertex2DRGB@cow@@QEAU12@$$QEAU12@@Z ENDP ; std::construct_at<cow::Vertex2DRGB,cow::Vertex2DRGB,void>
_TEXT	ENDS
; Function compile flags: /Odtp /RTCsu /ZI
;	COMDAT ??$addressof@UVertex2DRGB@cow@@@std@@YAPEAUVertex2DRGB@cow@@AEAU12@@Z
_TEXT	SEGMENT
_Val$ = 224
??$addressof@UVertex2DRGB@cow@@@std@@YAPEAUVertex2DRGB@cow@@AEAU12@@Z PROC ; std::addressof<cow::Vertex2DRGB>, COMDAT
; File C:\Program Files\Microsoft Visual Studio\2022\Community\VC\Tools\MSVC\14.32.31326\include\xstddef
; Line 252
$LN3:
	mov	QWORD PTR [rsp+8], rcx
	push	rbp
	push	rdi
	sub	rsp, 232				; 000000e8H
	lea	rbp, QWORD PTR [rsp+32]
	lea	rcx, OFFSET FLAT:__D567F1CA_xstddef
	call	__CheckForDebuggerJustMyCode
; Line 253
	mov	rax, QWORD PTR _Val$[rbp]
; Line 254
	lea	rsp, QWORD PTR [rbp+200]
	pop	rdi
	pop	rbp
	ret	0
??$addressof@UVertex2DRGB@cow@@@std@@YAPEAUVertex2DRGB@cow@@AEAU12@@Z ENDP ; std::addressof<cow::Vertex2DRGB>
_TEXT	ENDS
; Function compile flags: /Odtp /RTCsu /ZI
;	COMDAT ??$_Get_size_of_n@$0BE@@std@@YA_K_K@Z
_TEXT	SEGMENT
_Overflow_is_possible$ = 4
_Max_possible$1 = 40
_Count$ = 288
??$_Get_size_of_n@$0BE@@std@@YA_K_K@Z PROC		; std::_Get_size_of_n<20>, COMDAT
; File C:\Program Files\Microsoft Visual Studio\2022\Community\VC\Tools\MSVC\14.32.31326\include\xmemory
; Line 55
$LN4:
	mov	QWORD PTR [rsp+8], rcx
	push	rbp
	push	rdi
	sub	rsp, 296				; 00000128H
	lea	rbp, QWORD PTR [rsp+32]
	lea	rcx, OFFSET FLAT:__48ED051B_xmemory
	call	__CheckForDebuggerJustMyCode
; Line 56
	mov	BYTE PTR _Overflow_is_possible$[rbp], 1
; Line 59
	mov	rax, 922337203685477580			; 0cccccccccccccccH
	mov	QWORD PTR _Max_possible$1[rbp], rax
; Line 60
	mov	rax, 922337203685477580			; 0cccccccccccccccH
	cmp	QWORD PTR _Count$[rbp], rax
	jbe	SHORT $LN2@Get_size_o
; Line 61
	call	?_Throw_bad_array_new_length@std@@YAXXZ	; std::_Throw_bad_array_new_length
$LN2@Get_size_o:
; Line 65
	imul	rax, QWORD PTR _Count$[rbp], 20
$LN3@Get_size_o:
; Line 66
	lea	rsp, QWORD PTR [rbp+264]
	pop	rdi
	pop	rbp
	ret	0
??$_Get_size_of_n@$0BE@@std@@YA_K_K@Z ENDP		; std::_Get_size_of_n<20>
_TEXT	ENDS
; Function compile flags: /Odtp /RTCsu /ZI
;	COMDAT ??$_Emplace_back@$$V@?$_Uninitialized_backout_al@V?$allocator@PEAUVkCommandBuffer_T@@@std@@@std@@QEAAXXZ
_TEXT	SEGMENT
tv73 = 192
tv71 = 200
this$ = 240
??$_Emplace_back@$$V@?$_Uninitialized_backout_al@V?$allocator@PEAUVkCommandBuffer_T@@@std@@@std@@QEAAXXZ PROC ; std::_Uninitialized_backout_al<std::allocator<VkCommandBuffer_T *> >::_Emplace_back<>, COMDAT
; File C:\Program Files\Microsoft Visual Studio\2022\Community\VC\Tools\MSVC\14.32.31326\include\xmemory
; Line 1655
$LN3:
	mov	QWORD PTR [rsp+8], rcx
	push	rbp
	push	rdi
	sub	rsp, 248				; 000000f8H
	lea	rbp, QWORD PTR [rsp+32]
	lea	rcx, OFFSET FLAT:__48ED051B_xmemory
	call	__CheckForDebuggerJustMyCode
; Line 1656
	mov	rax, QWORD PTR this$[rbp]
	mov	rcx, QWORD PTR [rax+8]
	call	??$_Unfancy@PEAUVkCommandBuffer_T@@@std@@YAPEAPEAUVkCommandBuffer_T@@PEAPEAU1@@Z ; std::_Unfancy<VkCommandBuffer_T *>
	mov	QWORD PTR tv73[rbp], rax
	mov	rax, QWORD PTR this$[rbp]
	mov	rax, QWORD PTR [rax+16]
	mov	QWORD PTR tv71[rbp], rax
	mov	rdx, QWORD PTR tv73[rbp]
	mov	rcx, QWORD PTR tv71[rbp]
	call	??$construct@PEAUVkCommandBuffer_T@@$$V@?$_Default_allocator_traits@V?$allocator@PEAUVkCommandBuffer_T@@@std@@@std@@SAXAEAV?$allocator@PEAUVkCommandBuffer_T@@@1@QEAPEAUVkCommandBuffer_T@@@Z ; std::_Default_allocator_traits<std::allocator<VkCommandBuffer_T *> >::construct<VkCommandBuffer_T *>
; Line 1657
	mov	rax, QWORD PTR this$[rbp]
	mov	rax, QWORD PTR [rax+8]
	add	rax, 8
	mov	rcx, QWORD PTR this$[rbp]
	mov	QWORD PTR [rcx+8], rax
; Line 1658
	lea	rsp, QWORD PTR [rbp+216]
	pop	rdi
	pop	rbp
	ret	0
??$_Emplace_back@$$V@?$_Uninitialized_backout_al@V?$allocator@PEAUVkCommandBuffer_T@@@std@@@std@@QEAAXXZ ENDP ; std::_Uninitialized_backout_al<std::allocator<VkCommandBuffer_T *> >::_Emplace_back<>
_TEXT	ENDS
; Function compile flags: /Odtp /RTCsu /ZI
;	COMDAT ?__autoclassinit2@?$_Uninitialized_backout_al@V?$allocator@PEAUVkCommandBuffer_T@@@std@@@std@@QEAAX_K@Z
_TEXT	SEGMENT
this$ = 224
classSize$ = 232
?__autoclassinit2@?$_Uninitialized_backout_al@V?$allocator@PEAUVkCommandBuffer_T@@@std@@@std@@QEAAX_K@Z PROC ; std::_Uninitialized_backout_al<std::allocator<VkCommandBuffer_T *> >::__autoclassinit2, COMDAT
$LN3:
	mov	QWORD PTR [rsp+16], rdx
	mov	QWORD PTR [rsp+8], rcx
	push	rbp
	push	rdi
	sub	rsp, 200				; 000000c8H
	mov	rbp, rsp
	mov	rdi, QWORD PTR this$[rbp]
	xor	eax, eax
	mov	rcx, QWORD PTR classSize$[rbp]
	rep stosb
	lea	rsp, QWORD PTR [rbp+200]
	pop	rdi
	pop	rbp
	ret	0
?__autoclassinit2@?$_Uninitialized_backout_al@V?$allocator@PEAUVkCommandBuffer_T@@@std@@@std@@QEAAX_K@Z ENDP ; std::_Uninitialized_backout_al<std::allocator<VkCommandBuffer_T *> >::__autoclassinit2
_TEXT	ENDS
; Function compile flags: /Odtp /RTCsu /ZI
;	COMDAT ?_Release@?$_Uninitialized_backout_al@V?$allocator@PEAUVkCommandBuffer_T@@@std@@@std@@QEAAPEAPEAUVkCommandBuffer_T@@XZ
_TEXT	SEGMENT
this$ = 224
?_Release@?$_Uninitialized_backout_al@V?$allocator@PEAUVkCommandBuffer_T@@@std@@@std@@QEAAPEAPEAUVkCommandBuffer_T@@XZ PROC ; std::_Uninitialized_backout_al<std::allocator<VkCommandBuffer_T *> >::_Release, COMDAT
; File C:\Program Files\Microsoft Visual Studio\2022\Community\VC\Tools\MSVC\14.32.31326\include\xmemory
; Line 1660
$LN3:
	mov	QWORD PTR [rsp+8], rcx
	push	rbp
	push	rdi
	sub	rsp, 232				; 000000e8H
	lea	rbp, QWORD PTR [rsp+32]
	lea	rcx, OFFSET FLAT:__48ED051B_xmemory
	call	__CheckForDebuggerJustMyCode
; Line 1661
	mov	rax, QWORD PTR this$[rbp]
	mov	rcx, QWORD PTR this$[rbp]
	mov	rcx, QWORD PTR [rcx+8]
	mov	QWORD PTR [rax], rcx
; Line 1662
	mov	rax, QWORD PTR this$[rbp]
	mov	rax, QWORD PTR [rax+8]
; Line 1663
	lea	rsp, QWORD PTR [rbp+200]
	pop	rdi
	pop	rbp
	ret	0
?_Release@?$_Uninitialized_backout_al@V?$allocator@PEAUVkCommandBuffer_T@@@std@@@std@@QEAAPEAPEAUVkCommandBuffer_T@@XZ ENDP ; std::_Uninitialized_backout_al<std::allocator<VkCommandBuffer_T *> >::_Release
_TEXT	ENDS
; Function compile flags: /Odtp /RTCsu /ZI
;	COMDAT ??1?$_Uninitialized_backout_al@V?$allocator@PEAUVkCommandBuffer_T@@@std@@@std@@QEAA@XZ
_TEXT	SEGMENT
this$ = 224
??1?$_Uninitialized_backout_al@V?$allocator@PEAUVkCommandBuffer_T@@@std@@@std@@QEAA@XZ PROC ; std::_Uninitialized_backout_al<std::allocator<VkCommandBuffer_T *> >::~_Uninitialized_backout_al<std::allocator<VkCommandBuffer_T *> >, COMDAT
