; Listing generated by Microsoft (R) Optimizing Compiler Version 19.32.31332.0 

include listing.inc

INCLUDELIB MSVCRTD
INCLUDELIB OLDNAMES

msvcjmc	SEGMENT
__29CF54F3_concurrencysal@h DB 01H
__413FEA08_sal@h DB 01H
__6972C38F_vadefs@h DB 01H
__E6B4F19D_vcruntime@h DB 01H
__1B0272D9_corecrt@h DB 01H
__13F5961F_stddef@h DB 01H
__117FADE9_stdint@h DB 01H
__6F45C614_vk_platform@h DB 01H
__5FA1F762_vulkan_core@h DB 01H
__AD247E74_vulkan@h DB 01H
__654A365E_cowdef@hpp DB 01H
__0269B480_xkeycheck@h DB 01H
__4A835745_yvals_core@h DB 01H
__AEFC1A78_intrin0@inl@h DB 01H
__7DEB4A93_intrin0@h DB 01H
__47E06DF5_isa_availability@h DB 01H
__B9985323_float@h DB 01H
__489E80C8_cfloat DB 01H
__AF0983D6_limits@h DB 01H
__919AC1A1_climits DB 01H
__44420885_corecrt_stdio_config@h DB 01H
__AB601D8D_corecrt_wstdio@h DB 01H
__C1EC35D3_stdio@h DB 01H
__3BDA4B4F_cstdio DB 01H
__61CC25A1_errno@h DB 01H
__946B6786_vcruntime_string@h DB 01H
__E4C945B4_corecrt_memcpy_s@h DB 01H
__EF1F6BBA_corecrt_wconio@h DB 01H
__74484FB3_corecrt_wctype@h DB 01H
__3D1D430C_corecrt_wdirect@h DB 01H
__8ECB7138_corecrt_share@h DB 01H
__DB7FEBA6_corecrt_wio@h DB 01H
__9A9F0068_corecrt_wprocess@h DB 01H
__E2E33A61_corecrt_wstdlib@h DB 01H
__6490AEC5_corecrt_wstring@h DB 01H
__369A9BC3_corecrt_wtime@h DB 01H
__CE789B9D_types@h DB 01H
__9901C817_stat@h DB 01H
__3FCAD62E_wchar@h DB 01H
__A1519D1C_cwchar DB 01H
__197E5946_xtr1common DB 01H
__B0BE39FE_cstddef DB 01H
__BB16330F_corecrt_math@h DB 01H
__3BF2A406_math@h DB 01H
__45DED006_corecrt_malloc@h DB 01H
__FD6DBD68_corecrt_search@h DB 01H
__6E5ACABA_stdlib@h DB 01H
__1575E353_cstdlib DB 01H
__330922C0_initializer_list DB 01H
__D567F1CA_xstddef DB 01H
__2E78CDAC_limits DB 01H
__A82B022E_cstdint DB 01H
__4CC0724B_type_traits DB 01H
__3819D017_bit DB 01H
__68FABE09_vcruntime_new@h DB 01H
__F90F3CDE_concepts DB 01H
__EC60D9E2_compare DB 01H
__6261A715_vcruntime_new_debug@h DB 01H
__935DC21B_crtdbg@h DB 01H
__64C6F398_crtdefs@h DB 01H
__E2706B0F_use_ansi@h DB 01H
__A33555EC_yvals@h DB 01H
__8EAFF484_corecrt_memory@h DB 01H
__E8295E1E_string@h DB 01H
__59E74BB3_cstring DB 01H
__227866D8_utility DB 01H
__7DA7D514_xutility DB 01H
__85A6FDFE_tuple DB 01H
__C70F9156_Instance@hpp DB 01H
__0ED14FEE_winpackagefamily@h DB 01H
__F92EF742_winapifamily@h DB 01H
__B064E8EE_gl@h DB 01H
__D81DEF64_glfw3@h DB 01H
__FA77ED4C_malloc@h DB 01H
__89766DA4_corecrt_terminate@h DB 01H
__1CC3922D_eh@h DB 01H
__6A8FA247_vcruntime_exception@h DB 01H
__AC999D0E_exception DB 01H
__E291182A_iosfwd DB 01H
__04BF37C5_new DB 01H
__A69511D8_xatomic@h DB 01H
__48ED051B_xmemory DB 01H
__01FC9A31_xpolymorphic_allocator@h DB 01H
__3C3E8387_xstring DB 01H
__25D7A753_stdexcept DB 01H
__E8A7DAC2_Window@hpp DB 01H
__63D5BD4C_vector DB 01H
__1B6E63DA_xsmf_control@h DB 01H
__14737915_optional DB 01H
__61615CFA_Device@hpp DB 01H
__2B8D1AA2_vcruntime_typeinfo@h DB 01H
__0D78260D_typeinfo DB 01H
__13D0C879_xatomic_wait@h DB 01H
__0A9237D2_time@h DB 01H
__E53678B7_ctime DB 01H
__CB633655_xtimec@h DB 01H
__833E5CBC_xthreads@h DB 01H
__454D916E_atomic DB 01H
__92D6C122_memory DB 01H
__125A2BD9_array DB 01H
__CE2F1DBE_Swapchain@hpp DB 01H
__C27AF25F_Swapchain@cpp DB 01H
msvcjmc	ENDS
PUBLIC	?is_constant_evaluated@std@@YA_NXZ		; std::is_constant_evaluated
PUBLIC	?max@?$numeric_limits@I@std@@SAIXZ		; std::numeric_limits<unsigned int>::max
PUBLIC	?max@?$numeric_limits@_K@std@@SA_KXZ		; std::numeric_limits<unsigned __int64>::max
PUBLIC	??0exception@std@@QEAA@QEBD@Z			; std::exception::exception
PUBLIC	??0exception@std@@QEAA@AEBV01@@Z		; std::exception::exception
PUBLIC	??1exception@std@@UEAA@XZ			; std::exception::~exception
PUBLIC	?what@exception@std@@UEBAPEBDXZ			; std::exception::what
PUBLIC	??_Gexception@std@@UEAAPEAXI@Z			; std::exception::`scalar deleting destructor'
PUBLIC	?_Adjust_manually_vector_aligned@std@@YAXAEAPEAXAEA_K@Z ; std::_Adjust_manually_vector_aligned
PUBLIC	?_Orphan_all@_Container_base12@std@@QEAAXXZ	; std::_Container_base12::_Orphan_all
PUBLIC	?_Orphan_all_unlocked_v3@_Container_base12@std@@AEAAXXZ ; std::_Container_base12::_Orphan_all_unlocked_v3
PUBLIC	?_Orphan_all_locked_v3@_Container_base12@std@@AEAAXXZ ; std::_Container_base12::_Orphan_all_locked_v3
PUBLIC	??0runtime_error@std@@QEAA@PEBD@Z		; std::runtime_error::runtime_error
PUBLIC	??1runtime_error@std@@UEAA@XZ			; std::runtime_error::~runtime_error
PUBLIC	??0runtime_error@std@@QEAA@AEBV01@@Z		; std::runtime_error::runtime_error
PUBLIC	??_Gruntime_error@std@@UEAAPEAXI@Z		; std::runtime_error::`scalar deleting destructor'
PUBLIC	??D?$_Optional_construct_base@I@std@@QEGAAAEAIXZ ; std::_Optional_construct_base<unsigned int>::operator*
PUBLIC	?deallocate@?$allocator@UVkSurfaceFormatKHR@@@std@@QEAAXQEAUVkSurfaceFormatKHR@@_K@Z ; std::allocator<VkSurfaceFormatKHR>::deallocate
PUBLIC	??1?$vector@UVkSurfaceFormatKHR@@V?$allocator@UVkSurfaceFormatKHR@@@std@@@std@@QEAA@XZ ; std::vector<VkSurfaceFormatKHR,std::allocator<VkSurfaceFormatKHR> >::~vector<VkSurfaceFormatKHR,std::allocator<VkSurfaceFormatKHR> >
PUBLIC	?data@?$vector@UVkSurfaceFormatKHR@@V?$allocator@UVkSurfaceFormatKHR@@@std@@@std@@QEAAPEAUVkSurfaceFormatKHR@@XZ ; std::vector<VkSurfaceFormatKHR,std::allocator<VkSurfaceFormatKHR> >::data
PUBLIC	?size@?$vector@UVkSurfaceFormatKHR@@V?$allocator@UVkSurfaceFormatKHR@@@std@@@std@@QEBA_KXZ ; std::vector<VkSurfaceFormatKHR,std::allocator<VkSurfaceFormatKHR> >::size
PUBLIC	?_Tidy@?$vector@UVkSurfaceFormatKHR@@V?$allocator@UVkSurfaceFormatKHR@@@std@@@std@@AEAAXXZ ; std::vector<VkSurfaceFormatKHR,std::allocator<VkSurfaceFormatKHR> >::_Tidy
PUBLIC	?_Getal@?$vector@UVkSurfaceFormatKHR@@V?$allocator@UVkSurfaceFormatKHR@@@std@@@std@@AEAAAEAV?$allocator@UVkSurfaceFormatKHR@@@2@XZ ; std::vector<VkSurfaceFormatKHR,std::allocator<VkSurfaceFormatKHR> >::_Getal
PUBLIC	?_Get_first@?$_Compressed_pair@V?$allocator@UVkSurfaceFormatKHR@@@std@@V?$_Vector_val@U?$_Simple_types@UVkSurfaceFormatKHR@@@std@@@2@$00@std@@QEAAAEAV?$allocator@UVkSurfaceFormatKHR@@@2@XZ ; std::_Compressed_pair<std::allocator<VkSurfaceFormatKHR>,std::_Vector_val<std::_Simple_types<VkSurfaceFormatKHR> >,1>::_Get_first
PUBLIC	?deallocate@?$allocator@W4VkPresentModeKHR@@@std@@QEAAXQEAW4VkPresentModeKHR@@_K@Z ; std::allocator<enum VkPresentModeKHR>::deallocate
PUBLIC	??1?$vector@W4VkPresentModeKHR@@V?$allocator@W4VkPresentModeKHR@@@std@@@std@@QEAA@XZ ; std::vector<enum VkPresentModeKHR,std::allocator<enum VkPresentModeKHR> >::~vector<enum VkPresentModeKHR,std::allocator<enum VkPresentModeKHR> >
PUBLIC	?data@?$vector@W4VkPresentModeKHR@@V?$allocator@W4VkPresentModeKHR@@@std@@@std@@QEAAPEAW4VkPresentModeKHR@@XZ ; std::vector<enum VkPresentModeKHR,std::allocator<enum VkPresentModeKHR> >::data
PUBLIC	?size@?$vector@W4VkPresentModeKHR@@V?$allocator@W4VkPresentModeKHR@@@std@@@std@@QEBA_KXZ ; std::vector<enum VkPresentModeKHR,std::allocator<enum VkPresentModeKHR> >::size
PUBLIC	?_Tidy@?$vector@W4VkPresentModeKHR@@V?$allocator@W4VkPresentModeKHR@@@std@@@std@@AEAAXXZ ; std::vector<enum VkPresentModeKHR,std::allocator<enum VkPresentModeKHR> >::_Tidy
PUBLIC	?_Getal@?$vector@W4VkPresentModeKHR@@V?$allocator@W4VkPresentModeKHR@@@std@@@std@@AEAAAEAV?$allocator@W4VkPresentModeKHR@@@2@XZ ; std::vector<enum VkPresentModeKHR,std::allocator<enum VkPresentModeKHR> >::_Getal
PUBLIC	?_Get_first@?$_Compressed_pair@V?$allocator@W4VkPresentModeKHR@@@std@@V?$_Vector_val@U?$_Simple_types@W4VkPresentModeKHR@@@std@@@2@$00@std@@QEAAAEAV?$allocator@W4VkPresentModeKHR@@@2@XZ ; std::_Compressed_pair<std::allocator<enum VkPresentModeKHR>,std::_Vector_val<std::_Simple_types<enum VkPresentModeKHR> >,1>::_Get_first
PUBLIC	??1SwapChainSupportDetails@cow@@QEAA@XZ		; cow::SwapChainSupportDetails::~SwapChainSupportDetails
PUBLIC	?getDevice@Device@cow@@QEAAPEAUVkDevice_T@@XZ	; cow::Device::getDevice
PUBLIC	?_Incref@_Ref_count_base@std@@QEAAXXZ		; std::_Ref_count_base::_Incref
PUBLIC	?_Decref@_Ref_count_base@std@@QEAAXXZ		; std::_Ref_count_base::_Decref
PUBLIC	?_Decwref@_Ref_count_base@std@@QEAAXXZ		; std::_Ref_count_base::_Decwref
PUBLIC	??0Swapchain@cow@@QEAA@AEAVDevice@1@UVkExtent2D@@@Z ; cow::Swapchain::Swapchain
PUBLIC	??0Swapchain@cow@@QEAA@AEAVDevice@1@UVkExtent2D@@V?$shared_ptr@VSwapchain@cow@@@std@@@Z ; cow::Swapchain::Swapchain
PUBLIC	??1Swapchain@cow@@QEAA@XZ			; cow::Swapchain::~Swapchain
PUBLIC	?nextImage@Swapchain@cow@@QEAA?AW4VkResult@@PEAI@Z ; cow::Swapchain::nextImage
PUBLIC	?submit@Swapchain@cow@@QEAA?AW4VkResult@@PEBQEAUVkCommandBuffer_T@@PEAI@Z ; cow::Swapchain::submit
PUBLIC	?createSwapchain@Swapchain@cow@@AEAAXXZ		; cow::Swapchain::createSwapchain
PUBLIC	?chooseSurfaceFormatKHR@Swapchain@cow@@AEAA?AUVkSurfaceFormatKHR@@PEAU3@I@Z ; cow::Swapchain::chooseSurfaceFormatKHR
PUBLIC	?choosePresentModeKHR@Swapchain@cow@@AEAA?AW4VkPresentModeKHR@@PEAW43@I@Z ; cow::Swapchain::choosePresentModeKHR
PUBLIC	?chooseExtent2D@Swapchain@cow@@AEAA?AUVkExtent2D@@AEBUVkSurfaceCapabilitiesKHR@@@Z ; cow::Swapchain::chooseExtent2D
PUBLIC	?createRenderingObjects@Swapchain@cow@@AEAAXXZ	; cow::Swapchain::createRenderingObjects
PUBLIC	?findMemoryType@Swapchain@cow@@AEAAIII@Z	; cow::Swapchain::findMemoryType
PUBLIC	?createSyncObjects@Swapchain@cow@@AEAAXXZ	; cow::Swapchain::createSyncObjects
PUBLIC	?get@?$_Ptr_base@VSwapchain@cow@@@std@@IEBAPEAVSwapchain@cow@@XZ ; std::_Ptr_base<cow::Swapchain>::get
PUBLIC	??0?$_Ptr_base@VSwapchain@cow@@@std@@IEAA@XZ	; std::_Ptr_base<cow::Swapchain>::_Ptr_base<cow::Swapchain>
PUBLIC	?_Incref@?$_Ptr_base@VSwapchain@cow@@@std@@IEBAXXZ ; std::_Ptr_base<cow::Swapchain>::_Incref
PUBLIC	?_Decref@?$_Ptr_base@VSwapchain@cow@@@std@@IEAAXXZ ; std::_Ptr_base<cow::Swapchain>::_Decref
PUBLIC	?_Swap@?$_Ptr_base@VSwapchain@cow@@@std@@IEAAXAEAV12@@Z ; std::_Ptr_base<cow::Swapchain>::_Swap
PUBLIC	??0?$shared_ptr@VSwapchain@cow@@@std@@QEAA@XZ	; std::shared_ptr<cow::Swapchain>::shared_ptr<cow::Swapchain>
PUBLIC	??0?$shared_ptr@VSwapchain@cow@@@std@@QEAA@$$T@Z ; std::shared_ptr<cow::Swapchain>::shared_ptr<cow::Swapchain>
PUBLIC	??0?$shared_ptr@VSwapchain@cow@@@std@@QEAA@AEBV01@@Z ; std::shared_ptr<cow::Swapchain>::shared_ptr<cow::Swapchain>
PUBLIC	??0?$shared_ptr@VSwapchain@cow@@@std@@QEAA@$$QEAV01@@Z ; std::shared_ptr<cow::Swapchain>::shared_ptr<cow::Swapchain>
PUBLIC	??1?$shared_ptr@VSwapchain@cow@@@std@@QEAA@XZ	; std::shared_ptr<cow::Swapchain>::~shared_ptr<cow::Swapchain>
PUBLIC	??4?$shared_ptr@VSwapchain@cow@@@std@@QEAAAEAV01@$$QEAV01@@Z ; std::shared_ptr<cow::Swapchain>::operator=
PUBLIC	?swap@?$shared_ptr@VSwapchain@cow@@@std@@QEAAXAEAV12@@Z ; std::shared_ptr<cow::Swapchain>::swap
PUBLIC	??$?8VSwapchain@cow@@@std@@YA_NAEBV?$shared_ptr@VSwapchain@cow@@@0@$$T@Z ; std::operator==<cow::Swapchain>
PUBLIC	??$?CVSwapchain@cow@@$0A@@?$shared_ptr@VSwapchain@cow@@@std@@QEBAPEAVSwapchain@cow@@XZ ; std::shared_ptr<cow::Swapchain>::operator-><cow::Swapchain,0>
PUBLIC	??$min@I@std@@YAAEBIAEBI0@Z			; std::min<unsigned int>
PUBLIC	??$max@I@std@@YAAEBIAEBI0@Z			; std::max<unsigned int>
PUBLIC	?size@?$array@UVkAttachmentDescription@@$01@std@@QEBA_KXZ ; std::array<VkAttachmentDescription,2>::size
PUBLIC	?data@?$array@UVkAttachmentDescription@@$01@std@@QEAAPEAUVkAttachmentDescription@@XZ ; std::array<VkAttachmentDescription,2>::data
PUBLIC	?size@?$array@PEAUVkImageView_T@@$01@std@@QEBA_KXZ ; std::array<VkImageView_T *,2>::size
PUBLIC	?data@?$array@PEAUVkImageView_T@@$01@std@@QEAAPEAPEAUVkImageView_T@@XZ ; std::array<VkImageView_T *,2>::data
PUBLIC	??$move@AEAV?$shared_ptr@VSwapchain@cow@@@std@@@std@@YA$$QEAV?$shared_ptr@VSwapchain@cow@@@0@AEAV10@@Z ; std::move<std::shared_ptr<cow::Swapchain> &>
PUBLIC	??$_Copy_construct_from@VSwapchain@cow@@@?$_Ptr_base@VSwapchain@cow@@@std@@IEAAXAEBV?$shared_ptr@VSwapchain@cow@@@1@@Z ; std::_Ptr_base<cow::Swapchain>::_Copy_construct_from<cow::Swapchain>
PUBLIC	??$_Unfancy_maybe_null@W4VkPresentModeKHR@@@std@@YAPEAW4VkPresentModeKHR@@PEAW41@@Z ; std::_Unfancy_maybe_null<enum VkPresentModeKHR>
PUBLIC	?deallocate@?$allocator@U_Container_proxy@std@@@std@@QEAAXQEAU_Container_proxy@2@_K@Z ; std::allocator<std::_Container_proxy>::deallocate
PUBLIC	??$?0W4VkPresentModeKHR@@@?$allocator@U_Container_proxy@std@@@std@@QEAA@AEBV?$allocator@W4VkPresentModeKHR@@@1@@Z ; std::allocator<std::_Container_proxy>::allocator<std::_Container_proxy><enum VkPresentModeKHR>
PUBLIC	??$exchange@PEAU_Container_proxy@std@@$$T@std@@YAPEAU_Container_proxy@0@AEAPEAU10@$$QEA$$T@Z ; std::exchange<std::_Container_proxy *,std::nullptr_t>
PUBLIC	??$_Delete_plain_internal@V?$allocator@U_Container_proxy@std@@@std@@@std@@YAXAEAV?$allocator@U_Container_proxy@std@@@0@QEAU_Container_proxy@0@@Z ; std::_Delete_plain_internal<std::allocator<std::_Container_proxy> >
PUBLIC	??$_Unfancy_maybe_null@UVkSurfaceFormatKHR@@@std@@YAPEAUVkSurfaceFormatKHR@@PEAU1@@Z ; std::_Unfancy_maybe_null<VkSurfaceFormatKHR>
PUBLIC	??$?0UVkSurfaceFormatKHR@@@?$allocator@U_Container_proxy@std@@@std@@QEAA@AEBV?$allocator@UVkSurfaceFormatKHR@@@1@@Z ; std::allocator<std::_Container_proxy>::allocator<std::_Container_proxy><VkSurfaceFormatKHR>
PUBLIC	??$_Move_construct_from@VSwapchain@cow@@@?$_Ptr_base@VSwapchain@cow@@@std@@IEAAX$$QEAV01@@Z ; std::_Ptr_base<cow::Swapchain>::_Move_construct_from<cow::Swapchain>
PUBLIC	??$_Destroy_range@V?$allocator@W4VkPresentModeKHR@@@std@@@std@@YAXPEAW4VkPresentModeKHR@@QEAW41@AEAV?$allocator@W4VkPresentModeKHR@@@0@@Z ; std::_Destroy_range<std::allocator<enum VkPresentModeKHR> >
PUBLIC	??$_Destroy_range@V?$allocator@UVkSurfaceFormatKHR@@@std@@@std@@YAXPEAUVkSurfaceFormatKHR@@QEAU1@AEAV?$allocator@UVkSurfaceFormatKHR@@@0@@Z ; std::_Destroy_range<std::allocator<VkSurfaceFormatKHR> >
PUBLIC	??$swap@PEAVSwapchain@cow@@$0A@@std@@YAXAEAPEAVSwapchain@cow@@0@Z ; std::swap<cow::Swapchain *,0>
PUBLIC	??$swap@PEAV_Ref_count_base@std@@$0A@@std@@YAXAEAPEAV_Ref_count_base@0@0@Z ; std::swap<std::_Ref_count_base *,0>
PUBLIC	??$_Deallocate@$0BA@$0A@@std@@YAXPEAX_K@Z	; std::_Deallocate<16,0>
PUBLIC	??$_Deallocate_plain@V?$allocator@U_Container_proxy@std@@@std@@@std@@YAXAEAV?$allocator@U_Container_proxy@std@@@0@QEAU_Container_proxy@0@@Z ; std::_Deallocate_plain<std::allocator<std::_Container_proxy> >
PUBLIC	??$move@AEAPEAVSwapchain@cow@@@std@@YA$$QEAPEAVSwapchain@cow@@AEAPEAV12@@Z ; std::move<cow::Swapchain * &>
PUBLIC	??$move@AEAPEAV_Ref_count_base@std@@@std@@YA$$QEAPEAV_Ref_count_base@0@AEAPEAV10@@Z ; std::move<std::_Ref_count_base * &>
PUBLIC	?deallocate@?$_Default_allocator_traits@V?$allocator@U_Container_proxy@std@@@std@@@std@@SAXAEAV?$allocator@U_Container_proxy@std@@@2@QEAU_Container_proxy@2@_K@Z ; std::_Default_allocator_traits<std::allocator<std::_Container_proxy> >::deallocate
PUBLIC	__JustMyCode_Default
PUBLIC	??_7exception@std@@6B@				; std::exception::`vftable'
PUBLIC	??_C@_0BC@EOODALEL@Unknown?5exception@		; `string'
PUBLIC	??_R0?AVexception@std@@@8			; std::exception `RTTI Type Descriptor'
PUBLIC	_CT??_R0?AVexception@std@@@8??0exception@std@@QEAA@AEBV01@@Z24
PUBLIC	?__LINE__Var@?0??_Adjust_manually_vector_aligned@std@@YAXAEAPEAXAEA_K@Z@4JA ; `std::_Adjust_manually_vector_aligned'::`1'::__LINE__Var
PUBLIC	??_C@_0BB@FCMFBGOM@invalid?5argument@		; `string'
PUBLIC	??_C@_02DKCKIIND@?$CFs@				; `string'
PUBLIC	??_C@_0GC@DJFHHHKN@C?3?2Program?5Files?2Microsoft?5Visu@ ; `string'
PUBLIC	??_C@_1ME@GEFGDEOM@?$AAC?$AA?3?$AA?2?$AAP?$AAr?$AAo?$AAg?$AAr?$AAa?$AAm?$AA?5?$AAF?$AAi?$AAl?$AAe@ ; `string'
PUBLIC	??_C@_11LOCGONAA@@				; `string'
PUBLIC	??_C@_1CG@JNLFBNGN@?$AA?$CC?$AAi?$AAn?$AAv?$AAa?$AAl?$AAi?$AAd?$AA?5?$AAa?$AAr?$AAg?$AAu?$AAm?$AAe@ ; `string'
PUBLIC	??_7runtime_error@std@@6B@			; std::runtime_error::`vftable'
PUBLIC	??_R0?AVruntime_error@std@@@8			; std::runtime_error `RTTI Type Descriptor'
PUBLIC	_CT??_R0?AVruntime_error@std@@@8??0runtime_error@std@@QEAA@AEBV01@@Z24
PUBLIC	_TI2?AVruntime_error@std@@
PUBLIC	_CTA2?AVruntime_error@std@@
PUBLIC	??_C@_0BN@JPMJIOML@failed?5to?5create?5swap?5chain?$CB@ ; `string'
PUBLIC	??_C@_0CF@NBFKCJOJ@failed?5to?5create?5texture?5image?5@ ; `string'
PUBLIC	??_C@_0BO@GGPPBLGH@failed?5to?5create?5render?5pass?$CB@ ; `string'
PUBLIC	??_C@_0BI@JCMIBCDA@failed?5to?5create?5image?$CB@ ; `string'
PUBLIC	??_C@_0CB@MDMPALHA@failed?5to?5allocate?5image?5memory@ ; `string'
PUBLIC	??_C@_0BN@BFJFPHFL@failed?5to?5bind?5image?5memory?$CB@ ; `string'
PUBLIC	??_C@_0BO@BLGFKEIN@failed?5to?5create?5framebuffer?$CB@ ; `string'
PUBLIC	??_C@_0DG@GMFJPIOC@failed?5to?5create?5synchronizatio@ ; `string'
PUBLIC	??_C@_0CF@GDABOGAP@failed?5to?5find?5suitable?5memory?5@ ; `string'
PUBLIC	??_C@_0CG@BHENODHP@failed?5to?5submit?5draw?5command?5b@ ; `string'
PUBLIC	??_C@_0CG@LKEBOLJI@Cannot?5access?5value?5of?5empty?5op@ ; `string'
PUBLIC	??_C@_0GD@BMMLGIEI@C?3?2Program?5Files?2Microsoft?5Visu@ ; `string'
PUBLIC	??_C@_1MG@LOEFAMPE@?$AAC?$AA?3?$AA?2?$AAP?$AAr?$AAo?$AAg?$AAr?$AAa?$AAm?$AA?5?$AAF?$AAi?$AAl?$AAe@ ; `string'
PUBLIC	??_C@_1FA@DPIDPJCB@?$AA?$CC?$AAC?$AAa?$AAn?$AAn?$AAo?$AAt?$AA?5?$AAa?$AAc?$AAc?$AAe?$AAs?$AAs?$AA?5@ ; `string'
PUBLIC	??_C@_0DG@KGHKKGBC@null?5pointer?5cannot?5point?5to?5a?5@ ; `string'
PUBLIC	??_C@_1HA@FACCKGGH@?$AA?$CC?$AAn?$AAu?$AAl?$AAl?$AA?5?$AAp?$AAo?$AAi?$AAn?$AAt?$AAe?$AAr?$AA?5?$AAc@ ; `string'
PUBLIC	??_R4exception@std@@6B@				; std::exception::`RTTI Complete Object Locator'
PUBLIC	??_R3exception@std@@8				; std::exception::`RTTI Class Hierarchy Descriptor'
PUBLIC	??_R2exception@std@@8				; std::exception::`RTTI Base Class Array'
PUBLIC	??_R1A@?0A@EA@exception@std@@8			; std::exception::`RTTI Base Class Descriptor at (0,-1,0,64)'
PUBLIC	??_R4runtime_error@std@@6B@			; std::runtime_error::`RTTI Complete Object Locator'
PUBLIC	??_R3runtime_error@std@@8			; std::runtime_error::`RTTI Class Hierarchy Descriptor'
PUBLIC	??_R2runtime_error@std@@8			; std::runtime_error::`RTTI Base Class Array'
PUBLIC	??_R1A@?0A@EA@runtime_error@std@@8		; std::runtime_error::`RTTI Base Class Descriptor at (0,-1,0,64)'
EXTRN	??3@YAXPEAX@Z:PROC				; operator delete
EXTRN	??3@YAXPEAX_K@Z:PROC				; operator delete
EXTRN	__imp__invalid_parameter:PROC
EXTRN	vkGetPhysicalDeviceMemoryProperties:PROC
EXTRN	vkQueueSubmit:PROC
EXTRN	vkAllocateMemory:PROC
EXTRN	vkFreeMemory:PROC
EXTRN	vkBindImageMemory:PROC
EXTRN	vkGetImageMemoryRequirements:PROC
EXTRN	vkCreateFence:PROC
EXTRN	vkDestroyFence:PROC
EXTRN	vkResetFences:PROC
EXTRN	vkWaitForFences:PROC
EXTRN	vkCreateSemaphore:PROC
EXTRN	vkDestroySemaphore:PROC
EXTRN	vkCreateImage:PROC
EXTRN	vkDestroyImage:PROC
EXTRN	vkCreateImageView:PROC
EXTRN	vkDestroyImageView:PROC
EXTRN	vkCreateFramebuffer:PROC
EXTRN	vkDestroyFramebuffer:PROC
EXTRN	vkCreateRenderPass:PROC
EXTRN	vkDestroyRenderPass:PROC
EXTRN	vkCreateSwapchainKHR:PROC
EXTRN	vkDestroySwapchainKHR:PROC
EXTRN	vkGetSwapchainImagesKHR:PROC
EXTRN	vkAcquireNextImageKHR:PROC
EXTRN	vkQueuePresentKHR:PROC
EXTRN	__imp_calloc:PROC
EXTRN	__imp_free:PROC
EXTRN	__imp__CrtDbgReport:PROC
EXTRN	__imp_??0_Lockit@std@@QEAA@H@Z:PROC
EXTRN	__imp_??1_Lockit@std@@QEAA@XZ:PROC
EXTRN	__std_exception_copy:PROC
EXTRN	__std_exception_destroy:PROC
EXTRN	??_Eexception@std@@UEAAPEAXI@Z:PROC		; std::exception::`vector deleting destructor'
EXTRN	??_Eruntime_error@std@@UEAAPEAXI@Z:PROC		; std::runtime_error::`vector deleting destructor'
EXTRN	?findQueues@Device@cow@@AEAA?AUQueueInUse@2@PEAUVkPhysicalDevice_T@@@Z:PROC ; cow::Device::findQueues
EXTRN	?querySwapChainSupport@Device@cow@@AEAA?AUSwapChainSupportDetails@2@PEAUVkPhysicalDevice_T@@@Z:PROC ; cow::Device::querySwapChainSupport
EXTRN	?findSupportedFormat@Device@cow@@AEAA?AW4VkFormat@@IPEAW43@W4VkImageTiling@@I@Z:PROC ; cow::Device::findSupportedFormat
EXTRN	_CxxThrowException:PROC
EXTRN	_RTC_CheckStackVars:PROC
EXTRN	_RTC_InitBase:PROC
EXTRN	_RTC_Shutdown:PROC
EXTRN	__CheckForDebuggerJustMyCode:PROC
EXTRN	__CxxFrameHandler4:PROC
EXTRN	__GSHandlerCheck:PROC
EXTRN	__GSHandlerCheck_EH4:PROC
EXTRN	__security_check_cookie:PROC
EXTRN	??_7type_info@@6B@:BYTE				; type_info::`vftable'
EXTRN	__security_cookie:QWORD
;	COMDAT pdata
pdata	SEGMENT
$pdata$?is_constant_evaluated@std@@YA_NXZ DD imagerel $LN3
	DD	imagerel $LN3+39
	DD	imagerel $unwind$?is_constant_evaluated@std@@YA_NXZ
pdata	ENDS
;	COMDAT pdata
pdata	SEGMENT
$pdata$?max@?$numeric_limits@I@std@@SAIXZ DD imagerel $LN3
	DD	imagerel $LN3+42
	DD	imagerel $unwind$?max@?$numeric_limits@I@std@@SAIXZ
pdata	ENDS
;	COMDAT pdata
pdata	SEGMENT
$pdata$?max@?$numeric_limits@_K@std@@SA_KXZ DD imagerel $LN3
	DD	imagerel $LN3+44
	DD	imagerel $unwind$?max@?$numeric_limits@_K@std@@SA_KXZ
pdata	ENDS
;	COMDAT pdata
pdata	SEGMENT
$pdata$??0exception@std@@QEAA@QEBD@Z DD imagerel $LN3
	DD	imagerel $LN3+210
	DD	imagerel $unwind$??0exception@std@@QEAA@QEBD@Z
pdata	ENDS
;	COMDAT pdata
pdata	SEGMENT
$pdata$??0exception@std@@QEAA@AEBV01@@Z DD imagerel $LN3
	DD	imagerel $LN3+123
	DD	imagerel $unwind$??0exception@std@@QEAA@AEBV01@@Z
pdata	ENDS
;	COMDAT pdata
pdata	SEGMENT
$pdata$??1exception@std@@UEAA@XZ DD imagerel $LN3
	DD	imagerel $LN3+77
	DD	imagerel $unwind$??1exception@std@@UEAA@XZ
pdata	ENDS
;	COMDAT pdata
pdata	SEGMENT
$pdata$?what@exception@std@@UEBAPEBDXZ DD imagerel $LN5
	DD	imagerel $LN5+96
	DD	imagerel $unwind$?what@exception@std@@UEBAPEBDXZ
pdata	ENDS
;	COMDAT pdata
pdata	SEGMENT
$pdata$??_Gexception@std@@UEAAPEAXI@Z DD imagerel $LN4
	DD	imagerel $LN4+82
	DD	imagerel $unwind$??_Gexception@std@@UEAAPEAXI@Z
pdata	ENDS
;	COMDAT pdata
pdata	SEGMENT
$pdata$?_Adjust_manually_vector_aligned@std@@YAXAEAPEAXAEA_K@Z DD imagerel $LN21
	DD	imagerel $LN21+453
	DD	imagerel $unwind$?_Adjust_manually_vector_aligned@std@@YAXAEAPEAXAEA_K@Z
pdata	ENDS
;	COMDAT pdata
pdata	SEGMENT
$pdata$?_Orphan_all@_Container_base12@std@@QEAAXXZ DD imagerel $LN5
	DD	imagerel $LN5+79
	DD	imagerel $unwind$?_Orphan_all@_Container_base12@std@@QEAAXXZ
pdata	ENDS
;	COMDAT pdata
pdata	SEGMENT
$pdata$?_Orphan_all_unlocked_v3@_Container_base12@std@@AEAAXXZ DD imagerel $LN7
	DD	imagerel $LN7+138
	DD	imagerel $unwind$?_Orphan_all_unlocked_v3@_Container_base12@std@@AEAAXXZ
pdata	ENDS
;	COMDAT pdata
pdata	SEGMENT
$pdata$?_Orphan_all_locked_v3@_Container_base12@std@@AEAAXXZ DD imagerel $LN3
	DD	imagerel $LN3+151
	DD	imagerel $unwind$?_Orphan_all_locked_v3@_Container_base12@std@@AEAAXXZ
pdata	ENDS
;	COMDAT pdata
pdata	SEGMENT
$pdata$??0runtime_error@std@@QEAA@PEBD@Z DD imagerel $LN4
	DD	imagerel $LN4+89
	DD	imagerel $unwind$??0runtime_error@std@@QEAA@PEBD@Z
pdata	ENDS
;	COMDAT pdata
pdata	SEGMENT
$pdata$??1runtime_error@std@@UEAA@XZ DD imagerel $LN3
	DD	imagerel $LN3+41
	DD	imagerel $unwind$??1runtime_error@std@@UEAA@XZ
pdata	ENDS
;	COMDAT pdata
pdata	SEGMENT
$pdata$??0runtime_error@std@@QEAA@AEBV01@@Z DD imagerel $LN3
	DD	imagerel $LN3+77
	DD	imagerel $unwind$??0runtime_error@std@@QEAA@AEBV01@@Z
pdata	ENDS
;	COMDAT pdata
pdata	SEGMENT
$pdata$??_Gruntime_error@std@@UEAAPEAXI@Z DD imagerel $LN4
	DD	imagerel $LN4+82
	DD	imagerel $unwind$??_Gruntime_error@std@@UEAAPEAXI@Z
pdata	ENDS
;	COMDAT pdata
pdata	SEGMENT
$pdata$??D?$_Optional_construct_base@I@std@@QEGAAAEAIXZ DD imagerel $LN12
	DD	imagerel $LN12+182
	DD	imagerel $unwind$??D?$_Optional_construct_base@I@std@@QEGAAAEAIXZ
pdata	ENDS
;	COMDAT pdata
pdata	SEGMENT
$pdata$?deallocate@?$allocator@UVkSurfaceFormatKHR@@@std@@QEAAXQEAUVkSurfaceFormatKHR@@_K@Z DD imagerel $LN13
	DD	imagerel $LN13+216
	DD	imagerel $unwind$?deallocate@?$allocator@UVkSurfaceFormatKHR@@@std@@QEAAXQEAUVkSurfaceFormatKHR@@_K@Z
pdata	ENDS
;	COMDAT pdata
pdata	SEGMENT
$pdata$??1?$vector@UVkSurfaceFormatKHR@@V?$allocator@UVkSurfaceFormatKHR@@@std@@@std@@QEAA@XZ DD imagerel $LN3
	DD	imagerel $LN3+203
	DD	imagerel $unwind$??1?$vector@UVkSurfaceFormatKHR@@V?$allocator@UVkSurfaceFormatKHR@@@std@@@std@@QEAA@XZ
pdata	ENDS
;	COMDAT pdata
pdata	SEGMENT
$pdata$?data@?$vector@UVkSurfaceFormatKHR@@V?$allocator@UVkSurfaceFormatKHR@@@std@@@std@@QEAAPEAUVkSurfaceFormatKHR@@XZ DD imagerel $LN3
	DD	imagerel $LN3+57
	DD	imagerel $unwind$?data@?$vector@UVkSurfaceFormatKHR@@V?$allocator@UVkSurfaceFormatKHR@@@std@@@std@@QEAAPEAUVkSurfaceFormatKHR@@XZ
pdata	ENDS
;	COMDAT pdata
pdata	SEGMENT
$pdata$?size@?$vector@UVkSurfaceFormatKHR@@V?$allocator@UVkSurfaceFormatKHR@@@std@@@std@@QEBA_KXZ DD imagerel $LN3
	DD	imagerel $LN3+75
	DD	imagerel $unwind$?size@?$vector@UVkSurfaceFormatKHR@@V?$allocator@UVkSurfaceFormatKHR@@@std@@@std@@QEBA_KXZ
pdata	ENDS
;	COMDAT pdata
pdata	SEGMENT
$pdata$?_Tidy@?$vector@UVkSurfaceFormatKHR@@V?$allocator@UVkSurfaceFormatKHR@@@std@@@std@@AEAAXXZ DD imagerel $LN4
	DD	imagerel $LN4+228
	DD	imagerel $unwind$?_Tidy@?$vector@UVkSurfaceFormatKHR@@V?$allocator@UVkSurfaceFormatKHR@@@std@@@std@@AEAAXXZ
pdata	ENDS
;	COMDAT pdata
pdata	SEGMENT
$pdata$?_Getal@?$vector@UVkSurfaceFormatKHR@@V?$allocator@UVkSurfaceFormatKHR@@@std@@@std@@AEAAAEAV?$allocator@UVkSurfaceFormatKHR@@@2@XZ DD imagerel $LN3
	DD	imagerel $LN3+56
	DD	imagerel $unwind$?_Getal@?$vector@UVkSurfaceFormatKHR@@V?$allocator@UVkSurfaceFormatKHR@@@std@@@std@@AEAAAEAV?$allocator@UVkSurfaceFormatKHR@@@2@XZ
pdata	ENDS
;	COMDAT pdata
pdata	SEGMENT
$pdata$?_Get_first@?$_Compressed_pair@V?$allocator@UVkSurfaceFormatKHR@@@std@@V?$_Vector_val@U?$_Simple_types@UVkSurfaceFormatKHR@@@std@@@2@$00@std@@QEAAAEAV?$allocator@UVkSurfaceFormatKHR@@@2@XZ DD imagerel $LN3
	DD	imagerel $LN3+48
	DD	imagerel $unwind$?_Get_first@?$_Compressed_pair@V?$allocator@UVkSurfaceFormatKHR@@@std@@V?$_Vector_val@U?$_Simple_types@UVkSurfaceFormatKHR@@@std@@@2@$00@std@@QEAAAEAV?$allocator@UVkSurfaceFormatKHR@@@2@XZ
pdata	ENDS
;	COMDAT pdata
pdata	SEGMENT
$pdata$?deallocate@?$allocator@W4VkPresentModeKHR@@@std@@QEAAXQEAW4VkPresentModeKHR@@_K@Z DD imagerel $LN13
	DD	imagerel $LN13+216
	DD	imagerel $unwind$?deallocate@?$allocator@W4VkPresentModeKHR@@@std@@QEAAXQEAW4VkPresentModeKHR@@_K@Z
pdata	ENDS
;	COMDAT pdata
pdata	SEGMENT
$pdata$??1?$vector@W4VkPresentModeKHR@@V?$allocator@W4VkPresentModeKHR@@@std@@@std@@QEAA@XZ DD imagerel $LN3
	DD	imagerel $LN3+203
	DD	imagerel $unwind$??1?$vector@W4VkPresentModeKHR@@V?$allocator@W4VkPresentModeKHR@@@std@@@std@@QEAA@XZ
pdata	ENDS
;	COMDAT pdata
pdata	SEGMENT
$pdata$?data@?$vector@W4VkPresentModeKHR@@V?$allocator@W4VkPresentModeKHR@@@std@@@std@@QEAAPEAW4VkPresentModeKHR@@XZ DD imagerel $LN3
	DD	imagerel $LN3+57
	DD	imagerel $unwind$?data@?$vector@W4VkPresentModeKHR@@V?$allocator@W4VkPresentModeKHR@@@std@@@std@@QEAAPEAW4VkPresentModeKHR@@XZ
pdata	ENDS
;	COMDAT pdata
pdata	SEGMENT
$pdata$?size@?$vector@W4VkPresentModeKHR@@V?$allocator@W4VkPresentModeKHR@@@std@@@std@@QEBA_KXZ DD imagerel $LN3
	DD	imagerel $LN3+75
	DD	imagerel $unwind$?size@?$vector@W4VkPresentModeKHR@@V?$allocator@W4VkPresentModeKHR@@@std@@@std@@QEBA_KXZ
pdata	ENDS
;	COMDAT pdata
pdata	SEGMENT
$pdata$?_Tidy@?$vector@W4VkPresentModeKHR@@V?$allocator@W4VkPresentModeKHR@@@std@@@std@@AEAAXXZ DD imagerel $LN4
	DD	imagerel $LN4+228
	DD	imagerel $unwind$?_Tidy@?$vector@W4VkPresentModeKHR@@V?$allocator@W4VkPresentModeKHR@@@std@@@std@@AEAAXXZ
pdata	ENDS
;	COMDAT pdata
pdata	SEGMENT
$pdata$?_Getal@?$vector@W4VkPresentModeKHR@@V?$allocator@W4VkPresentModeKHR@@@std@@@std@@AEAAAEAV?$allocator@W4VkPresentModeKHR@@@2@XZ DD imagerel $LN3
	DD	imagerel $LN3+56
	DD	imagerel $unwind$?_Getal@?$vector@W4VkPresentModeKHR@@V?$allocator@W4VkPresentModeKHR@@@std@@@std@@AEAAAEAV?$allocator@W4VkPresentModeKHR@@@2@XZ
pdata	ENDS
;	COMDAT pdata
pdata	SEGMENT
$pdata$?_Get_first@?$_Compressed_pair@V?$allocator@W4VkPresentModeKHR@@@std@@V?$_Vector_val@U?$_Simple_types@W4VkPresentModeKHR@@@std@@@2@$00@std@@QEAAAEAV?$allocator@W4VkPresentModeKHR@@@2@XZ DD imagerel $LN3
	DD	imagerel $LN3+48
	DD	imagerel $unwind$?_Get_first@?$_Compressed_pair@V?$allocator@W4VkPresentModeKHR@@@std@@V?$_Vector_val@U?$_Simple_types@W4VkPresentModeKHR@@@std@@@2@$00@std@@QEAAAEAV?$allocator@W4VkPresentModeKHR@@@2@XZ
pdata	ENDS
;	COMDAT pdata
pdata	SEGMENT
$pdata$??1SwapChainSupportDetails@cow@@QEAA@XZ DD imagerel $LN3
	DD	imagerel $LN3+67
	DD	imagerel $unwind$??1SwapChainSupportDetails@cow@@QEAA@XZ
pdata	ENDS
;	COMDAT pdata
pdata	SEGMENT
$pdata$?getDevice@Device@cow@@QEAAPEAUVkDevice_T@@XZ DD imagerel $LN3
	DD	imagerel $LN3+52
	DD	imagerel $unwind$?getDevice@Device@cow@@QEAAPEAUVkDevice_T@@XZ
pdata	ENDS
;	COMDAT pdata
pdata	SEGMENT
$pdata$?_Incref@_Ref_count_base@std@@QEAAXXZ DD imagerel $LN3
	DD	imagerel $LN3+55
	DD	imagerel $unwind$?_Incref@_Ref_count_base@std@@QEAAXXZ
pdata	ENDS
;	COMDAT pdata
pdata	SEGMENT
$pdata$?_Decref@_Ref_count_base@std@@QEAAXXZ DD imagerel $LN4
	DD	imagerel $LN4+100
	DD	imagerel $unwind$?_Decref@_Ref_count_base@std@@QEAAXXZ
pdata	ENDS
;	COMDAT pdata
pdata	SEGMENT
$pdata$?_Decwref@_Ref_count_base@std@@QEAAXXZ DD imagerel $LN4
	DD	imagerel $LN4+89
	DD	imagerel $unwind$?_Decwref@_Ref_count_base@std@@QEAAXXZ
pdata	ENDS
;	COMDAT pdata
pdata	SEGMENT
$pdata$??0Swapchain@cow@@QEAA@AEAVDevice@1@UVkExtent2D@@@Z DD imagerel $LN4
	DD	imagerel $LN4+170
	DD	imagerel $unwind$??0Swapchain@cow@@QEAA@AEAVDevice@1@UVkExtent2D@@@Z
pdata	ENDS
;	COMDAT pdata
pdata	SEGMENT
$pdata$?dtor$0@?0???0Swapchain@cow@@QEAA@AEAVDevice@1@UVkExtent2D@@@Z@4HA DD imagerel ?dtor$0@?0???0Swapchain@cow@@QEAA@AEAVDevice@1@UVkExtent2D@@@Z@4HA
	DD	imagerel ?dtor$0@?0???0Swapchain@cow@@QEAA@AEAVDevice@1@UVkExtent2D@@@Z@4HA+46
	DD	imagerel $unwind$?dtor$0@?0???0Swapchain@cow@@QEAA@AEAVDevice@1@UVkExtent2D@@@Z@4HA
pdata	ENDS
;	COMDAT pdata
pdata	SEGMENT
$pdata$??0Swapchain@cow@@QEAA@AEAVDevice@1@UVkExtent2D@@V?$shared_ptr@VSwapchain@cow@@@std@@@Z DD imagerel $LN6
	DD	imagerel $LN6+259
	DD	imagerel $unwind$??0Swapchain@cow@@QEAA@AEAVDevice@1@UVkExtent2D@@V?$shared_ptr@VSwapchain@cow@@@std@@@Z
pdata	ENDS
;	COMDAT pdata
pdata	SEGMENT
$pdata$?dtor$0@?0???0Swapchain@cow@@QEAA@AEAVDevice@1@UVkExtent2D@@V?$shared_ptr@VSwapchain@cow@@@std@@@Z@4HA DD imagerel ?dtor$0@?0???0Swapchain@cow@@QEAA@AEAVDevice@1@UVkExtent2D@@V?$shared_ptr@VSwapchain@cow@@@std@@@Z@4HA
	DD	imagerel ?dtor$0@?0???0Swapchain@cow@@QEAA@AEAVDevice@1@UVkExtent2D@@V?$shared_ptr@VSwapchain@cow@@@std@@@Z@4HA+39
	DD	imagerel $unwind$?dtor$0@?0???0Swapchain@cow@@QEAA@AEAVDevice@1@UVkExtent2D@@V?$shared_ptr@VSwapchain@cow@@@std@@@Z@4HA
pdata	ENDS
;	COMDAT pdata
pdata	SEGMENT
$pdata$?dtor$1@?0???0Swapchain@cow@@QEAA@AEAVDevice@1@UVkExtent2D@@V?$shared_ptr@VSwapchain@cow@@@std@@@Z@4HA DD imagerel ?dtor$1@?0???0Swapchain@cow@@QEAA@AEAVDevice@1@UVkExtent2D@@V?$shared_ptr@VSwapchain@cow@@@std@@@Z@4HA
	DD	imagerel ?dtor$1@?0???0Swapchain@cow@@QEAA@AEAVDevice@1@UVkExtent2D@@V?$shared_ptr@VSwapchain@cow@@@std@@@Z@4HA+46
	DD	imagerel $unwind$?dtor$1@?0???0Swapchain@cow@@QEAA@AEAVDevice@1@UVkExtent2D@@V?$shared_ptr@VSwapchain@cow@@@std@@@Z@4HA
pdata	ENDS
;	COMDAT pdata
pdata	SEGMENT
$pdata$??1Swapchain@cow@@QEAA@XZ DD imagerel $LN10
	DD	imagerel $LN10+1031
	DD	imagerel $unwind$??1Swapchain@cow@@QEAA@XZ
pdata	ENDS
;	COMDAT pdata
pdata	SEGMENT
$pdata$?nextImage@Swapchain@cow@@QEAA?AW4VkResult@@PEAI@Z DD imagerel $LN3
	DD	imagerel $LN3+305
	DD	imagerel $unwind$?nextImage@Swapchain@cow@@QEAA?AW4VkResult@@PEAI@Z
pdata	ENDS
;	COMDAT pdata
pdata	SEGMENT
$pdata$?submit@Swapchain@cow@@QEAA?AW4VkResult@@PEBQEAUVkCommandBuffer_T@@PEAI@Z DD imagerel $LN5
	DD	imagerel $LN5+850
	DD	imagerel $unwind$?submit@Swapchain@cow@@QEAA?AW4VkResult@@PEBQEAUVkCommandBuffer_T@@PEAI@Z
pdata	ENDS
;	COMDAT pdata
pdata	SEGMENT
$pdata$?createSwapchain@Swapchain@cow@@AEAAXXZ DD imagerel $LN11
	DD	imagerel $LN11+973
	DD	imagerel $unwind$?createSwapchain@Swapchain@cow@@AEAAXXZ
pdata	ENDS
;	COMDAT pdata
pdata	SEGMENT
$pdata$?dtor$0@?0??createSwapchain@Swapchain@cow@@AEAAXXZ@4HA DD imagerel ?dtor$0@?0??createSwapchain@Swapchain@cow@@AEAAXXZ@4HA
	DD	imagerel ?dtor$0@?0??createSwapchain@Swapchain@cow@@AEAAXXZ@4HA+36
	DD	imagerel $unwind$?dtor$0@?0??createSwapchain@Swapchain@cow@@AEAAXXZ@4HA
pdata	ENDS
;	COMDAT pdata
pdata	SEGMENT
$pdata$?chooseSurfaceFormatKHR@Swapchain@cow@@AEAA?AUVkSurfaceFormatKHR@@PEAU3@I@Z DD imagerel $LN7
	DD	imagerel $LN7+197
	DD	imagerel $unwind$?chooseSurfaceFormatKHR@Swapchain@cow@@AEAA?AUVkSurfaceFormatKHR@@PEAU3@I@Z
pdata	ENDS
;	COMDAT pdata
pdata	SEGMENT
$pdata$?choosePresentModeKHR@Swapchain@cow@@AEAA?AW4VkPresentModeKHR@@PEAW43@I@Z DD imagerel $LN11
	DD	imagerel $LN11+192
	DD	imagerel $unwind$?choosePresentModeKHR@Swapchain@cow@@AEAA?AW4VkPresentModeKHR@@PEAW43@I@Z
pdata	ENDS
;	COMDAT pdata
pdata	SEGMENT
$pdata$?chooseExtent2D@Swapchain@cow@@AEAA?AUVkExtent2D@@AEBUVkSurfaceCapabilitiesKHR@@@Z DD imagerel $LN4
	DD	imagerel $LN4+309
	DD	imagerel $unwind$?chooseExtent2D@Swapchain@cow@@AEAA?AUVkExtent2D@@AEBUVkSurfaceCapabilitiesKHR@@@Z
pdata	ENDS
;	COMDAT pdata
pdata	SEGMENT
$pdata$?createRenderingObjects@Swapchain@cow@@AEAAXXZ DD imagerel $LN19
	DD	imagerel $LN19+2797
	DD	imagerel $unwind$?createRenderingObjects@Swapchain@cow@@AEAAXXZ
pdata	ENDS
;	COMDAT pdata
pdata	SEGMENT
$pdata$?findMemoryType@Swapchain@cow@@AEAAIII@Z DD imagerel $LN7
	DD	imagerel $LN7+309
	DD	imagerel $unwind$?findMemoryType@Swapchain@cow@@AEAAIII@Z
pdata	ENDS
;	COMDAT pdata
pdata	SEGMENT
$pdata$?createSyncObjects@Swapchain@cow@@AEAAXXZ DD imagerel $LN8
	DD	imagerel $LN8+613
	DD	imagerel $unwind$?createSyncObjects@Swapchain@cow@@AEAAXXZ
pdata	ENDS
;	COMDAT pdata
pdata	SEGMENT
$pdata$?get@?$_Ptr_base@VSwapchain@cow@@@std@@IEBAPEAVSwapchain@cow@@XZ DD imagerel $LN3
	DD	imagerel $LN3+51
	DD	imagerel $unwind$?get@?$_Ptr_base@VSwapchain@cow@@@std@@IEBAPEAVSwapchain@cow@@XZ
pdata	ENDS
;	COMDAT pdata
pdata	SEGMENT
$pdata$??0?$_Ptr_base@VSwapchain@cow@@@std@@IEAA@XZ DD imagerel $LN3
	DD	imagerel $LN3+77
	DD	imagerel $unwind$??0?$_Ptr_base@VSwapchain@cow@@@std@@IEAA@XZ
pdata	ENDS
;	COMDAT pdata
pdata	SEGMENT
$pdata$?_Incref@?$_Ptr_base@VSwapchain@cow@@@std@@IEBAXXZ DD imagerel $LN4
	DD	imagerel $LN4+71
	DD	imagerel $unwind$?_Incref@?$_Ptr_base@VSwapchain@cow@@@std@@IEBAXXZ
pdata	ENDS
;	COMDAT pdata
pdata	SEGMENT
$pdata$?_Decref@?$_Ptr_base@VSwapchain@cow@@@std@@IEAAXXZ DD imagerel $LN4
	DD	imagerel $LN4+71
	DD	imagerel $unwind$?_Decref@?$_Ptr_base@VSwapchain@cow@@@std@@IEAAXXZ
pdata	ENDS
;	COMDAT pdata
pdata	SEGMENT
$pdata$?_Swap@?$_Ptr_base@VSwapchain@cow@@@std@@IEAAXAEAV12@@Z DD imagerel $LN3
	DD	imagerel $LN3+98
	DD	imagerel $unwind$?_Swap@?$_Ptr_base@VSwapchain@cow@@@std@@IEAAXAEAV12@@Z
pdata	ENDS
;	COMDAT pdata
pdata	SEGMENT
$pdata$??0?$shared_ptr@VSwapchain@cow@@@std@@QEAA@XZ DD imagerel $LN3
	DD	imagerel $LN3+60
	DD	imagerel $unwind$??0?$shared_ptr@VSwapchain@cow@@@std@@QEAA@XZ
pdata	ENDS
;	COMDAT pdata
pdata	SEGMENT
$pdata$??0?$shared_ptr@VSwapchain@cow@@@std@@QEAA@$$T@Z DD imagerel $LN3
	DD	imagerel $LN3+65
	DD	imagerel $unwind$??0?$shared_ptr@VSwapchain@cow@@@std@@QEAA@$$T@Z
pdata	ENDS
;	COMDAT pdata
pdata	SEGMENT
$pdata$??0?$shared_ptr@VSwapchain@cow@@@std@@QEAA@AEBV01@@Z DD imagerel $LN3
	DD	imagerel $LN3+84
	DD	imagerel $unwind$??0?$shared_ptr@VSwapchain@cow@@@std@@QEAA@AEBV01@@Z
pdata	ENDS
;	COMDAT pdata
pdata	SEGMENT
$pdata$??0?$shared_ptr@VSwapchain@cow@@@std@@QEAA@$$QEAV01@@Z DD imagerel $LN3
	DD	imagerel $LN3+92
	DD	imagerel $unwind$??0?$shared_ptr@VSwapchain@cow@@@std@@QEAA@$$QEAV01@@Z
pdata	ENDS
;	COMDAT pdata
pdata	SEGMENT
$pdata$??1?$shared_ptr@VSwapchain@cow@@@std@@QEAA@XZ DD imagerel $LN3
	DD	imagerel $LN3+53
	DD	imagerel $unwind$??1?$shared_ptr@VSwapchain@cow@@@std@@QEAA@XZ
pdata	ENDS
;	COMDAT pdata
pdata	SEGMENT
$pdata$??4?$shared_ptr@VSwapchain@cow@@@std@@QEAAAEAV01@$$QEAV01@@Z DD imagerel $LN3
	DD	imagerel $LN3+118
	DD	imagerel $unwind$??4?$shared_ptr@VSwapchain@cow@@@std@@QEAAAEAV01@$$QEAV01@@Z
pdata	ENDS
;	COMDAT pdata
pdata	SEGMENT
$pdata$?swap@?$shared_ptr@VSwapchain@cow@@@std@@QEAAXAEAV12@@Z DD imagerel $LN3
	DD	imagerel $LN3+65
	DD	imagerel $unwind$?swap@?$shared_ptr@VSwapchain@cow@@@std@@QEAAXAEAV12@@Z
pdata	ENDS
;	COMDAT pdata
pdata	SEGMENT
$pdata$??$?8VSwapchain@cow@@@std@@YA_NAEBV?$shared_ptr@VSwapchain@cow@@@0@$$T@Z DD imagerel $LN5
	DD	imagerel $LN5+92
	DD	imagerel $unwind$??$?8VSwapchain@cow@@@std@@YA_NAEBV?$shared_ptr@VSwapchain@cow@@@0@$$T@Z
pdata	ENDS
;	COMDAT pdata
pdata	SEGMENT
$pdata$??$?CVSwapchain@cow@@$0A@@?$shared_ptr@VSwapchain@cow@@@std@@QEBAPEAVSwapchain@cow@@XZ DD imagerel $LN3
	DD	imagerel $LN3+53
	DD	imagerel $unwind$??$?CVSwapchain@cow@@$0A@@?$shared_ptr@VSwapchain@cow@@@std@@QEBAPEAVSwapchain@cow@@XZ
pdata	ENDS
;	COMDAT pdata
pdata	SEGMENT
$pdata$??$min@I@std@@YAAEBIAEBI0@Z DD imagerel $LN5
	DD	imagerel $LN5+117
	DD	imagerel $unwind$??$min@I@std@@YAAEBIAEBI0@Z
pdata	ENDS
;	COMDAT pdata
pdata	SEGMENT
$pdata$??$max@I@std@@YAAEBIAEBI0@Z DD imagerel $LN5
	DD	imagerel $LN5+117
	DD	imagerel $unwind$??$max@I@std@@YAAEBIAEBI0@Z
pdata	ENDS
;	COMDAT pdata
pdata	SEGMENT
$pdata$?size@?$array@UVkAttachmentDescription@@$01@std@@QEBA_KXZ DD imagerel $LN3
	DD	imagerel $LN3+46
	DD	imagerel $unwind$?size@?$array@UVkAttachmentDescription@@$01@std@@QEBA_KXZ
pdata	ENDS
;	COMDAT pdata
pdata	SEGMENT
$pdata$?data@?$array@UVkAttachmentDescription@@$01@std@@QEAAPEAUVkAttachmentDescription@@XZ DD imagerel $LN3
	DD	imagerel $LN3+48
	DD	imagerel $unwind$?data@?$array@UVkAttachmentDescription@@$01@std@@QEAAPEAUVkAttachmentDescription@@XZ
pdata	ENDS
;	COMDAT pdata
pdata	SEGMENT
$pdata$?size@?$array@PEAUVkImageView_T@@$01@std@@QEBA_KXZ DD imagerel $LN3
	DD	imagerel $LN3+46
	DD	imagerel $unwind$?size@?$array@PEAUVkImageView_T@@$01@std@@QEBA_KXZ
pdata	ENDS
;	COMDAT pdata
pdata	SEGMENT
$pdata$?data@?$array@PEAUVkImageView_T@@$01@std@@QEAAPEAPEAUVkImageView_T@@XZ DD imagerel $LN3
	DD	imagerel $LN3+48
	DD	imagerel $unwind$?data@?$array@PEAUVkImageView_T@@$01@std@@QEAAPEAPEAUVkImageView_T@@XZ
pdata	ENDS
;	COMDAT pdata
pdata	SEGMENT
$pdata$??$move@AEAV?$shared_ptr@VSwapchain@cow@@@std@@@std@@YA$$QEAV?$shared_ptr@VSwapchain@cow@@@0@AEAV10@@Z DD imagerel $LN3
	DD	imagerel $LN3+48
	DD	imagerel $unwind$??$move@AEAV?$shared_ptr@VSwapchain@cow@@@std@@@std@@YA$$QEAV?$shared_ptr@VSwapchain@cow@@@0@AEAV10@@Z
pdata	ENDS
;	COMDAT pdata
pdata	SEGMENT
$pdata$??$_Copy_construct_from@VSwapchain@cow@@@?$_Ptr_base@VSwapchain@cow@@@std@@IEAAXAEBV?$shared_ptr@VSwapchain@cow@@@1@@Z DD imagerel $LN3
	DD	imagerel $LN3+100
	DD	imagerel $unwind$??$_Copy_construct_from@VSwapchain@cow@@@?$_Ptr_base@VSwapchain@cow@@@std@@IEAAXAEBV?$shared_ptr@VSwapchain@cow@@@1@@Z
pdata	ENDS
;	COMDAT pdata
pdata	SEGMENT
$pdata$??$_Unfancy_maybe_null@W4VkPresentModeKHR@@@std@@YAPEAW4VkPresentModeKHR@@PEAW41@@Z DD imagerel $LN3
	DD	imagerel $LN3+48
	DD	imagerel $unwind$??$_Unfancy_maybe_null@W4VkPresentModeKHR@@@std@@YAPEAW4VkPresentModeKHR@@PEAW41@@Z
pdata	ENDS
;	COMDAT pdata
pdata	SEGMENT
$pdata$?deallocate@?$allocator@U_Container_proxy@std@@@std@@QEAAXQEAU_Container_proxy@2@_K@Z DD imagerel $LN13
	DD	imagerel $LN13+213
	DD	imagerel $unwind$?deallocate@?$allocator@U_Container_proxy@std@@@std@@QEAAXQEAU_Container_proxy@2@_K@Z
pdata	ENDS
;	COMDAT pdata
pdata	SEGMENT
$pdata$??$?0W4VkPresentModeKHR@@@?$allocator@U_Container_proxy@std@@@std@@QEAA@AEBV?$allocator@W4VkPresentModeKHR@@@1@@Z DD imagerel $LN3
	DD	imagerel $LN3+53
	DD	imagerel $unwind$??$?0W4VkPresentModeKHR@@@?$allocator@U_Container_proxy@std@@@std@@QEAA@AEBV?$allocator@W4VkPresentModeKHR@@@1@@Z
pdata	ENDS
;	COMDAT pdata
pdata	SEGMENT
$pdata$??$exchange@PEAU_Container_proxy@std@@$$T@std@@YAPEAU_Container_proxy@0@AEAPEAU10@$$QEA$$T@Z DD imagerel $LN3
	DD	imagerel $LN3+84
	DD	imagerel $unwind$??$exchange@PEAU_Container_proxy@std@@$$T@std@@YAPEAU_Container_proxy@0@AEAPEAU10@$$QEA$$T@Z
pdata	ENDS
;	COMDAT pdata
pdata	SEGMENT
$pdata$??$_Delete_plain_internal@V?$allocator@U_Container_proxy@std@@@std@@@std@@YAXAEAV?$allocator@U_Container_proxy@std@@@0@QEAU_Container_proxy@0@@Z DD imagerel $LN3
	DD	imagerel $LN3+65
	DD	imagerel $unwind$??$_Delete_plain_internal@V?$allocator@U_Container_proxy@std@@@std@@@std@@YAXAEAV?$allocator@U_Container_proxy@std@@@0@QEAU_Container_proxy@0@@Z
pdata	ENDS
;	COMDAT pdata
pdata	SEGMENT
$pdata$??$_Unfancy_maybe_null@UVkSurfaceFormatKHR@@@std@@YAPEAUVkSurfaceFormatKHR@@PEAU1@@Z DD imagerel $LN3
	DD	imagerel $LN3+48
	DD	imagerel $unwind$??$_Unfancy_maybe_null@UVkSurfaceFormatKHR@@@std@@YAPEAUVkSurfaceFormatKHR@@PEAU1@@Z
pdata	ENDS
;	COMDAT pdata
pdata	SEGMENT
$pdata$??$?0UVkSurfaceFormatKHR@@@?$allocator@U_Container_proxy@std@@@std@@QEAA@AEBV?$allocator@UVkSurfaceFormatKHR@@@1@@Z DD imagerel $LN3
	DD	imagerel $LN3+53
	DD	imagerel $unwind$??$?0UVkSurfaceFormatKHR@@@?$allocator@U_Container_proxy@std@@@std@@QEAA@AEBV?$allocator@UVkSurfaceFormatKHR@@@1@@Z
pdata	ENDS
;	COMDAT pdata
pdata	SEGMENT
$pdata$??$_Move_construct_from@VSwapchain@cow@@@?$_Ptr_base@VSwapchain@cow@@@std@@IEAAX$$QEAV01@@Z DD imagerel $LN3
	DD	imagerel $LN3+117
	DD	imagerel $unwind$??$_Move_construct_from@VSwapchain@cow@@@?$_Ptr_base@VSwapchain@cow@@@std@@IEAAX$$QEAV01@@Z
pdata	ENDS
;	COMDAT pdata
pdata	SEGMENT
$pdata$??$_Destroy_range@V?$allocator@W4VkPresentModeKHR@@@std@@@std@@YAXPEAW4VkPresentModeKHR@@QEAW41@AEAV?$allocator@W4VkPresentModeKHR@@@0@@Z DD imagerel $LN3
	DD	imagerel $LN3+51
	DD	imagerel $unwind$??$_Destroy_range@V?$allocator@W4VkPresentModeKHR@@@std@@@std@@YAXPEAW4VkPresentModeKHR@@QEAW41@AEAV?$allocator@W4VkPresentModeKHR@@@0@@Z
pdata	ENDS
;	COMDAT pdata
pdata	SEGMENT
$pdata$??$_Destroy_range@V?$allocator@UVkSurfaceFormatKHR@@@std@@@std@@YAXPEAUVkSurfaceFormatKHR@@QEAU1@AEAV?$allocator@UVkSurfaceFormatKHR@@@0@@Z DD imagerel $LN3
	DD	imagerel $LN3+51
	DD	imagerel $unwind$??$_Destroy_range@V?$allocator@UVkSurfaceFormatKHR@@@std@@@std@@YAXPEAUVkSurfaceFormatKHR@@QEAU1@AEAV?$allocator@UVkSurfaceFormatKHR@@@0@@Z
pdata	ENDS
;	COMDAT pdata
pdata	SEGMENT
$pdata$??$swap@PEAVSwapchain@cow@@$0A@@std@@YAXAEAPEAVSwapchain@cow@@0@Z DD imagerel $LN3
	DD	imagerel $LN3+185
	DD	imagerel $unwind$??$swap@PEAVSwapchain@cow@@$0A@@std@@YAXAEAPEAVSwapchain@cow@@0@Z
pdata	ENDS
;	COMDAT pdata
pdata	SEGMENT
$pdata$??$swap@PEAV_Ref_count_base@std@@$0A@@std@@YAXAEAPEAV_Ref_count_base@0@0@Z DD imagerel $LN3
	DD	imagerel $LN3+185
	DD	imagerel $unwind$??$swap@PEAV_Ref_count_base@std@@$0A@@std@@YAXAEAPEAV_Ref_count_base@0@0@Z
pdata	ENDS
;	COMDAT pdata
pdata	SEGMENT
$pdata$??$_Deallocate@$0BA@$0A@@std@@YAXPEAX_K@Z DD imagerel $LN6
	DD	imagerel $LN6+124
	DD	imagerel $unwind$??$_Deallocate@$0BA@$0A@@std@@YAXPEAX_K@Z
pdata	ENDS
;	COMDAT pdata
pdata	SEGMENT
$pdata$??$_Deallocate_plain@V?$allocator@U_Container_proxy@std@@@std@@@std@@YAXAEAV?$allocator@U_Container_proxy@std@@@0@QEAU_Container_proxy@0@@Z DD imagerel $LN3
	DD	imagerel $LN3+72
	DD	imagerel $unwind$??$_Deallocate_plain@V?$allocator@U_Container_proxy@std@@@std@@@std@@YAXAEAV?$allocator@U_Container_proxy@std@@@0@QEAU_Container_proxy@0@@Z
pdata	ENDS
;	COMDAT pdata
pdata	SEGMENT
$pdata$??$move@AEAPEAVSwapchain@cow@@@std@@YA$$QEAPEAVSwapchain@cow@@AEAPEAV12@@Z DD imagerel $LN3
	DD	imagerel $LN3+48
	DD	imagerel $unwind$??$move@AEAPEAVSwapchain@cow@@@std@@YA$$QEAPEAVSwapchain@cow@@AEAPEAV12@@Z
pdata	ENDS
;	COMDAT pdata
pdata	SEGMENT
$pdata$??$move@AEAPEAV_Ref_count_base@std@@@std@@YA$$QEAPEAV_Ref_count_base@0@AEAPEAV10@@Z DD imagerel $LN3
	DD	imagerel $LN3+48
	DD	imagerel $unwind$??$move@AEAPEAV_Ref_count_base@std@@@std@@YA$$QEAPEAV_Ref_count_base@0@AEAPEAV10@@Z
pdata	ENDS
;	COMDAT pdata
pdata	SEGMENT
$pdata$?deallocate@?$_Default_allocator_traits@V?$allocator@U_Container_proxy@std@@@std@@@std@@SAXAEAV?$allocator@U_Container_proxy@std@@@2@QEAU_Container_proxy@2@_K@Z DD imagerel $LN5
	DD	imagerel $LN5+114
	DD	imagerel $unwind$?deallocate@?$_Default_allocator_traits@V?$allocator@U_Container_proxy@std@@@std@@@std@@SAXAEAV?$allocator@U_Container_proxy@std@@@2@QEAU_Container_proxy@2@_K@Z
pdata	ENDS
;	COMDAT rtc$TMZ
rtc$TMZ	SEGMENT
_RTC_Shutdown.rtc$TMZ DQ FLAT:_RTC_Shutdown
rtc$TMZ	ENDS
;	COMDAT rtc$IMZ
rtc$IMZ	SEGMENT
_RTC_InitBase.rtc$IMZ DQ FLAT:_RTC_InitBase
rtc$IMZ	ENDS
;	COMDAT ??_R1A@?0A@EA@runtime_error@std@@8
rdata$r	SEGMENT
??_R1A@?0A@EA@runtime_error@std@@8 DD imagerel ??_R0?AVruntime_error@std@@@8 ; std::runtime_error::`RTTI Base Class Descriptor at (0,-1,0,64)'
	DD	01H
	DD	00H
	DD	0ffffffffH
	DD	00H
	DD	040H
	DD	imagerel ??_R3runtime_error@std@@8
rdata$r	ENDS
;	COMDAT ??_R2runtime_error@std@@8
rdata$r	SEGMENT
??_R2runtime_error@std@@8 DD imagerel ??_R1A@?0A@EA@runtime_error@std@@8 ; std::runtime_error::`RTTI Base Class Array'
	DD	imagerel ??_R1A@?0A@EA@exception@std@@8
	ORG $+3
rdata$r	ENDS
;	COMDAT ??_R3runtime_error@std@@8
rdata$r	SEGMENT
??_R3runtime_error@std@@8 DD 00H			; std::runtime_error::`RTTI Class Hierarchy Descriptor'
	DD	00H
	DD	02H
	DD	imagerel ??_R2runtime_error@std@@8
rdata$r	ENDS
;	COMDAT ??_R4runtime_error@std@@6B@
rdata$r	SEGMENT
??_R4runtime_error@std@@6B@ DD 01H			; std::runtime_error::`RTTI Complete Object Locator'
	DD	00H
	DD	00H
	DD	imagerel ??_R0?AVruntime_error@std@@@8
	DD	imagerel ??_R3runtime_error@std@@8
	DD	imagerel ??_R4runtime_error@std@@6B@
rdata$r	ENDS
;	COMDAT ??_R1A@?0A@EA@exception@std@@8
rdata$r	SEGMENT
??_R1A@?0A@EA@exception@std@@8 DD imagerel ??_R0?AVexception@std@@@8 ; std::exception::`RTTI Base Class Descriptor at (0,-1,0,64)'
	DD	00H
	DD	00H
	DD	0ffffffffH
	DD	00H
	DD	040H
	DD	imagerel ??_R3exception@std@@8
rdata$r	ENDS
;	COMDAT ??_R2exception@std@@8
rdata$r	SEGMENT
??_R2exception@std@@8 DD imagerel ??_R1A@?0A@EA@exception@std@@8 ; std::exception::`RTTI Base Class Array'
	ORG $+3
rdata$r	ENDS
;	COMDAT ??_R3exception@std@@8
rdata$r	SEGMENT
??_R3exception@std@@8 DD 00H				; std::exception::`RTTI Class Hierarchy Descriptor'
	DD	00H
	DD	01H
	DD	imagerel ??_R2exception@std@@8
rdata$r	ENDS
;	COMDAT ??_R4exception@std@@6B@
rdata$r	SEGMENT
??_R4exception@std@@6B@ DD 01H				; std::exception::`RTTI Complete Object Locator'
	DD	00H
	DD	00H
	DD	imagerel ??_R0?AVexception@std@@@8
	DD	imagerel ??_R3exception@std@@8
	DD	imagerel ??_R4exception@std@@6B@
rdata$r	ENDS
;	COMDAT ??_C@_1HA@FACCKGGH@?$AA?$CC?$AAn?$AAu?$AAl?$AAl?$AA?5?$AAp?$AAo?$AAi?$AAn?$AAt?$AAe?$AAr?$AA?5?$AAc@
CONST	SEGMENT
??_C@_1HA@FACCKGGH@?$AA?$CC?$AAn?$AAu?$AAl?$AAl?$AA?5?$AAp?$AAo?$AAi?$AAn?$AAt?$AAe?$AAr?$AA?5?$AAc@ DB '"'
	DB	00H, 'n', 00H, 'u', 00H, 'l', 00H, 'l', 00H, ' ', 00H, 'p', 00H
	DB	'o', 00H, 'i', 00H, 'n', 00H, 't', 00H, 'e', 00H, 'r', 00H, ' '
	DB	00H, 'c', 00H, 'a', 00H, 'n', 00H, 'n', 00H, 'o', 00H, 't', 00H
	DB	' ', 00H, 'p', 00H, 'o', 00H, 'i', 00H, 'n', 00H, 't', 00H, ' '
	DB	00H, 't', 00H, 'o', 00H, ' ', 00H, 'a', 00H, ' ', 00H, 'b', 00H
	DB	'l', 00H, 'o', 00H, 'c', 00H, 'k', 00H, ' ', 00H, 'o', 00H, 'f'
	DB	00H, ' ', 00H, 'n', 00H, 'o', 00H, 'n', 00H, '-', 00H, 'z', 00H
	DB	'e', 00H, 'r', 00H, 'o', 00H, ' ', 00H, 's', 00H, 'i', 00H, 'z'
	DB	00H, 'e', 00H, '"', 00H, 00H, 00H		; `string'
CONST	ENDS
;	COMDAT ??_C@_0DG@KGHKKGBC@null?5pointer?5cannot?5point?5to?5a?5@
CONST	SEGMENT
??_C@_0DG@KGHKKGBC@null?5pointer?5cannot?5point?5to?5a?5@ DB 'null pointe'
	DB	'r cannot point to a block of non-zero size', 00H ; `string'
CONST	ENDS
;	COMDAT ??_C@_1FA@DPIDPJCB@?$AA?$CC?$AAC?$AAa?$AAn?$AAn?$AAo?$AAt?$AA?5?$AAa?$AAc?$AAc?$AAe?$AAs?$AAs?$AA?5@
CONST	SEGMENT
??_C@_1FA@DPIDPJCB@?$AA?$CC?$AAC?$AAa?$AAn?$AAn?$AAo?$AAt?$AA?5?$AAa?$AAc?$AAc?$AAe?$AAs?$AAs?$AA?5@ DB '"'
	DB	00H, 'C', 00H, 'a', 00H, 'n', 00H, 'n', 00H, 'o', 00H, 't', 00H
	DB	' ', 00H, 'a', 00H, 'c', 00H, 'c', 00H, 'e', 00H, 's', 00H, 's'
	DB	00H, ' ', 00H, 'v', 00H, 'a', 00H, 'l', 00H, 'u', 00H, 'e', 00H
	DB	' ', 00H, 'o', 00H, 'f', 00H, ' ', 00H, 'e', 00H, 'm', 00H, 'p'
	DB	00H, 't', 00H, 'y', 00H, ' ', 00H, 'o', 00H, 'p', 00H, 't', 00H
	DB	'i', 00H, 'o', 00H, 'n', 00H, 'a', 00H, 'l', 00H, '"', 00H, 00H
	DB	00H						; `string'
CONST	ENDS
;	COMDAT ??_C@_1MG@LOEFAMPE@?$AAC?$AA?3?$AA?2?$AAP?$AAr?$AAo?$AAg?$AAr?$AAa?$AAm?$AA?5?$AAF?$AAi?$AAl?$AAe@
CONST	SEGMENT
??_C@_1MG@LOEFAMPE@?$AAC?$AA?3?$AA?2?$AAP?$AAr?$AAo?$AAg?$AAr?$AAa?$AAm?$AA?5?$AAF?$AAi?$AAl?$AAe@ DB 'C'
	DB	00H, ':', 00H, '\', 00H, 'P', 00H, 'r', 00H, 'o', 00H, 'g', 00H
	DB	'r', 00H, 'a', 00H, 'm', 00H, ' ', 00H, 'F', 00H, 'i', 00H, 'l'
	DB	00H, 'e', 00H, 's', 00H, '\', 00H, 'M', 00H, 'i', 00H, 'c', 00H
	DB	'r', 00H, 'o', 00H, 's', 00H, 'o', 00H, 'f', 00H, 't', 00H, ' '
	DB	00H, 'V', 00H, 'i', 00H, 's', 00H, 'u', 00H, 'a', 00H, 'l', 00H
	DB	' ', 00H, 'S', 00H, 't', 00H, 'u', 00H, 'd', 00H, 'i', 00H, 'o'
	DB	00H, '\', 00H, '2', 00H, '0', 00H, '2', 00H, '2', 00H, '\', 00H
	DB	'C', 00H, 'o', 00H, 'm', 00H, 'm', 00H, 'u', 00H, 'n', 00H, 'i'
	DB	00H, 't', 00H, 'y', 00H, '\', 00H, 'V', 00H, 'C', 00H, '\', 00H
	DB	'T', 00H, 'o', 00H, 'o', 00H, 'l', 00H, 's', 00H, '\', 00H, 'M'
	DB	00H, 'S', 00H, 'V', 00H, 'C', 00H, '\', 00H, '1', 00H, '4', 00H
	DB	'.', 00H, '3', 00H, '2', 00H, '.', 00H, '3', 00H, '1', 00H, '3'
	DB	00H, '2', 00H, '6', 00H, '\', 00H, 'i', 00H, 'n', 00H, 'c', 00H
	DB	'l', 00H, 'u', 00H, 'd', 00H, 'e', 00H, '\', 00H, 'o', 00H, 'p'
	DB	00H, 't', 00H, 'i', 00H, 'o', 00H, 'n', 00H, 'a', 00H, 'l', 00H
	DB	00H, 00H					; `string'
CONST	ENDS
;	COMDAT ??_C@_0GD@BMMLGIEI@C?3?2Program?5Files?2Microsoft?5Visu@
CONST	SEGMENT
??_C@_0GD@BMMLGIEI@C?3?2Program?5Files?2Microsoft?5Visu@ DB 'C:\Program F'
	DB	'iles\Microsoft Visual Studio\2022\Community\VC\Tools\MSVC\14.'
	DB	'32.31326\include\optional', 00H		; `string'
CONST	ENDS
;	COMDAT ??_C@_0CG@LKEBOLJI@Cannot?5access?5value?5of?5empty?5op@
CONST	SEGMENT
??_C@_0CG@LKEBOLJI@Cannot?5access?5value?5of?5empty?5op@ DB 'Cannot acces'
	DB	's value of empty optional', 00H		; `string'
CONST	ENDS
;	COMDAT ??_C@_0CG@BHENODHP@failed?5to?5submit?5draw?5command?5b@
CONST	SEGMENT
??_C@_0CG@BHENODHP@failed?5to?5submit?5draw?5command?5b@ DB 'failed to su'
	DB	'bmit draw command buffer!', 00H		; `string'
CONST	ENDS
;	COMDAT ??_C@_0CF@GDABOGAP@failed?5to?5find?5suitable?5memory?5@
CONST	SEGMENT
??_C@_0CF@GDABOGAP@failed?5to?5find?5suitable?5memory?5@ DB 'failed to fi'
	DB	'nd suitable memory type!', 00H		; `string'
CONST	ENDS
;	COMDAT ??_C@_0DG@GMFJPIOC@failed?5to?5create?5synchronizatio@
CONST	SEGMENT
??_C@_0DG@GMFJPIOC@failed?5to?5create?5synchronizatio@ DB 'failed to crea'
	DB	'te synchronization objects for a frame!', 00H ; `string'
CONST	ENDS
;	COMDAT ??_C@_0BO@BLGFKEIN@failed?5to?5create?5framebuffer?$CB@
CONST	SEGMENT
??_C@_0BO@BLGFKEIN@failed?5to?5create?5framebuffer?$CB@ DB 'failed to cre'
	DB	'ate framebuffer!', 00H			; `string'
CONST	ENDS
;	COMDAT ??_C@_0BN@BFJFPHFL@failed?5to?5bind?5image?5memory?$CB@
CONST	SEGMENT
??_C@_0BN@BFJFPHFL@failed?5to?5bind?5image?5memory?$CB@ DB 'failed to bin'
	DB	'd image memory!', 00H			; `string'
CONST	ENDS
;	COMDAT ??_C@_0CB@MDMPALHA@failed?5to?5allocate?5image?5memory@
CONST	SEGMENT
??_C@_0CB@MDMPALHA@failed?5to?5allocate?5image?5memory@ DB 'failed to all'
	DB	'ocate image memory!', 00H			; `string'
CONST	ENDS
;	COMDAT ??_C@_0BI@JCMIBCDA@failed?5to?5create?5image?$CB@
CONST	SEGMENT
??_C@_0BI@JCMIBCDA@failed?5to?5create?5image?$CB@ DB 'failed to create im'
	DB	'age!', 00H					; `string'
CONST	ENDS
;	COMDAT ??_C@_0BO@GGPPBLGH@failed?5to?5create?5render?5pass?$CB@
CONST	SEGMENT
??_C@_0BO@GGPPBLGH@failed?5to?5create?5render?5pass?$CB@ DB 'failed to cr'
	DB	'eate render pass!', 00H			; `string'
CONST	ENDS
;	COMDAT ??_C@_0CF@NBFKCJOJ@failed?5to?5create?5texture?5image?5@
CONST	SEGMENT
??_C@_0CF@NBFKCJOJ@failed?5to?5create?5texture?5image?5@ DB 'failed to cr'
	DB	'eate texture image view!', 00H		; `string'
CONST	ENDS
;	COMDAT ??_C@_0BN@JPMJIOML@failed?5to?5create?5swap?5chain?$CB@
CONST	SEGMENT
??_C@_0BN@JPMJIOML@failed?5to?5create?5swap?5chain?$CB@ DB 'failed to cre'
	DB	'ate swap chain!', 00H			; `string'
CONST	ENDS
;	COMDAT _CTA2?AVruntime_error@std@@
xdata$x	SEGMENT
_CTA2?AVruntime_error@std@@ DD 02H
	DD	imagerel _CT??_R0?AVruntime_error@std@@@8??0runtime_error@std@@QEAA@AEBV01@@Z24
	DD	imagerel _CT??_R0?AVexception@std@@@8??0exception@std@@QEAA@AEBV01@@Z24
xdata$x	ENDS
;	COMDAT _TI2?AVruntime_error@std@@
xdata$x	SEGMENT
_TI2?AVruntime_error@std@@ DD 00H
	DD	imagerel ??1runtime_error@std@@UEAA@XZ
	DD	00H
	DD	imagerel _CTA2?AVruntime_error@std@@
xdata$x	ENDS
;	COMDAT _CT??_R0?AVruntime_error@std@@@8??0runtime_error@std@@QEAA@AEBV01@@Z24
xdata$x	SEGMENT
_CT??_R0?AVruntime_error@std@@@8??0runtime_error@std@@QEAA@AEBV01@@Z24 DD 00H
	DD	imagerel ??_R0?AVruntime_error@std@@@8
	DD	00H
	DD	0ffffffffH
	ORG $+4
	DD	018H
	DD	imagerel ??0runtime_error@std@@QEAA@AEBV01@@Z
xdata$x	ENDS
;	COMDAT ??_R0?AVruntime_error@std@@@8
data$r	SEGMENT
??_R0?AVruntime_error@std@@@8 DQ FLAT:??_7type_info@@6B@ ; std::runtime_error `RTTI Type Descriptor'
	DQ	0000000000000000H
	DB	'.?AVruntime_error@std@@', 00H
data$r	ENDS
;	COMDAT ??_7runtime_error@std@@6B@
CONST	SEGMENT
??_7runtime_error@std@@6B@ DQ FLAT:??_R4runtime_error@std@@6B@ ; std::runtime_error::`vftable'
	DQ	FLAT:??_Eruntime_error@std@@UEAAPEAXI@Z
	DQ	FLAT:?what@exception@std@@UEBAPEBDXZ
CONST	ENDS
;	COMDAT ??_C@_1CG@JNLFBNGN@?$AA?$CC?$AAi?$AAn?$AAv?$AAa?$AAl?$AAi?$AAd?$AA?5?$AAa?$AAr?$AAg?$AAu?$AAm?$AAe@
CONST	SEGMENT
??_C@_1CG@JNLFBNGN@?$AA?$CC?$AAi?$AAn?$AAv?$AAa?$AAl?$AAi?$AAd?$AA?5?$AAa?$AAr?$AAg?$AAu?$AAm?$AAe@ DB '"'
	DB	00H, 'i', 00H, 'n', 00H, 'v', 00H, 'a', 00H, 'l', 00H, 'i', 00H
	DB	'd', 00H, ' ', 00H, 'a', 00H, 'r', 00H, 'g', 00H, 'u', 00H, 'm'
	DB	00H, 'e', 00H, 'n', 00H, 't', 00H, '"', 00H, 00H, 00H ; `string'
CONST	ENDS
;	COMDAT ??_C@_11LOCGONAA@@
CONST	SEGMENT
??_C@_11LOCGONAA@@ DB 00H, 00H				; `string'
CONST	ENDS
;	COMDAT ??_C@_1ME@GEFGDEOM@?$AAC?$AA?3?$AA?2?$AAP?$AAr?$AAo?$AAg?$AAr?$AAa?$AAm?$AA?5?$AAF?$AAi?$AAl?$AAe@
CONST	SEGMENT
??_C@_1ME@GEFGDEOM@?$AAC?$AA?3?$AA?2?$AAP?$AAr?$AAo?$AAg?$AAr?$AAa?$AAm?$AA?5?$AAF?$AAi?$AAl?$AAe@ DB 'C'
	DB	00H, ':', 00H, '\', 00H, 'P', 00H, 'r', 00H, 'o', 00H, 'g', 00H
	DB	'r', 00H, 'a', 00H, 'm', 00H, ' ', 00H, 'F', 00H, 'i', 00H, 'l'
	DB	00H, 'e', 00H, 's', 00H, '\', 00H, 'M', 00H, 'i', 00H, 'c', 00H
	DB	'r', 00H, 'o', 00H, 's', 00H, 'o', 00H, 'f', 00H, 't', 00H, ' '
	DB	00H, 'V', 00H, 'i', 00H, 's', 00H, 'u', 00H, 'a', 00H, 'l', 00H
	DB	' ', 00H, 'S', 00H, 't', 00H, 'u', 00H, 'd', 00H, 'i', 00H, 'o'
	DB	00H, '\', 00H, '2', 00H, '0', 00H, '2', 00H, '2', 00H, '\', 00H
	DB	'C', 00H, 'o', 00H, 'm', 00H, 'm', 00H, 'u', 00H, 'n', 00H, 'i'
	DB	00H, 't', 00H, 'y', 00H, '\', 00H, 'V', 00H, 'C', 00H, '\', 00H
	DB	'T', 00H, 'o', 00H, 'o', 00H, 'l', 00H, 's', 00H, '\', 00H, 'M'
	DB	00H, 'S', 00H, 'V', 00H, 'C', 00H, '\', 00H, '1', 00H, '4', 00H
	DB	'.', 00H, '3', 00H, '2', 00H, '.', 00H, '3', 00H, '1', 00H, '3'
	DB	00H, '2', 00H, '6', 00H, '\', 00H, 'i', 00H, 'n', 00H, 'c', 00H
	DB	'l', 00H, 'u', 00H, 'd', 00H, 'e', 00H, '\', 00H, 'x', 00H, 'm'
	DB	00H, 'e', 00H, 'm', 00H, 'o', 00H, 'r', 00H, 'y', 00H, 00H, 00H ; `string'
CONST	ENDS
;	COMDAT ??_C@_0GC@DJFHHHKN@C?3?2Program?5Files?2Microsoft?5Visu@
CONST	SEGMENT
??_C@_0GC@DJFHHHKN@C?3?2Program?5Files?2Microsoft?5Visu@ DB 'C:\Program F'
	DB	'iles\Microsoft Visual Studio\2022\Community\VC\Tools\MSVC\14.'
	DB	'32.31326\include\xmemory', 00H		; `string'
CONST	ENDS
;	COMDAT ??_C@_02DKCKIIND@?$CFs@
CONST	SEGMENT
??_C@_02DKCKIIND@?$CFs@ DB '%s', 00H			; `string'
CONST	ENDS
;	COMDAT ??_C@_0BB@FCMFBGOM@invalid?5argument@
CONST	SEGMENT
??_C@_0BB@FCMFBGOM@invalid?5argument@ DB 'invalid argument', 00H ; `string'
CONST	ENDS
;	COMDAT ?__LINE__Var@?0??_Adjust_manually_vector_aligned@std@@YAXAEAPEAXAEA_K@Z@4JA
_DATA	SEGMENT
?__LINE__Var@?0??_Adjust_manually_vector_aligned@std@@YAXAEAPEAXAEA_K@Z@4JA DD 091H ; `std::_Adjust_manually_vector_aligned'::`1'::__LINE__Var
_DATA	ENDS
;	COMDAT _CT??_R0?AVexception@std@@@8??0exception@std@@QEAA@AEBV01@@Z24
xdata$x	SEGMENT
_CT??_R0?AVexception@std@@@8??0exception@std@@QEAA@AEBV01@@Z24 DD 00H
	DD	imagerel ??_R0?AVexception@std@@@8
	DD	00H
	DD	0ffffffffH
	ORG $+4
	DD	018H
	DD	imagerel ??0exception@std@@QEAA@AEBV01@@Z
xdata$x	ENDS
;	COMDAT ??_R0?AVexception@std@@@8
data$r	SEGMENT
??_R0?AVexception@std@@@8 DQ FLAT:??_7type_info@@6B@	; std::exception `RTTI Type Descriptor'
	DQ	0000000000000000H
	DB	'.?AVexception@std@@', 00H
data$r	ENDS
;	COMDAT ??_C@_0BC@EOODALEL@Unknown?5exception@
CONST	SEGMENT
??_C@_0BC@EOODALEL@Unknown?5exception@ DB 'Unknown exception', 00H ; `string'
CONST	ENDS
;	COMDAT ??_7exception@std@@6B@
CONST	SEGMENT
??_7exception@std@@6B@ DQ FLAT:??_R4exception@std@@6B@	; std::exception::`vftable'
	DQ	FLAT:??_Eexception@std@@UEAAPEAXI@Z
	DQ	FLAT:?what@exception@std@@UEBAPEBDXZ
CONST	ENDS
;	COMDAT xdata
xdata	SEGMENT
$unwind$?deallocate@?$_Default_allocator_traits@V?$allocator@U_Container_proxy@std@@@std@@@std@@SAXAEAV?$allocator@U_Container_proxy@std@@@2@QEAU_Container_proxy@2@_K@Z DD 025051d01H
	DD	0118231dH
	DD	07011001dH
	DD	05010H
xdata	ENDS
;	COMDAT xdata
xdata	SEGMENT
$unwind$??$move@AEAPEAV_Ref_count_base@std@@@std@@YA$$QEAPEAV_Ref_count_base@0@AEAPEAV10@@Z DD 025051301H
	DD	010e2313H
	DD	07007001dH
	DD	05006H
xdata	ENDS
;	COMDAT xdata
xdata	SEGMENT
$unwind$??$move@AEAPEAVSwapchain@cow@@@std@@YA$$QEAPEAVSwapchain@cow@@AEAPEAV12@@Z DD 025051301H
	DD	010e2313H
	DD	07007001dH
	DD	05006H
xdata	ENDS
;	COMDAT xdata
xdata	SEGMENT
$ip2state$??$_Deallocate_plain@V?$allocator@U_Container_proxy@std@@@std@@@std@@YAXAEAV?$allocator@U_Container_proxy@std@@@0@QEAU_Container_proxy@0@@Z DB 02H
	DB	00H
	DB	00H
xdata	ENDS
;	COMDAT xdata
xdata	SEGMENT
$cppxdata$??$_Deallocate_plain@V?$allocator@U_Container_proxy@std@@@std@@@std@@YAXAEAV?$allocator@U_Container_proxy@std@@@0@QEAU_Container_proxy@0@@Z DB 060H
	DD	imagerel $ip2state$??$_Deallocate_plain@V?$allocator@U_Container_proxy@std@@@std@@@std@@YAXAEAV?$allocator@U_Container_proxy@std@@@0@QEAU_Container_proxy@0@@Z
xdata	ENDS
;	COMDAT xdata
xdata	SEGMENT
$unwind$??$_Deallocate_plain@V?$allocator@U_Container_proxy@std@@@std@@@std@@YAXAEAV?$allocator@U_Container_proxy@std@@@0@QEAU_Container_proxy@0@@Z DD 025051819H
	DD	01132318H
	DD	0700c001dH
	DD	0500bH
	DD	imagerel __CxxFrameHandler4
	DD	imagerel $cppxdata$??$_Deallocate_plain@V?$allocator@U_Container_proxy@std@@@std@@@std@@YAXAEAV?$allocator@U_Container_proxy@std@@@0@QEAU_Container_proxy@0@@Z
xdata	ENDS
;	COMDAT xdata
xdata	SEGMENT
$ip2state$??$_Deallocate@$0BA@$0A@@std@@YAXPEAX_K@Z DB 02H
	DB	00H
	DB	00H
xdata	ENDS
;	COMDAT xdata
xdata	SEGMENT
$cppxdata$??$_Deallocate@$0BA@$0A@@std@@YAXPEAX_K@Z DB 060H
	DD	imagerel $ip2state$??$_Deallocate@$0BA@$0A@@std@@YAXPEAX_K@Z
xdata	ENDS
;	COMDAT xdata
xdata	SEGMENT
$unwind$??$_Deallocate@$0BA@$0A@@std@@YAXPEAX_K@Z DD 025051819H
	DD	01132318H
	DD	0700c001dH
	DD	0500bH
	DD	imagerel __CxxFrameHandler4
	DD	imagerel $cppxdata$??$_Deallocate@$0BA@$0A@@std@@YAXPEAX_K@Z
xdata	ENDS
;	COMDAT voltbl
voltbl	SEGMENT
_volmd	DB	03bH
	DB	0a0H
voltbl	ENDS
;	COMDAT xdata
xdata	SEGMENT
$unwind$??$swap@PEAV_Ref_count_base@std@@$0A@@std@@YAXAEAPEAV_Ref_count_base@0@0@Z DD 025054219H
	DD	01132318H
	DD	0700c0021H
	DD	0500bH
	DD	imagerel __GSHandlerCheck
	DD	0f8H
xdata	ENDS
;	COMDAT CONST
CONST	SEGMENT
??$swap@PEAV_Ref_count_base@std@@$0A@@std@@YAXAEAPEAV_Ref_count_base@0@0@Z$rtcName$0 DB 05fH ; std::swap<std::_Ref_count_base *,0>
	DB	054H
	DB	06dH
	DB	070H
	DB	00H
	ORG $+11
??$swap@PEAV_Ref_count_base@std@@$0A@@std@@YAXAEAPEAV_Ref_count_base@0@0@Z$rtcVarDesc DD 028H ; std::swap<std::_Ref_count_base *,0>
	DD	08H
	DQ	FLAT:??$swap@PEAV_Ref_count_base@std@@$0A@@std@@YAXAEAPEAV_Ref_count_base@0@0@Z$rtcName$0
	ORG $+48
??$swap@PEAV_Ref_count_base@std@@$0A@@std@@YAXAEAPEAV_Ref_count_base@0@0@Z$rtcFrameData DD 01H ; std::swap<std::_Ref_count_base *,0>
	DD	00H
	DQ	FLAT:??$swap@PEAV_Ref_count_base@std@@$0A@@std@@YAXAEAPEAV_Ref_count_base@0@0@Z$rtcVarDesc
CONST	ENDS
;	COMDAT voltbl
voltbl	SEGMENT
_volmd	DB	03bH
	DB	0a0H
voltbl	ENDS
;	COMDAT xdata
xdata	SEGMENT
$unwind$??$swap@PEAVSwapchain@cow@@$0A@@std@@YAXAEAPEAVSwapchain@cow@@0@Z DD 025054219H
	DD	01132318H
	DD	0700c0021H
	DD	0500bH
	DD	imagerel __GSHandlerCheck
	DD	0f8H
xdata	ENDS
;	COMDAT CONST
CONST	SEGMENT
??$swap@PEAVSwapchain@cow@@$0A@@std@@YAXAEAPEAVSwapchain@cow@@0@Z$rtcName$0 DB 05fH ; std::swap<cow::Swapchain *,0>
	DB	054H
	DB	06dH
	DB	070H
	DB	00H
	ORG $+11
??$swap@PEAVSwapchain@cow@@$0A@@std@@YAXAEAPEAVSwapchain@cow@@0@Z$rtcVarDesc DD 028H ; std::swap<cow::Swapchain *,0>
	DD	08H
	DQ	FLAT:??$swap@PEAVSwapchain@cow@@$0A@@std@@YAXAEAPEAVSwapchain@cow@@0@Z$rtcName$0
	ORG $+48
??$swap@PEAVSwapchain@cow@@$0A@@std@@YAXAEAPEAVSwapchain@cow@@0@Z$rtcFrameData DD 01H ; std::swap<cow::Swapchain *,0>
	DD	00H
	DQ	FLAT:??$swap@PEAVSwapchain@cow@@$0A@@std@@YAXAEAPEAVSwapchain@cow@@0@Z$rtcVarDesc
CONST	ENDS
;	COMDAT xdata
xdata	SEGMENT
$unwind$??$_Destroy_range@V?$allocator@UVkSurfaceFormatKHR@@@std@@@std@@YAXPEAUVkSurfaceFormatKHR@@QEAU1@AEAV?$allocator@UVkSurfaceFormatKHR@@@0@@Z DD 025051d01H
	DD	0118231dH
	DD	07011001dH
	DD	05010H
xdata	ENDS
;	COMDAT xdata
xdata	SEGMENT
$unwind$??$_Destroy_range@V?$allocator@W4VkPresentModeKHR@@@std@@@std@@YAXPEAW4VkPresentModeKHR@@QEAW41@AEAV?$allocator@W4VkPresentModeKHR@@@0@@Z DD 025051d01H
	DD	0118231dH
	DD	07011001dH
	DD	05010H
xdata	ENDS
;	COMDAT xdata
xdata	SEGMENT
$unwind$??$_Move_construct_from@VSwapchain@cow@@@?$_Ptr_base@VSwapchain@cow@@@std@@IEAAX$$QEAV01@@Z DD 025051801H
	DD	01132318H
	DD	0700c001dH
	DD	0500bH
xdata	ENDS
;	COMDAT xdata
xdata	SEGMENT
$unwind$??$?0UVkSurfaceFormatKHR@@@?$allocator@U_Container_proxy@std@@@std@@QEAA@AEBV?$allocator@UVkSurfaceFormatKHR@@@1@@Z DD 025051801H
	DD	01132318H
	DD	0700c001dH
	DD	0500bH
xdata	ENDS
;	COMDAT xdata
xdata	SEGMENT
$unwind$??$_Unfancy_maybe_null@UVkSurfaceFormatKHR@@@std@@YAPEAUVkSurfaceFormatKHR@@PEAU1@@Z DD 025051301H
	DD	010e2313H
	DD	07007001dH
	DD	05006H
xdata	ENDS
;	COMDAT xdata
xdata	SEGMENT
$unwind$??$_Delete_plain_internal@V?$allocator@U_Container_proxy@std@@@std@@@std@@YAXAEAV?$allocator@U_Container_proxy@std@@@0@QEAU_Container_proxy@0@@Z DD 025051801H
	DD	01132318H
	DD	0700c001dH
	DD	0500bH
xdata	ENDS
;	COMDAT xdata
xdata	SEGMENT
$unwind$??$exchange@PEAU_Container_proxy@std@@$$T@std@@YAPEAU_Container_proxy@0@AEAPEAU10@$$QEA$$T@Z DD 025051801H
	DD	01132318H
	DD	0700c0021H
	DD	0500bH
xdata	ENDS
;	COMDAT xdata
xdata	SEGMENT
$unwind$??$?0W4VkPresentModeKHR@@@?$allocator@U_Container_proxy@std@@@std@@QEAA@AEBV?$allocator@W4VkPresentModeKHR@@@1@@Z DD 025051801H
	DD	01132318H
	DD	0700c001dH
	DD	0500bH
xdata	ENDS
;	COMDAT xdata
xdata	SEGMENT
$unwind$?deallocate@?$allocator@U_Container_proxy@std@@@std@@QEAAXQEAU_Container_proxy@2@_K@Z DD 035051d01H
	DD	0118331dH
	DD	07011001fH
	DD	05010H
xdata	ENDS
;	COMDAT xdata
xdata	SEGMENT
$unwind$??$_Unfancy_maybe_null@W4VkPresentModeKHR@@@std@@YAPEAW4VkPresentModeKHR@@PEAW41@@Z DD 025051301H
	DD	010e2313H
	DD	07007001dH
	DD	05006H
xdata	ENDS
;	COMDAT xdata
xdata	SEGMENT
$unwind$??$_Copy_construct_from@VSwapchain@cow@@@?$_Ptr_base@VSwapchain@cow@@@std@@IEAAXAEBV?$shared_ptr@VSwapchain@cow@@@1@@Z DD 025051801H
	DD	01132318H
	DD	0700c001dH
	DD	0500bH
xdata	ENDS
;	COMDAT xdata
xdata	SEGMENT
$unwind$??$move@AEAV?$shared_ptr@VSwapchain@cow@@@std@@@std@@YA$$QEAV?$shared_ptr@VSwapchain@cow@@@0@AEAV10@@Z DD 025051301H
	DD	010e2313H
	DD	07007001dH
	DD	05006H
xdata	ENDS
;	COMDAT xdata
xdata	SEGMENT
$unwind$?data@?$array@PEAUVkImageView_T@@$01@std@@QEAAPEAPEAUVkImageView_T@@XZ DD 025051301H
	DD	010e2313H
	DD	07007001dH
	DD	05006H
xdata	ENDS
;	COMDAT xdata
xdata	SEGMENT
$unwind$?size@?$array@PEAUVkImageView_T@@$01@std@@QEBA_KXZ DD 025051301H
	DD	010e2313H
	DD	07007001dH
	DD	05006H
xdata	ENDS
;	COMDAT xdata
xdata	SEGMENT
$unwind$?data@?$array@UVkAttachmentDescription@@$01@std@@QEAAPEAUVkAttachmentDescription@@XZ DD 025051301H
	DD	010e2313H
	DD	07007001dH
	DD	05006H
xdata	ENDS
;	COMDAT xdata
xdata	SEGMENT
$unwind$?size@?$array@UVkAttachmentDescription@@$01@std@@QEBA_KXZ DD 025051301H
	DD	010e2313H
	DD	07007001dH
	DD	05006H
xdata	ENDS
;	COMDAT xdata
xdata	SEGMENT
$unwind$??$max@I@std@@YAAEBIAEBI0@Z DD 025051801H
	DD	01132318H
	DD	0700c0021H
	DD	0500bH
xdata	ENDS
;	COMDAT xdata
xdata	SEGMENT
$unwind$??$min@I@std@@YAAEBIAEBI0@Z DD 025051801H
	DD	01132318H
	DD	0700c0021H
	DD	0500bH
xdata	ENDS
;	COMDAT xdata
xdata	SEGMENT
$unwind$??$?CVSwapchain@cow@@$0A@@?$shared_ptr@VSwapchain@cow@@@std@@QEBAPEAVSwapchain@cow@@XZ DD 025051301H
	DD	010e2313H
	DD	07007001dH
	DD	05006H
xdata	ENDS
;	COMDAT xdata
xdata	SEGMENT
$unwind$??$?8VSwapchain@cow@@@std@@YA_NAEBV?$shared_ptr@VSwapchain@cow@@@0@$$T@Z DD 025051801H
	DD	01132318H
	DD	0700c001fH
	DD	0500bH
xdata	ENDS
;	COMDAT xdata
xdata	SEGMENT
$unwind$?swap@?$shared_ptr@VSwapchain@cow@@@std@@QEAAXAEAV12@@Z DD 025051801H
	DD	01132318H
	DD	0700c001dH
	DD	0500bH
xdata	ENDS
;	COMDAT xdata
xdata	SEGMENT
$unwind$??4?$shared_ptr@VSwapchain@cow@@@std@@QEAAAEAV01@$$QEAV01@@Z DD 025051801H
	DD	01132318H
	DD	0700c0023H
	DD	0500bH
xdata	ENDS
;	COMDAT xdata
xdata	SEGMENT
$unwind$??1?$shared_ptr@VSwapchain@cow@@@std@@QEAA@XZ DD 025051301H
	DD	010e2313H
	DD	07007001dH
	DD	05006H
xdata	ENDS
;	COMDAT xdata
xdata	SEGMENT
$unwind$??0?$shared_ptr@VSwapchain@cow@@@std@@QEAA@$$QEAV01@@Z DD 025051801H
	DD	01132318H
	DD	0700c001dH
	DD	0500bH
xdata	ENDS
;	COMDAT xdata
xdata	SEGMENT
$unwind$??0?$shared_ptr@VSwapchain@cow@@@std@@QEAA@AEBV01@@Z DD 025051801H
	DD	01132318H
	DD	0700c001dH
	DD	0500bH
xdata	ENDS
;	COMDAT xdata
xdata	SEGMENT
$unwind$??0?$shared_ptr@VSwapchain@cow@@@std@@QEAA@$$T@Z DD 025051801H
	DD	01132318H
	DD	0700c001dH
	DD	0500bH
xdata	ENDS
;	COMDAT xdata
xdata	SEGMENT
$unwind$??0?$shared_ptr@VSwapchain@cow@@@std@@QEAA@XZ DD 025051301H
	DD	010e2313H
	DD	07007001dH
	DD	05006H
xdata	ENDS
;	COMDAT xdata
xdata	SEGMENT
$unwind$?_Swap@?$_Ptr_base@VSwapchain@cow@@@std@@IEAAXAEAV12@@Z DD 025051801H
	DD	01132318H
	DD	0700c001dH
	DD	0500bH
xdata	ENDS
;	COMDAT xdata
xdata	SEGMENT
$unwind$?_Decref@?$_Ptr_base@VSwapchain@cow@@@std@@IEAAXXZ DD 025051301H
	DD	010e2313H
	DD	07007001dH
	DD	05006H
xdata	ENDS
;	COMDAT xdata
xdata	SEGMENT
$unwind$?_Incref@?$_Ptr_base@VSwapchain@cow@@@std@@IEBAXXZ DD 025051301H
	DD	010e2313H
	DD	07007001dH
	DD	05006H
xdata	ENDS
;	COMDAT xdata
xdata	SEGMENT
$unwind$??0?$_Ptr_base@VSwapchain@cow@@@std@@IEAA@XZ DD 025051301H
	DD	010e2313H
	DD	07007001dH
	DD	05006H
xdata	ENDS
;	COMDAT xdata
xdata	SEGMENT
$unwind$?get@?$_Ptr_base@VSwapchain@cow@@@std@@IEBAPEAVSwapchain@cow@@XZ DD 025051301H
	DD	010e2313H
	DD	07007001dH
	DD	05006H
xdata	ENDS
;	COMDAT voltbl
voltbl	SEGMENT
_volmd	DW	036H
	DW	024cH
voltbl	ENDS
;	COMDAT xdata
xdata	SEGMENT
$unwind$?createSyncObjects@Swapchain@cow@@AEAAXXZ DD 025053d19H
	DD	010e2313H
	DD	070070035H
	DD	05006H
	DD	imagerel __GSHandlerCheck
	DD	0198H
xdata	ENDS
;	COMDAT CONST
CONST	SEGMENT
?createSyncObjects@Swapchain@cow@@AEAAXXZ$rtcName$0 DB 073H ; cow::Swapchain::createSyncObjects
	DB	065H
	DB	06dH
	DB	061H
	DB	070H
	DB	068H
	DB	06fH
	DB	072H
	DB	065H
	DB	049H
	DB	06eH
	DB	066H
	DB	06fH
	DB	00H
	ORG $+2
?createSyncObjects@Swapchain@cow@@AEAAXXZ$rtcName$1 DB 066H ; cow::Swapchain::createSyncObjects
	DB	065H
	DB	06eH
	DB	063H
	DB	065H
	DB	049H
	DB	06eH
	DB	066H
	DB	06fH
	DB	00H
	ORG $+6
?createSyncObjects@Swapchain@cow@@AEAAXXZ$rtcVarDesc DD 058H ; cow::Swapchain::createSyncObjects
	DD	018H
	DQ	FLAT:?createSyncObjects@Swapchain@cow@@AEAAXXZ$rtcName$1
	DD	028H
	DD	018H
	DQ	FLAT:?createSyncObjects@Swapchain@cow@@AEAAXXZ$rtcName$0
	ORG $+96
?createSyncObjects@Swapchain@cow@@AEAAXXZ$rtcFrameData DD 02H ; cow::Swapchain::createSyncObjects
	DD	00H
	DQ	FLAT:?createSyncObjects@Swapchain@cow@@AEAAXXZ$rtcVarDesc
CONST	ENDS
;	COMDAT voltbl
voltbl	SEGMENT
_volmd	DW	03fH
	DW	011cH
voltbl	ENDS
;	COMDAT xdata
xdata	SEGMENT
$unwind$?findMemoryType@Swapchain@cow@@AEAAIII@Z DD 025054619H
	DD	0117231cH
	DD	070100085H
	DD	0500fH
	DD	imagerel __GSHandlerCheck
	DD	0418H
xdata	ENDS
;	COMDAT CONST
CONST	SEGMENT
?findMemoryType@Swapchain@cow@@AEAAIII@Z$rtcName$0 DB 06dH ; cow::Swapchain::findMemoryType
	DB	065H
	DB	06dH
	DB	050H
	DB	072H
	DB	06fH
	DB	070H
	DB	065H
	DB	072H
	DB	074H
	DB	069H
	DB	065H
	DB	073H
	DB	00H
	ORG $+2
?findMemoryType@Swapchain@cow@@AEAAIII@Z$rtcVarDesc DD 030H ; cow::Swapchain::findMemoryType
	DD	0208H
	DQ	FLAT:?findMemoryType@Swapchain@cow@@AEAAIII@Z$rtcName$0
	ORG $+48
?findMemoryType@Swapchain@cow@@AEAAIII@Z$rtcFrameData DD 01H ; cow::Swapchain::findMemoryType
	DD	00H
	DQ	FLAT:?findMemoryType@Swapchain@cow@@AEAAIII@Z$rtcVarDesc
CONST	ENDS
;	COMDAT voltbl
voltbl	SEGMENT
_volmd	DW	037H
	DW	0ad3H
voltbl	ENDS
;	COMDAT xdata
xdata	SEGMENT
$unwind$?createRenderingObjects@Swapchain@cow@@AEAAXXZ DD 035063e19H
	DD	010f3314H
	DD	070080140H
	DD	050066007H
	DD	imagerel __GSHandlerCheck
	DD	09f8H
xdata	ENDS
;	COMDAT CONST
CONST	SEGMENT
?createRenderingObjects@Swapchain@cow@@AEAAXXZ$rtcName$0 DB 076H ; cow::Swapchain::createRenderingObjects
	DB	069H
	DB	065H
	DB	077H
	DB	049H
	DB	06eH
	DB	066H
	DB	06fH
	DB	00H
	ORG $+7
?createRenderingObjects@Swapchain@cow@@AEAAXXZ$rtcName$1 DB 063H ; cow::Swapchain::createRenderingObjects
	DB	061H
	DB	06eH
	DB	064H
	DB	069H
	DB	064H
	DB	061H
	DB	074H
	DB	065H
	DB	073H
	DB	00H
	ORG $+5
?createRenderingObjects@Swapchain@cow@@AEAAXXZ$rtcName$2 DB 064H ; cow::Swapchain::createRenderingObjects
	DB	065H
	DB	070H
	DB	074H
	DB	068H
	DB	041H
	DB	074H
	DB	074H
	DB	061H
	DB	063H
	DB	068H
	DB	06dH
	DB	065H
	DB	06eH
	DB	074H
	DB	00H
?createRenderingObjects@Swapchain@cow@@AEAAXXZ$rtcName$3 DB 064H ; cow::Swapchain::createRenderingObjects
	DB	065H
	DB	070H
	DB	074H
	DB	068H
	DB	041H
	DB	074H
	DB	074H
	DB	061H
	DB	063H
	DB	068H
	DB	06dH
	DB	065H
	DB	06eH
	DB	074H
	DB	052H
	DB	065H
	DB	066H
	DB	00H
	ORG $+5
?createRenderingObjects@Swapchain@cow@@AEAAXXZ$rtcName$4 DB 063H ; cow::Swapchain::createRenderingObjects
	DB	06fH
	DB	06cH
	DB	06fH
	DB	072H
	DB	041H
	DB	074H
	DB	074H
	DB	061H
	DB	063H
	DB	068H
	DB	06dH
	DB	065H
	DB	06eH
	DB	074H
	DB	00H
?createRenderingObjects@Swapchain@cow@@AEAAXXZ$rtcName$5 DB 063H ; cow::Swapchain::createRenderingObjects
	DB	06fH
	DB	06cH
	DB	06fH
	DB	072H
	DB	041H
	DB	074H
	DB	074H
	DB	061H
	DB	063H
	DB	068H
	DB	06dH
	DB	065H
	DB	06eH
	DB	074H
	DB	052H
	DB	065H
	DB	066H
	DB	00H
	ORG $+5
?createRenderingObjects@Swapchain@cow@@AEAAXXZ$rtcName$6 DB 073H ; cow::Swapchain::createRenderingObjects
	DB	075H
	DB	062H
	DB	070H
	DB	061H
	DB	073H
	DB	073H
	DB	00H
?createRenderingObjects@Swapchain@cow@@AEAAXXZ$rtcName$7 DB 064H ; cow::Swapchain::createRenderingObjects
	DB	065H
	DB	070H
	DB	065H
	DB	06eH
	DB	064H
	DB	065H
	DB	06eH
	DB	063H
	DB	079H
	DB	00H
	ORG $+5
?createRenderingObjects@Swapchain@cow@@AEAAXXZ$rtcName$8 DB 061H ; cow::Swapchain::createRenderingObjects
	DB	074H
	DB	074H
	DB	061H
	DB	063H
	DB	068H
	DB	06dH
	DB	065H
	DB	06eH
	DB	074H
	DB	073H
	DB	00H
	ORG $+4
?createRenderingObjects@Swapchain@cow@@AEAAXXZ$rtcName$9 DB 072H ; cow::Swapchain::createRenderingObjects
	DB	065H
	DB	06eH
	DB	064H
	DB	065H
	DB	072H
	DB	050H
	DB	061H
	DB	073H
	DB	073H
	DB	049H
	DB	06eH
	DB	066H
	DB	06fH
	DB	00H
	ORG $+1
?createRenderingObjects@Swapchain@cow@@AEAAXXZ$rtcName$10 DB 069H ; cow::Swapchain::createRenderingObjects
	DB	06dH
	DB	061H
	DB	067H
	DB	065H
	DB	049H
	DB	06eH
	DB	066H
	DB	06fH
	DB	00H
	ORG $+6
?createRenderingObjects@Swapchain@cow@@AEAAXXZ$rtcName$11 DB 06dH ; cow::Swapchain::createRenderingObjects
	DB	065H
	DB	06dH
	DB	052H
	DB	065H
	DB	071H
	DB	075H
	DB	069H
	DB	072H
	DB	065H
	DB	06dH
	DB	065H
	DB	06eH
	DB	074H
	DB	073H
	DB	00H
?createRenderingObjects@Swapchain@cow@@AEAAXXZ$rtcName$12 DB 061H ; cow::Swapchain::createRenderingObjects
	DB	06cH
	DB	06cH
	DB	06fH
	DB	063H
	DB	049H
	DB	06eH
	DB	066H
	DB	06fH
	DB	00H
	ORG $+6
?createRenderingObjects@Swapchain@cow@@AEAAXXZ$rtcName$13 DB 076H ; cow::Swapchain::createRenderingObjects
	DB	069H
	DB	065H
	DB	077H
	DB	049H
	DB	06eH
	DB	066H
	DB	06fH
	DB	00H
	ORG $+7
?createRenderingObjects@Swapchain@cow@@AEAAXXZ$rtcName$14 DB 061H ; cow::Swapchain::createRenderingObjects
	DB	074H
	DB	074H
	DB	061H
	DB	063H
	DB	068H
	DB	06dH
	DB	065H
	DB	06eH
	DB	074H
	DB	073H
	DB	00H
	ORG $+4
?createRenderingObjects@Swapchain@cow@@AEAAXXZ$rtcName$15 DB 073H ; cow::Swapchain::createRenderingObjects
	DB	077H
	DB	061H
	DB	070H
	DB	043H
	DB	068H
	DB	061H
	DB	069H
	DB	06eH
	DB	045H
	DB	078H
	DB	074H
	DB	065H
	DB	06eH
	DB	074H
	DB	00H
?createRenderingObjects@Swapchain@cow@@AEAAXXZ$rtcName$16 DB 066H ; cow::Swapchain::createRenderingObjects
	DB	072H
	DB	061H
	DB	06dH
	DB	065H
	DB	062H
	DB	075H
	DB	066H
	DB	066H
	DB	065H
	DB	072H
	DB	049H
	DB	06eH
	DB	066H
	DB	06fH
	DB	00H
	ORG $+8
?createRenderingObjects@Swapchain@cow@@AEAAXXZ$rtcVarDesc DD 0550H ; cow::Swapchain::createRenderingObjects
	DD	040H
	DQ	FLAT:?createRenderingObjects@Swapchain@cow@@AEAAXXZ$rtcName$16
	DD	0528H
	DD	08H
	DQ	FLAT:?createRenderingObjects@Swapchain@cow@@AEAAXXZ$rtcName$15
	DD	04f8H
	DD	010H
	DQ	FLAT:?createRenderingObjects@Swapchain@cow@@AEAAXXZ$rtcName$14
	DD	0470H
	DD	050H
	DQ	FLAT:?createRenderingObjects@Swapchain@cow@@AEAAXXZ$rtcName$13
	DD	0428H
	DD	020H
	DQ	FLAT:?createRenderingObjects@Swapchain@cow@@AEAAXXZ$rtcName$12
	DD	03f8H
	DD	018H
	DQ	FLAT:?createRenderingObjects@Swapchain@cow@@AEAAXXZ$rtcName$11
	DD	0380H
	DD	058H
	DQ	FLAT:?createRenderingObjects@Swapchain@cow@@AEAAXXZ$rtcName$10
	DD	0300H
	DD	040H
	DQ	FLAT:?createRenderingObjects@Swapchain@cow@@AEAAXXZ$rtcName$9
	DD	0290H
	DD	048H
	DQ	FLAT:?createRenderingObjects@Swapchain@cow@@AEAAXXZ$rtcName$8
	DD	0248H
	DD	01cH
	DQ	FLAT:?createRenderingObjects@Swapchain@cow@@AEAAXXZ$rtcName$7
	DD	01e0H
	DD	048H
	DQ	FLAT:?createRenderingObjects@Swapchain@cow@@AEAAXXZ$rtcName$6
	DD	01b8H
	DD	08H
	DQ	FLAT:?createRenderingObjects@Swapchain@cow@@AEAAXXZ$rtcName$5
	DD	0178H
	DD	024H
	DQ	FLAT:?createRenderingObjects@Swapchain@cow@@AEAAXXZ$rtcName$4
	DD	0158H
	DD	08H
	DQ	FLAT:?createRenderingObjects@Swapchain@cow@@AEAAXXZ$rtcName$3
	DD	0118H
	DD	024H
	DQ	FLAT:?createRenderingObjects@Swapchain@cow@@AEAAXXZ$rtcName$2
	DD	0c8H
	DD	0cH
	DQ	FLAT:?createRenderingObjects@Swapchain@cow@@AEAAXXZ$rtcName$1
	DD	060H
	DD	050H
	DQ	FLAT:?createRenderingObjects@Swapchain@cow@@AEAAXXZ$rtcName$0
	ORG $+816
?createRenderingObjects@Swapchain@cow@@AEAAXXZ$rtcFrameData DD 011H ; cow::Swapchain::createRenderingObjects
	DD	00H
	DQ	FLAT:?createRenderingObjects@Swapchain@cow@@AEAAXXZ$rtcVarDesc
CONST	ENDS
;	COMDAT voltbl
voltbl	SEGMENT
_volmd	DW	040H
	DW	011cH
voltbl	ENDS
;	COMDAT xdata
xdata	SEGMENT
$unwind$?chooseExtent2D@Swapchain@cow@@AEAA?AUVkExtent2D@@AEBUVkSurfaceCapabilitiesKHR@@@Z DD 025054719H
	DD	0118231dH
	DD	070110021H
	DD	05010H
	DD	imagerel __GSHandlerCheck
	DD	0f8H
xdata	ENDS
;	COMDAT CONST
CONST	SEGMENT
?chooseExtent2D@Swapchain@cow@@AEAA?AUVkExtent2D@@AEBUVkSurfaceCapabilitiesKHR@@@Z$rtcName$0 DB 061H ; cow::Swapchain::chooseExtent2D
	DB	063H
	DB	074H
	DB	075H
	DB	061H
	DB	06cH
	DB	045H
	DB	078H
	DB	074H
	DB	065H
	DB	06eH
	DB	074H
	DB	00H
	ORG $+3
?chooseExtent2D@Swapchain@cow@@AEAA?AUVkExtent2D@@AEBUVkSurfaceCapabilitiesKHR@@@Z$rtcVarDesc DD 028H ; cow::Swapchain::chooseExtent2D
	DD	08H
	DQ	FLAT:?chooseExtent2D@Swapchain@cow@@AEAA?AUVkExtent2D@@AEBUVkSurfaceCapabilitiesKHR@@@Z$rtcName$0
	ORG $+48
?chooseExtent2D@Swapchain@cow@@AEAA?AUVkExtent2D@@AEBUVkSurfaceCapabilitiesKHR@@@Z$rtcFrameData DD 01H ; cow::Swapchain::chooseExtent2D
	DD	00H
	DQ	FLAT:?chooseExtent2D@Swapchain@cow@@AEAA?AUVkExtent2D@@AEBUVkSurfaceCapabilitiesKHR@@@Z$rtcVarDesc
CONST	ENDS
;	COMDAT xdata
xdata	SEGMENT
$unwind$?choosePresentModeKHR@Swapchain@cow@@AEAA?AW4VkPresentModeKHR@@PEAW43@I@Z DD 025051d01H
	DD	0118231dH
	DD	070110025H
	DD	05010H
xdata	ENDS
;	COMDAT xdata
xdata	SEGMENT
$unwind$?chooseSurfaceFormatKHR@Swapchain@cow@@AEAA?AUVkSurfaceFormatKHR@@PEAU3@I@Z DD 025052201H
	DD	011d2322H
	DD	070160021H
	DD	05015H
xdata	ENDS
;	COMDAT voltbl
voltbl	SEGMENT
_volmd	DB	00H
	DB	05H
voltbl	ENDS
;	COMDAT voltbl
voltbl	SEGMENT
_volmd	DW	036H
	DW	03b4H
voltbl	ENDS
;	COMDAT xdata
xdata	SEGMENT
$unwind$?dtor$0@?0??createSwapchain@Swapchain@cow@@AEAAXXZ@4HA DD 031001H
	DD	0700c4210H
	DD	0500bH
xdata	ENDS
;	COMDAT xdata
xdata	SEGMENT
$ip2state$?createSwapchain@Swapchain@cow@@AEAAXXZ DB 06H
	DB	00H
	DB	00H
	DB	05H, 02H
	DB	02H
	DB	'i', 0cH
	DB	00H
xdata	ENDS
;	COMDAT xdata
xdata	SEGMENT
$stateUnwindMap$?createSwapchain@Swapchain@cow@@AEAAXXZ DB 02H
	DB	0eH
	DD	imagerel ?dtor$0@?0??createSwapchain@Swapchain@cow@@AEAAXXZ@4HA
xdata	ENDS
;	COMDAT xdata
xdata	SEGMENT
$cppxdata$?createSwapchain@Swapchain@cow@@AEAAXXZ DB 028H
	DD	imagerel $stateUnwindMap$?createSwapchain@Swapchain@cow@@AEAAXXZ
	DD	imagerel $ip2state$?createSwapchain@Swapchain@cow@@AEAAXXZ
xdata	ENDS
;	COMDAT xdata
xdata	SEGMENT
$unwind$?createSwapchain@Swapchain@cow@@AEAAXXZ DD 025053d19H
	DD	010e2313H
	DD	07007007dH
	DD	05006H
	DD	imagerel __GSHandlerCheck_EH4
	DD	imagerel $cppxdata$?createSwapchain@Swapchain@cow@@AEAAXXZ
	DD	03d2H
xdata	ENDS
;	COMDAT CONST
CONST	SEGMENT
?createSwapchain@Swapchain@cow@@AEAAXXZ$rtcName$0 DB 073H ; cow::Swapchain::createSwapchain
	DB	077H
	DB	061H
	DB	070H
	DB	043H
	DB	068H
	DB	061H
	DB	069H
	DB	06eH
	DB	053H
	DB	075H
	DB	070H
	DB	070H
	DB	06fH
	DB	072H
	DB	074H
	DB	00H
	ORG $+7
?createSwapchain@Swapchain@cow@@AEAAXXZ$rtcName$1 DB 073H ; cow::Swapchain::createSwapchain
	DB	075H
	DB	072H
	DB	066H
	DB	061H
	DB	063H
	DB	065H
	DB	046H
	DB	06fH
	DB	072H
	DB	06dH
	DB	061H
	DB	074H
	DB	00H
	ORG $+2
?createSwapchain@Swapchain@cow@@AEAAXXZ$rtcName$2 DB 077H ; cow::Swapchain::createSwapchain
	DB	069H
	DB	06eH
	DB	064H
	DB	06fH
	DB	077H
	DB	045H
	DB	078H
	DB	074H
	DB	065H
	DB	06eH
	DB	074H
	DB	00H
	ORG $+3
?createSwapchain@Swapchain@cow@@AEAAXXZ$rtcName$3 DB 063H ; cow::Swapchain::createSwapchain
	DB	072H
	DB	065H
	DB	061H
	DB	074H
	DB	065H
	DB	049H
	DB	06eH
	DB	066H
	DB	06fH
	DB	00H
	ORG $+5
?createSwapchain@Swapchain@cow@@AEAAXXZ$rtcName$4 DB 069H ; cow::Swapchain::createSwapchain
	DB	06eH
	DB	064H
	DB	069H
	DB	063H
	DB	065H
	DB	073H
	DB	00H
?createSwapchain@Swapchain@cow@@AEAAXXZ$rtcName$5 DB 071H ; cow::Swapchain::createSwapchain
	DB	075H
	DB	065H
	DB	075H
	DB	065H
	DB	046H
	DB	061H
	DB	06dH
	DB	069H
	DB	06cH
	DB	079H
	DB	049H
	DB	06eH
	DB	064H
	DB	069H
	DB	063H
	DB	065H
	DB	073H
	DB	00H
	ORG $+5
?createSwapchain@Swapchain@cow@@AEAAXXZ$rtcFrameData DD 06H ; cow::Swapchain::createSwapchain
	DD	00H
	DQ	FLAT:?createSwapchain@Swapchain@cow@@AEAAXXZ$rtcVarDesc
	ORG $+8
?createSwapchain@Swapchain@cow@@AEAAXXZ$rtcVarDesc DD 0208H ; cow::Swapchain::createSwapchain
	DD	08H
	DQ	FLAT:?createSwapchain@Swapchain@cow@@AEAAXXZ$rtcName$5
	DD	01d8H
	DD	010H
	DQ	FLAT:?createSwapchain@Swapchain@cow@@AEAAXXZ$rtcName$4
	DD	0150H
	DD	068H
	DQ	FLAT:?createSwapchain@Swapchain@cow@@AEAAXXZ$rtcName$3
	DD	0108H
	DD	08H
	DQ	FLAT:?createSwapchain@Swapchain@cow@@AEAAXXZ$rtcName$2
	DD	0c8H
	DD	08H
	DQ	FLAT:?createSwapchain@Swapchain@cow@@AEAAXXZ$rtcName$1
	DD	030H
	DD	078H
	DQ	FLAT:?createSwapchain@Swapchain@cow@@AEAAXXZ$rtcName$0
CONST	ENDS
;	COMDAT voltbl
voltbl	SEGMENT
_volmd	DW	040H
	DW	0339H
voltbl	ENDS
;	COMDAT xdata
xdata	SEGMENT
$unwind$?submit@Swapchain@cow@@QEAA?AW4VkResult@@PEBQEAUVkCommandBuffer_T@@PEAI@Z DD 035054719H
	DD	0118331dH
	DD	070110055H
	DD	05010H
	DD	imagerel __GSHandlerCheck
	DD	0298H
xdata	ENDS
;	COMDAT CONST
CONST	SEGMENT
?submit@Swapchain@cow@@QEAA?AW4VkResult@@PEBQEAUVkCommandBuffer_T@@PEAI@Z$rtcName$0 DB 073H ; cow::Swapchain::submit
	DB	075H
	DB	062H
	DB	06dH
	DB	069H
	DB	074H
	DB	049H
	DB	06eH
	DB	066H
	DB	06fH
	DB	00H
	ORG $+5
?submit@Swapchain@cow@@QEAA?AW4VkResult@@PEBQEAUVkCommandBuffer_T@@PEAI@Z$rtcName$1 DB 077H ; cow::Swapchain::submit
	DB	061H
	DB	069H
	DB	074H
	DB	053H
	DB	065H
	DB	06dH
	DB	061H
	DB	070H
	DB	068H
	DB	06fH
	DB	072H
	DB	065H
	DB	073H
	DB	00H
	ORG $+1
?submit@Swapchain@cow@@QEAA?AW4VkResult@@PEBQEAUVkCommandBuffer_T@@PEAI@Z$rtcName$2 DB 077H ; cow::Swapchain::submit
	DB	061H
	DB	069H
	DB	074H
	DB	053H
	DB	074H
	DB	061H
	DB	067H
	DB	065H
	DB	073H
	DB	00H
	ORG $+5
?submit@Swapchain@cow@@QEAA?AW4VkResult@@PEBQEAUVkCommandBuffer_T@@PEAI@Z$rtcName$3 DB 073H ; cow::Swapchain::submit
	DB	069H
	DB	067H
	DB	06eH
	DB	061H
	DB	06cH
	DB	053H
	DB	065H
	DB	06dH
	DB	061H
	DB	070H
	DB	068H
	DB	06fH
	DB	072H
	DB	065H
	DB	073H
	DB	00H
	ORG $+7
?submit@Swapchain@cow@@QEAA?AW4VkResult@@PEBQEAUVkCommandBuffer_T@@PEAI@Z$rtcName$4 DB 070H ; cow::Swapchain::submit
	DB	072H
	DB	065H
	DB	073H
	DB	065H
	DB	06eH
	DB	074H
	DB	049H
	DB	06eH
	DB	066H
	DB	06fH
	DB	00H
	ORG $+4
?submit@Swapchain@cow@@QEAA?AW4VkResult@@PEBQEAUVkCommandBuffer_T@@PEAI@Z$rtcName$5 DB 073H ; cow::Swapchain::submit
	DB	077H
	DB	061H
	DB	070H
	DB	043H
	DB	068H
	DB	061H
	DB	069H
	DB	06eH
	DB	073H
	DB	00H
	ORG $+13
?submit@Swapchain@cow@@QEAA?AW4VkResult@@PEBQEAUVkCommandBuffer_T@@PEAI@Z$rtcVarDesc DD 0168H ; cow::Swapchain::submit
	DD	08H
	DQ	FLAT:?submit@Swapchain@cow@@QEAA?AW4VkResult@@PEBQEAUVkCommandBuffer_T@@PEAI@Z$rtcName$5
	DD	0110H
	DD	040H
	DQ	FLAT:?submit@Swapchain@cow@@QEAA?AW4VkResult@@PEBQEAUVkCommandBuffer_T@@PEAI@Z$rtcName$4
	DD	0e8H
	DD	08H
	DQ	FLAT:?submit@Swapchain@cow@@QEAA?AW4VkResult@@PEBQEAUVkCommandBuffer_T@@PEAI@Z$rtcName$3
	DD	0c4H
	DD	04H
	DQ	FLAT:?submit@Swapchain@cow@@QEAA?AW4VkResult@@PEBQEAUVkCommandBuffer_T@@PEAI@Z$rtcName$2
	DD	0a8H
	DD	08H
	DQ	FLAT:?submit@Swapchain@cow@@QEAA?AW4VkResult@@PEBQEAUVkCommandBuffer_T@@PEAI@Z$rtcName$1
	DD	040H
	DD	048H
	DQ	FLAT:?submit@Swapchain@cow@@QEAA?AW4VkResult@@PEBQEAUVkCommandBuffer_T@@PEAI@Z$rtcName$0
	ORG $+288
?submit@Swapchain@cow@@QEAA?AW4VkResult@@PEBQEAUVkCommandBuffer_T@@PEAI@Z$rtcFrameData DD 06H ; cow::Swapchain::submit
	DD	00H
	DQ	FLAT:?submit@Swapchain@cow@@QEAA?AW4VkResult@@PEBQEAUVkCommandBuffer_T@@PEAI@Z$rtcVarDesc
CONST	ENDS
;	COMDAT xdata
xdata	SEGMENT
$unwind$?nextImage@Swapchain@cow@@QEAA?AW4VkResult@@PEAI@Z DD 035051801H
	DD	01133318H
	DD	0700c0023H
	DD	0500bH
xdata	ENDS
;	COMDAT xdata
xdata	SEGMENT
$ip2state$??1Swapchain@cow@@QEAA@XZ DB 02H
	DB	00H
	DB	00H
xdata	ENDS
;	COMDAT xdata
xdata	SEGMENT
$cppxdata$??1Swapchain@cow@@QEAA@XZ DB 060H
	DD	imagerel $ip2state$??1Swapchain@cow@@QEAA@XZ
xdata	ENDS
;	COMDAT xdata
xdata	SEGMENT
$unwind$??1Swapchain@cow@@QEAA@XZ DD 025051319H
	DD	010e2313H
	DD	070070027H
	DD	05006H
	DD	imagerel __CxxFrameHandler4
	DD	imagerel $cppxdata$??1Swapchain@cow@@QEAA@XZ
xdata	ENDS
;	COMDAT voltbl
voltbl	SEGMENT
_volmd	DB	00H
	DB	05H
voltbl	ENDS
;	COMDAT voltbl
voltbl	SEGMENT
_volmd	DB	00H
	DB	05H
voltbl	ENDS
;	COMDAT xdata
xdata	SEGMENT
$unwind$?dtor$1@?0???0Swapchain@cow@@QEAA@AEAVDevice@1@UVkExtent2D@@V?$shared_ptr@VSwapchain@cow@@@std@@@Z@4HA DD 031001H
	DD	0700c4210H
	DD	0500bH
xdata	ENDS
;	COMDAT xdata
xdata	SEGMENT
$unwind$?dtor$0@?0???0Swapchain@cow@@QEAA@AEAVDevice@1@UVkExtent2D@@V?$shared_ptr@VSwapchain@cow@@@std@@@Z@4HA DD 031001H
	DD	0700c4210H
	DD	0500bH
xdata	ENDS
;	COMDAT xdata
xdata	SEGMENT
$ip2state$??0Swapchain@cow@@QEAA@AEAVDevice@1@UVkExtent2D@@V?$shared_ptr@VSwapchain@cow@@@std@@@Z DB 08H
	DB	00H
	DB	00H
	DB	'D'
	DB	02H
	DB	0a8H
	DB	04H
	DB	0e0H
	DB	00H
xdata	ENDS
;	COMDAT xdata
xdata	SEGMENT
$stateUnwindMap$??0Swapchain@cow@@QEAA@AEAVDevice@1@UVkExtent2D@@V?$shared_ptr@VSwapchain@cow@@@std@@@Z DB 04H
	DB	0eH
	DD	imagerel ?dtor$0@?0???0Swapchain@cow@@QEAA@AEAVDevice@1@UVkExtent2D@@V?$shared_ptr@VSwapchain@cow@@@std@@@Z@4HA
	DB	02eH
	DD	imagerel ?dtor$1@?0???0Swapchain@cow@@QEAA@AEAVDevice@1@UVkExtent2D@@V?$shared_ptr@VSwapchain@cow@@@std@@@Z@4HA
xdata	ENDS
;	COMDAT xdata
xdata	SEGMENT
$cppxdata$??0Swapchain@cow@@QEAA@AEAVDevice@1@UVkExtent2D@@V?$shared_ptr@VSwapchain@cow@@@std@@@Z DB 028H
	DD	imagerel $stateUnwindMap$??0Swapchain@cow@@QEAA@AEAVDevice@1@UVkExtent2D@@V?$shared_ptr@VSwapchain@cow@@@std@@@Z
	DD	imagerel $ip2state$??0Swapchain@cow@@QEAA@AEAVDevice@1@UVkExtent2D@@V?$shared_ptr@VSwapchain@cow@@@std@@@Z
xdata	ENDS
;	COMDAT xdata
xdata	SEGMENT
$unwind$??0Swapchain@cow@@QEAA@AEAVDevice@1@UVkExtent2D@@V?$shared_ptr@VSwapchain@cow@@@std@@@Z DD 025052211H
	DD	011d2322H
	DD	070160023H
	DD	05015H
	DD	imagerel __CxxFrameHandler4
	DD	imagerel $cppxdata$??0Swapchain@cow@@QEAA@AEAVDevice@1@UVkExtent2D@@V?$shared_ptr@VSwapchain@cow@@@std@@@Z
xdata	ENDS
;	COMDAT voltbl
voltbl	SEGMENT
_volmd	DB	00H
	DB	05H
voltbl	ENDS
;	COMDAT xdata
xdata	SEGMENT
$unwind$?dtor$0@?0???0Swapchain@cow@@QEAA@AEAVDevice@1@UVkExtent2D@@@Z@4HA DD 031001H
	DD	0700c4210H
	DD	0500bH
xdata	ENDS
;	COMDAT xdata
xdata	SEGMENT
$ip2state$??0Swapchain@cow@@QEAA@AEAVDevice@1@UVkExtent2D@@@Z DB 06H
	DB	00H
	DB	00H
	DB	0beH
	DB	02H
	DB	't'
	DB	00H
xdata	ENDS
;	COMDAT xdata
xdata	SEGMENT
$stateUnwindMap$??0Swapchain@cow@@QEAA@AEAVDevice@1@UVkExtent2D@@@Z DB 02H
	DB	0eH
	DD	imagerel ?dtor$0@?0???0Swapchain@cow@@QEAA@AEAVDevice@1@UVkExtent2D@@@Z@4HA
xdata	ENDS
;	COMDAT xdata
xdata	SEGMENT
$cppxdata$??0Swapchain@cow@@QEAA@AEAVDevice@1@UVkExtent2D@@@Z DB 028H
	DD	imagerel $stateUnwindMap$??0Swapchain@cow@@QEAA@AEAVDevice@1@UVkExtent2D@@@Z
	DD	imagerel $ip2state$??0Swapchain@cow@@QEAA@AEAVDevice@1@UVkExtent2D@@@Z
xdata	ENDS
;	COMDAT xdata
xdata	SEGMENT
$unwind$??0Swapchain@cow@@QEAA@AEAVDevice@1@UVkExtent2D@@@Z DD 025051d11H
	DD	0118231dH
	DD	07011001dH
	DD	05010H
	DD	imagerel __CxxFrameHandler4
	DD	imagerel $cppxdata$??0Swapchain@cow@@QEAA@AEAVDevice@1@UVkExtent2D@@@Z
xdata	ENDS
;	COMDAT voltbl
voltbl	SEGMENT
_volmd	DB	02fH
voltbl	ENDS
;	COMDAT xdata
xdata	SEGMENT
$unwind$?_Decwref@_Ref_count_base@std@@QEAAXXZ DD 025051301H
	DD	010e2313H
	DD	07007001dH
	DD	05006H
xdata	ENDS
;	COMDAT voltbl
voltbl	SEGMENT
_volmd	DB	02fH
voltbl	ENDS
;	COMDAT xdata
xdata	SEGMENT
$unwind$?_Decref@_Ref_count_base@std@@QEAAXXZ DD 025051301H
	DD	010e2313H
	DD	07007001dH
	DD	05006H
xdata	ENDS
;	COMDAT voltbl
voltbl	SEGMENT
_volmd	DB	02aH
voltbl	ENDS
;	COMDAT xdata
xdata	SEGMENT
$unwind$?_Incref@_Ref_count_base@std@@QEAAXXZ DD 025051301H
	DD	010e2313H
	DD	07007001dH
	DD	05006H
xdata	ENDS
;	COMDAT xdata
xdata	SEGMENT
$unwind$?getDevice@Device@cow@@QEAAPEAUVkDevice_T@@XZ DD 025051301H
	DD	010e2313H
	DD	07007001dH
	DD	05006H
xdata	ENDS
;	COMDAT xdata
xdata	SEGMENT
$unwind$??1SwapChainSupportDetails@cow@@QEAA@XZ DD 025051301H
	DD	010e2313H
	DD	07007001dH
	DD	05006H
xdata	ENDS
;	COMDAT xdata
xdata	SEGMENT
$unwind$?_Get_first@?$_Compressed_pair@V?$allocator@W4VkPresentModeKHR@@@std@@V?$_Vector_val@U?$_Simple_types@W4VkPresentModeKHR@@@std@@@2@$00@std@@QEAAAEAV?$allocator@W4VkPresentModeKHR@@@2@XZ DD 025051301H
	DD	010e2313H
	DD	07007001dH
	DD	05006H
xdata	ENDS
;	COMDAT xdata
xdata	SEGMENT
$unwind$?_Getal@?$vector@W4VkPresentModeKHR@@V?$allocator@W4VkPresentModeKHR@@@std@@@std@@AEAAAEAV?$allocator@W4VkPresentModeKHR@@@2@XZ DD 025051301H
	DD	010e2313H
	DD	07007001dH
	DD	05006H
xdata	ENDS
;	COMDAT xdata
xdata	SEGMENT
$ip2state$?_Tidy@?$vector@W4VkPresentModeKHR@@V?$allocator@W4VkPresentModeKHR@@@std@@@std@@AEAAXXZ DB 02H
	DB	00H
	DB	00H
xdata	ENDS
;	COMDAT xdata
xdata	SEGMENT
$cppxdata$?_Tidy@?$vector@W4VkPresentModeKHR@@V?$allocator@W4VkPresentModeKHR@@@std@@@std@@AEAAXXZ DB 060H
	DD	imagerel $ip2state$?_Tidy@?$vector@W4VkPresentModeKHR@@V?$allocator@W4VkPresentModeKHR@@@std@@@std@@AEAAXXZ
xdata	ENDS
;	COMDAT xdata
xdata	SEGMENT
$unwind$?_Tidy@?$vector@W4VkPresentModeKHR@@V?$allocator@W4VkPresentModeKHR@@@std@@@std@@AEAAXXZ DD 025051319H
	DD	010e2313H
	DD	070070031H
	DD	05006H
	DD	imagerel __CxxFrameHandler4
	DD	imagerel $cppxdata$?_Tidy@?$vector@W4VkPresentModeKHR@@V?$allocator@W4VkPresentModeKHR@@@std@@@std@@AEAAXXZ
xdata	ENDS
;	COMDAT xdata
xdata	SEGMENT
$unwind$?size@?$vector@W4VkPresentModeKHR@@V?$allocator@W4VkPresentModeKHR@@@std@@@std@@QEBA_KXZ DD 025051301H
	DD	010e2313H
	DD	070070021H
	DD	05006H
xdata	ENDS
;	COMDAT xdata
xdata	SEGMENT
$unwind$?data@?$vector@W4VkPresentModeKHR@@V?$allocator@W4VkPresentModeKHR@@@std@@@std@@QEAAPEAW4VkPresentModeKHR@@XZ DD 025051301H
	DD	010e2313H
	DD	07007001dH
	DD	05006H
xdata	ENDS
;	COMDAT voltbl
voltbl	SEGMENT
_volmd	DB	036H
	DB	0b2H
voltbl	ENDS
;	COMDAT xdata
xdata	SEGMENT
$unwind$??1?$vector@W4VkPresentModeKHR@@V?$allocator@W4VkPresentModeKHR@@@std@@@std@@QEAA@XZ DD 025053d19H
	DD	010e2313H
	DD	070070029H
	DD	05006H
	DD	imagerel __GSHandlerCheck
	DD	0138H
xdata	ENDS
;	COMDAT CONST
CONST	SEGMENT
??1?$vector@W4VkPresentModeKHR@@V?$allocator@W4VkPresentModeKHR@@@std@@@std@@QEAA@XZ$rtcName$0 DB 024H ; std::vector<enum VkPresentModeKHR,std::allocator<enum VkPresentModeKHR> >::~vector<enum VkPresentModeKHR,std::allocator<enum VkPresentModeKHR> >
	DB	053H
	DB	031H
	DB	00H
	ORG $+12
??1?$vector@W4VkPresentModeKHR@@V?$allocator@W4VkPresentModeKHR@@@std@@@std@@QEAA@XZ$rtcVarDesc DD 044H ; std::vector<enum VkPresentModeKHR,std::allocator<enum VkPresentModeKHR> >::~vector<enum VkPresentModeKHR,std::allocator<enum VkPresentModeKHR> >
	DD	01H
	DQ	FLAT:??1?$vector@W4VkPresentModeKHR@@V?$allocator@W4VkPresentModeKHR@@@std@@@std@@QEAA@XZ$rtcName$0
	ORG $+48
??1?$vector@W4VkPresentModeKHR@@V?$allocator@W4VkPresentModeKHR@@@std@@@std@@QEAA@XZ$rtcFrameData DD 01H ; std::vector<enum VkPresentModeKHR,std::allocator<enum VkPresentModeKHR> >::~vector<enum VkPresentModeKHR,std::allocator<enum VkPresentModeKHR> >
	DD	00H
	DQ	FLAT:??1?$vector@W4VkPresentModeKHR@@V?$allocator@W4VkPresentModeKHR@@@std@@@std@@QEAA@XZ$rtcVarDesc
CONST	ENDS
;	COMDAT xdata
xdata	SEGMENT
$unwind$?deallocate@?$allocator@W4VkPresentModeKHR@@@std@@QEAAXQEAW4VkPresentModeKHR@@_K@Z DD 035051d01H
	DD	0118331dH
	DD	07011001fH
	DD	05010H
xdata	ENDS
;	COMDAT xdata
xdata	SEGMENT
$unwind$?_Get_first@?$_Compressed_pair@V?$allocator@UVkSurfaceFormatKHR@@@std@@V?$_Vector_val@U?$_Simple_types@UVkSurfaceFormatKHR@@@std@@@2@$00@std@@QEAAAEAV?$allocator@UVkSurfaceFormatKHR@@@2@XZ DD 025051301H
	DD	010e2313H
	DD	07007001dH
	DD	05006H
xdata	ENDS
;	COMDAT xdata
xdata	SEGMENT
$unwind$?_Getal@?$vector@UVkSurfaceFormatKHR@@V?$allocator@UVkSurfaceFormatKHR@@@std@@@std@@AEAAAEAV?$allocator@UVkSurfaceFormatKHR@@@2@XZ DD 025051301H
	DD	010e2313H
	DD	07007001dH
	DD	05006H
xdata	ENDS
;	COMDAT xdata
xdata	SEGMENT
$ip2state$?_Tidy@?$vector@UVkSurfaceFormatKHR@@V?$allocator@UVkSurfaceFormatKHR@@@std@@@std@@AEAAXXZ DB 02H
	DB	00H
	DB	00H
xdata	ENDS
;	COMDAT xdata
xdata	SEGMENT
$cppxdata$?_Tidy@?$vector@UVkSurfaceFormatKHR@@V?$allocator@UVkSurfaceFormatKHR@@@std@@@std@@AEAAXXZ DB 060H
	DD	imagerel $ip2state$?_Tidy@?$vector@UVkSurfaceFormatKHR@@V?$allocator@UVkSurfaceFormatKHR@@@std@@@std@@AEAAXXZ
xdata	ENDS
;	COMDAT xdata
xdata	SEGMENT
$unwind$?_Tidy@?$vector@UVkSurfaceFormatKHR@@V?$allocator@UVkSurfaceFormatKHR@@@std@@@std@@AEAAXXZ DD 025051319H
	DD	010e2313H
	DD	070070031H
	DD	05006H
	DD	imagerel __CxxFrameHandler4
	DD	imagerel $cppxdata$?_Tidy@?$vector@UVkSurfaceFormatKHR@@V?$allocator@UVkSurfaceFormatKHR@@@std@@@std@@AEAAXXZ
xdata	ENDS
;	COMDAT xdata
xdata	SEGMENT
$unwind$?size@?$vector@UVkSurfaceFormatKHR@@V?$allocator@UVkSurfaceFormatKHR@@@std@@@std@@QEBA_KXZ DD 025051301H
	DD	010e2313H
	DD	070070021H
	DD	05006H
xdata	ENDS
;	COMDAT xdata
xdata	SEGMENT
$unwind$?data@?$vector@UVkSurfaceFormatKHR@@V?$allocator@UVkSurfaceFormatKHR@@@std@@@std@@QEAAPEAUVkSurfaceFormatKHR@@XZ DD 025051301H
	DD	010e2313H
	DD	07007001dH
	DD	05006H
xdata	ENDS
;	COMDAT voltbl
voltbl	SEGMENT
_volmd	DB	036H
	DB	0b2H
voltbl	ENDS
;	COMDAT xdata
xdata	SEGMENT
$unwind$??1?$vector@UVkSurfaceFormatKHR@@V?$allocator@UVkSurfaceFormatKHR@@@std@@@std@@QEAA@XZ DD 025053d19H
	DD	010e2313H
	DD	070070029H
	DD	05006H
	DD	imagerel __GSHandlerCheck
	DD	0138H
xdata	ENDS
;	COMDAT CONST
CONST	SEGMENT
??1?$vector@UVkSurfaceFormatKHR@@V?$allocator@UVkSurfaceFormatKHR@@@std@@@std@@QEAA@XZ$rtcName$0 DB 024H ; std::vector<VkSurfaceFormatKHR,std::allocator<VkSurfaceFormatKHR> >::~vector<VkSurfaceFormatKHR,std::allocator<VkSurfaceFormatKHR> >
	DB	053H
	DB	032H
	DB	00H
	ORG $+12
??1?$vector@UVkSurfaceFormatKHR@@V?$allocator@UVkSurfaceFormatKHR@@@std@@@std@@QEAA@XZ$rtcVarDesc DD 044H ; std::vector<VkSurfaceFormatKHR,std::allocator<VkSurfaceFormatKHR> >::~vector<VkSurfaceFormatKHR,std::allocator<VkSurfaceFormatKHR> >
	DD	01H
	DQ	FLAT:??1?$vector@UVkSurfaceFormatKHR@@V?$allocator@UVkSurfaceFormatKHR@@@std@@@std@@QEAA@XZ$rtcName$0
	ORG $+48
??1?$vector@UVkSurfaceFormatKHR@@V?$allocator@UVkSurfaceFormatKHR@@@std@@@std@@QEAA@XZ$rtcFrameData DD 01H ; std::vector<VkSurfaceFormatKHR,std::allocator<VkSurfaceFormatKHR> >::~vector<VkSurfaceFormatKHR,std::allocator<VkSurfaceFormatKHR> >
	DD	00H
	DQ	FLAT:??1?$vector@UVkSurfaceFormatKHR@@V?$allocator@UVkSurfaceFormatKHR@@@std@@@std@@QEAA@XZ$rtcVarDesc
CONST	ENDS
;	COMDAT xdata
xdata	SEGMENT
$unwind$?deallocate@?$allocator@UVkSurfaceFormatKHR@@@std@@QEAAXQEAUVkSurfaceFormatKHR@@_K@Z DD 035051d01H
	DD	0118331dH
	DD	07011001fH
	DD	05010H
xdata	ENDS
;	COMDAT xdata
xdata	SEGMENT
$unwind$??D?$_Optional_construct_base@I@std@@QEGAAAEAIXZ DD 035051301H
	DD	010e3313H
	DD	07007001fH
	DD	05006H
xdata	ENDS
;	COMDAT xdata
xdata	SEGMENT
$unwind$??_Gruntime_error@std@@UEAAPEAXI@Z DD 025051701H
	DD	01122317H
	DD	0700b001dH
	DD	0500aH
xdata	ENDS
;	COMDAT xdata
xdata	SEGMENT
$unwind$??0runtime_error@std@@QEAA@AEBV01@@Z DD 025051801H
	DD	01132318H
	DD	0700c001dH
	DD	0500bH
xdata	ENDS
;	COMDAT xdata
xdata	SEGMENT
$unwind$??1runtime_error@std@@UEAA@XZ DD 025051301H
	DD	010e2313H
	DD	07007001dH
	DD	05006H
xdata	ENDS
;	COMDAT xdata
xdata	SEGMENT
$unwind$??0runtime_error@std@@QEAA@PEBD@Z DD 025051801H
	DD	01132318H
	DD	0700c001dH
	DD	0500bH
xdata	ENDS
;	COMDAT voltbl
voltbl	SEGMENT
_volmd	DB	036H
	DB	07eH
voltbl	ENDS
;	COMDAT xdata
xdata	SEGMENT
$unwind$?_Orphan_all_locked_v3@_Container_base12@std@@AEAAXXZ DD 025053d19H
	DD	010e2313H
	DD	070070021H
	DD	05006H
	DD	imagerel __GSHandlerCheck
	DD	0f8H
xdata	ENDS
;	COMDAT CONST
CONST	SEGMENT
?_Orphan_all_locked_v3@_Container_base12@std@@AEAAXXZ$rtcName$0 DB 05fH ; std::_Container_base12::_Orphan_all_locked_v3
	DB	04cH
	DB	06fH
	DB	063H
	DB	06bH
	DB	00H
	ORG $+10
?_Orphan_all_locked_v3@_Container_base12@std@@AEAAXXZ$rtcVarDesc DD 024H ; std::_Container_base12::_Orphan_all_locked_v3
	DD	04H
	DQ	FLAT:?_Orphan_all_locked_v3@_Container_base12@std@@AEAAXXZ$rtcName$0
	ORG $+48
?_Orphan_all_locked_v3@_Container_base12@std@@AEAAXXZ$rtcFrameData DD 01H ; std::_Container_base12::_Orphan_all_locked_v3
	DD	00H
	DQ	FLAT:?_Orphan_all_locked_v3@_Container_base12@std@@AEAAXXZ$rtcVarDesc
CONST	ENDS
;	COMDAT xdata
xdata	SEGMENT
$unwind$?_Orphan_all_unlocked_v3@_Container_base12@std@@AEAAXXZ DD 025051301H
	DD	010e2313H
	DD	070070021H
	DD	05006H
xdata	ENDS
;	COMDAT xdata
xdata	SEGMENT
$unwind$?_Orphan_all@_Container_base12@std@@QEAAXXZ DD 025051301H
	DD	010e2313H
	DD	07007001dH
	DD	05006H
xdata	ENDS
;	COMDAT xdata
xdata	SEGMENT
$unwind$?_Adjust_manually_vector_aligned@std@@YAXAEAPEAXAEA_K@Z DD 035051801H
	DD	01133318H
	DD	0700c002fH
	DD	0500bH
xdata	ENDS
;	COMDAT xdata
xdata	SEGMENT
$unwind$??_Gexception@std@@UEAAPEAXI@Z DD 025051701H
	DD	01122317H
	DD	0700b001dH
	DD	0500aH
xdata	ENDS
;	COMDAT xdata
xdata	SEGMENT
$unwind$?what@exception@std@@UEBAPEBDXZ DD 025051301H
	DD	010e2313H
	DD	07007001fH
	DD	05006H
xdata	ENDS
;	COMDAT xdata
xdata	SEGMENT
$unwind$??1exception@std@@UEAA@XZ DD 025051301H
	DD	010e2313H
	DD	07007001dH
	DD	05006H
xdata	ENDS
;	COMDAT xdata
xdata	SEGMENT
$unwind$??0exception@std@@QEAA@AEBV01@@Z DD 025051801H
	DD	01132318H
	DD	0700c001dH
	DD	0500bH
xdata	ENDS
;	COMDAT voltbl
voltbl	SEGMENT
_volmd	DB	03bH
	DB	0b9H
voltbl	ENDS
;	COMDAT xdata
xdata	SEGMENT
$unwind$??0exception@std@@QEAA@QEBD@Z DD 025054219H
	DD	01132318H
	DD	0700c0023H
	DD	0500bH
	DD	imagerel __GSHandlerCheck
	DD	0108H
xdata	ENDS
;	COMDAT CONST
CONST	SEGMENT
??0exception@std@@QEAA@QEBD@Z$rtcName$0 DB 05fH		; std::exception::exception
	DB	049H
	DB	06eH
	DB	069H
	DB	074H
	DB	044H
	DB	061H
	DB	074H
	DB	061H
	DB	00H
	ORG $+6
??0exception@std@@QEAA@QEBD@Z$rtcVarDesc DD 028H	; std::exception::exception
	DD	010H
	DQ	FLAT:??0exception@std@@QEAA@QEBD@Z$rtcName$0
	ORG $+48
??0exception@std@@QEAA@QEBD@Z$rtcFrameData DD 01H	; std::exception::exception
	DD	00H
	DQ	FLAT:??0exception@std@@QEAA@QEBD@Z$rtcVarDesc
CONST	ENDS
;	COMDAT xdata
xdata	SEGMENT
$unwind$?max@?$numeric_limits@_K@std@@SA_KXZ DD 025050f01H
	DD	010a230fH
	DD	07003001dH
	DD	05002H
xdata	ENDS
;	COMDAT xdata
xdata	SEGMENT
$unwind$?max@?$numeric_limits@I@std@@SAIXZ DD 025050f01H
	DD	010a230fH
	DD	07003001dH
	DD	05002H
xdata	ENDS
;	COMDAT xdata
xdata	SEGMENT
$unwind$?is_constant_evaluated@std@@YA_NXZ DD 025050f01H
	DD	010a230fH
	DD	07003001dH
	DD	05002H
xdata	ENDS
; Function compile flags: /Odt
;	COMDAT __JustMyCode_Default
_TEXT	SEGMENT
__JustMyCode_Default PROC				; COMDAT
	ret	0
__JustMyCode_Default ENDP
_TEXT	ENDS
; Function compile flags: /Odtp /RTCsu /ZI
;	COMDAT ?deallocate@?$_Default_allocator_traits@V?$allocator@U_Container_proxy@std@@@std@@@std@@SAXAEAV?$allocator@U_Container_proxy@std@@@2@QEAU_Container_proxy@2@_K@Z
_TEXT	SEGMENT
_Al$ = 224
_Ptr$ = 232
_Count$ = 240
?deallocate@?$_Default_allocator_traits@V?$allocator@U_Container_proxy@std@@@std@@@std@@SAXAEAV?$allocator@U_Container_proxy@std@@@2@QEAU_Container_proxy@2@_K@Z PROC ; std::_Default_allocator_traits<std::allocator<std::_Container_proxy> >::deallocate, COMDAT
; File C:\Program Files\Microsoft Visual Studio\2022\Community\VC\Tools\MSVC\14.32.31326\include\xmemory
; Line 659
$LN5:
	mov	QWORD PTR [rsp+24], r8
	mov	QWORD PTR [rsp+16], rdx
	mov	QWORD PTR [rsp+8], rcx
	push	rbp
	push	rdi
	sub	rsp, 232				; 000000e8H
	lea	rbp, QWORD PTR [rsp+32]
	lea	rcx, OFFSET FLAT:__48ED051B_xmemory
	call	__CheckForDebuggerJustMyCode
; Line 662
	call	?is_constant_evaluated@std@@YA_NXZ	; std::is_constant_evaluated
	movzx	eax, al
	test	eax, eax
	je	SHORT $LN2@deallocate
; Line 663
	mov	r8, QWORD PTR _Count$[rbp]
	mov	rdx, QWORD PTR _Ptr$[rbp]
	mov	rcx, QWORD PTR _Al$[rbp]
	call	?deallocate@?$allocator@U_Container_proxy@std@@@std@@QEAAXQEAU_Container_proxy@2@_K@Z ; std::allocator<std::_Container_proxy>::deallocate
; Line 664
	jmp	SHORT $LN3@deallocate
$LN2@deallocate:
; Line 668
	imul	rax, QWORD PTR _Count$[rbp], 16
	mov	rdx, rax
	mov	rcx, QWORD PTR _Ptr$[rbp]
	call	??$_Deallocate@$0BA@$0A@@std@@YAXPEAX_K@Z ; std::_Deallocate<16,0>
$LN3@deallocate:
; Line 670
	lea	rsp, QWORD PTR [rbp+200]
	pop	rdi
	pop	rbp
	ret	0
?deallocate@?$_Default_allocator_traits@V?$allocator@U_Container_proxy@std@@@std@@@std@@SAXAEAV?$allocator@U_Container_proxy@std@@@2@QEAU_Container_proxy@2@_K@Z ENDP ; std::_Default_allocator_traits<std::allocator<std::_Container_proxy> >::deallocate
_TEXT	ENDS
; Function compile flags: /Odtp /RTCsu /ZI
;	COMDAT ??$move@AEAPEAV_Ref_count_base@std@@@std@@YA$$QEAPEAV_Ref_count_base@0@AEAPEAV10@@Z
_TEXT	SEGMENT
_Arg$ = 224
??$move@AEAPEAV_Ref_count_base@std@@@std@@YA$$QEAPEAV_Ref_count_base@0@AEAPEAV10@@Z PROC ; std::move<std::_Ref_count_base * &>, COMDAT
; File C:\Program Files\Microsoft Visual Studio\2022\Community\VC\Tools\MSVC\14.32.31326\include\type_traits
; Line 1352
$LN3:
	mov	QWORD PTR [rsp+8], rcx
	push	rbp
	push	rdi
	sub	rsp, 232				; 000000e8H
	lea	rbp, QWORD PTR [rsp+32]
	lea	rcx, OFFSET FLAT:__4CC0724B_type_traits
	call	__CheckForDebuggerJustMyCode
; Line 1353
	mov	rax, QWORD PTR _Arg$[rbp]
; Line 1354
	lea	rsp, QWORD PTR [rbp+200]
	pop	rdi
	pop	rbp
	ret	0
??$move@AEAPEAV_Ref_count_base@std@@@std@@YA$$QEAPEAV_Ref_count_base@0@AEAPEAV10@@Z ENDP ; std::move<std::_Ref_count_base * &>
_TEXT	ENDS
; Function compile flags: /Odtp /RTCsu /ZI
;	COMDAT ??$move@AEAPEAVSwapchain@cow@@@std@@YA$$QEAPEAVSwapchain@cow@@AEAPEAV12@@Z
_TEXT	SEGMENT
_Arg$ = 224
??$move@AEAPEAVSwapchain@cow@@@std@@YA$$QEAPEAVSwapchain@cow@@AEAPEAV12@@Z PROC ; std::move<cow::Swapchain * &>, COMDAT
; File C:\Program Files\Microsoft Visual Studio\2022\Community\VC\Tools\MSVC\14.32.31326\include\type_traits
; Line 1352
$LN3:
	mov	QWORD PTR [rsp+8], rcx
	push	rbp
	push	rdi
	sub	rsp, 232				; 000000e8H
	lea	rbp, QWORD PTR [rsp+32]
	lea	rcx, OFFSET FLAT:__4CC0724B_type_traits
	call	__CheckForDebuggerJustMyCode
; Line 1353
	mov	rax, QWORD PTR _Arg$[rbp]
; Line 1354
	lea	rsp, QWORD PTR [rbp+200]
	pop	rdi
	pop	rbp
	ret	0
??$move@AEAPEAVSwapchain@cow@@@std@@YA$$QEAPEAVSwapchain@cow@@AEAPEAV12@@Z ENDP ; std::move<cow::Swapchain * &>
_TEXT	ENDS
; Function compile flags: /Odtp /RTCsu /ZI
;	COMDAT ??$_Deallocate_plain@V?$allocator@U_Container_proxy@std@@@std@@@std@@YAXAEAV?$allocator@U_Container_proxy@std@@@0@QEAU_Container_proxy@0@@Z
_TEXT	SEGMENT
_Al$ = 224
_Ptr$ = 232
??$_Deallocate_plain@V?$allocator@U_Container_proxy@std@@@std@@@std@@YAXAEAV?$allocator@U_Container_proxy@std@@@0@QEAU_Container_proxy@0@@Z PROC ; std::_Deallocate_plain<std::allocator<std::_Container_proxy> >, COMDAT
; File C:\Program Files\Microsoft Visual Studio\2022\Community\VC\Tools\MSVC\14.32.31326\include\xmemory
; Line 972
$LN3:
	mov	QWORD PTR [rsp+16], rdx
	mov	QWORD PTR [rsp+8], rcx
	push	rbp
	push	rdi
	sub	rsp, 232				; 000000e8H
	lea	rbp, QWORD PTR [rsp+32]
	lea	rcx, OFFSET FLAT:__48ED051B_xmemory
	call	__CheckForDebuggerJustMyCode
; Line 976
	mov	r8d, 1
	mov	rdx, QWORD PTR _Ptr$[rbp]
	mov	rcx, QWORD PTR _Al$[rbp]
	call	?deallocate@?$_Default_allocator_traits@V?$allocator@U_Container_proxy@std@@@std@@@std@@SAXAEAV?$allocator@U_Container_proxy@std@@@2@QEAU_Container_proxy@2@_K@Z ; std::_Default_allocator_traits<std::allocator<std::_Container_proxy> >::deallocate
	npad	1
; Line 981
	lea	rsp, QWORD PTR [rbp+200]
	pop	rdi
	pop	rbp
	ret	0
??$_Deallocate_plain@V?$allocator@U_Container_proxy@std@@@std@@@std@@YAXAEAV?$allocator@U_Container_proxy@std@@@0@QEAU_Container_proxy@0@@Z ENDP ; std::_Deallocate_plain<std::allocator<std::_Container_proxy> >
_TEXT	ENDS
; Function compile flags: /Odtp /RTCsu /ZI
;	COMDAT ??$_Deallocate@$0BA@$0A@@std@@YAXPEAX_K@Z
_TEXT	SEGMENT
_Ptr$ = 224
_Bytes$ = 232
??$_Deallocate@$0BA@$0A@@std@@YAXPEAX_K@Z PROC		; std::_Deallocate<16,0>, COMDAT
; File C:\Program Files\Microsoft Visual Studio\2022\Community\VC\Tools\MSVC\14.32.31326\include\xmemory
; Line 242
$LN6:
	mov	QWORD PTR [rsp+16], rdx
	mov	QWORD PTR [rsp+8], rcx
	push	rbp
	push	rdi
	sub	rsp, 232				; 000000e8H
	lea	rbp, QWORD PTR [rsp+32]
	lea	rcx, OFFSET FLAT:__48ED051B_xmemory
	call	__CheckForDebuggerJustMyCode
; Line 245
	call	?is_constant_evaluated@std@@YA_NXZ	; std::is_constant_evaluated
	movzx	eax, al
	test	eax, eax
	je	SHORT $LN2@Deallocate
; Line 246
	mov	rcx, QWORD PTR _Ptr$[rbp]
	call	??3@YAXPEAX@Z				; operator delete
; Line 247
	jmp	SHORT $LN3@Deallocate
$LN2@Deallocate:
; Line 251
	cmp	QWORD PTR _Bytes$[rbp], 4096		; 00001000H
	jb	SHORT $LN4@Deallocate
; Line 252
	lea	rdx, QWORD PTR _Bytes$[rbp]
	lea	rcx, QWORD PTR _Ptr$[rbp]
	call	?_Adjust_manually_vector_aligned@std@@YAXAEAPEAXAEA_K@Z ; std::_Adjust_manually_vector_aligned
$LN4@Deallocate:
; Line 255
	mov	rdx, QWORD PTR _Bytes$[rbp]
	mov	rcx, QWORD PTR _Ptr$[rbp]
	call	??3@YAXPEAX_K@Z				; operator delete
	npad	1
$LN3@Deallocate:
; Line 257
	lea	rsp, QWORD PTR [rbp+200]
	pop	rdi
	pop	rbp
	ret	0
??$_Deallocate@$0BA@$0A@@std@@YAXPEAX_K@Z ENDP		; std::_Deallocate<16,0>
_TEXT	ENDS
; Function compile flags: /Odtp /RTCsu /ZI
;	COMDAT ??$swap@PEAV_Ref_count_base@std@@$0A@@std@@YAXAEAPEAV_Ref_count_base@0@0@Z
_TEXT	SEGMENT
_Tmp$ = 8
__$ArrayPad$ = 216
_Left$ = 256
_Right$ = 264
??$swap@PEAV_Ref_count_base@std@@$0A@@std@@YAXAEAPEAV_Ref_count_base@0@0@Z PROC ; std::swap<std::_Ref_count_base *,0>, COMDAT
; File C:\Program Files\Microsoft Visual Studio\2022\Community\VC\Tools\MSVC\14.32.31326\include\utility
; Line 99
$LN3:
	mov	QWORD PTR [rsp+16], rdx
	mov	QWORD PTR [rsp+8], rcx
	push	rbp
	push	rdi
	sub	rsp, 264				; 00000108H
	lea	rbp, QWORD PTR [rsp+32]
	lea	rdi, QWORD PTR [rsp+32]
	mov	ecx, 10
	mov	eax, -858993460				; ccccccccH
	rep stosd
	mov	rcx, QWORD PTR [rsp+296]
	mov	rax, QWORD PTR __security_cookie
	xor	rax, rbp
	mov	QWORD PTR __$ArrayPad$[rbp], rax
	lea	rcx, OFFSET FLAT:__227866D8_utility
	call	__CheckForDebuggerJustMyCode
; Line 100
	mov	rcx, QWORD PTR _Left$[rbp]
	call	??$move@AEAPEAV_Ref_count_base@std@@@std@@YA$$QEAPEAV_Ref_count_base@0@AEAPEAV10@@Z ; std::move<std::_Ref_count_base * &>
	mov	rax, QWORD PTR [rax]
	mov	QWORD PTR _Tmp$[rbp], rax
; Line 101
	mov	rcx, QWORD PTR _Right$[rbp]
	call	??$move@AEAPEAV_Ref_count_base@std@@@std@@YA$$QEAPEAV_Ref_count_base@0@AEAPEAV10@@Z ; std::move<std::_Ref_count_base * &>
	mov	rcx, QWORD PTR _Left$[rbp]
	mov	rax, QWORD PTR [rax]
	mov	QWORD PTR [rcx], rax
; Line 102
	lea	rcx, QWORD PTR _Tmp$[rbp]
	call	??$move@AEAPEAV_Ref_count_base@std@@@std@@YA$$QEAPEAV_Ref_count_base@0@AEAPEAV10@@Z ; std::move<std::_Ref_count_base * &>
	mov	rcx, QWORD PTR _Right$[rbp]
	mov	rax, QWORD PTR [rax]
	mov	QWORD PTR [rcx], rax
; Line 103
	lea	rcx, QWORD PTR [rbp-32]
	lea	rdx, OFFSET FLAT:??$swap@PEAV_Ref_count_base@std@@$0A@@std@@YAXAEAPEAV_Ref_count_base@0@0@Z$rtcFrameData
	call	_RTC_CheckStackVars
	mov	rcx, QWORD PTR __$ArrayPad$[rbp]
	xor	rcx, rbp
	call	__security_check_cookie
	lea	rsp, QWORD PTR [rbp+232]
	pop	rdi
	pop	rbp
	ret	0
??$swap@PEAV_Ref_count_base@std@@$0A@@std@@YAXAEAPEAV_Ref_count_base@0@0@Z ENDP ; std::swap<std::_Ref_count_base *,0>
_TEXT	ENDS
; Function compile flags: /Odtp /RTCsu /ZI
;	COMDAT ??$swap@PEAVSwapchain@cow@@$0A@@std@@YAXAEAPEAVSwapchain@cow@@0@Z
_TEXT	SEGMENT
_Tmp$ = 8
__$ArrayPad$ = 216
_Left$ = 256
_Right$ = 264
??$swap@PEAVSwapchain@cow@@$0A@@std@@YAXAEAPEAVSwapchain@cow@@0@Z PROC ; std::swap<cow::Swapchain *,0>, COMDAT
; File C:\Program Files\Microsoft Visual Studio\2022\Community\VC\Tools\MSVC\14.32.31326\include\utility
; Line 99
$LN3:
	mov	QWORD PTR [rsp+16], rdx
	mov	QWORD PTR [rsp+8], rcx
	push	rbp
	push	rdi
	sub	rsp, 264				; 00000108H
	lea	rbp, QWORD PTR [rsp+32]
	lea	rdi, QWORD PTR [rsp+32]
	mov	ecx, 10
	mov	eax, -858993460				; ccccccccH
	rep stosd
	mov	rcx, QWORD PTR [rsp+296]
	mov	rax, QWORD PTR __security_cookie
	xor	rax, rbp
	mov	QWORD PTR __$ArrayPad$[rbp], rax
	lea	rcx, OFFSET FLAT:__227866D8_utility
	call	__CheckForDebuggerJustMyCode
; Line 100
	mov	rcx, QWORD PTR _Left$[rbp]
	call	??$move@AEAPEAVSwapchain@cow@@@std@@YA$$QEAPEAVSwapchain@cow@@AEAPEAV12@@Z ; std::move<cow::Swapchain * &>
	mov	rax, QWORD PTR [rax]
	mov	QWORD PTR _Tmp$[rbp], rax
; Line 101
	mov	rcx, QWORD PTR _Right$[rbp]
	call	??$move@AEAPEAVSwapchain@cow@@@std@@YA$$QEAPEAVSwapchain@cow@@AEAPEAV12@@Z ; std::move<cow::Swapchain * &>
	mov	rcx, QWORD PTR _Left$[rbp]
	mov	rax, QWORD PTR [rax]
	mov	QWORD PTR [rcx], rax
; Line 102
	lea	rcx, QWORD PTR _Tmp$[rbp]
	call	??$move@AEAPEAVSwapchain@cow@@@std@@YA$$QEAPEAVSwapchain@cow@@AEAPEAV12@@Z ; std::move<cow::Swapchain * &>
	mov	rcx, QWORD PTR _Right$[rbp]
	mov	rax, QWORD PTR [rax]
	mov	QWORD PTR [rcx], rax
; Line 103
	lea	rcx, QWORD PTR [rbp-32]
	lea	rdx, OFFSET FLAT:??$swap@PEAVSwapchain@cow@@$0A@@std@@YAXAEAPEAVSwapchain@cow@@0@Z$rtcFrameData
	call	_RTC_CheckStackVars
	mov	rcx, QWORD PTR __$ArrayPad$[rbp]
	xor	rcx, rbp
	call	__security_check_cookie
	lea	rsp, QWORD PTR [rbp+232]
	pop	rdi
	pop	rbp
	ret	0
??$swap@PEAVSwapchain@cow@@$0A@@std@@YAXAEAPEAVSwapchain@cow@@0@Z ENDP ; std::swap<cow::Swapchain *,0>
_TEXT	ENDS
; Function compile flags: /Odtp /RTCsu /ZI
;	COMDAT ??$_Destroy_range@V?$allocator@UVkSurfaceFormatKHR@@@std@@@std@@YAXPEAUVkSurfaceFormatKHR@@QEAU1@AEAV?$allocator@UVkSurfaceFormatKHR@@@0@@Z
_TEXT	SEGMENT
_First$ = 224
_Last$ = 232
_Al$ = 240
??$_Destroy_range@V?$allocator@UVkSurfaceFormatKHR@@@std@@@std@@YAXPEAUVkSurfaceFormatKHR@@QEAU1@AEAV?$allocator@UVkSurfaceFormatKHR@@@0@@Z PROC ; std::_Destroy_range<std::allocator<VkSurfaceFormatKHR> >, COMDAT
; File C:\Program Files\Microsoft Visual Studio\2022\Community\VC\Tools\MSVC\14.32.31326\include\xmemory
; Line 939
$LN3:
	mov	QWORD PTR [rsp+24], r8
	mov	QWORD PTR [rsp+16], rdx
	mov	QWORD PTR [rsp+8], rcx
	push	rbp
	push	rdi
	sub	rsp, 232				; 000000e8H
	lea	rbp, QWORD PTR [rsp+32]
	lea	rcx, OFFSET FLAT:__48ED051B_xmemory
	call	__CheckForDebuggerJustMyCode
; Line 947
	lea	rsp, QWORD PTR [rbp+200]
	pop	rdi
	pop	rbp
	ret	0
??$_Destroy_range@V?$allocator@UVkSurfaceFormatKHR@@@std@@@std@@YAXPEAUVkSurfaceFormatKHR@@QEAU1@AEAV?$allocator@UVkSurfaceFormatKHR@@@0@@Z ENDP ; std::_Destroy_range<std::allocator<VkSurfaceFormatKHR> >
_TEXT	ENDS
; Function compile flags: /Odtp /RTCsu /ZI
;	COMDAT ??$_Destroy_range@V?$allocator@W4VkPresentModeKHR@@@std@@@std@@YAXPEAW4VkPresentModeKHR@@QEAW41@AEAV?$allocator@W4VkPresentModeKHR@@@0@@Z
_TEXT	SEGMENT
_First$ = 224
_Last$ = 232
_Al$ = 240
??$_Destroy_range@V?$allocator@W4VkPresentModeKHR@@@std@@@std@@YAXPEAW4VkPresentModeKHR@@QEAW41@AEAV?$allocator@W4VkPresentModeKHR@@@0@@Z PROC ; std::_Destroy_range<std::allocator<enum VkPresentModeKHR> >, COMDAT
; File C:\Program Files\Microsoft Visual Studio\2022\Community\VC\Tools\MSVC\14.32.31326\include\xmemory
; Line 939
$LN3:
	mov	QWORD PTR [rsp+24], r8
	mov	QWORD PTR [rsp+16], rdx
	mov	QWORD PTR [rsp+8], rcx
	push	rbp
	push	rdi
	sub	rsp, 232				; 000000e8H
	lea	rbp, QWORD PTR [rsp+32]
	lea	rcx, OFFSET FLAT:__48ED051B_xmemory
	call	__CheckForDebuggerJustMyCode
; Line 947
	lea	rsp, QWORD PTR [rbp+200]
	pop	rdi
	pop	rbp
	ret	0
??$_Destroy_range@V?$allocator@W4VkPresentModeKHR@@@std@@@std@@YAXPEAW4VkPresentModeKHR@@QEAW41@AEAV?$allocator@W4VkPresentModeKHR@@@0@@Z ENDP ; std::_Destroy_range<std::allocator<enum VkPresentModeKHR> >
_TEXT	ENDS
; Function compile flags: /Odtp /RTCsu /ZI
;	COMDAT ??$_Move_construct_from@VSwapchain@cow@@@?$_Ptr_base@VSwapchain@cow@@@std@@IEAAX$$QEAV01@@Z
_TEXT	SEGMENT
this$ = 224
_Right$ = 232
??$_Move_construct_from@VSwapchain@cow@@@?$_Ptr_base@VSwapchain@cow@@@std@@IEAAX$$QEAV01@@Z PROC ; std::_Ptr_base<cow::Swapchain>::_Move_construct_from<cow::Swapchain>, COMDAT
; File C:\Program Files\Microsoft Visual Studio\2022\Community\VC\Tools\MSVC\14.32.31326\include\memory
; Line 1274
$LN3:
	mov	QWORD PTR [rsp+16], rdx
	mov	QWORD PTR [rsp+8], rcx
	push	rbp
	push	rdi
	sub	rsp, 232				; 000000e8H
	lea	rbp, QWORD PTR [rsp+32]
	lea	rcx, OFFSET FLAT:__92D6C122_memory
	call	__CheckForDebuggerJustMyCode
; Line 1276
	mov	rax, QWORD PTR this$[rbp]
	mov	rcx, QWORD PTR _Right$[rbp]
	mov	rcx, QWORD PTR [rcx]
	mov	QWORD PTR [rax], rcx
; Line 1277
	mov	rax, QWORD PTR this$[rbp]
	mov	rcx, QWORD PTR _Right$[rbp]
	mov	rcx, QWORD PTR [rcx+8]
	mov	QWORD PTR [rax+8], rcx
; Line 1279
	mov	rax, QWORD PTR _Right$[rbp]
	mov	QWORD PTR [rax], 0
; Line 1280
	mov	rax, QWORD PTR _Right$[rbp]
	mov	QWORD PTR [rax+8], 0
; Line 1281
	lea	rsp, QWORD PTR [rbp+200]
	pop	rdi
	pop	rbp
	ret	0
??$_Move_construct_from@VSwapchain@cow@@@?$_Ptr_base@VSwapchain@cow@@@std@@IEAAX$$QEAV01@@Z ENDP ; std::_Ptr_base<cow::Swapchain>::_Move_construct_from<cow::Swapchain>
_TEXT	ENDS
; Function compile flags: /Odtp /RTCsu /ZI
;	COMDAT ??$?0UVkSurfaceFormatKHR@@@?$allocator@U_Container_proxy@std@@@std@@QEAA@AEBV?$allocator@UVkSurfaceFormatKHR@@@1@@Z
_TEXT	SEGMENT
this$ = 224
__formal$ = 232
??$?0UVkSurfaceFormatKHR@@@?$allocator@U_Container_proxy@std@@@std@@QEAA@AEBV?$allocator@UVkSurfaceFormatKHR@@@1@@Z PROC ; std::allocator<std::_Container_proxy>::allocator<std::_Container_proxy><VkSurfaceFormatKHR>, COMDAT
; File C:\Program Files\Microsoft Visual Studio\2022\Community\VC\Tools\MSVC\14.32.31326\include\xmemory
; Line 823
$LN3:
	mov	QWORD PTR [rsp+16], rdx
	mov	QWORD PTR [rsp+8], rcx
	push	rbp
	push	rdi
	sub	rsp, 232				; 000000e8H
	lea	rbp, QWORD PTR [rsp+32]
	lea	rcx, OFFSET FLAT:__48ED051B_xmemory
	call	__CheckForDebuggerJustMyCode
	mov	rax, QWORD PTR this$[rbp]
	lea	rsp, QWORD PTR [rbp+200]
	pop	rdi
	pop	rbp
	ret	0
??$?0UVkSurfaceFormatKHR@@@?$allocator@U_Container_proxy@std@@@std@@QEAA@AEBV?$allocator@UVkSurfaceFormatKHR@@@1@@Z ENDP ; std::allocator<std::_Container_proxy>::allocator<std::_Container_proxy><VkSurfaceFormatKHR>
_TEXT	ENDS
; Function compile flags: /Odtp /RTCsu /ZI
;	COMDAT ??$_Unfancy_maybe_null@UVkSurfaceFormatKHR@@@std@@YAPEAUVkSurfaceFormatKHR@@PEAU1@@Z
_TEXT	SEGMENT
_Ptr$ = 224
??$_Unfancy_maybe_null@UVkSurfaceFormatKHR@@@std@@YAPEAUVkSurfaceFormatKHR@@PEAU1@@Z PROC ; std::_Unfancy_maybe_null<VkSurfaceFormatKHR>, COMDAT
; File C:\Program Files\Microsoft Visual Studio\2022\Community\VC\Tools\MSVC\14.32.31326\include\vector
; Line 427
$LN3:
	mov	QWORD PTR [rsp+8], rcx
	push	rbp
	push	rdi
	sub	rsp, 232				; 000000e8H
	lea	rbp, QWORD PTR [rsp+32]
	lea	rcx, OFFSET FLAT:__63D5BD4C_vector
	call	__CheckForDebuggerJustMyCode
; Line 428
	mov	rax, QWORD PTR _Ptr$[rbp]
; Line 429
	lea	rsp, QWORD PTR [rbp+200]
	pop	rdi
	pop	rbp
	ret	0
??$_Unfancy_maybe_null@UVkSurfaceFormatKHR@@@std@@YAPEAUVkSurfaceFormatKHR@@PEAU1@@Z ENDP ; std::_Unfancy_maybe_null<VkSurfaceFormatKHR>
_TEXT	ENDS
; Function compile flags: /Odtp /RTCsu /ZI
;	COMDAT ??$_Delete_plain_internal@V?$allocator@U_Container_proxy@std@@@std@@@std@@YAXAEAV?$allocator@U_Container_proxy@std@@@0@QEAU_Container_proxy@0@@Z
_TEXT	SEGMENT
_Al$ = 224
_Ptr$ = 232
??$_Delete_plain_internal@V?$allocator@U_Container_proxy@std@@@std@@@std@@YAXAEAV?$allocator@U_Container_proxy@std@@@0@QEAU_Container_proxy@0@@Z PROC ; std::_Delete_plain_internal<std::allocator<std::_Container_proxy> >, COMDAT
; File C:\Program Files\Microsoft Visual Studio\2022\Community\VC\Tools\MSVC\14.32.31326\include\xmemory
; Line 984
$LN3:
	mov	QWORD PTR [rsp+16], rdx
	mov	QWORD PTR [rsp+8], rcx
	push	rbp
	push	rdi
	sub	rsp, 232				; 000000e8H
	lea	rbp, QWORD PTR [rsp+32]
	lea	rcx, OFFSET FLAT:__48ED051B_xmemory
	call	__CheckForDebuggerJustMyCode
; Line 988
	mov	rdx, QWORD PTR _Ptr$[rbp]
	mov	rcx, QWORD PTR _Al$[rbp]
	call	??$_Deallocate_plain@V?$allocator@U_Container_proxy@std@@@std@@@std@@YAXAEAV?$allocator@U_Container_proxy@std@@@0@QEAU_Container_proxy@0@@Z ; std::_Deallocate_plain<std::allocator<std::_Container_proxy> >
; Line 989
	lea	rsp, QWORD PTR [rbp+200]
	pop	rdi
	pop	rbp
	ret	0
??$_Delete_plain_internal@V?$allocator@U_Container_proxy@std@@@std@@@std@@YAXAEAV?$allocator@U_Container_proxy@std@@@0@QEAU_Container_proxy@0@@Z ENDP ; std::_Delete_plain_internal<std::allocator<std::_Container_proxy> >
_TEXT	ENDS
; Function compile flags: /Odtp /RTCsu /ZI
;	COMDAT ??$exchange@PEAU_Container_proxy@std@@$$T@std@@YAPEAU_Container_proxy@0@AEAPEAU10@$$QEA$$T@Z
_TEXT	SEGMENT
_Old_val$ = 8
_Val$ = 256
_New_val$ = 264
??$exchange@PEAU_Container_proxy@std@@$$T@std@@YAPEAU_Container_proxy@0@AEAPEAU10@$$QEA$$T@Z PROC ; std::exchange<std::_Container_proxy *,std::nullptr_t>, COMDAT
; File C:\Program Files\Microsoft Visual Studio\2022\Community\VC\Tools\MSVC\14.32.31326\include\utility
; Line 605
$LN3:
	mov	QWORD PTR [rsp+16], rdx
	mov	QWORD PTR [rsp+8], rcx
	push	rbp
	push	rdi
	sub	rsp, 264				; 00000108H
	lea	rbp, QWORD PTR [rsp+32]
	lea	rcx, OFFSET FLAT:__227866D8_utility
	call	__CheckForDebuggerJustMyCode
; Line 607
	mov	rax, QWORD PTR _Val$[rbp]
	mov	rax, QWORD PTR [rax]
	mov	QWORD PTR _Old_val$[rbp], rax
; Line 608
	mov	rax, QWORD PTR _Val$[rbp]
	mov	rcx, QWORD PTR _New_val$[rbp]
	mov	rcx, QWORD PTR [rcx]
	mov	QWORD PTR [rax], rcx
; Line 609
	mov	rax, QWORD PTR _Old_val$[rbp]
; Line 610
	lea	rsp, QWORD PTR [rbp+232]
	pop	rdi
	pop	rbp
	ret	0
??$exchange@PEAU_Container_proxy@std@@$$T@std@@YAPEAU_Container_proxy@0@AEAPEAU10@$$QEA$$T@Z ENDP ; std::exchange<std::_Container_proxy *,std::nullptr_t>
_TEXT	ENDS
; Function compile flags: /Odtp /RTCsu /ZI
;	COMDAT ??$?0W4VkPresentModeKHR@@@?$allocator@U_Container_proxy@std@@@std@@QEAA@AEBV?$allocator@W4VkPresentModeKHR@@@1@@Z
_TEXT	SEGMENT
this$ = 224
__formal$ = 232
??$?0W4VkPresentModeKHR@@@?$allocator@U_Container_proxy@std@@@std@@QEAA@AEBV?$allocator@W4VkPresentModeKHR@@@1@@Z PROC ; std::allocator<std::_Container_proxy>::allocator<std::_Container_proxy><enum VkPresentModeKHR>, COMDAT
; File C:\Program Files\Microsoft Visual Studio\2022\Community\VC\Tools\MSVC\14.32.31326\include\xmemory
; Line 823
$LN3:
	mov	QWORD PTR [rsp+16], rdx
	mov	QWORD PTR [rsp+8], rcx
	push	rbp
	push	rdi
	sub	rsp, 232				; 000000e8H
	lea	rbp, QWORD PTR [rsp+32]
	lea	rcx, OFFSET FLAT:__48ED051B_xmemory
	call	__CheckForDebuggerJustMyCode
	mov	rax, QWORD PTR this$[rbp]
	lea	rsp, QWORD PTR [rbp+200]
	pop	rdi
	pop	rbp
	ret	0
??$?0W4VkPresentModeKHR@@@?$allocator@U_Container_proxy@std@@@std@@QEAA@AEBV?$allocator@W4VkPresentModeKHR@@@1@@Z ENDP ; std::allocator<std::_Container_proxy>::allocator<std::_Container_proxy><enum VkPresentModeKHR>
_TEXT	ENDS
; Function compile flags: /Odtp /RTCsu /ZI
;	COMDAT ?deallocate@?$allocator@U_Container_proxy@std@@@std@@QEAAXQEAU_Container_proxy@2@_K@Z
_TEXT	SEGMENT
this$ = 224
_Ptr$ = 232
_Count$ = 240
?deallocate@?$allocator@U_Container_proxy@std@@@std@@QEAAXQEAU_Container_proxy@2@_K@Z PROC ; std::allocator<std::_Container_proxy>::deallocate, COMDAT
; File C:\Program Files\Microsoft Visual Studio\2022\Community\VC\Tools\MSVC\14.32.31326\include\xmemory
; Line 827
$LN13:
	mov	QWORD PTR [rsp+24], r8
	mov	QWORD PTR [rsp+16], rdx
	mov	QWORD PTR [rsp+8], rcx
	push	rbp
	push	rdi
	sub	rsp, 248				; 000000f8H
	lea	rbp, QWORD PTR [rsp+48]
	lea	rcx, OFFSET FLAT:__48ED051B_xmemory
	call	__CheckForDebuggerJustMyCode
$LN4@deallocate:
; Line 828
	cmp	QWORD PTR _Ptr$[rbp], 0
	jne	SHORT $LN10@deallocate
	cmp	QWORD PTR _Count$[rbp], 0
	jne	SHORT $LN8@deallocate
$LN10@deallocate:
	jmp	SHORT $LN9@deallocate
$LN8@deallocate:
$LN7@deallocate:
	lea	rax, OFFSET FLAT:??_C@_0DG@KGHKKGBC@null?5pointer?5cannot?5point?5to?5a?5@
	mov	QWORD PTR [rsp+40], rax
	lea	rax, OFFSET FLAT:??_C@_02DKCKIIND@?$CFs@
	mov	QWORD PTR [rsp+32], rax
	xor	r9d, r9d
	mov	r8d, 828				; 0000033cH
	lea	rdx, OFFSET FLAT:??_C@_0GC@DJFHHHKN@C?3?2Program?5Files?2Microsoft?5Visu@
	mov	ecx, 2
	call	QWORD PTR __imp__CrtDbgReport
	cmp	eax, 1
	jne	SHORT $LN12@deallocate
	int	3
	xor	eax, eax
$LN12@deallocate:
	mov	QWORD PTR [rsp+32], 0
	mov	r9d, 828				; 0000033cH
	lea	r8, OFFSET FLAT:??_C@_1ME@GEFGDEOM@?$AAC?$AA?3?$AA?2?$AAP?$AAr?$AAo?$AAg?$AAr?$AAa?$AAm?$AA?5?$AAF?$AAi?$AAl?$AAe@
	lea	rdx, OFFSET FLAT:??_C@_11LOCGONAA@@
	lea	rcx, OFFSET FLAT:??_C@_1HA@FACCKGGH@?$AA?$CC?$AAn?$AAu?$AAl?$AAl?$AA?5?$AAp?$AAo?$AAi?$AAn?$AAt?$AAe?$AAr?$AA?5?$AAc@
	call	QWORD PTR __imp__invalid_parameter
	xor	eax, eax
	test	eax, eax
	jne	SHORT $LN7@deallocate
$LN9@deallocate:
	xor	eax, eax
	test	eax, eax
	jne	$LN4@deallocate
; Line 830
	imul	rax, QWORD PTR _Count$[rbp], 16
	mov	rdx, rax
	mov	rcx, QWORD PTR _Ptr$[rbp]
	call	??$_Deallocate@$0BA@$0A@@std@@YAXPEAX_K@Z ; std::_Deallocate<16,0>
; Line 831
	lea	rsp, QWORD PTR [rbp+200]
	pop	rdi
	pop	rbp
	ret	0
?deallocate@?$allocator@U_Container_proxy@std@@@std@@QEAAXQEAU_Container_proxy@2@_K@Z ENDP ; std::allocator<std::_Container_proxy>::deallocate
_TEXT	ENDS
; Function compile flags: /Odtp /RTCsu /ZI
;	COMDAT ??$_Unfancy_maybe_null@W4VkPresentModeKHR@@@std@@YAPEAW4VkPresentModeKHR@@PEAW41@@Z
_TEXT	SEGMENT
_Ptr$ = 224
??$_Unfancy_maybe_null@W4VkPresentModeKHR@@@std@@YAPEAW4VkPresentModeKHR@@PEAW41@@Z PROC ; std::_Unfancy_maybe_null<enum VkPresentModeKHR>, COMDAT
; File C:\Program Files\Microsoft Visual Studio\2022\Community\VC\Tools\MSVC\14.32.31326\include\vector
; Line 427
$LN3:
	mov	QWORD PTR [rsp+8], rcx
	push	rbp
	push	rdi
	sub	rsp, 232				; 000000e8H
	lea	rbp, QWORD PTR [rsp+32]
	lea	rcx, OFFSET FLAT:__63D5BD4C_vector
	call	__CheckForDebuggerJustMyCode
; Line 428
	mov	rax, QWORD PTR _Ptr$[rbp]
; Line 429
	lea	rsp, QWORD PTR [rbp+200]
	pop	rdi
	pop	rbp
	ret	0
??$_Unfancy_maybe_null@W4VkPresentModeKHR@@@std@@YAPEAW4VkPresentModeKHR@@PEAW41@@Z ENDP ; std::_Unfancy_maybe_null<enum VkPresentModeKHR>
_TEXT	ENDS
; Function compile flags: /Odtp /RTCsu /ZI
;	COMDAT ??$_Copy_construct_from@VSwapchain@cow@@@?$_Ptr_base@VSwapchain@cow@@@std@@IEAAXAEBV?$shared_ptr@VSwapchain@cow@@@1@@Z
_TEXT	SEGMENT
this$ = 224
_Other$ = 232
??$_Copy_construct_from@VSwapchain@cow@@@?$_Ptr_base@VSwapchain@cow@@@std@@IEAAXAEBV?$shared_ptr@VSwapchain@cow@@@1@@Z PROC ; std::_Ptr_base<cow::Swapchain>::_Copy_construct_from<cow::Swapchain>, COMDAT
; File C:\Program Files\Microsoft Visual Studio\2022\Community\VC\Tools\MSVC\14.32.31326\include\memory
; Line 1284
$LN3:
	mov	QWORD PTR [rsp+16], rdx
	mov	QWORD PTR [rsp+8], rcx
	push	rbp
	push	rdi
	sub	rsp, 232				; 000000e8H
	lea	rbp, QWORD PTR [rsp+32]
	lea	rcx, OFFSET FLAT:__92D6C122_memory
	call	__CheckForDebuggerJustMyCode
; Line 1286
	mov	rcx, QWORD PTR _Other$[rbp]
	call	?_Incref@?$_Ptr_base@VSwapchain@cow@@@std@@IEBAXXZ ; std::_Ptr_base<cow::Swapchain>::_Incref
; Line 1288
	mov	rax, QWORD PTR this$[rbp]
	mov	rcx, QWORD PTR _Other$[rbp]
	mov	rcx, QWORD PTR [rcx]
	mov	QWORD PTR [rax], rcx
; Line 1289
	mov	rax, QWORD PTR this$[rbp]
	mov	rcx, QWORD PTR _Other$[rbp]
	mov	rcx, QWORD PTR [rcx+8]
	mov	QWORD PTR [rax+8], rcx
; Line 1290
	lea	rsp, QWORD PTR [rbp+200]
	pop	rdi
	pop	rbp
	ret	0
??$_Copy_construct_from@VSwapchain@cow@@@?$_Ptr_base@VSwapchain@cow@@@std@@IEAAXAEBV?$shared_ptr@VSwapchain@cow@@@1@@Z ENDP ; std::_Ptr_base<cow::Swapchain>::_Copy_construct_from<cow::Swapchain>
_TEXT	ENDS
; Function compile flags: /Odtp /RTCsu /ZI
;	COMDAT ??$move@AEAV?$shared_ptr@VSwapchain@cow@@@std@@@std@@YA$$QEAV?$shared_ptr@VSwapchain@cow@@@0@AEAV10@@Z
_TEXT	SEGMENT
_Arg$ = 224
??$move@AEAV?$shared_ptr@VSwapchain@cow@@@std@@@std@@YA$$QEAV?$shared_ptr@VSwapchain@cow@@@0@AEAV10@@Z PROC ; std::move<std::shared_ptr<cow::Swapchain> &>, COMDAT
; File C:\Program Files\Microsoft Visual Studio\2022\Community\VC\Tools\MSVC\14.32.31326\include\type_traits
; Line 1352
$LN3:
	mov	QWORD PTR [rsp+8], rcx
	push	rbp
	push	rdi
	sub	rsp, 232				; 000000e8H
	lea	rbp, QWORD PTR [rsp+32]
	lea	rcx, OFFSET FLAT:__4CC0724B_type_traits
	call	__CheckForDebuggerJustMyCode
; Line 1353
	mov	rax, QWORD PTR _Arg$[rbp]
; Line 1354
	lea	rsp, QWORD PTR [rbp+200]
	pop	rdi
	pop	rbp
	ret	0
??$move@AEAV?$shared_ptr@VSwapchain@cow@@@std@@@std@@YA$$QEAV?$shared_ptr@VSwapchain@cow@@@0@AEAV10@@Z ENDP ; std::move<std::shared_ptr<cow::Swapchain> &>
_TEXT	ENDS
; Function compile flags: /Odtp /RTCsu /ZI
;	COMDAT ?data@?$array@PEAUVkImageView_T@@$01@std@@QEAAPEAPEAUVkImageView_T@@XZ
_TEXT	SEGMENT
this$ = 224
?data@?$array@PEAUVkImageView_T@@$01@std@@QEAAPEAPEAUVkImageView_T@@XZ PROC ; std::array<VkImageView_T *,2>::data, COMDAT
; File C:\Program Files\Microsoft Visual Studio\2022\Community\VC\Tools\MSVC\14.32.31326\include\array
; Line 590
$LN3:
	mov	QWORD PTR [rsp+8], rcx
	push	rbp
	push	rdi
	sub	rsp, 232				; 000000e8H
	lea	rbp, QWORD PTR [rsp+32]
	lea	rcx, OFFSET FLAT:__125A2BD9_array
	call	__CheckForDebuggerJustMyCode
; Line 591
	mov	rax, QWORD PTR this$[rbp]
; Line 592
	lea	rsp, QWORD PTR [rbp+200]
	pop	rdi
	pop	rbp
	ret	0
?data@?$array@PEAUVkImageView_T@@$01@std@@QEAAPEAPEAUVkImageView_T@@XZ ENDP ; std::array<VkImageView_T *,2>::data
_TEXT	ENDS
; Function compile flags: /Odtp /RTCsu /ZI
;	COMDAT ?size@?$array@PEAUVkImageView_T@@$01@std@@QEBA_KXZ
_TEXT	SEGMENT
this$ = 224
?size@?$array@PEAUVkImageView_T@@$01@std@@QEBA_KXZ PROC	; std::array<VkImageView_T *,2>::size, COMDAT
; File C:\Program Files\Microsoft Visual Studio\2022\Community\VC\Tools\MSVC\14.32.31326\include\array
; Line 529
$LN3:
	mov	QWORD PTR [rsp+8], rcx
	push	rbp
	push	rdi
	sub	rsp, 232				; 000000e8H
	lea	rbp, QWORD PTR [rsp+32]
	lea	rcx, OFFSET FLAT:__125A2BD9_array
	call	__CheckForDebuggerJustMyCode
; Line 530
	mov	eax, 2
; Line 531
	lea	rsp, QWORD PTR [rbp+200]
	pop	rdi
	pop	rbp
	ret	0
?size@?$array@PEAUVkImageView_T@@$01@std@@QEBA_KXZ ENDP	; std::array<VkImageView_T *,2>::size
_TEXT	ENDS
; Function compile flags: /Odtp /RTCsu /ZI
;	COMDAT ?data@?$array@UVkAttachmentDescription@@$01@std@@QEAAPEAUVkAttachmentDescription@@XZ
_TEXT	SEGMENT
this$ = 224
?data@?$array@UVkAttachmentDescription@@$01@std@@QEAAPEAUVkAttachmentDescription@@XZ PROC ; std::array<VkAttachmentDescription,2>::data, COMDAT
; File C:\Program Files\Microsoft Visual Studio\2022\Community\VC\Tools\MSVC\14.32.31326\include\array
; Line 590
$LN3:
	mov	QWORD PTR [rsp+8], rcx
	push	rbp
	push	rdi
	sub	rsp, 232				; 000000e8H
	lea	rbp, QWORD PTR [rsp+32]
	lea	rcx, OFFSET FLAT:__125A2BD9_array
	call	__CheckForDebuggerJustMyCode
; Line 591
	mov	rax, QWORD PTR this$[rbp]
; Line 592
	lea	rsp, QWORD PTR [rbp+200]
	pop	rdi
	pop	rbp
	ret	0
?data@?$array@UVkAttachmentDescription@@$01@std@@QEAAPEAUVkAttachmentDescription@@XZ ENDP ; std::array<VkAttachmentDescription,2>::data
_TEXT	ENDS
; Function compile flags: /Odtp /RTCsu /ZI
;	COMDAT ?size@?$array@UVkAttachmentDescription@@$01@std@@QEBA_KXZ
_TEXT	SEGMENT
this$ = 224
?size@?$array@UVkAttachmentDescription@@$01@std@@QEBA_KXZ PROC ; std::array<VkAttachmentDescription,2>::size, COMDAT
; File C:\Program Files\Microsoft Visual Studio\2022\Community\VC\Tools\MSVC\14.32.31326\include\array
; Line 529
$LN3:
	mov	QWORD PTR [rsp+8], rcx
	push	rbp
	push	rdi
	sub	rsp, 232				; 000000e8H
	lea	rbp, QWORD PTR [rsp+32]
	lea	rcx, OFFSET FLAT:__125A2BD9_array
	call	__CheckForDebuggerJustMyCode
; Line 530
	mov	eax, 2
; Line 531
	lea	rsp, QWORD PTR [rbp+200]
	pop	rdi
	pop	rbp
	ret	0
?size@?$array@UVkAttachmentDescription@@$01@std@@QEBA_KXZ ENDP ; std::array<VkAttachmentDescription,2>::size
_TEXT	ENDS
; Function compile flags: /Odtp /RTCsu /ZI
;	COMDAT ??$max@I@std@@YAAEBIAEBI0@Z
_TEXT	SEGMENT
$T1 = 200
tv65 = 216
_Left$ = 256
_Right$ = 264
??$max@I@std@@YAAEBIAEBI0@Z PROC			; std::max<unsigned int>, COMDAT
; File C:\Program Files\Microsoft Visual Studio\2022\Community\VC\Tools\MSVC\14.32.31326\include\utility
; Line 41
$LN5:
	mov	QWORD PTR [rsp+16], rdx
	mov	QWORD PTR [rsp+8], rcx
	push	rbp
	push	rdi
	sub	rsp, 264				; 00000108H
	lea	rbp, QWORD PTR [rsp+32]
	lea	rcx, OFFSET FLAT:__227866D8_utility
	call	__CheckForDebuggerJustMyCode
; Line 43
	mov	rax, QWORD PTR _Left$[rbp]
	mov	rcx, QWORD PTR _Right$[rbp]
	mov	ecx, DWORD PTR [rcx]
	cmp	DWORD PTR [rax], ecx
	jae	SHORT $LN3@max
	mov	rax, QWORD PTR _Right$[rbp]
	mov	QWORD PTR tv65[rbp], rax
	jmp	SHORT $LN4@max
$LN3@max:
	mov	rax, QWORD PTR _Left$[rbp]
	mov	QWORD PTR tv65[rbp], rax
$LN4@max:
	mov	rax, QWORD PTR tv65[rbp]
	mov	QWORD PTR $T1[rbp], rax
	mov	rax, QWORD PTR $T1[rbp]
; Line 44
	lea	rsp, QWORD PTR [rbp+232]
	pop	rdi
	pop	rbp
	ret	0
??$max@I@std@@YAAEBIAEBI0@Z ENDP			; std::max<unsigned int>
_TEXT	ENDS
; Function compile flags: /Odtp /RTCsu /ZI
;	COMDAT ??$min@I@std@@YAAEBIAEBI0@Z
_TEXT	SEGMENT
$T1 = 200
tv65 = 216
_Left$ = 256
_Right$ = 264
??$min@I@std@@YAAEBIAEBI0@Z PROC			; std::min<unsigned int>, COMDAT
; File C:\Program Files\Microsoft Visual Studio\2022\Community\VC\Tools\MSVC\14.32.31326\include\utility
; Line 64
$LN5:
	mov	QWORD PTR [rsp+16], rdx
	mov	QWORD PTR [rsp+8], rcx
	push	rbp
	push	rdi
	sub	rsp, 264				; 00000108H
	lea	rbp, QWORD PTR [rsp+32]
	lea	rcx, OFFSET FLAT:__227866D8_utility
	call	__CheckForDebuggerJustMyCode
; Line 66
	mov	rax, QWORD PTR _Right$[rbp]
	mov	rcx, QWORD PTR _Left$[rbp]
	mov	ecx, DWORD PTR [rcx]
	cmp	DWORD PTR [rax], ecx
	jae	SHORT $LN3@min
	mov	rax, QWORD PTR _Right$[rbp]
	mov	QWORD PTR tv65[rbp], rax
	jmp	SHORT $LN4@min
$LN3@min:
	mov	rax, QWORD PTR _Left$[rbp]
	mov	QWORD PTR tv65[rbp], rax
$LN4@min:
	mov	rax, QWORD PTR tv65[rbp]
	mov	QWORD PTR $T1[rbp], rax
	mov	rax, QWORD PTR $T1[rbp]
; Line 67
	lea	rsp, QWORD PTR [rbp+232]
	pop	rdi
	pop	rbp
	ret	0
??$min@I@std@@YAAEBIAEBI0@Z ENDP			; std::min<unsigned int>
_TEXT	ENDS
; Function compile flags: /Odtp /RTCsu /ZI
;	COMDAT ??$?CVSwapchain@cow@@$0A@@?$shared_ptr@VSwapchain@cow@@@std@@QEBAPEAVSwapchain@cow@@XZ
_TEXT	SEGMENT
this$ = 224
??$?CVSwapchain@cow@@$0A@@?$shared_ptr@VSwapchain@cow@@@std@@QEBAPEAVSwapchain@cow@@XZ PROC ; std::shared_ptr<cow::Swapchain>::operator-><cow::Swapchain,0>, COMDAT
; File C:\Program Files\Microsoft Visual Studio\2022\Community\VC\Tools\MSVC\14.32.31326\include\memory
; Line 1688
$LN3:
	mov	QWORD PTR [rsp+8], rcx
	push	rbp
	push	rdi
	sub	rsp, 232				; 000000e8H
	lea	rbp, QWORD PTR [rsp+32]
	lea	rcx, OFFSET FLAT:__92D6C122_memory
	call	__CheckForDebuggerJustMyCode
; Line 1689
	mov	rcx, QWORD PTR this$[rbp]
	call	?get@?$_Ptr_base@VSwapchain@cow@@@std@@IEBAPEAVSwapchain@cow@@XZ ; std::_Ptr_base<cow::Swapchain>::get
; Line 1690
	lea	rsp, QWORD PTR [rbp+200]
	pop	rdi
	pop	rbp
	ret	0
??$?CVSwapchain@cow@@$0A@@?$shared_ptr@VSwapchain@cow@@@std@@QEBAPEAVSwapchain@cow@@XZ ENDP ; std::shared_ptr<cow::Swapchain>::operator-><cow::Swapchain,0>
_TEXT	ENDS
; Function compile flags: /Odtp /RTCsu /ZI
;	COMDAT ??$?8VSwapchain@cow@@@std@@YA_NAEBV?$shared_ptr@VSwapchain@cow@@@0@$$T@Z
_TEXT	SEGMENT
tv71 = 192
_Left$ = 240
__formal$ = 248
??$?8VSwapchain@cow@@@std@@YA_NAEBV?$shared_ptr@VSwapchain@cow@@@0@$$T@Z PROC ; std::operator==<cow::Swapchain>, COMDAT
; File C:\Program Files\Microsoft Visual Studio\2022\Community\VC\Tools\MSVC\14.32.31326\include\memory
; Line 1835
$LN5:
	mov	QWORD PTR [rsp+16], rdx
	mov	QWORD PTR [rsp+8], rcx
	push	rbp
	push	rdi
	sub	rsp, 248				; 000000f8H
	lea	rbp, QWORD PTR [rsp+32]
	lea	rcx, OFFSET FLAT:__92D6C122_memory
	call	__CheckForDebuggerJustMyCode
; Line 1836
	mov	rcx, QWORD PTR _Left$[rbp]
	call	?get@?$_Ptr_base@VSwapchain@cow@@@std@@IEBAPEAVSwapchain@cow@@XZ ; std::_Ptr_base<cow::Swapchain>::get
	test	rax, rax
	jne	SHORT $LN3@operator
	mov	DWORD PTR tv71[rbp], 1
	jmp	SHORT $LN4@operator
$LN3@operator:
	mov	DWORD PTR tv71[rbp], 0
$LN4@operator:
	movzx	eax, BYTE PTR tv71[rbp]
; Line 1837
	lea	rsp, QWORD PTR [rbp+216]
	pop	rdi
	pop	rbp
	ret	0
??$?8VSwapchain@cow@@@std@@YA_NAEBV?$shared_ptr@VSwapchain@cow@@@0@$$T@Z ENDP ; std::operator==<cow::Swapchain>
_TEXT	ENDS
; Function compile flags: /Odtp /RTCsu /ZI
;	COMDAT ?swap@?$shared_ptr@VSwapchain@cow@@@std@@QEAAXAEAV12@@Z
_TEXT	SEGMENT
this$ = 224
_Other$ = 232
?swap@?$shared_ptr@VSwapchain@cow@@@std@@QEAAXAEAV12@@Z PROC ; std::shared_ptr<cow::Swapchain>::swap, COMDAT
; File C:\Program Files\Microsoft Visual Studio\2022\Community\VC\Tools\MSVC\14.32.31326\include\memory
; Line 1657
$LN3:
	mov	QWORD PTR [rsp+16], rdx
	mov	QWORD PTR [rsp+8], rcx
	push	rbp
	push	rdi
	sub	rsp, 232				; 000000e8H
	lea	rbp, QWORD PTR [rsp+32]
	lea	rcx, OFFSET FLAT:__92D6C122_memory
	call	__CheckForDebuggerJustMyCode
; Line 1658
	mov	rdx, QWORD PTR _Other$[rbp]
	mov	rcx, QWORD PTR this$[rbp]
	call	?_Swap@?$_Ptr_base@VSwapchain@cow@@@std@@IEAAXAEAV12@@Z ; std::_Ptr_base<cow::Swapchain>::_Swap
; Line 1659
	lea	rsp, QWORD PTR [rbp+200]
	pop	rdi
	pop	rbp
	ret	0
?swap@?$shared_ptr@VSwapchain@cow@@@std@@QEAAXAEAV12@@Z ENDP ; std::shared_ptr<cow::Swapchain>::swap
_TEXT	ENDS
; Function compile flags: /Odtp /RTCsu /ZI
;	COMDAT ??4?$shared_ptr@VSwapchain@cow@@@std@@QEAAAEAV01@$$QEAV01@@Z
_TEXT	SEGMENT
$T1 = 200
tv74 = 232
this$ = 272
_Right$ = 280
??4?$shared_ptr@VSwapchain@cow@@@std@@QEAAAEAV01@$$QEAV01@@Z PROC ; std::shared_ptr<cow::Swapchain>::operator=, COMDAT
; File C:\Program Files\Microsoft Visual Studio\2022\Community\VC\Tools\MSVC\14.32.31326\include\memory
; Line 1632
$LN3:
	mov	QWORD PTR [rsp+16], rdx
	mov	QWORD PTR [rsp+8], rcx
	push	rbp
	push	rdi
	sub	rsp, 280				; 00000118H
	lea	rbp, QWORD PTR [rsp+32]
	lea	rcx, OFFSET FLAT:__92D6C122_memory
	call	__CheckForDebuggerJustMyCode
; Line 1633
	mov	rcx, QWORD PTR _Right$[rbp]
	call	??$move@AEAV?$shared_ptr@VSwapchain@cow@@@std@@@std@@YA$$QEAV?$shared_ptr@VSwapchain@cow@@@0@AEAV10@@Z ; std::move<std::shared_ptr<cow::Swapchain> &>
	mov	rdx, rax
	lea	rcx, QWORD PTR $T1[rbp]
	call	??0?$shared_ptr@VSwapchain@cow@@@std@@QEAA@$$QEAV01@@Z ; std::shared_ptr<cow::Swapchain>::shared_ptr<cow::Swapchain>
	mov	QWORD PTR tv74[rbp], rax
	mov	rdx, QWORD PTR this$[rbp]
	mov	rcx, QWORD PTR tv74[rbp]
	call	?swap@?$shared_ptr@VSwapchain@cow@@@std@@QEAAXAEAV12@@Z ; std::shared_ptr<cow::Swapchain>::swap
	lea	rcx, QWORD PTR $T1[rbp]
	call	??1?$shared_ptr@VSwapchain@cow@@@std@@QEAA@XZ ; std::shared_ptr<cow::Swapchain>::~shared_ptr<cow::Swapchain>
; Line 1634
	mov	rax, QWORD PTR this$[rbp]
; Line 1635
	lea	rsp, QWORD PTR [rbp+248]
	pop	rdi
	pop	rbp
	ret	0
??4?$shared_ptr@VSwapchain@cow@@@std@@QEAAAEAV01@$$QEAV01@@Z ENDP ; std::shared_ptr<cow::Swapchain>::operator=
_TEXT	ENDS
; Function compile flags: /Odtp /RTCsu /ZI
;	COMDAT ??1?$shared_ptr@VSwapchain@cow@@@std@@QEAA@XZ
_TEXT	SEGMENT
this$ = 224
??1?$shared_ptr@VSwapchain@cow@@@std@@QEAA@XZ PROC	; std::shared_ptr<cow::Swapchain>::~shared_ptr<cow::Swapchain>, COMDAT
; File C:\Program Files\Microsoft Visual Studio\2022\Community\VC\Tools\MSVC\14.32.31326\include\memory
; Line 1617
$LN3:
	mov	QWORD PTR [rsp+8], rcx
	push	rbp
	push	rdi
	sub	rsp, 232				; 000000e8H
	lea	rbp, QWORD PTR [rsp+32]
	lea	rcx, OFFSET FLAT:__92D6C122_memory
	call	__CheckForDebuggerJustMyCode
; Line 1618
	mov	rcx, QWORD PTR this$[rbp]
	call	?_Decref@?$_Ptr_base@VSwapchain@cow@@@std@@IEAAXXZ ; std::_Ptr_base<cow::Swapchain>::_Decref
; Line 1619
	lea	rsp, QWORD PTR [rbp+200]
	pop	rdi
	pop	rbp
	ret	0
??1?$shared_ptr@VSwapchain@cow@@@std@@QEAA@XZ ENDP	; std::shared_ptr<cow::Swapchain>::~shared_ptr<cow::Swapchain>
_TEXT	ENDS
; Function compile flags: /Odtp /RTCsu /ZI
;	COMDAT ??0?$shared_ptr@VSwapchain@cow@@@std@@QEAA@$$QEAV01@@Z
_TEXT	SEGMENT
this$ = 224
_Right$ = 232
??0?$shared_ptr@VSwapchain@cow@@@std@@QEAA@$$QEAV01@@Z PROC ; std::shared_ptr<cow::Swapchain>::shared_ptr<cow::Swapchain>, COMDAT
; File C:\Program Files\Microsoft Visual Studio\2022\Community\VC\Tools\MSVC\14.32.31326\include\memory
; Line 1572
$LN3:
	mov	QWORD PTR [rsp+16], rdx
	mov	QWORD PTR [rsp+8], rcx
	push	rbp
	push	rdi
	sub	rsp, 232				; 000000e8H
	lea	rbp, QWORD PTR [rsp+32]
	lea	rcx, OFFSET FLAT:__92D6C122_memory
	call	__CheckForDebuggerJustMyCode
	mov	rcx, QWORD PTR this$[rbp]
	call	??0?$_Ptr_base@VSwapchain@cow@@@std@@IEAA@XZ ; std::_Ptr_base<cow::Swapchain>::_Ptr_base<cow::Swapchain>
; Line 1573
	mov	rcx, QWORD PTR _Right$[rbp]
	call	??$move@AEAV?$shared_ptr@VSwapchain@cow@@@std@@@std@@YA$$QEAV?$shared_ptr@VSwapchain@cow@@@0@AEAV10@@Z ; std::move<std::shared_ptr<cow::Swapchain> &>
	mov	rdx, rax
	mov	rcx, QWORD PTR this$[rbp]
	call	??$_Move_construct_from@VSwapchain@cow@@@?$_Ptr_base@VSwapchain@cow@@@std@@IEAAX$$QEAV01@@Z ; std::_Ptr_base<cow::Swapchain>::_Move_construct_from<cow::Swapchain>
; Line 1574
	mov	rax, QWORD PTR this$[rbp]
	lea	rsp, QWORD PTR [rbp+200]
	pop	rdi
	pop	rbp
	ret	0
??0?$shared_ptr@VSwapchain@cow@@@std@@QEAA@$$QEAV01@@Z ENDP ; std::shared_ptr<cow::Swapchain>::shared_ptr<cow::Swapchain>
_TEXT	ENDS
; Function compile flags: /Odtp /RTCsu /ZI
;	COMDAT ??0?$shared_ptr@VSwapchain@cow@@@std@@QEAA@AEBV01@@Z
_TEXT	SEGMENT
this$ = 224
_Other$ = 232
??0?$shared_ptr@VSwapchain@cow@@@std@@QEAA@AEBV01@@Z PROC ; std::shared_ptr<cow::Swapchain>::shared_ptr<cow::Swapchain>, COMDAT
; File C:\Program Files\Microsoft Visual Studio\2022\Community\VC\Tools\MSVC\14.32.31326\include\memory
; Line 1562
$LN3:
	mov	QWORD PTR [rsp+16], rdx
	mov	QWORD PTR [rsp+8], rcx
	push	rbp
	push	rdi
	sub	rsp, 232				; 000000e8H
	lea	rbp, QWORD PTR [rsp+32]
	lea	rcx, OFFSET FLAT:__92D6C122_memory
	call	__CheckForDebuggerJustMyCode
	mov	rcx, QWORD PTR this$[rbp]
	call	??0?$_Ptr_base@VSwapchain@cow@@@std@@IEAA@XZ ; std::_Ptr_base<cow::Swapchain>::_Ptr_base<cow::Swapchain>
; Line 1563
	mov	rdx, QWORD PTR _Other$[rbp]
	mov	rcx, QWORD PTR this$[rbp]
	call	??$_Copy_construct_from@VSwapchain@cow@@@?$_Ptr_base@VSwapchain@cow@@@std@@IEAAXAEBV?$shared_ptr@VSwapchain@cow@@@1@@Z ; std::_Ptr_base<cow::Swapchain>::_Copy_construct_from<cow::Swapchain>
; Line 1564
	mov	rax, QWORD PTR this$[rbp]
	lea	rsp, QWORD PTR [rbp+200]
	pop	rdi
	pop	rbp
	ret	0
??0?$shared_ptr@VSwapchain@cow@@@std@@QEAA@AEBV01@@Z ENDP ; std::shared_ptr<cow::Swapchain>::shared_ptr<cow::Swapchain>
_TEXT	ENDS
; Function compile flags: /Odtp /RTCsu /ZI
;	COMDAT ??0?$shared_ptr@VSwapchain@cow@@@std@@QEAA@$$T@Z
_TEXT	SEGMENT
this$ = 224
__formal$ = 232
??0?$shared_ptr@VSwapchain@cow@@@std@@QEAA@$$T@Z PROC	; std::shared_ptr<cow::Swapchain>::shared_ptr<cow::Swapchain>, COMDAT
; File C:\Program Files\Microsoft Visual Studio\2022\Community\VC\Tools\MSVC\14.32.31326\include\memory
; Line 1506
$LN3:
	mov	QWORD PTR [rsp+16], rdx
	mov	QWORD PTR [rsp+8], rcx
	push	rbp
	push	rdi
	sub	rsp, 232				; 000000e8H
	lea	rbp, QWORD PTR [rsp+32]
	lea	rcx, OFFSET FLAT:__92D6C122_memory
	call	__CheckForDebuggerJustMyCode
	mov	rcx, QWORD PTR this$[rbp]
	call	??0?$_Ptr_base@VSwapchain@cow@@@std@@IEAA@XZ ; std::_Ptr_base<cow::Swapchain>::_Ptr_base<cow::Swapchain>
	mov	rax, QWORD PTR this$[rbp]
	lea	rsp, QWORD PTR [rbp+200]
	pop	rdi
	pop	rbp
	ret	0
??0?$shared_ptr@VSwapchain@cow@@@std@@QEAA@$$T@Z ENDP	; std::shared_ptr<cow::Swapchain>::shared_ptr<cow::Swapchain>
_TEXT	ENDS
; Function compile flags: /Odtp /RTCsu /ZI
;	COMDAT ??0?$shared_ptr@VSwapchain@cow@@@std@@QEAA@XZ
_TEXT	SEGMENT
this$ = 224
??0?$shared_ptr@VSwapchain@cow@@@std@@QEAA@XZ PROC	; std::shared_ptr<cow::Swapchain>::shared_ptr<cow::Swapchain>, COMDAT
; File C:\Program Files\Microsoft Visual Studio\2022\Community\VC\Tools\MSVC\14.32.31326\include\memory
; Line 1504
$LN3:
	mov	QWORD PTR [rsp+8], rcx
	push	rbp
	push	rdi
	sub	rsp, 232				; 000000e8H
	lea	rbp, QWORD PTR [rsp+32]
	lea	rcx, OFFSET FLAT:__92D6C122_memory
	call	__CheckForDebuggerJustMyCode
	mov	rcx, QWORD PTR this$[rbp]
	call	??0?$_Ptr_base@VSwapchain@cow@@@std@@IEAA@XZ ; std::_Ptr_base<cow::Swapchain>::_Ptr_base<cow::Swapchain>
	mov	rax, QWORD PTR this$[rbp]
	lea	rsp, QWORD PTR [rbp+200]
	pop	rdi
	pop	rbp
	ret	0
??0?$shared_ptr@VSwapchain@cow@@@std@@QEAA@XZ ENDP	; std::shared_ptr<cow::Swapchain>::shared_ptr<cow::Swapchain>
_TEXT	ENDS
; Function compile flags: /Odtp /RTCsu /ZI
;	COMDAT ?_Swap@?$_Ptr_base@VSwapchain@cow@@@std@@IEAAXAEAV12@@Z
_TEXT	SEGMENT
this$ = 224
_Right$ = 232
?_Swap@?$_Ptr_base@VSwapchain@cow@@@std@@IEAAXAEAV12@@Z PROC ; std::_Ptr_base<cow::Swapchain>::_Swap, COMDAT
; File C:\Program Files\Microsoft Visual Studio\2022\Community\VC\Tools\MSVC\14.32.31326\include\memory
; Line 1338
$LN3:
	mov	QWORD PTR [rsp+16], rdx
	mov	QWORD PTR [rsp+8], rcx
	push	rbp
	push	rdi
	sub	rsp, 232				; 000000e8H
	lea	rbp, QWORD PTR [rsp+32]
	lea	rcx, OFFSET FLAT:__92D6C122_memory
	call	__CheckForDebuggerJustMyCode
; Line 1339
	mov	rax, QWORD PTR _Right$[rbp]
	mov	rcx, QWORD PTR this$[rbp]
	mov	rdx, rax
	call	??$swap@PEAVSwapchain@cow@@$0A@@std@@YAXAEAPEAVSwapchain@cow@@0@Z ; std::swap<cow::Swapchain *,0>
; Line 1340
	mov	rax, QWORD PTR _Right$[rbp]
	add	rax, 8
	mov	rcx, QWORD PTR this$[rbp]
	add	rcx, 8
	mov	rdx, rax
	call	??$swap@PEAV_Ref_count_base@std@@$0A@@std@@YAXAEAPEAV_Ref_count_base@0@0@Z ; std::swap<std::_Ref_count_base *,0>
; Line 1341
	lea	rsp, QWORD PTR [rbp+200]
	pop	rdi
	pop	rbp
	ret	0
?_Swap@?$_Ptr_base@VSwapchain@cow@@@std@@IEAAXAEAV12@@Z ENDP ; std::_Ptr_base<cow::Swapchain>::_Swap
_TEXT	ENDS
; Function compile flags: /Odtp /RTCsu /ZI
;	COMDAT ?_Decref@?$_Ptr_base@VSwapchain@cow@@@std@@IEAAXXZ
_TEXT	SEGMENT
this$ = 224
?_Decref@?$_Ptr_base@VSwapchain@cow@@@std@@IEAAXXZ PROC	; std::_Ptr_base<cow::Swapchain>::_Decref, COMDAT
; File C:\Program Files\Microsoft Visual Studio\2022\Community\VC\Tools\MSVC\14.32.31326\include\memory
; Line 1332
$LN4:
	mov	QWORD PTR [rsp+8], rcx
	push	rbp
	push	rdi
	sub	rsp, 232				; 000000e8H
	lea	rbp, QWORD PTR [rsp+32]
	lea	rcx, OFFSET FLAT:__92D6C122_memory
	call	__CheckForDebuggerJustMyCode
; Line 1333
	mov	rax, QWORD PTR this$[rbp]
	cmp	QWORD PTR [rax+8], 0
	je	SHORT $LN2@Decref
; Line 1334
	mov	rax, QWORD PTR this$[rbp]
	mov	rcx, QWORD PTR [rax+8]
	call	?_Decref@_Ref_count_base@std@@QEAAXXZ	; std::_Ref_count_base::_Decref
$LN2@Decref:
; Line 1336
	lea	rsp, QWORD PTR [rbp+200]
	pop	rdi
	pop	rbp
	ret	0
?_Decref@?$_Ptr_base@VSwapchain@cow@@@std@@IEAAXXZ ENDP	; std::_Ptr_base<cow::Swapchain>::_Decref
_TEXT	ENDS
; Function compile flags: /Odtp /RTCsu /ZI
;	COMDAT ?_Incref@?$_Ptr_base@VSwapchain@cow@@@std@@IEBAXXZ
_TEXT	SEGMENT
this$ = 224
?_Incref@?$_Ptr_base@VSwapchain@cow@@@std@@IEBAXXZ PROC	; std::_Ptr_base<cow::Swapchain>::_Incref, COMDAT
; File C:\Program Files\Microsoft Visual Studio\2022\Community\VC\Tools\MSVC\14.32.31326\include\memory
; Line 1326
$LN4:
	mov	QWORD PTR [rsp+8], rcx
	push	rbp
	push	rdi
	sub	rsp, 232				; 000000e8H
	lea	rbp, QWORD PTR [rsp+32]
	lea	rcx, OFFSET FLAT:__92D6C122_memory
	call	__CheckForDebuggerJustMyCode
; Line 1327
	mov	rax, QWORD PTR this$[rbp]
	cmp	QWORD PTR [rax+8], 0
	je	SHORT $LN2@Incref
; Line 1328
	mov	rax, QWORD PTR this$[rbp]
	mov	rcx, QWORD PTR [rax+8]
	call	?_Incref@_Ref_count_base@std@@QEAAXXZ	; std::_Ref_count_base::_Incref
$LN2@Incref:
; Line 1330
	lea	rsp, QWORD PTR [rbp+200]
	pop	rdi
	pop	rbp
	ret	0
?_Incref@?$_Ptr_base@VSwapchain@cow@@@std@@IEBAXXZ ENDP	; std::_Ptr_base<cow::Swapchain>::_Incref
_TEXT	ENDS
; Function compile flags: /Odtp /RTCsu /ZI
;	COMDAT ??0?$_Ptr_base@VSwapchain@cow@@@std@@IEAA@XZ
_TEXT	SEGMENT
this$ = 224
??0?$_Ptr_base@VSwapchain@cow@@@std@@IEAA@XZ PROC	; std::_Ptr_base<cow::Swapchain>::_Ptr_base<cow::Swapchain>, COMDAT
; File C:\Program Files\Microsoft Visual Studio\2022\Community\VC\Tools\MSVC\14.32.31326\include\memory
; Line 1269
$LN3:
	mov	QWORD PTR [rsp+8], rcx
	push	rbp
	push	rdi
	sub	rsp, 232				; 000000e8H
	lea	rbp, QWORD PTR [rsp+32]
	lea	rcx, OFFSET FLAT:__92D6C122_memory
	call	__CheckForDebuggerJustMyCode
; Line 1401
	mov	rax, QWORD PTR this$[rbp]
	mov	QWORD PTR [rax], 0
; Line 1402
	mov	rax, QWORD PTR this$[rbp]
	mov	QWORD PTR [rax+8], 0
; Line 1269
	mov	rax, QWORD PTR this$[rbp]
	lea	rsp, QWORD PTR [rbp+200]
	pop	rdi
	pop	rbp
	ret	0
??0?$_Ptr_base@VSwapchain@cow@@@std@@IEAA@XZ ENDP	; std::_Ptr_base<cow::Swapchain>::_Ptr_base<cow::Swapchain>
_TEXT	ENDS
; Function compile flags: /Odtp /RTCsu /ZI
;	COMDAT ?get@?$_Ptr_base@VSwapchain@cow@@@std@@IEBAPEAVSwapchain@cow@@XZ
_TEXT	SEGMENT
this$ = 224
?get@?$_Ptr_base@VSwapchain@cow@@@std@@IEBAPEAVSwapchain@cow@@XZ PROC ; std::_Ptr_base<cow::Swapchain>::get, COMDAT
; File C:\Program Files\Microsoft Visual Studio\2022\Community\VC\Tools\MSVC\14.32.31326\include\memory
; Line 1265
$LN3:
	mov	QWORD PTR [rsp+8], rcx
	push	rbp
	push	rdi
	sub	rsp, 232				; 000000e8H
	lea	rbp, QWORD PTR [rsp+32]
	lea	rcx, OFFSET FLAT:__92D6C122_memory
	call	__CheckForDebuggerJustMyCode
; Line 1266
	mov	rax, QWORD PTR this$[rbp]
	mov	rax, QWORD PTR [rax]
; Line 1267
	lea	rsp, QWORD PTR [rbp+200]
	pop	rdi
	pop	rbp
	ret	0
?get@?$_Ptr_base@VSwapchain@cow@@@std@@IEBAPEAVSwapchain@cow@@XZ ENDP ; std::_Ptr_base<cow::Swapchain>::get
_TEXT	ENDS
; Function compile flags: /Odtp /RTCsu /ZI
;	COMDAT ?createSyncObjects@Swapchain@cow@@AEAAXXZ
_TEXT	SEGMENT
semaphoreInfo$ = 8
fenceInfo$ = 56
i$5 = 104
$T6 = 328
tv182 = 360
tv166 = 360
tv150 = 360
tv180 = 368
tv164 = 368
tv148 = 368
__$ArrayPad$ = 376
this$ = 416
?createSyncObjects@Swapchain@cow@@AEAAXXZ PROC		; cow::Swapchain::createSyncObjects, COMDAT
; File C:\Users\anton\source\repos\GPU-VM\GPU-VM\Swapchain.cpp
; Line 376
$LN8:
	mov	QWORD PTR [rsp+8], rcx
	push	rbp
	push	rdi
	sub	rsp, 424				; 000001a8H
	lea	rbp, QWORD PTR [rsp+32]
	lea	rdi, QWORD PTR [rsp+32]
	mov	ecx, 50					; 00000032H
	mov	eax, -858993460				; ccccccccH
	rep stosd
	mov	rcx, QWORD PTR [rsp+456]
	mov	rax, QWORD PTR __security_cookie
	xor	rax, rbp
	mov	QWORD PTR __$ArrayPad$[rbp], rax
	lea	rcx, OFFSET FLAT:__C27AF25F_Swapchain@cpp
	call	__CheckForDebuggerJustMyCode
; Line 377
	mov	edx, 8
	mov	ecx, 2
	call	QWORD PTR __imp_calloc
	mov	rcx, QWORD PTR this$[rbp]
	mov	QWORD PTR [rcx+128], rax
; Line 378
	mov	edx, 8
	mov	ecx, 2
	call	QWORD PTR __imp_calloc
	mov	rcx, QWORD PTR this$[rbp]
	mov	QWORD PTR [rcx+120], rax
; Line 379
	mov	edx, 8
	mov	ecx, 2
	call	QWORD PTR __imp_calloc
	mov	rcx, QWORD PTR this$[rbp]
	mov	QWORD PTR [rcx+104], rax
; Line 380
	mov	rax, QWORD PTR this$[rbp]
	mov	eax, DWORD PTR [rax+56]
	mov	edx, 8
	mov	ecx, eax
	call	QWORD PTR __imp_calloc
	mov	rcx, QWORD PTR this$[rbp]
	mov	QWORD PTR [rcx+112], rax
; Line 382
	lea	rax, QWORD PTR semaphoreInfo$[rbp]
	mov	rdi, rax
	xor	eax, eax
	mov	ecx, 24
	rep stosb
; Line 383
	mov	DWORD PTR semaphoreInfo$[rbp], 9
; Line 385
	lea	rax, QWORD PTR fenceInfo$[rbp]
	mov	rdi, rax
	xor	eax, eax
	mov	ecx, 24
	rep stosb
; Line 386
	mov	DWORD PTR fenceInfo$[rbp], 8
; Line 387
	mov	DWORD PTR fenceInfo$[rbp+16], 1
; Line 389
	mov	QWORD PTR i$5[rbp], 0
	jmp	SHORT $LN4@createSync
$LN2@createSync:
	mov	rax, QWORD PTR i$5[rbp]
	inc	rax
	mov	QWORD PTR i$5[rbp], rax
$LN4@createSync:
	cmp	QWORD PTR i$5[rbp], 2
	jae	$LN3@createSync
; Line 394
	mov	rax, QWORD PTR this$[rbp]
	mov	rax, QWORD PTR [rax+128]
	mov	rcx, QWORD PTR i$5[rbp]
	lea	rax, QWORD PTR [rax+rcx*8]
	mov	QWORD PTR tv150[rbp], rax
	mov	rax, QWORD PTR this$[rbp]
	mov	rcx, QWORD PTR [rax+152]
	call	?getDevice@Device@cow@@QEAAPEAUVkDevice_T@@XZ ; cow::Device::getDevice
	mov	QWORD PTR tv148[rbp], rax
	mov	r9, QWORD PTR tv150[rbp]
	xor	r8d, r8d
	lea	rdx, QWORD PTR semaphoreInfo$[rbp]
	mov	rcx, QWORD PTR tv148[rbp]
	call	vkCreateSemaphore
	test	eax, eax
	jne	$LN6@createSync
	mov	rax, QWORD PTR this$[rbp]
	mov	rax, QWORD PTR [rax+120]
	mov	rcx, QWORD PTR i$5[rbp]
	lea	rax, QWORD PTR [rax+rcx*8]
	mov	QWORD PTR tv166[rbp], rax
	mov	rax, QWORD PTR this$[rbp]
	mov	rcx, QWORD PTR [rax+152]
	call	?getDevice@Device@cow@@QEAAPEAUVkDevice_T@@XZ ; cow::Device::getDevice
	mov	QWORD PTR tv164[rbp], rax
	mov	r9, QWORD PTR tv166[rbp]
	xor	r8d, r8d
	lea	rdx, QWORD PTR semaphoreInfo$[rbp]
	mov	rcx, QWORD PTR tv164[rbp]
	call	vkCreateSemaphore
	test	eax, eax
	jne	SHORT $LN6@createSync
	mov	rax, QWORD PTR this$[rbp]
	mov	rax, QWORD PTR [rax+104]
	mov	rcx, QWORD PTR i$5[rbp]
	lea	rax, QWORD PTR [rax+rcx*8]
	mov	QWORD PTR tv182[rbp], rax
	mov	rax, QWORD PTR this$[rbp]
	mov	rcx, QWORD PTR [rax+152]
	call	?getDevice@Device@cow@@QEAAPEAUVkDevice_T@@XZ ; cow::Device::getDevice
	mov	QWORD PTR tv180[rbp], rax
	mov	r9, QWORD PTR tv182[rbp]
	xor	r8d, r8d
	lea	rdx, QWORD PTR fenceInfo$[rbp]
	mov	rcx, QWORD PTR tv180[rbp]
	call	vkCreateFence
	test	eax, eax
	je	SHORT $LN5@createSync
$LN6@createSync:
; Line 397
	lea	rdx, OFFSET FLAT:??_C@_0DG@GMFJPIOC@failed?5to?5create?5synchronizatio@
	lea	rcx, QWORD PTR $T6[rbp]
	call	??0runtime_error@std@@QEAA@PEBD@Z	; std::runtime_error::runtime_error
	lea	rdx, OFFSET FLAT:_TI2?AVruntime_error@std@@
	lea	rcx, QWORD PTR $T6[rbp]
	call	_CxxThrowException
$LN5@createSync:
; Line 399
	jmp	$LN2@createSync
$LN3@createSync:
$LN7@createSync:
; Line 400
	lea	rcx, QWORD PTR [rbp-32]
	lea	rdx, OFFSET FLAT:?createSyncObjects@Swapchain@cow@@AEAAXXZ$rtcFrameData
	call	_RTC_CheckStackVars
	mov	rcx, QWORD PTR __$ArrayPad$[rbp]
	xor	rcx, rbp
	call	__security_check_cookie
	lea	rsp, QWORD PTR [rbp+392]
	pop	rdi
	pop	rbp
	ret	0
?createSyncObjects@Swapchain@cow@@AEAAXXZ ENDP		; cow::Swapchain::createSyncObjects
_TEXT	ENDS
; Function compile flags: /Odtp /RTCsu /ZI
;	COMDAT ?findMemoryType@Swapchain@cow@@AEAAIII@Z
_TEXT	SEGMENT
memProperties$ = 16
i$4 = 564
$T5 = 984
tv90 = 1012
__$ArrayPad$ = 1016
this$ = 1056
typeFilter$ = 1064
properties$ = 1072
?findMemoryType@Swapchain@cow@@AEAAIII@Z PROC		; cow::Swapchain::findMemoryType, COMDAT
; File C:\Users\anton\source\repos\GPU-VM\GPU-VM\Swapchain.cpp
; Line 402
$LN7:
	mov	DWORD PTR [rsp+24], r8d
	mov	DWORD PTR [rsp+16], edx
	mov	QWORD PTR [rsp+8], rcx
	push	rbp
	push	rdi
	sub	rsp, 1064				; 00000428H
	lea	rbp, QWORD PTR [rsp+32]
	lea	rdi, QWORD PTR [rsp+32]
	mov	ecx, 162				; 000000a2H
	mov	eax, -858993460				; ccccccccH
	rep stosd
	mov	rcx, QWORD PTR [rsp+1096]
	mov	rax, QWORD PTR __security_cookie
	xor	rax, rbp
	mov	QWORD PTR __$ArrayPad$[rbp], rax
	lea	rcx, OFFSET FLAT:__C27AF25F_Swapchain@cpp
	call	__CheckForDebuggerJustMyCode
; Line 404
	mov	rax, QWORD PTR this$[rbp]
	mov	rax, QWORD PTR [rax+152]
	lea	rdx, QWORD PTR memProperties$[rbp]
	mov	rcx, QWORD PTR [rax+16]
	call	vkGetPhysicalDeviceMemoryProperties
; Line 405
	mov	DWORD PTR i$4[rbp], 0
	jmp	SHORT $LN4@findMemory
$LN2@findMemory:
	mov	eax, DWORD PTR i$4[rbp]
	inc	eax
	mov	DWORD PTR i$4[rbp], eax
$LN4@findMemory:
	mov	eax, DWORD PTR memProperties$[rbp]
	cmp	DWORD PTR i$4[rbp], eax
	jae	SHORT $LN3@findMemory
; Line 406
	mov	eax, DWORD PTR i$4[rbp]
	mov	ecx, 1
	mov	DWORD PTR tv90[rbp], ecx
	movzx	ecx, al
	mov	eax, DWORD PTR tv90[rbp]
	shl	eax, cl
	mov	ecx, DWORD PTR typeFilter$[rbp]
	and	ecx, eax
	mov	eax, ecx
	test	eax, eax
	je	SHORT $LN5@findMemory
	mov	eax, DWORD PTR i$4[rbp]
	mov	ecx, DWORD PTR properties$[rbp]
	mov	eax, DWORD PTR memProperties$[rbp+rax*8+4]
	and	eax, ecx
	cmp	eax, DWORD PTR properties$[rbp]
	jne	SHORT $LN5@findMemory
; Line 408
	mov	eax, DWORD PTR i$4[rbp]
	jmp	SHORT $LN1@findMemory
$LN5@findMemory:
; Line 410
	jmp	SHORT $LN2@findMemory
$LN3@findMemory:
; Line 412
	lea	rdx, OFFSET FLAT:??_C@_0CF@GDABOGAP@failed?5to?5find?5suitable?5memory?5@
	lea	rcx, QWORD PTR $T5[rbp]
	call	??0runtime_error@std@@QEAA@PEBD@Z	; std::runtime_error::runtime_error
	lea	rdx, OFFSET FLAT:_TI2?AVruntime_error@std@@
	lea	rcx, QWORD PTR $T5[rbp]
	call	_CxxThrowException
$LN1@findMemory:
$LN6@findMemory:
; Line 413
	mov	rdi, rax
	lea	rcx, QWORD PTR [rbp-32]
	lea	rdx, OFFSET FLAT:?findMemoryType@Swapchain@cow@@AEAAIII@Z$rtcFrameData
	call	_RTC_CheckStackVars
	mov	rax, rdi
	mov	rcx, QWORD PTR __$ArrayPad$[rbp]
	xor	rcx, rbp
	call	__security_check_cookie
	lea	rsp, QWORD PTR [rbp+1032]
	pop	rdi
	pop	rbp
	ret	0
?findMemoryType@Swapchain@cow@@AEAAIII@Z ENDP		; cow::Swapchain::findMemoryType
_TEXT	ENDS
; Function compile flags: /Odtp /RTCsu /ZI
;	COMDAT ?createRenderingObjects@Swapchain@cow@@AEAAXXZ
_TEXT	SEGMENT
i$20 = 8
viewInfo$21 = 48
candidates$ = 152
depthFormat$ = 196
depthAttachment$ = 232
depthAttachmentRef$ = 296
colorAttachment$ = 328
colorAttachmentRef$ = 392
subpass$ = 432
dependency$ = 536
attachments$ = 608
renderPassInfo$ = 720
i$22 = 808
imageInfo$23 = 848
memRequirements$24 = 968
allocInfo$25 = 1016
viewInfo$26 = 1088
i$27 = 1192
attachments$28 = 1224
swapChainExtent$29 = 1272
framebufferInfo$30 = 1312
$T31 = 2168
$T32 = 2216
$T33 = 2264
$T34 = 2312
$T35 = 2360
$T36 = 2408
$T37 = 2456
tv587 = 2488
tv471 = 2488
tv403 = 2488
tv384 = 2488
tv271 = 2488
tv171 = 2488
tv157 = 2488
tv585 = 2496
tv469 = 2496
tv401 = 2496
tv350 = 2496
tv155 = 2496
__$ArrayPad$ = 2504
this$ = 2544
?createRenderingObjects@Swapchain@cow@@AEAAXXZ PROC	; cow::Swapchain::createRenderingObjects, COMDAT
; File C:\Users\anton\source\repos\GPU-VM\GPU-VM\Swapchain.cpp
; Line 202
$LN19:
	mov	QWORD PTR [rsp+8], rcx
	push	rbp
	push	rsi
	push	rdi
	sub	rsp, 2560				; 00000a00H
	lea	rbp, QWORD PTR [rsp+48]
	lea	rdi, QWORD PTR [rsp+48]
	mov	ecx, 436				; 000001b4H
	mov	eax, -858993460				; ccccccccH
	rep stosd
	mov	rcx, QWORD PTR [rsp+2600]
	mov	rax, QWORD PTR __security_cookie
	xor	rax, rbp
	mov	QWORD PTR __$ArrayPad$[rbp], rax
	lea	rcx, OFFSET FLAT:__C27AF25F_Swapchain@cpp
	call	__CheckForDebuggerJustMyCode
; Line 203
	mov	rax, QWORD PTR this$[rbp]
	add	rax, 56					; 00000038H
	mov	rcx, QWORD PTR this$[rbp]
	mov	rcx, QWORD PTR [rcx+152]
	xor	r9d, r9d
	mov	r8, rax
	mov	rax, QWORD PTR this$[rbp]
	mov	rdx, QWORD PTR [rax+32]
	mov	rcx, QWORD PTR [rcx+24]
	call	vkGetSwapchainImagesKHR
; Line 204
	mov	rax, QWORD PTR this$[rbp]
	mov	eax, DWORD PTR [rax+56]
	mov	edx, 8
	mov	ecx, eax
	call	QWORD PTR __imp_calloc
	mov	rcx, QWORD PTR this$[rbp]
	mov	QWORD PTR [rcx+40], rax
; Line 205
	mov	rax, QWORD PTR this$[rbp]
	mov	eax, DWORD PTR [rax+56]
	mov	edx, 8
	mov	ecx, eax
	call	QWORD PTR __imp_calloc
	mov	rcx, QWORD PTR this$[rbp]
	mov	QWORD PTR [rcx+48], rax
; Line 206
	mov	rax, QWORD PTR this$[rbp]
	add	rax, 56					; 00000038H
	mov	rcx, QWORD PTR this$[rbp]
	mov	rcx, QWORD PTR [rcx+152]
	mov	rdx, QWORD PTR this$[rbp]
	mov	r9, QWORD PTR [rdx+40]
	mov	r8, rax
	mov	rax, QWORD PTR this$[rbp]
	mov	rdx, QWORD PTR [rax+32]
	mov	rcx, QWORD PTR [rcx+24]
	call	vkGetSwapchainImagesKHR
; Line 207
	mov	QWORD PTR i$20[rbp], 0
	jmp	SHORT $LN4@createRend
$LN2@createRend:
	mov	rax, QWORD PTR i$20[rbp]
	inc	rax
	mov	QWORD PTR i$20[rbp], rax
$LN4@createRend:
	mov	rax, QWORD PTR this$[rbp]
	mov	eax, DWORD PTR [rax+56]
	cmp	QWORD PTR i$20[rbp], rax
	jae	$LN3@createRend
; Line 210
	lea	rax, QWORD PTR viewInfo$21[rbp]
	mov	rdi, rax
	xor	eax, eax
	mov	ecx, 80					; 00000050H
	rep stosb
; Line 211
	mov	DWORD PTR viewInfo$21[rbp], 15
; Line 212
	mov	rax, QWORD PTR this$[rbp]
	mov	rax, QWORD PTR [rax+40]
	mov	rcx, QWORD PTR i$20[rbp]
	mov	rax, QWORD PTR [rax+rcx*8]
	mov	QWORD PTR viewInfo$21[rbp+24], rax
; Line 213
	mov	DWORD PTR viewInfo$21[rbp+32], 1
; Line 214
	mov	rax, QWORD PTR this$[rbp]
	mov	eax, DWORD PTR [rax+8]
	mov	DWORD PTR viewInfo$21[rbp+36], eax
; Line 215
	mov	DWORD PTR viewInfo$21[rbp+56], 1
; Line 216
	mov	DWORD PTR viewInfo$21[rbp+60], 0
; Line 217
	mov	DWORD PTR viewInfo$21[rbp+64], 1
; Line 218
	mov	DWORD PTR viewInfo$21[rbp+68], 0
; Line 219
	mov	DWORD PTR viewInfo$21[rbp+72], 1
; Line 225
	mov	rax, QWORD PTR this$[rbp]
	mov	rax, QWORD PTR [rax+48]
	mov	rcx, QWORD PTR i$20[rbp]
	lea	rax, QWORD PTR [rax+rcx*8]
	mov	QWORD PTR tv157[rbp], rax
	mov	rax, QWORD PTR this$[rbp]
	mov	rcx, QWORD PTR [rax+152]
	call	?getDevice@Device@cow@@QEAAPEAUVkDevice_T@@XZ ; cow::Device::getDevice
	mov	QWORD PTR tv155[rbp], rax
	mov	r9, QWORD PTR tv157[rbp]
	xor	r8d, r8d
	lea	rdx, QWORD PTR viewInfo$21[rbp]
	mov	rcx, QWORD PTR tv155[rbp]
	call	vkCreateImageView
	test	eax, eax
	je	SHORT $LN11@createRend
; Line 228
	lea	rdx, OFFSET FLAT:??_C@_0CF@NBFKCJOJ@failed?5to?5create?5texture?5image?5@
	lea	rcx, QWORD PTR $T31[rbp]
	call	??0runtime_error@std@@QEAA@PEBD@Z	; std::runtime_error::runtime_error
	lea	rdx, OFFSET FLAT:_TI2?AVruntime_error@std@@
	lea	rcx, QWORD PTR $T31[rbp]
	call	_CxxThrowException
$LN11@createRend:
; Line 230
	jmp	$LN2@createRend
$LN3@createRend:
; Line 232
	mov	DWORD PTR candidates$[rbp], 126		; 0000007eH
	mov	DWORD PTR candidates$[rbp+4], 130	; 00000082H
	mov	DWORD PTR candidates$[rbp+8], 129	; 00000081H
; Line 233
	mov	rax, QWORD PTR this$[rbp]
	mov	rax, QWORD PTR [rax+152]
	mov	QWORD PTR tv171[rbp], rax
	mov	DWORD PTR [rsp+32], 512			; 00000200H
	xor	r9d, r9d
	lea	r8, QWORD PTR candidates$[rbp]
	mov	edx, 3
	mov	rcx, QWORD PTR tv171[rbp]
	call	?findSupportedFormat@Device@cow@@AEAA?AW4VkFormat@@IPEAW43@W4VkImageTiling@@I@Z ; cow::Device::findSupportedFormat
	mov	DWORD PTR depthFormat$[rbp], eax
; Line 234
	lea	rax, QWORD PTR depthAttachment$[rbp]
	mov	rdi, rax
	xor	eax, eax
	mov	ecx, 36					; 00000024H
	rep stosb
; Line 235
	mov	eax, DWORD PTR depthFormat$[rbp]
	mov	DWORD PTR depthAttachment$[rbp+4], eax
; Line 236
	mov	DWORD PTR depthAttachment$[rbp+8], 1
; Line 237
	mov	DWORD PTR depthAttachment$[rbp+12], 1
; Line 238
	mov	DWORD PTR depthAttachment$[rbp+16], 1
; Line 239
	mov	DWORD PTR depthAttachment$[rbp+20], 2
; Line 240
	mov	DWORD PTR depthAttachment$[rbp+24], 1
; Line 241
	mov	DWORD PTR depthAttachment$[rbp+28], 0
; Line 242
	mov	DWORD PTR depthAttachment$[rbp+32], 3
; Line 244
	lea	rax, QWORD PTR depthAttachmentRef$[rbp]
	mov	rdi, rax
	xor	eax, eax
	mov	ecx, 8
	rep stosb
; Line 245
	mov	DWORD PTR depthAttachmentRef$[rbp], 1
; Line 246
	mov	DWORD PTR depthAttachmentRef$[rbp+4], 3
; Line 248
	lea	rax, QWORD PTR colorAttachment$[rbp]
	mov	rdi, rax
	xor	eax, eax
	mov	ecx, 36					; 00000024H
	rep stosb
; Line 249
	mov	rax, QWORD PTR this$[rbp]
	mov	eax, DWORD PTR [rax+8]
	mov	DWORD PTR colorAttachment$[rbp+4], eax
; Line 250
	mov	DWORD PTR colorAttachment$[rbp+8], 1
; Line 251
	mov	DWORD PTR colorAttachment$[rbp+12], 1
; Line 252
	mov	DWORD PTR colorAttachment$[rbp+16], 0
; Line 253
	mov	DWORD PTR colorAttachment$[rbp+24], 1
; Line 254
	mov	DWORD PTR colorAttachment$[rbp+20], 2
; Line 255
	mov	DWORD PTR colorAttachment$[rbp+28], 0
; Line 256
	mov	DWORD PTR colorAttachment$[rbp+32], 1000001002 ; 3b9acdeaH
; Line 258
	lea	rax, QWORD PTR colorAttachmentRef$[rbp]
	mov	rdi, rax
	xor	eax, eax
	mov	ecx, 8
	rep stosb
; Line 259
	mov	DWORD PTR colorAttachmentRef$[rbp], 0
; Line 260
	mov	DWORD PTR colorAttachmentRef$[rbp+4], 2
; Line 262
	lea	rax, QWORD PTR subpass$[rbp]
	mov	rdi, rax
	xor	eax, eax
	mov	ecx, 72					; 00000048H
	rep stosb
; Line 263
	mov	DWORD PTR subpass$[rbp+4], 0
; Line 264
	mov	DWORD PTR subpass$[rbp+24], 1
; Line 265
	lea	rax, QWORD PTR colorAttachmentRef$[rbp]
	mov	QWORD PTR subpass$[rbp+32], rax
; Line 266
	lea	rax, QWORD PTR depthAttachmentRef$[rbp]
	mov	QWORD PTR subpass$[rbp+48], rax
; Line 268
	lea	rax, QWORD PTR dependency$[rbp]
	mov	rdi, rax
	xor	eax, eax
	mov	ecx, 28
	rep stosb
; Line 269
	mov	DWORD PTR dependency$[rbp], -1		; ffffffffH
; Line 270
	mov	DWORD PTR dependency$[rbp+16], 256	; 00000100H
; Line 271
	mov	DWORD PTR dependency$[rbp+8], 1280	; 00000500H
; Line 273
	mov	DWORD PTR dependency$[rbp+4], 0
; Line 274
	mov	DWORD PTR dependency$[rbp+12], 1280	; 00000500H
; Line 276
	mov	DWORD PTR dependency$[rbp+20], 1280	; 00000500H
; Line 279
	lea	rax, QWORD PTR attachments$[rbp]
	lea	rcx, QWORD PTR colorAttachment$[rbp]
	mov	rdi, rax
	mov	rsi, rcx
	mov	ecx, 36					; 00000024H
	rep movsb
	lea	rax, QWORD PTR attachments$[rbp+36]
	lea	rcx, QWORD PTR depthAttachment$[rbp]
	mov	rdi, rax
	mov	rsi, rcx
	mov	ecx, 36					; 00000024H
	rep movsb
; Line 280
	lea	rax, QWORD PTR renderPassInfo$[rbp]
	mov	rdi, rax
	xor	eax, eax
	mov	ecx, 64					; 00000040H
	rep stosb
; Line 281
	mov	DWORD PTR renderPassInfo$[rbp], 38	; 00000026H
; Line 282
	lea	rcx, QWORD PTR attachments$[rbp]
	call	?size@?$array@UVkAttachmentDescription@@$01@std@@QEBA_KXZ ; std::array<VkAttachmentDescription,2>::size
	mov	DWORD PTR renderPassInfo$[rbp+20], eax
; Line 283
	lea	rcx, QWORD PTR attachments$[rbp]
	call	?data@?$array@UVkAttachmentDescription@@$01@std@@QEAAPEAUVkAttachmentDescription@@XZ ; std::array<VkAttachmentDescription,2>::data
	mov	QWORD PTR renderPassInfo$[rbp+24], rax
; Line 284
	mov	DWORD PTR renderPassInfo$[rbp+32], 1
; Line 285
	lea	rax, QWORD PTR subpass$[rbp]
	mov	QWORD PTR renderPassInfo$[rbp+40], rax
; Line 286
	mov	DWORD PTR renderPassInfo$[rbp+48], 1
; Line 287
	lea	rax, QWORD PTR dependency$[rbp]
	mov	QWORD PTR renderPassInfo$[rbp+56], rax
; Line 288
	mov	rax, QWORD PTR this$[rbp]
	add	rax, 64					; 00000040H
	mov	QWORD PTR tv271[rbp], rax
	mov	rcx, QWORD PTR this$[rbp]
	mov	rcx, QWORD PTR [rcx+152]
	call	?getDevice@Device@cow@@QEAAPEAUVkDevice_T@@XZ ; cow::Device::getDevice
	mov	rcx, QWORD PTR tv271[rbp]
	mov	r9, rcx
	xor	r8d, r8d
	lea	rdx, QWORD PTR renderPassInfo$[rbp]
	mov	rcx, rax
	call	vkCreateRenderPass
	test	eax, eax
	je	SHORT $LN12@createRend
; Line 290
	lea	rdx, OFFSET FLAT:??_C@_0BO@GGPPBLGH@failed?5to?5create?5render?5pass?$CB@
	lea	rcx, QWORD PTR $T32[rbp]
	call	??0runtime_error@std@@QEAA@PEBD@Z	; std::runtime_error::runtime_error
	lea	rdx, OFFSET FLAT:_TI2?AVruntime_error@std@@
	lea	rcx, QWORD PTR $T32[rbp]
	call	_CxxThrowException
$LN12@createRend:
; Line 293
	mov	rax, QWORD PTR this$[rbp]
	mov	eax, DWORD PTR [rax+56]
	mov	edx, 24
	mov	ecx, eax
	call	QWORD PTR __imp_calloc
	mov	rcx, QWORD PTR this$[rbp]
	mov	QWORD PTR [rcx+72], rax
; Line 295
	mov	QWORD PTR i$22[rbp], 0
	jmp	SHORT $LN7@createRend
$LN5@createRend:
	mov	rax, QWORD PTR i$22[rbp]
	inc	rax
	mov	QWORD PTR i$22[rbp], rax
$LN7@createRend:
	mov	rax, QWORD PTR this$[rbp]
	mov	eax, DWORD PTR [rax+56]
	cmp	QWORD PTR i$22[rbp], rax
	jae	$LN6@createRend
; Line 297
	lea	rax, QWORD PTR imageInfo$23[rbp]
	mov	rdi, rax
	xor	eax, eax
	mov	ecx, 88					; 00000058H
	rep stosb
; Line 298
	mov	DWORD PTR imageInfo$23[rbp], 14
; Line 299
	mov	DWORD PTR imageInfo$23[rbp+20], 1
; Line 300
	mov	rax, QWORD PTR this$[rbp]
	mov	eax, DWORD PTR [rax+12]
	mov	DWORD PTR imageInfo$23[rbp+28], eax
; Line 301
	mov	rax, QWORD PTR this$[rbp]
	mov	eax, DWORD PTR [rax+16]
	mov	DWORD PTR imageInfo$23[rbp+32], eax
; Line 302
	mov	DWORD PTR imageInfo$23[rbp+36], 1
; Line 303
	mov	DWORD PTR imageInfo$23[rbp+40], 1
; Line 304
	mov	DWORD PTR imageInfo$23[rbp+44], 1
; Line 305
	mov	eax, DWORD PTR depthFormat$[rbp]
	mov	DWORD PTR imageInfo$23[rbp+24], eax
; Line 306
	mov	DWORD PTR imageInfo$23[rbp+52], 0
; Line 307
	mov	DWORD PTR imageInfo$23[rbp+80], 0
; Line 308
	mov	DWORD PTR imageInfo$23[rbp+56], 32	; 00000020H
; Line 309
	mov	DWORD PTR imageInfo$23[rbp+48], 1
; Line 310
	mov	DWORD PTR imageInfo$23[rbp+60], 0
; Line 311
	mov	DWORD PTR imageInfo$23[rbp+16], 0
; Line 313
	imul	rax, QWORD PTR i$22[rbp], 24
	mov	rcx, QWORD PTR this$[rbp]
	mov	rcx, QWORD PTR [rcx+72]
	add	rcx, rax
	mov	rax, rcx
	mov	QWORD PTR tv384[rbp], rax
	mov	rax, QWORD PTR this$[rbp]
	mov	rcx, QWORD PTR [rax+152]
	call	?getDevice@Device@cow@@QEAAPEAUVkDevice_T@@XZ ; cow::Device::getDevice
	mov	QWORD PTR tv350[rbp], rax
	mov	r9, QWORD PTR tv384[rbp]
	xor	r8d, r8d
	lea	rdx, QWORD PTR imageInfo$23[rbp]
	mov	rcx, QWORD PTR tv350[rbp]
	call	vkCreateImage
	test	eax, eax
	je	SHORT $LN13@createRend
; Line 315
	lea	rdx, OFFSET FLAT:??_C@_0BI@JCMIBCDA@failed?5to?5create?5image?$CB@
	lea	rcx, QWORD PTR $T33[rbp]
	call	??0runtime_error@std@@QEAA@PEBD@Z	; std::runtime_error::runtime_error
	lea	rdx, OFFSET FLAT:_TI2?AVruntime_error@std@@
	lea	rcx, QWORD PTR $T33[rbp]
	call	_CxxThrowException
$LN13@createRend:
; Line 318
	imul	rax, QWORD PTR i$22[rbp], 24
	mov	rcx, QWORD PTR this$[rbp]
	mov	rcx, QWORD PTR [rcx+72]
	mov	rax, QWORD PTR [rcx+rax]
	mov	QWORD PTR tv403[rbp], rax
	mov	rax, QWORD PTR this$[rbp]
	mov	rcx, QWORD PTR [rax+152]
	call	?getDevice@Device@cow@@QEAAPEAUVkDevice_T@@XZ ; cow::Device::getDevice
	mov	QWORD PTR tv401[rbp], rax
	lea	r8, QWORD PTR memRequirements$24[rbp]
	mov	rdx, QWORD PTR tv403[rbp]
	mov	rcx, QWORD PTR tv401[rbp]
	call	vkGetImageMemoryRequirements
; Line 320
	lea	rax, QWORD PTR allocInfo$25[rbp]
	mov	rdi, rax
	xor	eax, eax
	mov	ecx, 32					; 00000020H
	rep stosb
; Line 321
	mov	DWORD PTR allocInfo$25[rbp], 5
; Line 322
	mov	rax, QWORD PTR memRequirements$24[rbp]
	mov	QWORD PTR allocInfo$25[rbp+16], rax
; Line 323
	mov	r8d, 1
	mov	edx, DWORD PTR memRequirements$24[rbp+16]
	mov	rcx, QWORD PTR this$[rbp]
	call	?findMemoryType@Swapchain@cow@@AEAAIII@Z ; cow::Swapchain::findMemoryType
	mov	DWORD PTR allocInfo$25[rbp+24], eax
; Line 324
	imul	rax, QWORD PTR i$22[rbp], 24
	mov	rcx, QWORD PTR this$[rbp]
	mov	rcx, QWORD PTR [rcx+72]
	lea	rax, QWORD PTR [rcx+rax+8]
	mov	rcx, QWORD PTR this$[rbp]
	mov	rcx, QWORD PTR [rcx+152]
	mov	r9, rax
	xor	r8d, r8d
	lea	rdx, QWORD PTR allocInfo$25[rbp]
	mov	rcx, QWORD PTR [rcx+24]
	call	vkAllocateMemory
	test	eax, eax
	je	SHORT $LN14@createRend
; Line 326
	lea	rdx, OFFSET FLAT:??_C@_0CB@MDMPALHA@failed?5to?5allocate?5image?5memory@
	lea	rcx, QWORD PTR $T34[rbp]
	call	??0runtime_error@std@@QEAA@PEBD@Z	; std::runtime_error::runtime_error
	lea	rdx, OFFSET FLAT:_TI2?AVruntime_error@std@@
	lea	rcx, QWORD PTR $T34[rbp]
	call	_CxxThrowException
$LN14@createRend:
; Line 328
	imul	rax, QWORD PTR i$22[rbp], 24
	mov	rcx, QWORD PTR this$[rbp]
	mov	rcx, QWORD PTR [rcx+72]
	imul	rdx, QWORD PTR i$22[rbp], 24
	mov	rdi, QWORD PTR this$[rbp]
	mov	rdi, QWORD PTR [rdi+72]
	mov	rsi, QWORD PTR this$[rbp]
	mov	rsi, QWORD PTR [rsi+152]
	xor	r9d, r9d
	mov	r8, QWORD PTR [rcx+rax+8]
	mov	rdx, QWORD PTR [rdi+rdx]
	mov	rcx, QWORD PTR [rsi+24]
	call	vkBindImageMemory
	test	eax, eax
	je	SHORT $LN15@createRend
; Line 330
	lea	rdx, OFFSET FLAT:??_C@_0BN@BFJFPHFL@failed?5to?5bind?5image?5memory?$CB@
	lea	rcx, QWORD PTR $T35[rbp]
	call	??0runtime_error@std@@QEAA@PEBD@Z	; std::runtime_error::runtime_error
	lea	rdx, OFFSET FLAT:_TI2?AVruntime_error@std@@
	lea	rcx, QWORD PTR $T35[rbp]
	call	_CxxThrowException
$LN15@createRend:
; Line 333
	lea	rax, QWORD PTR viewInfo$26[rbp]
	mov	rdi, rax
	xor	eax, eax
	mov	ecx, 80					; 00000050H
	rep stosb
; Line 334
	mov	DWORD PTR viewInfo$26[rbp], 15
; Line 335
	imul	rax, QWORD PTR i$22[rbp], 24
	mov	rcx, QWORD PTR this$[rbp]
	mov	rcx, QWORD PTR [rcx+72]
	mov	rax, QWORD PTR [rcx+rax]
	mov	QWORD PTR viewInfo$26[rbp+24], rax
; Line 336
	mov	DWORD PTR viewInfo$26[rbp+32], 1
; Line 337
	mov	eax, DWORD PTR depthFormat$[rbp]
	mov	DWORD PTR viewInfo$26[rbp+36], eax
; Line 338
	mov	DWORD PTR viewInfo$26[rbp+56], 2
; Line 339
	mov	DWORD PTR viewInfo$26[rbp+60], 0
; Line 340
	mov	DWORD PTR viewInfo$26[rbp+64], 1
; Line 341
	mov	DWORD PTR viewInfo$26[rbp+68], 0
; Line 342
	mov	DWORD PTR viewInfo$26[rbp+72], 1
; Line 344
	imul	rax, QWORD PTR i$22[rbp], 24
	mov	rcx, QWORD PTR this$[rbp]
	mov	rcx, QWORD PTR [rcx+72]
	lea	rax, QWORD PTR [rcx+rax+16]
	mov	QWORD PTR tv471[rbp], rax
	mov	rax, QWORD PTR this$[rbp]
	mov	rcx, QWORD PTR [rax+152]
	call	?getDevice@Device@cow@@QEAAPEAUVkDevice_T@@XZ ; cow::Device::getDevice
	mov	QWORD PTR tv469[rbp], rax
	mov	r9, QWORD PTR tv471[rbp]
	xor	r8d, r8d
	lea	rdx, QWORD PTR viewInfo$26[rbp]
	mov	rcx, QWORD PTR tv469[rbp]
	call	vkCreateImageView
	test	eax, eax
	je	SHORT $LN16@createRend
; Line 346
	lea	rdx, OFFSET FLAT:??_C@_0CF@NBFKCJOJ@failed?5to?5create?5texture?5image?5@
	lea	rcx, QWORD PTR $T36[rbp]
	call	??0runtime_error@std@@QEAA@PEBD@Z	; std::runtime_error::runtime_error
	lea	rdx, OFFSET FLAT:_TI2?AVruntime_error@std@@
	lea	rcx, QWORD PTR $T36[rbp]
	call	_CxxThrowException
$LN16@createRend:
; Line 348
	jmp	$LN5@createRend
$LN6@createRend:
; Line 351
	mov	rax, QWORD PTR this$[rbp]
	mov	eax, DWORD PTR [rax+56]
	mov	edx, 8
	mov	ecx, eax
	call	QWORD PTR __imp_calloc
	mov	rcx, QWORD PTR this$[rbp]
	mov	QWORD PTR [rcx+88], rax
; Line 353
	mov	QWORD PTR i$27[rbp], 0
	jmp	SHORT $LN10@createRend
$LN8@createRend:
	mov	rax, QWORD PTR i$27[rbp]
	inc	rax
	mov	QWORD PTR i$27[rbp], rax
$LN10@createRend:
	mov	rax, QWORD PTR this$[rbp]
	mov	eax, DWORD PTR [rax+56]
	cmp	QWORD PTR i$27[rbp], rax
	jae	$LN9@createRend
; Line 355
	mov	rax, QWORD PTR this$[rbp]
	mov	rax, QWORD PTR [rax+48]
	mov	rcx, QWORD PTR i$27[rbp]
	mov	rax, QWORD PTR [rax+rcx*8]
	mov	QWORD PTR attachments$28[rbp], rax
	imul	rax, QWORD PTR i$27[rbp], 24
	mov	rcx, QWORD PTR this$[rbp]
	mov	rcx, QWORD PTR [rcx+72]
	mov	rax, QWORD PTR [rcx+rax+16]
	mov	QWORD PTR attachments$28[rbp+8], rax
; Line 356
	mov	rax, QWORD PTR this$[rbp]
	mov	rax, QWORD PTR [rax+12]
	mov	QWORD PTR swapChainExtent$29[rbp], rax
; Line 357
	lea	rax, QWORD PTR framebufferInfo$30[rbp]
	mov	rdi, rax
	xor	eax, eax
	mov	ecx, 64					; 00000040H
	rep stosb
; Line 358
	mov	DWORD PTR framebufferInfo$30[rbp], 37	; 00000025H
; Line 359
	mov	rax, QWORD PTR this$[rbp]
	mov	rax, QWORD PTR [rax+64]
	mov	QWORD PTR framebufferInfo$30[rbp+24], rax
; Line 360
	lea	rcx, QWORD PTR attachments$28[rbp]
	call	?size@?$array@PEAUVkImageView_T@@$01@std@@QEBA_KXZ ; std::array<VkImageView_T *,2>::size
	mov	DWORD PTR framebufferInfo$30[rbp+32], eax
; Line 361
	lea	rcx, QWORD PTR attachments$28[rbp]
	call	?data@?$array@PEAUVkImageView_T@@$01@std@@QEAAPEAPEAUVkImageView_T@@XZ ; std::array<VkImageView_T *,2>::data
	mov	QWORD PTR framebufferInfo$30[rbp+40], rax
; Line 362
	mov	eax, DWORD PTR swapChainExtent$29[rbp]
	mov	DWORD PTR framebufferInfo$30[rbp+48], eax
; Line 363
	mov	eax, DWORD PTR swapChainExtent$29[rbp+4]
	mov	DWORD PTR framebufferInfo$30[rbp+52], eax
; Line 364
	mov	DWORD PTR framebufferInfo$30[rbp+56], 1
; Line 370
	mov	rax, QWORD PTR this$[rbp]
	mov	rax, QWORD PTR [rax+88]
	mov	rcx, QWORD PTR i$27[rbp]
	lea	rax, QWORD PTR [rax+rcx*8]
	mov	QWORD PTR tv587[rbp], rax
	mov	rax, QWORD PTR this$[rbp]
	mov	rcx, QWORD PTR [rax+152]
	call	?getDevice@Device@cow@@QEAAPEAUVkDevice_T@@XZ ; cow::Device::getDevice
	mov	QWORD PTR tv585[rbp], rax
	mov	r9, QWORD PTR tv587[rbp]
	xor	r8d, r8d
	lea	rdx, QWORD PTR framebufferInfo$30[rbp]
	mov	rcx, QWORD PTR tv585[rbp]
	call	vkCreateFramebuffer
	test	eax, eax
	je	SHORT $LN17@createRend
; Line 371
	lea	rdx, OFFSET FLAT:??_C@_0BO@BLGFKEIN@failed?5to?5create?5framebuffer?$CB@
	lea	rcx, QWORD PTR $T37[rbp]
	call	??0runtime_error@std@@QEAA@PEBD@Z	; std::runtime_error::runtime_error
	lea	rdx, OFFSET FLAT:_TI2?AVruntime_error@std@@
	lea	rcx, QWORD PTR $T37[rbp]
	call	_CxxThrowException
$LN17@createRend:
; Line 373
	jmp	$LN8@createRend
$LN9@createRend:
$LN18@createRend:
; Line 374
	lea	rcx, QWORD PTR [rbp-48]
	lea	rdx, OFFSET FLAT:?createRenderingObjects@Swapchain@cow@@AEAAXXZ$rtcFrameData
	call	_RTC_CheckStackVars
	mov	rcx, QWORD PTR __$ArrayPad$[rbp]
	xor	rcx, rbp
	call	__security_check_cookie
	lea	rsp, QWORD PTR [rbp+2512]
	pop	rdi
	pop	rsi
	pop	rbp
	ret	0
?createRenderingObjects@Swapchain@cow@@AEAAXXZ ENDP	; cow::Swapchain::createRenderingObjects
_TEXT	ENDS
; Function compile flags: /Odtp /RTCsu /ZI
;	COMDAT ?chooseExtent2D@Swapchain@cow@@AEAA?AUVkExtent2D@@AEBUVkSurfaceCapabilitiesKHR@@@Z
_TEXT	SEGMENT
actualExtent$ = 8
__$ArrayPad$ = 216
this$ = 256
__$ReturnUdt$ = 264
capabilities$ = 272
?chooseExtent2D@Swapchain@cow@@AEAA?AUVkExtent2D@@AEBUVkSurfaceCapabilitiesKHR@@@Z PROC ; cow::Swapchain::chooseExtent2D, COMDAT
; File C:\Users\anton\source\repos\GPU-VM\GPU-VM\Swapchain.cpp
; Line 182
$LN4:
	mov	QWORD PTR [rsp+24], r8
	mov	QWORD PTR [rsp+16], rdx
	mov	QWORD PTR [rsp+8], rcx
	push	rbp
	push	rdi
	sub	rsp, 264				; 00000108H
	lea	rbp, QWORD PTR [rsp+32]
	lea	rdi, QWORD PTR [rsp+32]
	mov	ecx, 10
	mov	eax, -858993460				; ccccccccH
	rep stosd
	mov	rcx, QWORD PTR [rsp+296]
	mov	rax, QWORD PTR __security_cookie
	xor	rax, rbp
	mov	QWORD PTR __$ArrayPad$[rbp], rax
	lea	rcx, OFFSET FLAT:__C27AF25F_Swapchain@cpp
	call	__CheckForDebuggerJustMyCode
; Line 183
	call	?max@?$numeric_limits@I@std@@SAIXZ	; std::numeric_limits<unsigned int>::max
	mov	rcx, QWORD PTR capabilities$[rbp]
	cmp	DWORD PTR [rcx+8], eax
	je	SHORT $LN2@chooseExte
; Line 184
	mov	rax, QWORD PTR capabilities$[rbp]
	mov	rax, QWORD PTR [rax+8]
	mov	rcx, QWORD PTR __$ReturnUdt$[rbp]
	mov	QWORD PTR [rcx], rax
	mov	rax, QWORD PTR __$ReturnUdt$[rbp]
	jmp	$LN1@chooseExte
$LN2@chooseExte:
; Line 187
	mov	rax, QWORD PTR this$[rbp]
	mov	rax, QWORD PTR [rax]
	mov	QWORD PTR actualExtent$[rbp], rax
; Line 189
	mov	rax, QWORD PTR capabilities$[rbp]
	add	rax, 24
	lea	rdx, QWORD PTR actualExtent$[rbp]
	mov	rcx, rax
	call	??$min@I@std@@YAAEBIAEBI0@Z		; std::min<unsigned int>
	mov	rcx, QWORD PTR capabilities$[rbp]
	add	rcx, 16
	mov	rdx, rax
	call	??$max@I@std@@YAAEBIAEBI0@Z		; std::max<unsigned int>
	mov	eax, DWORD PTR [rax]
	mov	DWORD PTR actualExtent$[rbp], eax
; Line 192
	mov	rax, QWORD PTR capabilities$[rbp]
	add	rax, 28
	lea	rdx, QWORD PTR actualExtent$[rbp+4]
	mov	rcx, rax
	call	??$min@I@std@@YAAEBIAEBI0@Z		; std::min<unsigned int>
	mov	rcx, QWORD PTR capabilities$[rbp]
	add	rcx, 20
	mov	rdx, rax
	call	??$max@I@std@@YAAEBIAEBI0@Z		; std::max<unsigned int>
	mov	eax, DWORD PTR [rax]
	mov	DWORD PTR actualExtent$[rbp+4], eax
; Line 196
	mov	rax, QWORD PTR __$ReturnUdt$[rbp]
	mov	rcx, QWORD PTR actualExtent$[rbp]
	mov	QWORD PTR [rax], rcx
	mov	rax, QWORD PTR __$ReturnUdt$[rbp]
$LN1@chooseExte:
; Line 197
	mov	rdi, rax
	lea	rcx, QWORD PTR [rbp-32]
	lea	rdx, OFFSET FLAT:?chooseExtent2D@Swapchain@cow@@AEAA?AUVkExtent2D@@AEBUVkSurfaceCapabilitiesKHR@@@Z$rtcFrameData
	call	_RTC_CheckStackVars
	mov	rax, rdi
	mov	rcx, QWORD PTR __$ArrayPad$[rbp]
	xor	rcx, rbp
	call	__security_check_cookie
	lea	rsp, QWORD PTR [rbp+232]
	pop	rdi
	pop	rbp
	ret	0
?chooseExtent2D@Swapchain@cow@@AEAA?AUVkExtent2D@@AEBUVkSurfaceCapabilitiesKHR@@@Z ENDP ; cow::Swapchain::chooseExtent2D
_TEXT	ENDS
; Function compile flags: /Odtp /RTCsu /ZI
;	COMDAT ?choosePresentModeKHR@Swapchain@cow@@AEAA?AW4VkPresentModeKHR@@PEAW43@I@Z
_TEXT	SEGMENT
i$1 = 8
i$2 = 40
this$ = 288
pPresentModes$ = 296
presentModeCount$ = 304
?choosePresentModeKHR@Swapchain@cow@@AEAA?AW4VkPresentModeKHR@@PEAW43@I@Z PROC ; cow::Swapchain::choosePresentModeKHR, COMDAT
; File C:\Users\anton\source\repos\GPU-VM\GPU-VM\Swapchain.cpp
; Line 146
$LN11:
	mov	DWORD PTR [rsp+24], r8d
	mov	QWORD PTR [rsp+16], rdx
	mov	QWORD PTR [rsp+8], rcx
	push	rbp
	push	rdi
	sub	rsp, 296				; 00000128H
	lea	rbp, QWORD PTR [rsp+32]
	lea	rcx, OFFSET FLAT:__C27AF25F_Swapchain@cpp
	call	__CheckForDebuggerJustMyCode
; Line 152
	mov	QWORD PTR i$1[rbp], 0
	jmp	SHORT $LN4@choosePres
$LN2@choosePres:
	mov	rax, QWORD PTR i$1[rbp]
	inc	rax
	mov	QWORD PTR i$1[rbp], rax
$LN4@choosePres:
	mov	eax, DWORD PTR presentModeCount$[rbp]
	cmp	QWORD PTR i$1[rbp], rax
	jae	SHORT $LN3@choosePres
; Line 154
	mov	rax, QWORD PTR pPresentModes$[rbp]
	mov	rcx, QWORD PTR i$1[rbp]
	cmp	DWORD PTR [rax+rcx*4], 1
	jne	SHORT $LN8@choosePres
; Line 157
	mov	rax, QWORD PTR pPresentModes$[rbp]
	mov	rcx, QWORD PTR i$1[rbp]
	mov	eax, DWORD PTR [rax+rcx*4]
	jmp	SHORT $LN1@choosePres
$LN8@choosePres:
; Line 159
	jmp	SHORT $LN2@choosePres
$LN3@choosePres:
; Line 165
	mov	QWORD PTR i$2[rbp], 0
	jmp	SHORT $LN7@choosePres
$LN5@choosePres:
	mov	rax, QWORD PTR i$2[rbp]
	inc	rax
	mov	QWORD PTR i$2[rbp], rax
$LN7@choosePres:
	mov	eax, DWORD PTR presentModeCount$[rbp]
	cmp	QWORD PTR i$2[rbp], rax
	jae	SHORT $LN6@choosePres
; Line 167
	mov	rax, QWORD PTR pPresentModes$[rbp]
	mov	rcx, QWORD PTR i$2[rbp]
	cmp	DWORD PTR [rax+rcx*4], 0
	jne	SHORT $LN9@choosePres
; Line 169
	mov	rax, QWORD PTR pPresentModes$[rbp]
	mov	rcx, QWORD PTR i$2[rbp]
	mov	eax, DWORD PTR [rax+rcx*4]
	jmp	SHORT $LN1@choosePres
$LN9@choosePres:
; Line 171
	jmp	SHORT $LN5@choosePres
$LN6@choosePres:
; Line 179
	mov	eax, 2
$LN1@choosePres:
; Line 180
	lea	rsp, QWORD PTR [rbp+264]
	pop	rdi
	pop	rbp
	ret	0
?choosePresentModeKHR@Swapchain@cow@@AEAA?AW4VkPresentModeKHR@@PEAW43@I@Z ENDP ; cow::Swapchain::choosePresentModeKHR
_TEXT	ENDS
; Function compile flags: /Odtp /RTCsu /ZI
;	COMDAT ?chooseSurfaceFormatKHR@Swapchain@cow@@AEAA?AUVkSurfaceFormatKHR@@PEAU3@I@Z
_TEXT	SEGMENT
i$1 = 8
this$ = 256
__$ReturnUdt$ = 264
pFormats$ = 272
formatCount$ = 280
?chooseSurfaceFormatKHR@Swapchain@cow@@AEAA?AUVkSurfaceFormatKHR@@PEAU3@I@Z PROC ; cow::Swapchain::chooseSurfaceFormatKHR, COMDAT
; File C:\Users\anton\source\repos\GPU-VM\GPU-VM\Swapchain.cpp
; Line 126
$LN7:
	mov	DWORD PTR [rsp+32], r9d
	mov	QWORD PTR [rsp+24], r8
	mov	QWORD PTR [rsp+16], rdx
	mov	QWORD PTR [rsp+8], rcx
	push	rbp
	push	rdi
	sub	rsp, 264				; 00000108H
	lea	rbp, QWORD PTR [rsp+32]
	lea	rcx, OFFSET FLAT:__C27AF25F_Swapchain@cpp
	call	__CheckForDebuggerJustMyCode
; Line 135
	mov	QWORD PTR i$1[rbp], 0
	jmp	SHORT $LN4@chooseSurf
$LN2@chooseSurf:
	mov	rax, QWORD PTR i$1[rbp]
	inc	rax
	mov	QWORD PTR i$1[rbp], rax
$LN4@chooseSurf:
	mov	eax, DWORD PTR formatCount$[rbp]
	cmp	QWORD PTR i$1[rbp], rax
	jae	SHORT $LN3@chooseSurf
; Line 138
	mov	rax, QWORD PTR pFormats$[rbp]
	mov	rcx, QWORD PTR i$1[rbp]
	cmp	DWORD PTR [rax+rcx*8], 50		; 00000032H
	jne	SHORT $LN5@chooseSurf
	mov	rax, QWORD PTR pFormats$[rbp]
	mov	rcx, QWORD PTR i$1[rbp]
	cmp	DWORD PTR [rax+rcx*8+4], 0
	jne	SHORT $LN5@chooseSurf
; Line 140
	mov	rax, QWORD PTR pFormats$[rbp]
	mov	rcx, QWORD PTR i$1[rbp]
	mov	rax, QWORD PTR [rax+rcx*8]
	mov	rcx, QWORD PTR __$ReturnUdt$[rbp]
	mov	QWORD PTR [rcx], rax
	mov	rax, QWORD PTR __$ReturnUdt$[rbp]
	jmp	SHORT $LN1@chooseSurf
$LN5@chooseSurf:
; Line 142
	jmp	SHORT $LN2@chooseSurf
$LN3@chooseSurf:
; Line 143
	mov	eax, 8
	imul	rax, rax, 0
	mov	rcx, QWORD PTR pFormats$[rbp]
	mov	rax, QWORD PTR [rcx+rax]
	mov	rcx, QWORD PTR __$ReturnUdt$[rbp]
	mov	QWORD PTR [rcx], rax
	mov	rax, QWORD PTR __$ReturnUdt$[rbp]
$LN1@chooseSurf:
; Line 144
	lea	rsp, QWORD PTR [rbp+232]
	pop	rdi
	pop	rbp
	ret	0
?chooseSurfaceFormatKHR@Swapchain@cow@@AEAA?AUVkSurfaceFormatKHR@@PEAU3@I@Z ENDP ; cow::Swapchain::chooseSurfaceFormatKHR
_TEXT	ENDS
; Function compile flags: /Odtp /RTCsu /ZI
;	COMDAT ?createSwapchain@Swapchain@cow@@AEAAXXZ
_TEXT	SEGMENT
swapChainSupport$ = 16
surfaceFormat$ = 168
presentMode$ = 196
windowExtent$ = 232
imageCount$ = 260
createInfo$ = 304
indices$ = 440
queueFamilyIndices$ = 488
$T9 = 904
tv131 = 932
tv87 = 932
tv219 = 936
tv201 = 936
tv152 = 936
tv129 = 936
tv85 = 936
tv72 = 936
__$ArrayPad$ = 944
this$ = 992
?createSwapchain@Swapchain@cow@@AEAAXXZ PROC		; cow::Swapchain::createSwapchain, COMDAT
; File C:\Users\anton\source\repos\GPU-VM\GPU-VM\Swapchain.cpp
; Line 61
$LN11:
	mov	QWORD PTR [rsp+8], rcx
	push	rbp
	push	rdi
	sub	rsp, 1000				; 000003e8H
	lea	rbp, QWORD PTR [rsp+32]
	lea	rdi, QWORD PTR [rsp+32]
	mov	ecx, 146				; 00000092H
	mov	eax, -858993460				; ccccccccH
	rep stosd
	mov	rcx, QWORD PTR [rsp+1032]
	mov	rax, QWORD PTR __security_cookie
	xor	rax, rbp
	mov	QWORD PTR __$ArrayPad$[rbp], rax
	lea	rcx, OFFSET FLAT:__C27AF25F_Swapchain@cpp
	call	__CheckForDebuggerJustMyCode
; Line 62
	mov	rax, QWORD PTR this$[rbp]
	mov	rax, QWORD PTR [rax+152]
	mov	QWORD PTR tv72[rbp], rax
	mov	rax, QWORD PTR this$[rbp]
	mov	rax, QWORD PTR [rax+152]
	mov	r8, QWORD PTR [rax+16]
	lea	rdx, QWORD PTR swapChainSupport$[rbp]
	mov	rcx, QWORD PTR tv72[rbp]
	call	?querySwapChainSupport@Device@cow@@AEAA?AUSwapChainSupportDetails@2@PEAUVkPhysicalDevice_T@@@Z ; cow::Device::querySwapChainSupport
	npad	1
; Line 64
	lea	rcx, QWORD PTR swapChainSupport$[rbp+56]
	call	?size@?$vector@UVkSurfaceFormatKHR@@V?$allocator@UVkSurfaceFormatKHR@@@std@@@std@@QEBA_KXZ ; std::vector<VkSurfaceFormatKHR,std::allocator<VkSurfaceFormatKHR> >::size
	mov	DWORD PTR tv87[rbp], eax
	lea	rcx, QWORD PTR swapChainSupport$[rbp+56]
	call	?data@?$vector@UVkSurfaceFormatKHR@@V?$allocator@UVkSurfaceFormatKHR@@@std@@@std@@QEAAPEAUVkSurfaceFormatKHR@@XZ ; std::vector<VkSurfaceFormatKHR,std::allocator<VkSurfaceFormatKHR> >::data
	mov	QWORD PTR tv85[rbp], rax
	mov	r9d, DWORD PTR tv87[rbp]
	mov	r8, QWORD PTR tv85[rbp]
	lea	rdx, QWORD PTR surfaceFormat$[rbp]
	mov	rcx, QWORD PTR this$[rbp]
	call	?chooseSurfaceFormatKHR@Swapchain@cow@@AEAA?AUVkSurfaceFormatKHR@@PEAU3@I@Z ; cow::Swapchain::chooseSurfaceFormatKHR
; Line 68
	lea	rcx, QWORD PTR swapChainSupport$[rbp+88]
	call	?size@?$vector@W4VkPresentModeKHR@@V?$allocator@W4VkPresentModeKHR@@@std@@@std@@QEBA_KXZ ; std::vector<enum VkPresentModeKHR,std::allocator<enum VkPresentModeKHR> >::size
	mov	DWORD PTR tv131[rbp], eax
	lea	rcx, QWORD PTR swapChainSupport$[rbp+88]
	call	?data@?$vector@W4VkPresentModeKHR@@V?$allocator@W4VkPresentModeKHR@@@std@@@std@@QEAAPEAW4VkPresentModeKHR@@XZ ; std::vector<enum VkPresentModeKHR,std::allocator<enum VkPresentModeKHR> >::data
	mov	QWORD PTR tv129[rbp], rax
	mov	r8d, DWORD PTR tv131[rbp]
	mov	rdx, QWORD PTR tv129[rbp]
	mov	rcx, QWORD PTR this$[rbp]
	call	?choosePresentModeKHR@Swapchain@cow@@AEAA?AW4VkPresentModeKHR@@PEAW43@I@Z ; cow::Swapchain::choosePresentModeKHR
	mov	DWORD PTR presentMode$[rbp], eax
; Line 72
	lea	r8, QWORD PTR swapChainSupport$[rbp]
	lea	rdx, QWORD PTR windowExtent$[rbp]
	mov	rcx, QWORD PTR this$[rbp]
	call	?chooseExtent2D@Swapchain@cow@@AEAA?AUVkExtent2D@@AEBUVkSurfaceCapabilitiesKHR@@@Z ; cow::Swapchain::chooseExtent2D
; Line 75
	mov	eax, DWORD PTR swapChainSupport$[rbp]
	inc	eax
	mov	DWORD PTR imageCount$[rbp], eax
; Line 76
	cmp	DWORD PTR swapChainSupport$[rbp+4], 0
	jbe	SHORT $LN2@createSwap
	mov	eax, DWORD PTR swapChainSupport$[rbp+4]
	cmp	DWORD PTR imageCount$[rbp], eax
	jbe	SHORT $LN2@createSwap
; Line 78
	mov	eax, DWORD PTR swapChainSupport$[rbp+4]
	mov	DWORD PTR imageCount$[rbp], eax
$LN2@createSwap:
; Line 81
	lea	rax, QWORD PTR createInfo$[rbp]
	mov	rdi, rax
	xor	eax, eax
	mov	ecx, 104				; 00000068H
	rep stosb
; Line 82
	mov	DWORD PTR createInfo$[rbp], 1000001000	; 3b9acde8H
; Line 83
	mov	QWORD PTR createInfo$[rbp+8], 0
; Line 84
	mov	DWORD PTR createInfo$[rbp+16], 0
; Line 85
	mov	rax, QWORD PTR this$[rbp]
	mov	rax, QWORD PTR [rax+152]
	mov	rax, QWORD PTR [rax+8]
	mov	QWORD PTR createInfo$[rbp+24], rax
; Line 86
	mov	eax, DWORD PTR imageCount$[rbp]
	mov	DWORD PTR createInfo$[rbp+32], eax
; Line 88
	mov	eax, DWORD PTR surfaceFormat$[rbp]
	mov	DWORD PTR createInfo$[rbp+36], eax
; Line 89
	mov	eax, DWORD PTR surfaceFormat$[rbp+4]
	mov	DWORD PTR createInfo$[rbp+40], eax
; Line 90
	mov	rax, QWORD PTR windowExtent$[rbp]
	mov	QWORD PTR createInfo$[rbp+44], rax
; Line 92
	mov	DWORD PTR createInfo$[rbp+52], 1
; Line 93
	mov	DWORD PTR createInfo$[rbp+56], 16
; Line 95
	mov	rax, QWORD PTR this$[rbp]
	mov	rax, QWORD PTR [rax+152]
	mov	QWORD PTR tv152[rbp], rax
	mov	rax, QWORD PTR this$[rbp]
	mov	rax, QWORD PTR [rax+152]
	mov	r8, QWORD PTR [rax+16]
	lea	rdx, QWORD PTR indices$[rbp]
	mov	rcx, QWORD PTR tv152[rbp]
	call	?findQueues@Device@cow@@AEAA?AUQueueInUse@2@PEAUVkPhysicalDevice_T@@@Z ; cow::Device::findQueues
; Line 96
	lea	rcx, QWORD PTR indices$[rbp]
	call	??D?$_Optional_construct_base@I@std@@QEGAAAEAIXZ ; std::_Optional_construct_base<unsigned int>::operator*
	mov	eax, DWORD PTR [rax]
	mov	DWORD PTR queueFamilyIndices$[rbp], eax
	lea	rcx, QWORD PTR indices$[rbp+8]
	call	??D?$_Optional_construct_base@I@std@@QEGAAAEAIXZ ; std::_Optional_construct_base<unsigned int>::operator*
	mov	eax, DWORD PTR [rax]
	mov	DWORD PTR queueFamilyIndices$[rbp+4], eax
; Line 98
	lea	rcx, QWORD PTR indices$[rbp]
	call	??D?$_Optional_construct_base@I@std@@QEGAAAEAIXZ ; std::_Optional_construct_base<unsigned int>::operator*
	mov	QWORD PTR tv201[rbp], rax
	lea	rcx, QWORD PTR indices$[rbp+8]
	call	??D?$_Optional_construct_base@I@std@@QEGAAAEAIXZ ; std::_Optional_construct_base<unsigned int>::operator*
	mov	eax, DWORD PTR [rax]
	mov	rcx, QWORD PTR tv201[rbp]
	cmp	DWORD PTR [rcx], eax
	je	SHORT $LN3@createSwap
; Line 100
	mov	DWORD PTR createInfo$[rbp+60], 1
; Line 101
	mov	DWORD PTR createInfo$[rbp+64], 2
; Line 102
	lea	rax, QWORD PTR queueFamilyIndices$[rbp]
	mov	QWORD PTR createInfo$[rbp+72], rax
; Line 103
	jmp	SHORT $LN4@createSwap
$LN3@createSwap:
; Line 106
	mov	DWORD PTR createInfo$[rbp+60], 0
; Line 107
	mov	DWORD PTR createInfo$[rbp+64], 0
; Line 108
	mov	QWORD PTR createInfo$[rbp+72], 0
$LN4@createSwap:
; Line 110
	mov	eax, DWORD PTR swapChainSupport$[rbp+40]
	mov	DWORD PTR createInfo$[rbp+80], eax
; Line 111
	mov	DWORD PTR createInfo$[rbp+84], 1
; Line 113
	mov	eax, DWORD PTR presentMode$[rbp]
	mov	DWORD PTR createInfo$[rbp+88], eax
; Line 114
	mov	DWORD PTR createInfo$[rbp+92], 1
; Line 116
	mov	rax, QWORD PTR this$[rbp]
	add	rax, 136				; 00000088H
	xor	edx, edx
	mov	rcx, rax
	call	??$?8VSwapchain@cow@@@std@@YA_NAEBV?$shared_ptr@VSwapchain@cow@@@0@$$T@Z ; std::operator==<cow::Swapchain>
	movzx	eax, al
	test	eax, eax
	je	SHORT $LN7@createSwap
	mov	QWORD PTR tv219[rbp], 0
	jmp	SHORT $LN8@createSwap
$LN7@createSwap:
	mov	rax, QWORD PTR this$[rbp]
	add	rax, 136				; 00000088H
	mov	rcx, rax
	call	??$?CVSwapchain@cow@@$0A@@?$shared_ptr@VSwapchain@cow@@@std@@QEBAPEAVSwapchain@cow@@XZ ; std::shared_ptr<cow::Swapchain>::operator-><cow::Swapchain,0>
	mov	rax, QWORD PTR [rax+32]
	mov	QWORD PTR tv219[rbp], rax
$LN8@createSwap:
	mov	rax, QWORD PTR tv219[rbp]
	mov	QWORD PTR createInfo$[rbp+96], rax
; Line 118
	mov	rax, QWORD PTR this$[rbp]
	add	rax, 32					; 00000020H
	mov	rcx, QWORD PTR this$[rbp]
	mov	rcx, QWORD PTR [rcx+152]
	mov	r9, rax
	xor	r8d, r8d
	lea	rdx, QWORD PTR createInfo$[rbp]
	mov	rcx, QWORD PTR [rcx+24]
	call	vkCreateSwapchainKHR
	test	eax, eax
	je	SHORT $LN5@createSwap
; Line 120
	lea	rdx, OFFSET FLAT:??_C@_0BN@JPMJIOML@failed?5to?5create?5swap?5chain?$CB@
	lea	rcx, QWORD PTR $T9[rbp]
	call	??0runtime_error@std@@QEAA@PEBD@Z	; std::runtime_error::runtime_error
	lea	rdx, OFFSET FLAT:_TI2?AVruntime_error@std@@
	lea	rcx, QWORD PTR $T9[rbp]
	call	_CxxThrowException
$LN5@createSwap:
; Line 122
	mov	rax, QWORD PTR this$[rbp]
	mov	ecx, DWORD PTR surfaceFormat$[rbp]
	mov	DWORD PTR [rax+8], ecx
; Line 123
	mov	rax, QWORD PTR this$[rbp]
	mov	rcx, QWORD PTR windowExtent$[rbp]
	mov	QWORD PTR [rax+12], rcx
; Line 124
	lea	rcx, QWORD PTR swapChainSupport$[rbp]
	call	??1SwapChainSupportDetails@cow@@QEAA@XZ
	lea	rcx, QWORD PTR [rbp-32]
	lea	rdx, OFFSET FLAT:?createSwapchain@Swapchain@cow@@AEAAXXZ$rtcFrameData
	call	_RTC_CheckStackVars
	mov	rcx, QWORD PTR __$ArrayPad$[rbp]
	xor	rcx, rbp
	call	__security_check_cookie
	lea	rsp, QWORD PTR [rbp+968]
	pop	rdi
	pop	rbp
	ret	0
$LN10@createSwap:
?createSwapchain@Swapchain@cow@@AEAAXXZ ENDP		; cow::Swapchain::createSwapchain
_TEXT	ENDS
; Function compile flags: /Odtp /RTCsu /ZI
;	COMDAT text$x
text$x	SEGMENT
swapChainSupport$ = 16
surfaceFormat$ = 168
presentMode$ = 196
windowExtent$ = 232
imageCount$ = 260
createInfo$ = 304
indices$ = 440
queueFamilyIndices$ = 488
$T9 = 904
tv131 = 932
tv87 = 932
tv219 = 936
tv201 = 936
tv152 = 936
tv129 = 936
tv85 = 936
tv72 = 936
__$ArrayPad$ = 944
this$ = 992
?dtor$0@?0??createSwapchain@Swapchain@cow@@AEAAXXZ@4HA PROC ; `cow::Swapchain::createSwapchain'::`1'::dtor$0
	mov	QWORD PTR [rsp+8], rcx
	mov	QWORD PTR [rsp+16], rdx
	push	rbp
	push	rdi
	sub	rsp, 40					; 00000028H
	lea	rbp, QWORD PTR [rdx+32]
	lea	rcx, QWORD PTR swapChainSupport$[rbp]
	call	??1SwapChainSupportDetails@cow@@QEAA@XZ
	add	rsp, 40					; 00000028H
	pop	rdi
	pop	rbp
	ret	0
?dtor$0@?0??createSwapchain@Swapchain@cow@@AEAAXXZ@4HA ENDP ; `cow::Swapchain::createSwapchain'::`1'::dtor$0
text$x	ENDS
; Function compile flags: /Odtp /RTCsu /ZI
;	COMDAT ?submit@Swapchain@cow@@QEAA?AW4VkResult@@PEBQEAUVkCommandBuffer_T@@PEAI@Z
_TEXT	SEGMENT
submitInfo$ = 16
waitSemaphores$ = 120
waitStages$ = 148
signalSemaphores$ = 184
presentInfo$ = 224
swapChains$ = 312
result$ = 340
$T9 = 568
tv189 = 600
tv155 = 600
tv85 = 600
tv153 = 608
tv83 = 608
__$ArrayPad$ = 616
this$ = 656
buffers$ = 664
imageIndex$ = 672
?submit@Swapchain@cow@@QEAA?AW4VkResult@@PEBQEAUVkCommandBuffer_T@@PEAI@Z PROC ; cow::Swapchain::submit, COMDAT
; File C:\Users\anton\source\repos\GPU-VM\GPU-VM\Swapchain.cpp
; Line 435
$LN5:
	mov	QWORD PTR [rsp+24], r8
	mov	QWORD PTR [rsp+16], rdx
	mov	QWORD PTR [rsp+8], rcx
	push	rbp
	push	rdi
	sub	rsp, 680				; 000002a8H
	lea	rbp, QWORD PTR [rsp+48]
	lea	rdi, QWORD PTR [rsp+48]
	mov	ecx, 110				; 0000006eH
	mov	eax, -858993460				; ccccccccH
	rep stosd
	mov	rcx, QWORD PTR [rsp+712]
	mov	rax, QWORD PTR __security_cookie
	xor	rax, rbp
	mov	QWORD PTR __$ArrayPad$[rbp], rax
	lea	rcx, OFFSET FLAT:__C27AF25F_Swapchain@cpp
	call	__CheckForDebuggerJustMyCode
; Line 437
	mov	rax, QWORD PTR imageIndex$[rbp]
	mov	eax, DWORD PTR [rax]
	mov	rcx, QWORD PTR this$[rbp]
	mov	rcx, QWORD PTR [rcx+112]
	cmp	QWORD PTR [rcx+rax*8], 0
	je	SHORT $LN2@submit
; Line 438
	mov	rax, QWORD PTR imageIndex$[rbp]
	mov	eax, DWORD PTR [rax]
	mov	rcx, QWORD PTR this$[rbp]
	mov	rcx, QWORD PTR [rcx+112]
	lea	rax, QWORD PTR [rcx+rax*8]
	mov	QWORD PTR tv85[rbp], rax
	mov	rax, QWORD PTR this$[rbp]
	mov	rcx, QWORD PTR [rax+152]
	call	?getDevice@Device@cow@@QEAAPEAUVkDevice_T@@XZ ; cow::Device::getDevice
	mov	QWORD PTR tv83[rbp], rax
	mov	QWORD PTR [rsp+32], -1
	mov	r9d, 1
	mov	r8, QWORD PTR tv85[rbp]
	mov	edx, 1
	mov	rcx, QWORD PTR tv83[rbp]
	call	vkWaitForFences
$LN2@submit:
; Line 440
	mov	rax, QWORD PTR this$[rbp]
	mov	rax, QWORD PTR [rax+24]
	mov	rcx, QWORD PTR this$[rbp]
	mov	rcx, QWORD PTR [rcx+104]
	mov	rdx, QWORD PTR imageIndex$[rbp]
	mov	edx, DWORD PTR [rdx]
	mov	r8, QWORD PTR this$[rbp]
	mov	r8, QWORD PTR [r8+112]
	mov	rax, QWORD PTR [rcx+rax*8]
	mov	QWORD PTR [r8+rdx*8], rax
; Line 442
	lea	rax, QWORD PTR submitInfo$[rbp]
	mov	rdi, rax
	xor	eax, eax
	mov	ecx, 72					; 00000048H
	rep stosb
; Line 443
	mov	DWORD PTR submitInfo$[rbp], 4
; Line 445
	mov	rax, QWORD PTR this$[rbp]
	mov	rax, QWORD PTR [rax+24]
	mov	rcx, QWORD PTR this$[rbp]
	mov	rcx, QWORD PTR [rcx+128]
	mov	rax, QWORD PTR [rcx+rax*8]
	mov	QWORD PTR waitSemaphores$[rbp], rax
; Line 446
	mov	DWORD PTR waitStages$[rbp], 1024	; 00000400H
; Line 447
	mov	DWORD PTR submitInfo$[rbp+16], 1
; Line 448
	lea	rax, QWORD PTR waitSemaphores$[rbp]
	mov	QWORD PTR submitInfo$[rbp+24], rax
; Line 449
	lea	rax, QWORD PTR waitStages$[rbp]
	mov	QWORD PTR submitInfo$[rbp+32], rax
; Line 451
	mov	DWORD PTR submitInfo$[rbp+40], 1
; Line 452
	mov	rax, QWORD PTR buffers$[rbp]
	mov	QWORD PTR submitInfo$[rbp+48], rax
; Line 454
	mov	rax, QWORD PTR this$[rbp]
	mov	rax, QWORD PTR [rax+24]
	mov	rcx, QWORD PTR this$[rbp]
	mov	rcx, QWORD PTR [rcx+120]
	mov	rax, QWORD PTR [rcx+rax*8]
	mov	QWORD PTR signalSemaphores$[rbp], rax
; Line 455
	mov	DWORD PTR submitInfo$[rbp+56], 1
; Line 456
	lea	rax, QWORD PTR signalSemaphores$[rbp]
	mov	QWORD PTR submitInfo$[rbp+64], rax
; Line 457
	mov	rax, QWORD PTR this$[rbp]
	mov	rax, QWORD PTR [rax+24]
	mov	rcx, QWORD PTR this$[rbp]
	mov	rcx, QWORD PTR [rcx+104]
	lea	rax, QWORD PTR [rcx+rax*8]
	mov	QWORD PTR tv155[rbp], rax
	mov	rax, QWORD PTR this$[rbp]
	mov	rcx, QWORD PTR [rax+152]
	call	?getDevice@Device@cow@@QEAAPEAUVkDevice_T@@XZ ; cow::Device::getDevice
	mov	QWORD PTR tv153[rbp], rax
	mov	r8, QWORD PTR tv155[rbp]
	mov	edx, 1
	mov	rcx, QWORD PTR tv153[rbp]
	call	vkResetFences
; Line 458
	mov	rax, QWORD PTR this$[rbp]
	mov	rax, QWORD PTR [rax+24]
	mov	rcx, QWORD PTR this$[rbp]
	mov	rcx, QWORD PTR [rcx+104]
	mov	rdx, QWORD PTR this$[rbp]
	mov	rdx, QWORD PTR [rdx+152]
	mov	QWORD PTR tv189[rbp], rdx
	mov	r9, QWORD PTR [rcx+rax*8]
	lea	r8, QWORD PTR submitInfo$[rbp]
	mov	edx, 1
	mov	rax, QWORD PTR tv189[rbp]
	mov	rcx, QWORD PTR [rax+40]
	call	vkQueueSubmit
	test	eax, eax
	je	SHORT $LN3@submit
; Line 460
	lea	rdx, OFFSET FLAT:??_C@_0CG@BHENODHP@failed?5to?5submit?5draw?5command?5b@
	lea	rcx, QWORD PTR $T9[rbp]
	call	??0runtime_error@std@@QEAA@PEBD@Z	; std::runtime_error::runtime_error
	lea	rdx, OFFSET FLAT:_TI2?AVruntime_error@std@@
	lea	rcx, QWORD PTR $T9[rbp]
	call	_CxxThrowException
$LN3@submit:
; Line 463
	lea	rax, QWORD PTR presentInfo$[rbp]
	mov	rdi, rax
	xor	eax, eax
	mov	ecx, 64					; 00000040H
	rep stosb
; Line 464
	mov	DWORD PTR presentInfo$[rbp], 1000001001	; 3b9acde9H
; Line 466
	mov	DWORD PTR presentInfo$[rbp+16], 1
; Line 467
	lea	rax, QWORD PTR signalSemaphores$[rbp]
	mov	QWORD PTR presentInfo$[rbp+24], rax
; Line 469
	mov	rax, QWORD PTR this$[rbp]
	mov	rax, QWORD PTR [rax+32]
	mov	QWORD PTR swapChains$[rbp], rax
; Line 470
	mov	DWORD PTR presentInfo$[rbp+32], 1
; Line 471
	lea	rax, QWORD PTR swapChains$[rbp]
	mov	QWORD PTR presentInfo$[rbp+40], rax
; Line 473
	mov	rax, QWORD PTR imageIndex$[rbp]
	mov	QWORD PTR presentInfo$[rbp+48], rax
; Line 475
	mov	rax, QWORD PTR this$[rbp]
	mov	rax, QWORD PTR [rax+152]
	lea	rdx, QWORD PTR presentInfo$[rbp]
	mov	rcx, QWORD PTR [rax+48]
	call	vkQueuePresentKHR
	mov	DWORD PTR result$[rbp], eax
; Line 477
	mov	rax, QWORD PTR this$[rbp]
	mov	rax, QWORD PTR [rax+24]
	inc	rax
	xor	edx, edx
	mov	ecx, 2
	div	rcx
	mov	rax, rdx
	mov	rcx, QWORD PTR this$[rbp]
	mov	QWORD PTR [rcx+24], rax
; Line 479
	mov	eax, DWORD PTR result$[rbp]
$LN4@submit:
; Line 480
	mov	rdi, rax
	lea	rcx, QWORD PTR [rbp-48]
	lea	rdx, OFFSET FLAT:?submit@Swapchain@cow@@QEAA?AW4VkResult@@PEBQEAUVkCommandBuffer_T@@PEAI@Z$rtcFrameData
	call	_RTC_CheckStackVars
	mov	rax, rdi
	mov	rcx, QWORD PTR __$ArrayPad$[rbp]
	xor	rcx, rbp
	call	__security_check_cookie
	lea	rsp, QWORD PTR [rbp+632]
	pop	rdi
	pop	rbp
	ret	0
?submit@Swapchain@cow@@QEAA?AW4VkResult@@PEBQEAUVkCommandBuffer_T@@PEAI@Z ENDP ; cow::Swapchain::submit
_TEXT	ENDS
; Function compile flags: /Odtp /RTCsu /ZI
;	COMDAT ?nextImage@Swapchain@cow@@QEAA?AW4VkResult@@PEAI@Z
_TEXT	SEGMENT
tv140 = 192
tv84 = 192
tv138 = 200
tv82 = 200
tv136 = 208
tv80 = 208
tv134 = 216
this$ = 256
imageIndex$ = 264
?nextImage@Swapchain@cow@@QEAA?AW4VkResult@@PEAI@Z PROC	; cow::Swapchain::nextImage, COMDAT
; File C:\Users\anton\source\repos\GPU-VM\GPU-VM\Swapchain.cpp
; Line 416
$LN3:
	mov	QWORD PTR [rsp+16], rdx
	mov	QWORD PTR [rsp+8], rcx
	push	rbp
	push	rdi
	sub	rsp, 280				; 00000118H
	lea	rbp, QWORD PTR [rsp+48]
	lea	rcx, OFFSET FLAT:__C27AF25F_Swapchain@cpp
	call	__CheckForDebuggerJustMyCode
; Line 417
	call	?max@?$numeric_limits@_K@std@@SA_KXZ	; std::numeric_limits<unsigned __int64>::max
	mov	QWORD PTR tv84[rbp], rax
	mov	rax, QWORD PTR this$[rbp]
	mov	rax, QWORD PTR [rax+24]
	mov	rcx, QWORD PTR this$[rbp]
	mov	rcx, QWORD PTR [rcx+104]
	lea	rax, QWORD PTR [rcx+rax*8]
	mov	QWORD PTR tv82[rbp], rax
	mov	rax, QWORD PTR this$[rbp]
	mov	rcx, QWORD PTR [rax+152]
	call	?getDevice@Device@cow@@QEAAPEAUVkDevice_T@@XZ ; cow::Device::getDevice
	mov	QWORD PTR tv80[rbp], rax
	mov	rax, QWORD PTR tv84[rbp]
	mov	QWORD PTR [rsp+32], rax
	mov	r9d, 1
	mov	r8, QWORD PTR tv82[rbp]
	mov	edx, 1
	mov	rcx, QWORD PTR tv80[rbp]
	call	vkWaitForFences
; Line 424
	mov	rax, QWORD PTR this$[rbp]
	mov	rax, QWORD PTR [rax+24]
	mov	rcx, QWORD PTR this$[rbp]
	mov	rcx, QWORD PTR [rcx+128]
	mov	rax, QWORD PTR [rcx+rax*8]
	mov	QWORD PTR tv140[rbp], rax
	call	?max@?$numeric_limits@_K@std@@SA_KXZ	; std::numeric_limits<unsigned __int64>::max
	mov	QWORD PTR tv138[rbp], rax
	mov	rax, QWORD PTR this$[rbp]
	mov	rax, QWORD PTR [rax+32]
	mov	QWORD PTR tv136[rbp], rax
	mov	rax, QWORD PTR this$[rbp]
	mov	rcx, QWORD PTR [rax+152]
	call	?getDevice@Device@cow@@QEAAPEAUVkDevice_T@@XZ ; cow::Device::getDevice
	mov	QWORD PTR tv134[rbp], rax
	mov	rax, QWORD PTR imageIndex$[rbp]
	mov	QWORD PTR [rsp+40], rax
	mov	QWORD PTR [rsp+32], 0
	mov	r9, QWORD PTR tv140[rbp]
	mov	r8, QWORD PTR tv138[rbp]
	mov	rdx, QWORD PTR tv136[rbp]
	mov	rcx, QWORD PTR tv134[rbp]
	call	vkAcquireNextImageKHR
; Line 431
	lea	rsp, QWORD PTR [rbp+232]
	pop	rdi
	pop	rbp
	ret	0
?nextImage@Swapchain@cow@@QEAA?AW4VkResult@@PEAI@Z ENDP	; cow::Swapchain::nextImage
_TEXT	ENDS
; Function compile flags: /Odtp /RTCsu /ZI
;	COMDAT ??1Swapchain@cow@@QEAA@XZ
_TEXT	SEGMENT
i$1 = 8
i$2 = 40
tv250 = 248
tv239 = 248
tv210 = 248
tv197 = 248
tv184 = 248
tv169 = 248
tv156 = 248
tv142 = 248
tv128 = 248
tv82 = 248
tv248 = 256
tv237 = 256
tv208 = 256
tv195 = 256
tv182 = 256
tv167 = 256
tv154 = 256
tv140 = 256
tv94 = 256
tv80 = 256
this$ = 304
??1Swapchain@cow@@QEAA@XZ PROC				; cow::Swapchain::~Swapchain, COMDAT
; File C:\Users\anton\source\repos\GPU-VM\GPU-VM\Swapchain.cpp
; Line 22
$LN10:
	mov	QWORD PTR [rsp+8], rcx
	push	rbp
	push	rdi
	sub	rsp, 312				; 00000138H
	lea	rbp, QWORD PTR [rsp+32]
	lea	rcx, OFFSET FLAT:__C27AF25F_Swapchain@cpp
	call	__CheckForDebuggerJustMyCode
; Line 24
	mov	QWORD PTR i$1[rbp], 0
	jmp	SHORT $LN4@Swapchain
$LN2@Swapchain:
	mov	rax, QWORD PTR i$1[rbp]
	inc	rax
	mov	QWORD PTR i$1[rbp], rax
$LN4@Swapchain:
	mov	rax, QWORD PTR this$[rbp]
	mov	eax, DWORD PTR [rax+56]
	cmp	QWORD PTR i$1[rbp], rax
	jae	$LN3@Swapchain
; Line 26
	mov	rax, QWORD PTR this$[rbp]
	mov	rax, QWORD PTR [rax+48]
	mov	rcx, QWORD PTR i$1[rbp]
	mov	rax, QWORD PTR [rax+rcx*8]
	mov	QWORD PTR tv82[rbp], rax
	mov	rax, QWORD PTR this$[rbp]
	mov	rcx, QWORD PTR [rax+152]
	call	?getDevice@Device@cow@@QEAAPEAUVkDevice_T@@XZ ; cow::Device::getDevice
	mov	QWORD PTR tv80[rbp], rax
	xor	r8d, r8d
	mov	rdx, QWORD PTR tv82[rbp]
	mov	rcx, QWORD PTR tv80[rbp]
	call	vkDestroyImageView
; Line 28
	imul	rax, QWORD PTR i$1[rbp], 24
	mov	rcx, QWORD PTR this$[rbp]
	mov	rcx, QWORD PTR [rcx+72]
	mov	rax, QWORD PTR [rcx+rax+16]
	mov	QWORD PTR tv128[rbp], rax
	mov	rax, QWORD PTR this$[rbp]
	mov	rcx, QWORD PTR [rax+152]
	call	?getDevice@Device@cow@@QEAAPEAUVkDevice_T@@XZ ; cow::Device::getDevice
	mov	QWORD PTR tv94[rbp], rax
	xor	r8d, r8d
	mov	rdx, QWORD PTR tv128[rbp]
	mov	rcx, QWORD PTR tv94[rbp]
	call	vkDestroyImageView
; Line 29
	imul	rax, QWORD PTR i$1[rbp], 24
	mov	rcx, QWORD PTR this$[rbp]
	mov	rcx, QWORD PTR [rcx+72]
	mov	rax, QWORD PTR [rcx+rax]
	mov	QWORD PTR tv142[rbp], rax
	mov	rax, QWORD PTR this$[rbp]
	mov	rcx, QWORD PTR [rax+152]
	call	?getDevice@Device@cow@@QEAAPEAUVkDevice_T@@XZ ; cow::Device::getDevice
	mov	QWORD PTR tv140[rbp], rax
	xor	r8d, r8d
	mov	rdx, QWORD PTR tv142[rbp]
	mov	rcx, QWORD PTR tv140[rbp]
	call	vkDestroyImage
; Line 30
	imul	rax, QWORD PTR i$1[rbp], 24
	mov	rcx, QWORD PTR this$[rbp]
	mov	rcx, QWORD PTR [rcx+72]
	mov	rax, QWORD PTR [rcx+rax+8]
	mov	QWORD PTR tv156[rbp], rax
	mov	rax, QWORD PTR this$[rbp]
	mov	rcx, QWORD PTR [rax+152]
	call	?getDevice@Device@cow@@QEAAPEAUVkDevice_T@@XZ ; cow::Device::getDevice
	mov	QWORD PTR tv154[rbp], rax
	xor	r8d, r8d
	mov	rdx, QWORD PTR tv156[rbp]
	mov	rcx, QWORD PTR tv154[rbp]
	call	vkFreeMemory
; Line 32
	mov	rax, QWORD PTR this$[rbp]
	mov	rax, QWORD PTR [rax+88]
	mov	rcx, QWORD PTR i$1[rbp]
	mov	rax, QWORD PTR [rax+rcx*8]
	mov	QWORD PTR tv169[rbp], rax
	mov	rax, QWORD PTR this$[rbp]
	mov	rcx, QWORD PTR [rax+152]
	call	?getDevice@Device@cow@@QEAAPEAUVkDevice_T@@XZ ; cow::Device::getDevice
	mov	QWORD PTR tv167[rbp], rax
	xor	r8d, r8d
	mov	rdx, QWORD PTR tv169[rbp]
	mov	rcx, QWORD PTR tv167[rbp]
	call	vkDestroyFramebuffer
; Line 33
	jmp	$LN2@Swapchain
$LN3@Swapchain:
; Line 35
	mov	QWORD PTR i$2[rbp], 0
	jmp	SHORT $LN7@Swapchain
$LN5@Swapchain:
	mov	rax, QWORD PTR i$2[rbp]
	inc	rax
	mov	QWORD PTR i$2[rbp], rax
$LN7@Swapchain:
	cmp	QWORD PTR i$2[rbp], 2
	jae	$LN6@Swapchain
; Line 37
	mov	rax, QWORD PTR this$[rbp]
	mov	rax, QWORD PTR [rax+120]
	mov	rcx, QWORD PTR i$2[rbp]
	mov	rax, QWORD PTR [rax+rcx*8]
	mov	QWORD PTR tv184[rbp], rax
	mov	rax, QWORD PTR this$[rbp]
	mov	rcx, QWORD PTR [rax+152]
	call	?getDevice@Device@cow@@QEAAPEAUVkDevice_T@@XZ ; cow::Device::getDevice
	mov	QWORD PTR tv182[rbp], rax
	xor	r8d, r8d
	mov	rdx, QWORD PTR tv184[rbp]
	mov	rcx, QWORD PTR tv182[rbp]
	call	vkDestroySemaphore
; Line 38
	mov	rax, QWORD PTR this$[rbp]
	mov	rax, QWORD PTR [rax+128]
	mov	rcx, QWORD PTR i$2[rbp]
	mov	rax, QWORD PTR [rax+rcx*8]
	mov	QWORD PTR tv197[rbp], rax
	mov	rax, QWORD PTR this$[rbp]
	mov	rcx, QWORD PTR [rax+152]
	call	?getDevice@Device@cow@@QEAAPEAUVkDevice_T@@XZ ; cow::Device::getDevice
	mov	QWORD PTR tv195[rbp], rax
	xor	r8d, r8d
	mov	rdx, QWORD PTR tv197[rbp]
	mov	rcx, QWORD PTR tv195[rbp]
	call	vkDestroySemaphore
; Line 39
	mov	rax, QWORD PTR this$[rbp]
	mov	rax, QWORD PTR [rax+104]
	mov	rcx, QWORD PTR i$2[rbp]
	mov	rax, QWORD PTR [rax+rcx*8]
	mov	QWORD PTR tv210[rbp], rax
	mov	rax, QWORD PTR this$[rbp]
	mov	rcx, QWORD PTR [rax+152]
	call	?getDevice@Device@cow@@QEAAPEAUVkDevice_T@@XZ ; cow::Device::getDevice
	mov	QWORD PTR tv208[rbp], rax
	xor	r8d, r8d
	mov	rdx, QWORD PTR tv210[rbp]
	mov	rcx, QWORD PTR tv208[rbp]
	call	vkDestroyFence
; Line 40
	jmp	$LN5@Swapchain
$LN6@Swapchain:
; Line 42
	mov	rax, QWORD PTR this$[rbp]
	mov	rcx, QWORD PTR [rax+48]
	call	QWORD PTR __imp_free
; Line 43
	mov	rax, QWORD PTR this$[rbp]
	mov	rcx, QWORD PTR [rax+40]
	call	QWORD PTR __imp_free
; Line 44
	mov	rax, QWORD PTR this$[rbp]
	mov	rcx, QWORD PTR [rax+72]
	call	QWORD PTR __imp_free
; Line 45
	mov	rax, QWORD PTR this$[rbp]
	mov	rcx, QWORD PTR [rax+88]
	call	QWORD PTR __imp_free
; Line 47
	mov	rax, QWORD PTR this$[rbp]
	mov	rcx, QWORD PTR [rax+128]
	call	QWORD PTR __imp_free
; Line 48
	mov	rax, QWORD PTR this$[rbp]
	mov	rcx, QWORD PTR [rax+120]
	call	QWORD PTR __imp_free
; Line 49
	mov	rax, QWORD PTR this$[rbp]
	mov	rcx, QWORD PTR [rax+104]
	call	QWORD PTR __imp_free
; Line 50
	mov	rax, QWORD PTR this$[rbp]
	mov	rcx, QWORD PTR [rax+112]
	call	QWORD PTR __imp_free
; Line 52
	mov	rax, QWORD PTR this$[rbp]
	cmp	QWORD PTR [rax+32], 0
	je	SHORT $LN8@Swapchain
; Line 54
	mov	rax, QWORD PTR this$[rbp]
	mov	rax, QWORD PTR [rax+32]
	mov	QWORD PTR tv239[rbp], rax
	mov	rax, QWORD PTR this$[rbp]
	mov	rcx, QWORD PTR [rax+152]
	call	?getDevice@Device@cow@@QEAAPEAUVkDevice_T@@XZ ; cow::Device::getDevice
	mov	QWORD PTR tv237[rbp], rax
	xor	r8d, r8d
	mov	rdx, QWORD PTR tv239[rbp]
	mov	rcx, QWORD PTR tv237[rbp]
	call	vkDestroySwapchainKHR
$LN8@Swapchain:
; Line 57
	mov	rax, QWORD PTR this$[rbp]
	mov	rax, QWORD PTR [rax+64]
	mov	QWORD PTR tv250[rbp], rax
	mov	rax, QWORD PTR this$[rbp]
	mov	rcx, QWORD PTR [rax+152]
	call	?getDevice@Device@cow@@QEAAPEAUVkDevice_T@@XZ ; cow::Device::getDevice
	mov	QWORD PTR tv248[rbp], rax
	xor	r8d, r8d
	mov	rdx, QWORD PTR tv250[rbp]
	mov	rcx, QWORD PTR tv248[rbp]
	call	vkDestroyRenderPass
; Line 59
	mov	rax, QWORD PTR this$[rbp]
	add	rax, 136				; 00000088H
	mov	rcx, rax
	call	??1?$shared_ptr@VSwapchain@cow@@@std@@QEAA@XZ ; std::shared_ptr<cow::Swapchain>::~shared_ptr<cow::Swapchain>
	npad	1
	lea	rsp, QWORD PTR [rbp+280]
	pop	rdi
	pop	rbp
	ret	0
??1Swapchain@cow@@QEAA@XZ ENDP				; cow::Swapchain::~Swapchain
_TEXT	ENDS
; Function compile flags: /Odtp /RTCsu /ZI
;	COMDAT ??0Swapchain@cow@@QEAA@AEAVDevice@1@UVkExtent2D@@V?$shared_ptr@VSwapchain@cow@@@std@@@Z
_TEXT	SEGMENT
$T1 = 200
tv72 = 232
this$ = 272
device$ = 280
extent$ = 288
old$ = 296
??0Swapchain@cow@@QEAA@AEAVDevice@1@UVkExtent2D@@V?$shared_ptr@VSwapchain@cow@@@std@@@Z PROC ; cow::Swapchain::Swapchain, COMDAT
; File C:\Users\anton\source\repos\GPU-VM\GPU-VM\Swapchain.cpp
; Line 14
$LN6:
	mov	QWORD PTR [rsp+32], r9
	mov	QWORD PTR [rsp+24], r8
	mov	QWORD PTR [rsp+16], rdx
	mov	QWORD PTR [rsp+8], rcx
	push	rbp
	push	rdi
	sub	rsp, 280				; 00000118H
	lea	rbp, QWORD PTR [rsp+32]
	lea	rcx, OFFSET FLAT:__C27AF25F_Swapchain@cpp
	call	__CheckForDebuggerJustMyCode
; Line 13
	mov	rax, QWORD PTR this$[rbp]
	mov	rcx, QWORD PTR extent$[rbp]
	mov	QWORD PTR [rax], rcx
; File C:\Users\anton\source\repos\GPU-VM\GPU-VM\Swapchain.hpp
; Line 59
	mov	rax, QWORD PTR this$[rbp]
	mov	QWORD PTR [rax+24], 0
; File C:\Users\anton\source\repos\GPU-VM\GPU-VM\Swapchain.cpp
; Line 13
	mov	rax, QWORD PTR this$[rbp]
	add	rax, 136				; 00000088H
	mov	QWORD PTR tv72[rbp], rax
	mov	rdx, QWORD PTR old$[rbp]
	mov	rcx, QWORD PTR tv72[rbp]
	call	??0?$shared_ptr@VSwapchain@cow@@@std@@QEAA@AEBV01@@Z ; std::shared_ptr<cow::Swapchain>::shared_ptr<cow::Swapchain>
	npad	1
	mov	rax, QWORD PTR this$[rbp]
	mov	rcx, QWORD PTR device$[rbp]
	mov	QWORD PTR [rax+152], rcx
; Line 15
	mov	rcx, QWORD PTR this$[rbp]
	call	?createSwapchain@Swapchain@cow@@AEAAXXZ	; cow::Swapchain::createSwapchain
; Line 16
	mov	rcx, QWORD PTR this$[rbp]
	call	?createRenderingObjects@Swapchain@cow@@AEAAXXZ ; cow::Swapchain::createRenderingObjects
; Line 17
	mov	rcx, QWORD PTR this$[rbp]
	call	?createSyncObjects@Swapchain@cow@@AEAAXXZ ; cow::Swapchain::createSyncObjects
; Line 19
	xor	edx, edx
	lea	rcx, QWORD PTR $T1[rbp]
	call	??0?$shared_ptr@VSwapchain@cow@@@std@@QEAA@$$T@Z ; std::shared_ptr<cow::Swapchain>::shared_ptr<cow::Swapchain>
	mov	rax, QWORD PTR this$[rbp]
	add	rax, 136				; 00000088H
	lea	rdx, QWORD PTR $T1[rbp]
	mov	rcx, rax
	call	??4?$shared_ptr@VSwapchain@cow@@@std@@QEAAAEAV01@$$QEAV01@@Z ; std::shared_ptr<cow::Swapchain>::operator=
	lea	rcx, QWORD PTR $T1[rbp]
	call	??1?$shared_ptr@VSwapchain@cow@@@std@@QEAA@XZ ; std::shared_ptr<cow::Swapchain>::~shared_ptr<cow::Swapchain>
	npad	1
; Line 20
	mov	rcx, QWORD PTR old$[rbp]
	call	??1?$shared_ptr@VSwapchain@cow@@@std@@QEAA@XZ ; std::shared_ptr<cow::Swapchain>::~shared_ptr<cow::Swapchain>
	mov	rax, QWORD PTR this$[rbp]
	lea	rsp, QWORD PTR [rbp+248]
	pop	rdi
	pop	rbp
	ret	0
??0Swapchain@cow@@QEAA@AEAVDevice@1@UVkExtent2D@@V?$shared_ptr@VSwapchain@cow@@@std@@@Z ENDP ; cow::Swapchain::Swapchain
_TEXT	ENDS
; Function compile flags: /Odtp /RTCsu /ZI
;	COMDAT text$x
text$x	SEGMENT
$T1 = 200
tv72 = 232
this$ = 272
device$ = 280
extent$ = 288
old$ = 296
?dtor$0@?0???0Swapchain@cow@@QEAA@AEAVDevice@1@UVkExtent2D@@V?$shared_ptr@VSwapchain@cow@@@std@@@Z@4HA PROC ; `cow::Swapchain::Swapchain'::`1'::dtor$0
	mov	QWORD PTR [rsp+8], rcx
	mov	QWORD PTR [rsp+16], rdx
	push	rbp
	push	rdi
	sub	rsp, 40					; 00000028H
	lea	rbp, QWORD PTR [rdx+32]
	mov	rcx, QWORD PTR old$[rbp]
	call	??1?$shared_ptr@VSwapchain@cow@@@std@@QEAA@XZ ; std::shared_ptr<cow::Swapchain>::~shared_ptr<cow::Swapchain>
	add	rsp, 40					; 00000028H
	pop	rdi
	pop	rbp
	ret	0
?dtor$0@?0???0Swapchain@cow@@QEAA@AEAVDevice@1@UVkExtent2D@@V?$shared_ptr@VSwapchain@cow@@@std@@@Z@4HA ENDP ; `cow::Swapchain::Swapchain'::`1'::dtor$0
text$x	ENDS
; Function compile flags: /Odtp /RTCsu /ZI
;	COMDAT text$x
text$x	SEGMENT
$T1 = 200
tv72 = 232
this$ = 272
device$ = 280
extent$ = 288
old$ = 296
?dtor$1@?0???0Swapchain@cow@@QEAA@AEAVDevice@1@UVkExtent2D@@V?$shared_ptr@VSwapchain@cow@@@std@@@Z@4HA PROC ; `cow::Swapchain::Swapchain'::`1'::dtor$1
	mov	QWORD PTR [rsp+8], rcx
	mov	QWORD PTR [rsp+16], rdx
	push	rbp
	push	rdi
	sub	rsp, 40					; 00000028H
	lea	rbp, QWORD PTR [rdx+32]
	mov	rcx, QWORD PTR this$[rbp]
	add	rcx, 136				; 00000088H
	call	??1?$shared_ptr@VSwapchain@cow@@@std@@QEAA@XZ ; std::shared_ptr<cow::Swapchain>::~shared_ptr<cow::Swapchain>
	add	rsp, 40					; 00000028H
	pop	rdi
	pop	rbp
	ret	0
?dtor$1@?0???0Swapchain@cow@@QEAA@AEAVDevice@1@UVkExtent2D@@V?$shared_ptr@VSwapchain@cow@@@std@@@Z@4HA ENDP ; `cow::Swapchain::Swapchain'::`1'::dtor$1
text$x	ENDS
; Function compile flags: /Odtp /RTCsu /ZI
;	COMDAT ??0Swapchain@cow@@QEAA@AEAVDevice@1@UVkExtent2D@@@Z
_TEXT	SEGMENT
this$ = 224
device$ = 232
extent$ = 240
??0Swapchain@cow@@QEAA@AEAVDevice@1@UVkExtent2D@@@Z PROC ; cow::Swapchain::Swapchain, COMDAT
; File C:\Users\anton\source\repos\GPU-VM\GPU-VM\Swapchain.cpp
; Line 7
$LN4:
	mov	QWORD PTR [rsp+24], r8
	mov	QWORD PTR [rsp+16], rdx
	mov	QWORD PTR [rsp+8], rcx
	push	rbp
	push	rdi
	sub	rsp, 232				; 000000e8H
	lea	rbp, QWORD PTR [rsp+32]
	lea	rcx, OFFSET FLAT:__C27AF25F_Swapchain@cpp
	call	__CheckForDebuggerJustMyCode
; Line 6
	mov	rax, QWORD PTR this$[rbp]
	mov	rcx, QWORD PTR extent$[rbp]
	mov	QWORD PTR [rax], rcx
; File C:\Users\anton\source\repos\GPU-VM\GPU-VM\Swapchain.hpp
; Line 59
	mov	rax, QWORD PTR this$[rbp]
	mov	QWORD PTR [rax+24], 0
; File C:\Users\anton\source\repos\GPU-VM\GPU-VM\Swapchain.cpp
; Line 7
	mov	rax, QWORD PTR this$[rbp]
	add	rax, 136				; 00000088H
	mov	rcx, rax
	call	??0?$shared_ptr@VSwapchain@cow@@@std@@QEAA@XZ ; std::shared_ptr<cow::Swapchain>::shared_ptr<cow::Swapchain>
	npad	1
; Line 6
	mov	rax, QWORD PTR this$[rbp]
	mov	rcx, QWORD PTR device$[rbp]
	mov	QWORD PTR [rax+152], rcx
; Line 8
	mov	rcx, QWORD PTR this$[rbp]
	call	?createSwapchain@Swapchain@cow@@AEAAXXZ	; cow::Swapchain::createSwapchain
; Line 9
	mov	rcx, QWORD PTR this$[rbp]
	call	?createRenderingObjects@Swapchain@cow@@AEAAXXZ ; cow::Swapchain::createRenderingObjects
; Line 10
	mov	rcx, QWORD PTR this$[rbp]
	call	?createSyncObjects@Swapchain@cow@@AEAAXXZ ; cow::Swapchain::createSyncObjects
	npad	1
; Line 11
	mov	rax, QWORD PTR this$[rbp]
	lea	rsp, QWORD PTR [rbp+200]
	pop	rdi
	pop	rbp
	ret	0
??0Swapchain@cow@@QEAA@AEAVDevice@1@UVkExtent2D@@@Z ENDP ; cow::Swapchain::Swapchain
_TEXT	ENDS
; Function compile flags: /Odtp /RTCsu /ZI
;	COMDAT text$x
text$x	SEGMENT
this$ = 224
device$ = 232
extent$ = 240
?dtor$0@?0???0Swapchain@cow@@QEAA@AEAVDevice@1@UVkExtent2D@@@Z@4HA PROC ; `cow::Swapchain::Swapchain'::`1'::dtor$0
	mov	QWORD PTR [rsp+8], rcx
	mov	QWORD PTR [rsp+16], rdx
	push	rbp
	push	rdi
	sub	rsp, 40					; 00000028H
	lea	rbp, QWORD PTR [rdx+32]
	mov	rcx, QWORD PTR this$[rbp]
	add	rcx, 136				; 00000088H
	call	??1?$shared_ptr@VSwapchain@cow@@@std@@QEAA@XZ ; std::shared_ptr<cow::Swapchain>::~shared_ptr<cow::Swapchain>
	add	rsp, 40					; 00000028H
	pop	rdi
	pop	rbp
	ret	0
?dtor$0@?0???0Swapchain@cow@@QEAA@AEAVDevice@1@UVkExtent2D@@@Z@4HA ENDP ; `cow::Swapchain::Swapchain'::`1'::dtor$0
text$x	ENDS
; Function compile flags: /Odtp /RTCsu /ZI
;	COMDAT ?_Decwref@_Ref_count_base@std@@QEAAXXZ
_TEXT	SEGMENT
this$ = 224
?_Decwref@_Ref_count_base@std@@QEAAXXZ PROC		; std::_Ref_count_base::_Decwref, COMDAT
; File C:\Program Files\Microsoft Visual Studio\2022\Community\VC\Tools\MSVC\14.32.31326\include\memory
; Line 1114
$LN4:
	mov	QWORD PTR [rsp+8], rcx
	push	rbp
	push	rdi
	sub	rsp, 232				; 000000e8H
	lea	rbp, QWORD PTR [rsp+32]
	lea	rcx, OFFSET FLAT:__92D6C122_memory
	call	__CheckForDebuggerJustMyCode
; Line 1115
	mov	rax, QWORD PTR this$[rbp]
	add	rax, 12
	mov	ecx, -1
	lock xadd DWORD PTR [rax], ecx
	dec	ecx
	mov	eax, ecx
	test	eax, eax
	jne	SHORT $LN2@Decwref
; Line 1116
	mov	rax, QWORD PTR this$[rbp]
	mov	rax, QWORD PTR [rax]
	mov	rcx, QWORD PTR this$[rbp]
	call	QWORD PTR [rax+8]
$LN2@Decwref:
; Line 1118
	lea	rsp, QWORD PTR [rbp+200]
	pop	rdi
	pop	rbp
	ret	0
?_Decwref@_Ref_count_base@std@@QEAAXXZ ENDP		; std::_Ref_count_base::_Decwref
_TEXT	ENDS
; Function compile flags: /Odtp /RTCsu /ZI
;	COMDAT ?_Decref@_Ref_count_base@std@@QEAAXXZ
_TEXT	SEGMENT
this$ = 224
?_Decref@_Ref_count_base@std@@QEAAXXZ PROC		; std::_Ref_count_base::_Decref, COMDAT
; File C:\Program Files\Microsoft Visual Studio\2022\Community\VC\Tools\MSVC\14.32.31326\include\memory
; Line 1107
$LN4:
	mov	QWORD PTR [rsp+8], rcx
	push	rbp
	push	rdi
	sub	rsp, 232				; 000000e8H
	lea	rbp, QWORD PTR [rsp+32]
	lea	rcx, OFFSET FLAT:__92D6C122_memory
	call	__CheckForDebuggerJustMyCode
; Line 1108
	mov	rax, QWORD PTR this$[rbp]
	add	rax, 8
	mov	ecx, -1
	lock xadd DWORD PTR [rax], ecx
	dec	ecx
	mov	eax, ecx
	test	eax, eax
	jne	SHORT $LN2@Decref
; Line 1109
	mov	rax, QWORD PTR this$[rbp]
	mov	rax, QWORD PTR [rax]
	mov	rcx, QWORD PTR this$[rbp]
	call	QWORD PTR [rax]
; Line 1110
	mov	rcx, QWORD PTR this$[rbp]
	call	?_Decwref@_Ref_count_base@std@@QEAAXXZ	; std::_Ref_count_base::_Decwref
$LN2@Decref:
; Line 1112
	lea	rsp, QWORD PTR [rbp+200]
	pop	rdi
	pop	rbp
	ret	0
?_Decref@_Ref_count_base@std@@QEAAXXZ ENDP		; std::_Ref_count_base::_Decref
_TEXT	ENDS
; Function compile flags: /Odtp /RTCsu /ZI
;	COMDAT ?_Incref@_Ref_count_base@std@@QEAAXXZ
_TEXT	SEGMENT
this$ = 224
?_Incref@_Ref_count_base@std@@QEAAXXZ PROC		; std::_Ref_count_base::_Incref, COMDAT
; File C:\Program Files\Microsoft Visual Studio\2022\Community\VC\Tools\MSVC\14.32.31326\include\memory
; Line 1099
$LN3:
	mov	QWORD PTR [rsp+8], rcx
	push	rbp
	push	rdi
	sub	rsp, 232				; 000000e8H
	lea	rbp, QWORD PTR [rsp+32]
	lea	rcx, OFFSET FLAT:__92D6C122_memory
	call	__CheckForDebuggerJustMyCode
; Line 1100
	mov	rax, QWORD PTR this$[rbp]
	add	rax, 8
	lock inc DWORD PTR [rax]
; Line 1101
	lea	rsp, QWORD PTR [rbp+200]
	pop	rdi
	pop	rbp
	ret	0
?_Incref@_Ref_count_base@std@@QEAAXXZ ENDP		; std::_Ref_count_base::_Incref
_TEXT	ENDS
; Function compile flags: /Odtp /RTCsu /ZI
;	COMDAT ?getDevice@Device@cow@@QEAAPEAUVkDevice_T@@XZ
_TEXT	SEGMENT
this$ = 224
?getDevice@Device@cow@@QEAAPEAUVkDevice_T@@XZ PROC	; cow::Device::getDevice, COMDAT
; File C:\Users\anton\source\repos\GPU-VM\GPU-VM\Device.hpp
; Line 40
$LN3:
	mov	QWORD PTR [rsp+8], rcx
	push	rbp
	push	rdi
	sub	rsp, 232				; 000000e8H
	lea	rbp, QWORD PTR [rsp+32]
	lea	rcx, OFFSET FLAT:__61615CFA_Device@hpp
	call	__CheckForDebuggerJustMyCode
	mov	rax, QWORD PTR this$[rbp]
	mov	rax, QWORD PTR [rax+24]
	lea	rsp, QWORD PTR [rbp+200]
	pop	rdi
	pop	rbp
	ret	0
?getDevice@Device@cow@@QEAAPEAUVkDevice_T@@XZ ENDP	; cow::Device::getDevice
_TEXT	ENDS
; Function compile flags: /Odtp /RTCsu /ZI
;	COMDAT ??1SwapChainSupportDetails@cow@@QEAA@XZ
_TEXT	SEGMENT
this$ = 224
??1SwapChainSupportDetails@cow@@QEAA@XZ PROC		; cow::SwapChainSupportDetails::~SwapChainSupportDetails, COMDAT
$LN3:
	mov	QWORD PTR [rsp+8], rcx
	push	rbp
	push	rdi
	sub	rsp, 232				; 000000e8H
	lea	rbp, QWORD PTR [rsp+32]
	mov	rax, QWORD PTR this$[rbp]
	add	rax, 88					; 00000058H
	mov	rcx, rax
	call	??1?$vector@W4VkPresentModeKHR@@V?$allocator@W4VkPresentModeKHR@@@std@@@std@@QEAA@XZ ; std::vector<enum VkPresentModeKHR,std::allocator<enum VkPresentModeKHR> >::~vector<enum VkPresentModeKHR,std::allocator<enum VkPresentModeKHR> >
	mov	rax, QWORD PTR this$[rbp]
	add	rax, 56					; 00000038H
	mov	rcx, rax
	call	??1?$vector@UVkSurfaceFormatKHR@@V?$allocator@UVkSurfaceFormatKHR@@@std@@@std@@QEAA@XZ ; std::vector<VkSurfaceFormatKHR,std::allocator<VkSurfaceFormatKHR> >::~vector<VkSurfaceFormatKHR,std::allocator<VkSurfaceFormatKHR> >
	lea	rsp, QWORD PTR [rbp+200]
	pop	rdi
	pop	rbp
	ret	0
??1SwapChainSupportDetails@cow@@QEAA@XZ ENDP		; cow::SwapChainSupportDetails::~SwapChainSupportDetails
_TEXT	ENDS
; Function compile flags: /Odtp /RTCsu /ZI
;	COMDAT ?_Get_first@?$_Compressed_pair@V?$allocator@W4VkPresentModeKHR@@@std@@V?$_Vector_val@U?$_Simple_types@W4VkPresentModeKHR@@@std@@@2@$00@std@@QEAAAEAV?$allocator@W4VkPresentModeKHR@@@2@XZ
_TEXT	SEGMENT
this$ = 224
?_Get_first@?$_Compressed_pair@V?$allocator@W4VkPresentModeKHR@@@std@@V?$_Vector_val@U?$_Simple_types@W4VkPresentModeKHR@@@std@@@2@$00@std@@QEAAAEAV?$allocator@W4VkPresentModeKHR@@@2@XZ PROC ; std::_Compressed_pair<std::allocator<enum VkPresentModeKHR>,std::_Vector_val<std::_Simple_types<enum VkPresentModeKHR> >,1>::_Get_first, COMDAT
; File C:\Program Files\Microsoft Visual Studio\2022\Community\VC\Tools\MSVC\14.32.31326\include\xmemory
; Line 1377
$LN3:
	mov	QWORD PTR [rsp+8], rcx
	push	rbp
	push	rdi
	sub	rsp, 232				; 000000e8H
	lea	rbp, QWORD PTR [rsp+32]
	lea	rcx, OFFSET FLAT:__48ED051B_xmemory
	call	__CheckForDebuggerJustMyCode
; Line 1378
	mov	rax, QWORD PTR this$[rbp]
; Line 1379
	lea	rsp, QWORD PTR [rbp+200]
	pop	rdi
	pop	rbp
	ret	0
?_Get_first@?$_Compressed_pair@V?$allocator@W4VkPresentModeKHR@@@std@@V?$_Vector_val@U?$_Simple_types@W4VkPresentModeKHR@@@std@@@2@$00@std@@QEAAAEAV?$allocator@W4VkPresentModeKHR@@@2@XZ ENDP ; std::_Compressed_pair<std::allocator<enum VkPresentModeKHR>,std::_Vector_val<std::_Simple_types<enum VkPresentModeKHR> >,1>::_Get_first
_TEXT	ENDS
; Function compile flags: /Odtp /RTCsu /ZI
;	COMDAT ?_Getal@?$vector@W4VkPresentModeKHR@@V?$allocator@W4VkPresentModeKHR@@@std@@@std@@AEAAAEAV?$allocator@W4VkPresentModeKHR@@@2@XZ
_TEXT	SEGMENT
this$ = 224
?_Getal@?$vector@W4VkPresentModeKHR@@V?$allocator@W4VkPresentModeKHR@@@std@@@std@@AEAAAEAV?$allocator@W4VkPresentModeKHR@@@2@XZ PROC ; std::vector<enum VkPresentModeKHR,std::allocator<enum VkPresentModeKHR> >::_Getal, COMDAT
; File C:\Program Files\Microsoft Visual Studio\2022\Community\VC\Tools\MSVC\14.32.31326\include\vector
; Line 2027
$LN3:
	mov	QWORD PTR [rsp+8], rcx
	push	rbp
	push	rdi
	sub	rsp, 232				; 000000e8H
	lea	rbp, QWORD PTR [rsp+32]
	lea	rcx, OFFSET FLAT:__63D5BD4C_vector
	call	__CheckForDebuggerJustMyCode
; Line 2028
	mov	rax, QWORD PTR this$[rbp]
	mov	rcx, rax
	call	?_Get_first@?$_Compressed_pair@V?$allocator@W4VkPresentModeKHR@@@std@@V?$_Vector_val@U?$_Simple_types@W4VkPresentModeKHR@@@std@@@2@$00@std@@QEAAAEAV?$allocator@W4VkPresentModeKHR@@@2@XZ ; std::_Compressed_pair<std::allocator<enum VkPresentModeKHR>,std::_Vector_val<std::_Simple_types<enum VkPresentModeKHR> >,1>::_Get_first
; Line 2029
	lea	rsp, QWORD PTR [rbp+200]
	pop	rdi
	pop	rbp
	ret	0
?_Getal@?$vector@W4VkPresentModeKHR@@V?$allocator@W4VkPresentModeKHR@@@std@@@std@@AEAAAEAV?$allocator@W4VkPresentModeKHR@@@2@XZ ENDP ; std::vector<enum VkPresentModeKHR,std::allocator<enum VkPresentModeKHR> >::_Getal
_TEXT	ENDS
; Function compile flags: /Odtp /RTCsu /ZI
;	COMDAT ?_Tidy@?$vector@W4VkPresentModeKHR@@V?$allocator@W4VkPresentModeKHR@@@std@@@std@@AEAAXXZ
_TEXT	SEGMENT
_Al$ = 8
_My_data$ = 40
_Myfirst$ = 72
_Mylast$ = 104
_Myend$ = 136
this$ = 384
?_Tidy@?$vector@W4VkPresentModeKHR@@V?$allocator@W4VkPresentModeKHR@@@std@@@std@@AEAAXXZ PROC ; std::vector<enum VkPresentModeKHR,std::allocator<enum VkPresentModeKHR> >::_Tidy, COMDAT
; File C:\Program Files\Microsoft Visual Studio\2022\Community\VC\Tools\MSVC\14.32.31326\include\vector
; Line 1881
$LN4:
	mov	QWORD PTR [rsp+8], rcx
	push	rbp
	push	rdi
	sub	rsp, 392				; 00000188H
	lea	rbp, QWORD PTR [rsp+32]
	lea	rcx, OFFSET FLAT:__63D5BD4C_vector
	call	__CheckForDebuggerJustMyCode
; Line 1882
	mov	rcx, QWORD PTR this$[rbp]
	call	?_Getal@?$vector@W4VkPresentModeKHR@@V?$allocator@W4VkPresentModeKHR@@@std@@@std@@AEAAAEAV?$allocator@W4VkPresentModeKHR@@@2@XZ ; std::vector<enum VkPresentModeKHR,std::allocator<enum VkPresentModeKHR> >::_Getal
	mov	QWORD PTR _Al$[rbp], rax
; Line 1883
	mov	rax, QWORD PTR this$[rbp]
	mov	QWORD PTR _My_data$[rbp], rax
; Line 1884
	mov	rax, QWORD PTR _My_data$[rbp]
	add	rax, 8
	mov	QWORD PTR _Myfirst$[rbp], rax
; Line 1885
	mov	rax, QWORD PTR _My_data$[rbp]
	add	rax, 16
	mov	QWORD PTR _Mylast$[rbp], rax
; Line 1886
	mov	rax, QWORD PTR _My_data$[rbp]
	add	rax, 24
	mov	QWORD PTR _Myend$[rbp], rax
; Line 1888
	mov	rcx, QWORD PTR _My_data$[rbp]
	call	?_Orphan_all@_Container_base12@std@@QEAAXXZ ; std::_Container_base12::_Orphan_all
; Line 1890
	mov	rax, QWORD PTR _Myfirst$[rbp]
	cmp	QWORD PTR [rax], 0
	je	SHORT $LN2@Tidy
; Line 1891
	mov	r8, QWORD PTR _Al$[rbp]
	mov	rax, QWORD PTR _Mylast$[rbp]
	mov	rdx, QWORD PTR [rax]
	mov	rax, QWORD PTR _Myfirst$[rbp]
	mov	rcx, QWORD PTR [rax]
	call	??$_Destroy_range@V?$allocator@W4VkPresentModeKHR@@@std@@@std@@YAXPEAW4VkPresentModeKHR@@QEAW41@AEAV?$allocator@W4VkPresentModeKHR@@@0@@Z ; std::_Destroy_range<std::allocator<enum VkPresentModeKHR> >
; Line 1893
	mov	rax, QWORD PTR _Myend$[rbp]
	mov	rcx, QWORD PTR _Myfirst$[rbp]
	mov	rcx, QWORD PTR [rcx]
	mov	rax, QWORD PTR [rax]
	sub	rax, rcx
	sar	rax, 2
	mov	r8, rax
	mov	rax, QWORD PTR _Myfirst$[rbp]
	mov	rdx, QWORD PTR [rax]
	mov	rcx, QWORD PTR _Al$[rbp]
	call	?deallocate@?$allocator@W4VkPresentModeKHR@@@std@@QEAAXQEAW4VkPresentModeKHR@@_K@Z ; std::allocator<enum VkPresentModeKHR>::deallocate
; Line 1895
	mov	rax, QWORD PTR _Myfirst$[rbp]
	mov	QWORD PTR [rax], 0
; Line 1896
	mov	rax, QWORD PTR _Mylast$[rbp]
	mov	QWORD PTR [rax], 0
; Line 1897
	mov	rax, QWORD PTR _Myend$[rbp]
	mov	QWORD PTR [rax], 0
$LN2@Tidy:
; Line 1899
	lea	rsp, QWORD PTR [rbp+360]
	pop	rdi
	pop	rbp
	ret	0
?_Tidy@?$vector@W4VkPresentModeKHR@@V?$allocator@W4VkPresentModeKHR@@@std@@@std@@AEAAXXZ ENDP ; std::vector<enum VkPresentModeKHR,std::allocator<enum VkPresentModeKHR> >::_Tidy
_TEXT	ENDS
; Function compile flags: /Odtp /RTCsu /ZI
;	COMDAT ?size@?$vector@W4VkPresentModeKHR@@V?$allocator@W4VkPresentModeKHR@@@std@@@std@@QEBA_KXZ
_TEXT	SEGMENT
_My_data$ = 8
this$ = 256
?size@?$vector@W4VkPresentModeKHR@@V?$allocator@W4VkPresentModeKHR@@@std@@@std@@QEBA_KXZ PROC ; std::vector<enum VkPresentModeKHR,std::allocator<enum VkPresentModeKHR> >::size, COMDAT
; File C:\Program Files\Microsoft Visual Studio\2022\Community\VC\Tools\MSVC\14.32.31326\include\vector
; Line 1713
$LN3:
	mov	QWORD PTR [rsp+8], rcx
	push	rbp
	push	rdi
	sub	rsp, 264				; 00000108H
	lea	rbp, QWORD PTR [rsp+32]
	lea	rcx, OFFSET FLAT:__63D5BD4C_vector
	call	__CheckForDebuggerJustMyCode
; Line 1714
	mov	rax, QWORD PTR this$[rbp]
	mov	QWORD PTR _My_data$[rbp], rax
; Line 1715
	mov	rax, QWORD PTR _My_data$[rbp]
	mov	rcx, QWORD PTR _My_data$[rbp]
	mov	rcx, QWORD PTR [rcx+8]
	mov	rax, QWORD PTR [rax+16]
	sub	rax, rcx
	sar	rax, 2
; Line 1716
	lea	rsp, QWORD PTR [rbp+232]
	pop	rdi
	pop	rbp
	ret	0
?size@?$vector@W4VkPresentModeKHR@@V?$allocator@W4VkPresentModeKHR@@@std@@@std@@QEBA_KXZ ENDP ; std::vector<enum VkPresentModeKHR,std::allocator<enum VkPresentModeKHR> >::size
_TEXT	ENDS
; Function compile flags: /Odtp /RTCsu /ZI
;	COMDAT ?data@?$vector@W4VkPresentModeKHR@@V?$allocator@W4VkPresentModeKHR@@@std@@@std@@QEAAPEAW4VkPresentModeKHR@@XZ
_TEXT	SEGMENT
this$ = 224
?data@?$vector@W4VkPresentModeKHR@@V?$allocator@W4VkPresentModeKHR@@@std@@@std@@QEAAPEAW4VkPresentModeKHR@@XZ PROC ; std::vector<enum VkPresentModeKHR,std::allocator<enum VkPresentModeKHR> >::data, COMDAT
; File C:\Program Files\Microsoft Visual Studio\2022\Community\VC\Tools\MSVC\14.32.31326\include\vector
; Line 1632
$LN3:
	mov	QWORD PTR [rsp+8], rcx
	push	rbp
	push	rdi
	sub	rsp, 232				; 000000e8H
	lea	rbp, QWORD PTR [rsp+32]
	lea	rcx, OFFSET FLAT:__63D5BD4C_vector
	call	__CheckForDebuggerJustMyCode
; Line 1633
	mov	rax, QWORD PTR this$[rbp]
	mov	rcx, QWORD PTR [rax+8]
	call	??$_Unfancy_maybe_null@W4VkPresentModeKHR@@@std@@YAPEAW4VkPresentModeKHR@@PEAW41@@Z ; std::_Unfancy_maybe_null<enum VkPresentModeKHR>
; Line 1634
	lea	rsp, QWORD PTR [rbp+200]
	pop	rdi
	pop	rbp
	ret	0
?data@?$vector@W4VkPresentModeKHR@@V?$allocator@W4VkPresentModeKHR@@@std@@@std@@QEAAPEAW4VkPresentModeKHR@@XZ ENDP ; std::vector<enum VkPresentModeKHR,std::allocator<enum VkPresentModeKHR> >::data
_TEXT	ENDS
; Function compile flags: /Odtp /RTCsu /ZI
;	COMDAT ??1?$vector@W4VkPresentModeKHR@@V?$allocator@W4VkPresentModeKHR@@@std@@@std@@QEAA@XZ
_TEXT	SEGMENT
_Alproxy$ = 8
$S1$ = 36
$T4 = 260
__$ArrayPad$ = 280
this$ = 320
??1?$vector@W4VkPresentModeKHR@@V?$allocator@W4VkPresentModeKHR@@@std@@@std@@QEAA@XZ PROC ; std::vector<enum VkPresentModeKHR,std::allocator<enum VkPresentModeKHR> >::~vector<enum VkPresentModeKHR,std::allocator<enum VkPresentModeKHR> >, COMDAT
; File C:\Program Files\Microsoft Visual Studio\2022\Community\VC\Tools\MSVC\14.32.31326\include\vector
; Line 790
$LN3:
	mov	QWORD PTR [rsp+8], rcx
	push	rbp
	push	rdi
	sub	rsp, 328				; 00000148H
	lea	rbp, QWORD PTR [rsp+32]
	lea	rdi, QWORD PTR [rsp+32]
	mov	ecx, 26
	mov	eax, -858993460				; ccccccccH
	rep stosd
	mov	rcx, QWORD PTR [rsp+360]
	mov	rax, QWORD PTR __security_cookie
	xor	rax, rbp
	mov	QWORD PTR __$ArrayPad$[rbp], rax
	lea	rcx, OFFSET FLAT:__63D5BD4C_vector
	call	__CheckForDebuggerJustMyCode
; Line 791
	mov	rcx, QWORD PTR this$[rbp]
	call	?_Tidy@?$vector@W4VkPresentModeKHR@@V?$allocator@W4VkPresentModeKHR@@@std@@@std@@AEAAXXZ ; std::vector<enum VkPresentModeKHR,std::allocator<enum VkPresentModeKHR> >::_Tidy
; Line 793
	mov	rcx, QWORD PTR this$[rbp]
	call	?_Getal@?$vector@W4VkPresentModeKHR@@V?$allocator@W4VkPresentModeKHR@@@std@@@std@@AEAAAEAV?$allocator@W4VkPresentModeKHR@@@2@XZ ; std::vector<enum VkPresentModeKHR,std::allocator<enum VkPresentModeKHR> >::_Getal
	mov	rdx, rax
	lea	rcx, QWORD PTR $S1$[rbp]
	call	??$?0W4VkPresentModeKHR@@@?$allocator@U_Container_proxy@std@@@std@@QEAA@AEBV?$allocator@W4VkPresentModeKHR@@@1@@Z ; std::allocator<std::_Container_proxy>::allocator<std::_Container_proxy><enum VkPresentModeKHR>
	lea	rax, QWORD PTR $S1$[rbp]
	mov	QWORD PTR _Alproxy$[rbp], rax
; Line 794
	mov	QWORD PTR $T4[rbp], 0
	mov	rax, QWORD PTR this$[rbp]
	lea	rdx, QWORD PTR $T4[rbp]
	mov	rcx, rax
	call	??$exchange@PEAU_Container_proxy@std@@$$T@std@@YAPEAU_Container_proxy@0@AEAPEAU10@$$QEA$$T@Z ; std::exchange<std::_Container_proxy *,std::nullptr_t>
	mov	rdx, rax
	mov	rcx, QWORD PTR _Alproxy$[rbp]
	call	??$_Delete_plain_internal@V?$allocator@U_Container_proxy@std@@@std@@@std@@YAXAEAV?$allocator@U_Container_proxy@std@@@0@QEAU_Container_proxy@0@@Z ; std::_Delete_plain_internal<std::allocator<std::_Container_proxy> >
; Line 796
	lea	rcx, QWORD PTR [rbp-32]
	lea	rdx, OFFSET FLAT:??1?$vector@W4VkPresentModeKHR@@V?$allocator@W4VkPresentModeKHR@@@std@@@std@@QEAA@XZ$rtcFrameData
	call	_RTC_CheckStackVars
	mov	rcx, QWORD PTR __$ArrayPad$[rbp]
	xor	rcx, rbp
	call	__security_check_cookie
	lea	rsp, QWORD PTR [rbp+296]
	pop	rdi
	pop	rbp
	ret	0
??1?$vector@W4VkPresentModeKHR@@V?$allocator@W4VkPresentModeKHR@@@std@@@std@@QEAA@XZ ENDP ; std::vector<enum VkPresentModeKHR,std::allocator<enum VkPresentModeKHR> >::~vector<enum VkPresentModeKHR,std::allocator<enum VkPresentModeKHR> >
_TEXT	ENDS
; Function compile flags: /Odtp /RTCsu /ZI
;	COMDAT ?deallocate@?$allocator@W4VkPresentModeKHR@@@std@@QEAAXQEAW4VkPresentModeKHR@@_K@Z
_TEXT	SEGMENT
this$ = 224
_Ptr$ = 232
_Count$ = 240
?deallocate@?$allocator@W4VkPresentModeKHR@@@std@@QEAAXQEAW4VkPresentModeKHR@@_K@Z PROC ; std::allocator<enum VkPresentModeKHR>::deallocate, COMDAT
; File C:\Program Files\Microsoft Visual Studio\2022\Community\VC\Tools\MSVC\14.32.31326\include\xmemory
; Line 827
$LN13:
	mov	QWORD PTR [rsp+24], r8
	mov	QWORD PTR [rsp+16], rdx
	mov	QWORD PTR [rsp+8], rcx
	push	rbp
	push	rdi
	sub	rsp, 248				; 000000f8H
	lea	rbp, QWORD PTR [rsp+48]
	lea	rcx, OFFSET FLAT:__48ED051B_xmemory
	call	__CheckForDebuggerJustMyCode
$LN4@deallocate:
; Line 828
	cmp	QWORD PTR _Ptr$[rbp], 0
	jne	SHORT $LN10@deallocate
	cmp	QWORD PTR _Count$[rbp], 0
	jne	SHORT $LN8@deallocate
$LN10@deallocate:
	jmp	SHORT $LN9@deallocate
$LN8@deallocate:
$LN7@deallocate:
	lea	rax, OFFSET FLAT:??_C@_0DG@KGHKKGBC@null?5pointer?5cannot?5point?5to?5a?5@
	mov	QWORD PTR [rsp+40], rax
	lea	rax, OFFSET FLAT:??_C@_02DKCKIIND@?$CFs@
	mov	QWORD PTR [rsp+32], rax
	xor	r9d, r9d
	mov	r8d, 828				; 0000033cH
	lea	rdx, OFFSET FLAT:??_C@_0GC@DJFHHHKN@C?3?2Program?5Files?2Microsoft?5Visu@
	mov	ecx, 2
	call	QWORD PTR __imp__CrtDbgReport
	cmp	eax, 1
	jne	SHORT $LN12@deallocate
	int	3
	xor	eax, eax
$LN12@deallocate:
	mov	QWORD PTR [rsp+32], 0
	mov	r9d, 828				; 0000033cH
	lea	r8, OFFSET FLAT:??_C@_1ME@GEFGDEOM@?$AAC?$AA?3?$AA?2?$AAP?$AAr?$AAo?$AAg?$AAr?$AAa?$AAm?$AA?5?$AAF?$AAi?$AAl?$AAe@
	lea	rdx, OFFSET FLAT:??_C@_11LOCGONAA@@
	lea	rcx, OFFSET FLAT:??_C@_1HA@FACCKGGH@?$AA?$CC?$AAn?$AAu?$AAl?$AAl?$AA?5?$AAp?$AAo?$AAi?$AAn?$AAt?$AAe?$AAr?$AA?5?$AAc@
	call	QWORD PTR __imp__invalid_parameter
	xor	eax, eax
	test	eax, eax
	jne	SHORT $LN7@deallocate
$LN9@deallocate:
	xor	eax, eax
	test	eax, eax
	jne	$LN4@deallocate
; Line 830
	mov	rax, QWORD PTR _Count$[rbp]
	shl	rax, 2
	mov	rdx, rax
	mov	rcx, QWORD PTR _Ptr$[rbp]
	call	??$_Deallocate@$0BA@$0A@@std@@YAXPEAX_K@Z ; std::_Deallocate<16,0>
; Line 831
	lea	rsp, QWORD PTR [rbp+200]
	pop	rdi
	pop	rbp
	ret	0
?deallocate@?$allocator@W4VkPresentModeKHR@@@std@@QEAAXQEAW4VkPresentModeKHR@@_K@Z ENDP ; std::allocator<enum VkPresentModeKHR>::deallocate
_TEXT	ENDS
; Function compile flags: /Odtp /RTCsu /ZI
;	COMDAT ?_Get_first@?$_Compressed_pair@V?$allocator@UVkSurfaceFormatKHR@@@std@@V?$_Vector_val@U?$_Simple_types@UVkSurfaceFormatKHR@@@std@@@2@$00@std@@QEAAAEAV?$allocator@UVkSurfaceFormatKHR@@@2@XZ
_TEXT	SEGMENT
this$ = 224
?_Get_first@?$_Compressed_pair@V?$allocator@UVkSurfaceFormatKHR@@@std@@V?$_Vector_val@U?$_Simple_types@UVkSurfaceFormatKHR@@@std@@@2@$00@std@@QEAAAEAV?$allocator@UVkSurfaceFormatKHR@@@2@XZ PROC ; std::_Compressed_pair<std::allocator<VkSurfaceFormatKHR>,std::_Vector_val<std::_Simple_types<VkSurfaceFormatKHR> >,1>::_Get_first, COMDAT
; File C:\Program Files\Microsoft Visual Studio\2022\Community\VC\Tools\MSVC\14.32.31326\include\xmemory
; Line 1377
$LN3:
	mov	QWORD PTR [rsp+8], rcx
	push	rbp
	push	rdi
	sub	rsp, 232				; 000000e8H
	lea	rbp, QWORD PTR [rsp+32]
	lea	rcx, OFFSET FLAT:__48ED051B_xmemory
	call	__CheckForDebuggerJustMyCode
; Line 1378
	mov	rax, QWORD PTR this$[rbp]
; Line 1379
	lea	rsp, QWORD PTR [rbp+200]
	pop	rdi
	pop	rbp
	ret	0
?_Get_first@?$_Compressed_pair@V?$allocator@UVkSurfaceFormatKHR@@@std@@V?$_Vector_val@U?$_Simple_types@UVkSurfaceFormatKHR@@@std@@@2@$00@std@@QEAAAEAV?$allocator@UVkSurfaceFormatKHR@@@2@XZ ENDP ; std::_Compressed_pair<std::allocator<VkSurfaceFormatKHR>,std::_Vector_val<std::_Simple_types<VkSurfaceFormatKHR> >,1>::_Get_first
_TEXT	ENDS
; Function compile flags: /Odtp /RTCsu /ZI
;	COMDAT ?_Getal@?$vector@UVkSurfaceFormatKHR@@V?$allocator@UVkSurfaceFormatKHR@@@std@@@std@@AEAAAEAV?$allocator@UVkSurfaceFormatKHR@@@2@XZ
_TEXT	SEGMENT
this$ = 224
?_Getal@?$vector@UVkSurfaceFormatKHR@@V?$allocator@UVkSurfaceFormatKHR@@@std@@@std@@AEAAAEAV?$allocator@UVkSurfaceFormatKHR@@@2@XZ PROC ; std::vector<VkSurfaceFormatKHR,std::allocator<VkSurfaceFormatKHR> >::_Getal, COMDAT
; File C:\Program Files\Microsoft Visual Studio\2022\Community\VC\Tools\MSVC\14.32.31326\include\vector
; Line 2027
$LN3:
	mov	QWORD PTR [rsp+8], rcx
	push	rbp
	push	rdi
	sub	rsp, 232				; 000000e8H
	lea	rbp, QWORD PTR [rsp+32]
	lea	rcx, OFFSET FLAT:__63D5BD4C_vector
	call	__CheckForDebuggerJustMyCode
; Line 2028
	mov	rax, QWORD PTR this$[rbp]
	mov	rcx, rax
	call	?_Get_first@?$_Compressed_pair@V?$allocator@UVkSurfaceFormatKHR@@@std@@V?$_Vector_val@U?$_Simple_types@UVkSurfaceFormatKHR@@@std@@@2@$00@std@@QEAAAEAV?$allocator@UVkSurfaceFormatKHR@@@2@XZ ; std::_Compressed_pair<std::allocator<VkSurfaceFormatKHR>,std::_Vector_val<std::_Simple_types<VkSurfaceFormatKHR> >,1>::_Get_first
; Line 2029
	lea	rsp, QWORD PTR [rbp+200]
	pop	rdi
	pop	rbp
	ret	0
?_Getal@?$vector@UVkSurfaceFormatKHR@@V?$allocator@UVkSurfaceFormatKHR@@@std@@@std@@AEAAAEAV?$allocator@UVkSurfaceFormatKHR@@@2@XZ ENDP ; std::vector<VkSurfaceFormatKHR,std::allocator<VkSurfaceFormatKHR> >::_Getal
_TEXT	ENDS
; Function compile flags: /Odtp /RTCsu /ZI
;	COMDAT ?_Tidy@?$vector@UVkSurfaceFormatKHR@@V?$allocator@UVkSurfaceFormatKHR@@@std@@@std@@AEAAXXZ
_TEXT	SEGMENT
_Al$ = 8
_My_data$ = 40
_Myfirst$ = 72
_Mylast$ = 104
_Myend$ = 136
this$ = 384
?_Tidy@?$vector@UVkSurfaceFormatKHR@@V?$allocator@UVkSurfaceFormatKHR@@@std@@@std@@AEAAXXZ PROC ; std::vector<VkSurfaceFormatKHR,std::allocator<VkSurfaceFormatKHR> >::_Tidy, COMDAT
; File C:\Program Files\Microsoft Visual Studio\2022\Community\VC\Tools\MSVC\14.32.31326\include\vector
; Line 1881
$LN4:
	mov	QWORD PTR [rsp+8], rcx
	push	rbp
	push	rdi
	sub	rsp, 392				; 00000188H
	lea	rbp, QWORD PTR [rsp+32]
	lea	rcx, OFFSET FLAT:__63D5BD4C_vector
	call	__CheckForDebuggerJustMyCode
; Line 1882
	mov	rcx, QWORD PTR this$[rbp]
	call	?_Getal@?$vector@UVkSurfaceFormatKHR@@V?$allocator@UVkSurfaceFormatKHR@@@std@@@std@@AEAAAEAV?$allocator@UVkSurfaceFormatKHR@@@2@XZ ; std::vector<VkSurfaceFormatKHR,std::allocator<VkSurfaceFormatKHR> >::_Getal
	mov	QWORD PTR _Al$[rbp], rax
; Line 1883
	mov	rax, QWORD PTR this$[rbp]
	mov	QWORD PTR _My_data$[rbp], rax
; Line 1884
	mov	rax, QWORD PTR _My_data$[rbp]
	add	rax, 8
	mov	QWORD PTR _Myfirst$[rbp], rax
; Line 1885
	mov	rax, QWORD PTR _My_data$[rbp]
	add	rax, 16
	mov	QWORD PTR _Mylast$[rbp], rax
; Line 1886
	mov	rax, QWORD PTR _My_data$[rbp]
	add	rax, 24
	mov	QWORD PTR _Myend$[rbp], rax
; Line 1888
	mov	rcx, QWORD PTR _My_data$[rbp]
	call	?_Orphan_all@_Container_base12@std@@QEAAXXZ ; std::_Container_base12::_Orphan_all
; Line 1890
	mov	rax, QWORD PTR _Myfirst$[rbp]
	cmp	QWORD PTR [rax], 0
	je	SHORT $LN2@Tidy
; Line 1891
	mov	r8, QWORD PTR _Al$[rbp]
	mov	rax, QWORD PTR _Mylast$[rbp]
	mov	rdx, QWORD PTR [rax]
	mov	rax, QWORD PTR _Myfirst$[rbp]
	mov	rcx, QWORD PTR [rax]
	call	??$_Destroy_range@V?$allocator@UVkSurfaceFormatKHR@@@std@@@std@@YAXPEAUVkSurfaceFormatKHR@@QEAU1@AEAV?$allocator@UVkSurfaceFormatKHR@@@0@@Z ; std::_Destroy_range<std::allocator<VkSurfaceFormatKHR> >
; Line 1893
	mov	rax, QWORD PTR _Myend$[rbp]
	mov	rcx, QWORD PTR _Myfirst$[rbp]
	mov	rcx, QWORD PTR [rcx]
	mov	rax, QWORD PTR [rax]
	sub	rax, rcx
	sar	rax, 3
	mov	r8, rax
	mov	rax, QWORD PTR _Myfirst$[rbp]
	mov	rdx, QWORD PTR [rax]
	mov	rcx, QWORD PTR _Al$[rbp]
	call	?deallocate@?$allocator@UVkSurfaceFormatKHR@@@std@@QEAAXQEAUVkSurfaceFormatKHR@@_K@Z ; std::allocator<VkSurfaceFormatKHR>::deallocate
; Line 1895
	mov	rax, QWORD PTR _Myfirst$[rbp]
	mov	QWORD PTR [rax], 0
; Line 1896
	mov	rax, QWORD PTR _Mylast$[rbp]
	mov	QWORD PTR [rax], 0
; Line 1897
	mov	rax, QWORD PTR _Myend$[rbp]
	mov	QWORD PTR [rax], 0
$LN2@Tidy:
; Line 1899
	lea	rsp, QWORD PTR [rbp+360]
	pop	rdi
	pop	rbp
	ret	0
?_Tidy@?$vector@UVkSurfaceFormatKHR@@V?$allocator@UVkSurfaceFormatKHR@@@std@@@std@@AEAAXXZ ENDP ; std::vector<VkSurfaceFormatKHR,std::allocator<VkSurfaceFormatKHR> >::_Tidy
_TEXT	ENDS
; Function compile flags: /Odtp /RTCsu /ZI
;	COMDAT ?size@?$vector@UVkSurfaceFormatKHR@@V?$allocator@UVkSurfaceFormatKHR@@@std@@@std@@QEBA_KXZ
_TEXT	SEGMENT
_My_data$ = 8
this$ = 256
?size@?$vector@UVkSurfaceFormatKHR@@V?$allocator@UVkSurfaceFormatKHR@@@std@@@std@@QEBA_KXZ PROC ; std::vector<VkSurfaceFormatKHR,std::allocator<VkSurfaceFormatKHR> >::size, COMDAT
; File C:\Program Files\Microsoft Visual Studio\2022\Community\VC\Tools\MSVC\14.32.31326\include\vector
; Line 1713
$LN3:
	mov	QWORD PTR [rsp+8], rcx
	push	rbp
	push	rdi
	sub	rsp, 264				; 00000108H
	lea	rbp, QWORD PTR [rsp+32]
	lea	rcx, OFFSET FLAT:__63D5BD4C_vector
	call	__CheckForDebuggerJustMyCode
; Line 1714
	mov	rax, QWORD PTR this$[rbp]
	mov	QWORD PTR _My_data$[rbp], rax
; Line 1715
	mov	rax, QWORD PTR _My_data$[rbp]
	mov	rcx, QWORD PTR _My_data$[rbp]
	mov	rcx, QWORD PTR [rcx+8]
	mov	rax, QWORD PTR [rax+16]
	sub	rax, rcx
	sar	rax, 3
; Line 1716
	lea	rsp, QWORD PTR [rbp+232]
	pop	rdi
	pop	rbp
	ret	0
?size@?$vector@UVkSurfaceFormatKHR@@V?$allocator@UVkSurfaceFormatKHR@@@std@@@std@@QEBA_KXZ ENDP ; std::vector<VkSurfaceFormatKHR,std::allocator<VkSurfaceFormatKHR> >::size
_TEXT	ENDS
; Function compile flags: /Odtp /RTCsu /ZI
;	COMDAT ?data@?$vector@UVkSurfaceFormatKHR@@V?$allocator@UVkSurfaceFormatKHR@@@std@@@std@@QEAAPEAUVkSurfaceFormatKHR@@XZ
_TEXT	SEGMENT
this$ = 224
?data@?$vector@UVkSurfaceFormatKHR@@V?$allocator@UVkSurfaceFormatKHR@@@std@@@std@@QEAAPEAUVkSurfaceFormatKHR@@XZ PROC ; std::vector<VkSurfaceFormatKHR,std::allocator<VkSurfaceFormatKHR> >::data, COMDAT
; File C:\Program Files\Microsoft Visual Studio\2022\Community\VC\Tools\MSVC\14.32.31326\include\vector
; Line 1632
$LN3:
	mov	QWORD PTR [rsp+8], rcx
	push	rbp
	push	rdi
	sub	rsp, 232				; 000000e8H
	lea	rbp, QWORD PTR [rsp+32]
	lea	rcx, OFFSET FLAT:__63D5BD4C_vector
	call	__CheckForDebuggerJustMyCode
; Line 1633
	mov	rax, QWORD PTR this$[rbp]
	mov	rcx, QWORD PTR [rax+8]
	call	??$_Unfancy_maybe_null@UVkSurfaceFormatKHR@@@std@@YAPEAUVkSurfaceFormatKHR@@PEAU1@@Z ; std::_Unfancy_maybe_null<VkSurfaceFormatKHR>
; Line 1634
	lea	rsp, QWORD PTR [rbp+200]
	pop	rdi
	pop	rbp
	ret	0
?data@?$vector@UVkSurfaceFormatKHR@@V?$allocator@UVkSurfaceFormatKHR@@@std@@@std@@QEAAPEAUVkSurfaceFormatKHR@@XZ ENDP ; std::vector<VkSurfaceFormatKHR,std::allocator<VkSurfaceFormatKHR> >::data
_TEXT	ENDS
; Function compile flags: /Odtp /RTCsu /ZI
;	COMDAT ??1?$vector@UVkSurfaceFormatKHR@@V?$allocator@UVkSurfaceFormatKHR@@@std@@@std@@QEAA@XZ
_TEXT	SEGMENT
_Alproxy$ = 8
$S2$ = 36
$T4 = 260
__$ArrayPad$ = 280
this$ = 320
??1?$vector@UVkSurfaceFormatKHR@@V?$allocator@UVkSurfaceFormatKHR@@@std@@@std@@QEAA@XZ PROC ; std::vector<VkSurfaceFormatKHR,std::allocator<VkSurfaceFormatKHR> >::~vector<VkSurfaceFormatKHR,std::allocator<VkSurfaceFormatKHR> >, COMDAT
; File C:\Program Files\Microsoft Visual Studio\2022\Community\VC\Tools\MSVC\14.32.31326\include\vector
; Line 790
$LN3:
	mov	QWORD PTR [rsp+8], rcx
	push	rbp
	push	rdi
	sub	rsp, 328				; 00000148H
	lea	rbp, QWORD PTR [rsp+32]
	lea	rdi, QWORD PTR [rsp+32]
	mov	ecx, 26
	mov	eax, -858993460				; ccccccccH
	rep stosd
	mov	rcx, QWORD PTR [rsp+360]
	mov	rax, QWORD PTR __security_cookie
	xor	rax, rbp
	mov	QWORD PTR __$ArrayPad$[rbp], rax
	lea	rcx, OFFSET FLAT:__63D5BD4C_vector
	call	__CheckForDebuggerJustMyCode
; Line 791
	mov	rcx, QWORD PTR this$[rbp]
	call	?_Tidy@?$vector@UVkSurfaceFormatKHR@@V?$allocator@UVkSurfaceFormatKHR@@@std@@@std@@AEAAXXZ ; std::vector<VkSurfaceFormatKHR,std::allocator<VkSurfaceFormatKHR> >::_Tidy
; Line 793
	mov	rcx, QWORD PTR this$[rbp]
	call	?_Getal@?$vector@UVkSurfaceFormatKHR@@V?$allocator@UVkSurfaceFormatKHR@@@std@@@std@@AEAAAEAV?$allocator@UVkSurfaceFormatKHR@@@2@XZ ; std::vector<VkSurfaceFormatKHR,std::allocator<VkSurfaceFormatKHR> >::_Getal
	mov	rdx, rax
	lea	rcx, QWORD PTR $S2$[rbp]
	call	??$?0UVkSurfaceFormatKHR@@@?$allocator@U_Container_proxy@std@@@std@@QEAA@AEBV?$allocator@UVkSurfaceFormatKHR@@@1@@Z ; std::allocator<std::_Container_proxy>::allocator<std::_Container_proxy><VkSurfaceFormatKHR>
	lea	rax, QWORD PTR $S2$[rbp]
	mov	QWORD PTR _Alproxy$[rbp], rax
; Line 794
	mov	QWORD PTR $T4[rbp], 0
	mov	rax, QWORD PTR this$[rbp]
	lea	rdx, QWORD PTR $T4[rbp]
	mov	rcx, rax
	call	??$exchange@PEAU_Container_proxy@std@@$$T@std@@YAPEAU_Container_proxy@0@AEAPEAU10@$$QEA$$T@Z ; std::exchange<std::_Container_proxy *,std::nullptr_t>
	mov	rdx, rax
	mov	rcx, QWORD PTR _Alproxy$[rbp]
	call	??$_Delete_plain_internal@V?$allocator@U_Container_proxy@std@@@std@@@std@@YAXAEAV?$allocator@U_Container_proxy@std@@@0@QEAU_Container_proxy@0@@Z ; std::_Delete_plain_internal<std::allocator<std::_Container_proxy> >
; Line 796
	lea	rcx, QWORD PTR [rbp-32]
	lea	rdx, OFFSET FLAT:??1?$vector@UVkSurfaceFormatKHR@@V?$allocator@UVkSurfaceFormatKHR@@@std@@@std@@QEAA@XZ$rtcFrameData
	call	_RTC_CheckStackVars
	mov	rcx, QWORD PTR __$ArrayPad$[rbp]
	xor	rcx, rbp
	call	__security_check_cookie
	lea	rsp, QWORD PTR [rbp+296]
	pop	rdi
	pop	rbp
	ret	0
??1?$vector@UVkSurfaceFormatKHR@@V?$allocator@UVkSurfaceFormatKHR@@@std@@@std@@QEAA@XZ ENDP ; std::vector<VkSurfaceFormatKHR,std::allocator<VkSurfaceFormatKHR> >::~vector<VkSurfaceFormatKHR,std::allocator<VkSurfaceFormatKHR> >
_TEXT	ENDS
; Function compile flags: /Odtp /RTCsu /ZI
;	COMDAT ?deallocate@?$allocator@UVkSurfaceFormatKHR@@@std@@QEAAXQEAUVkSurfaceFormatKHR@@_K@Z
_TEXT	SEGMENT
this$ = 224
_Ptr$ = 232
_Count$ = 240
?deallocate@?$allocator@UVkSurfaceFormatKHR@@@std@@QEAAXQEAUVkSurfaceFormatKHR@@_K@Z PROC ; std::allocator<VkSurfaceFormatKHR>::deallocate, COMDAT
; File C:\Program Files\Microsoft Visual Studio\2022\Community\VC\Tools\MSVC\14.32.31326\include\xmemory
; Line 827
$LN13:
	mov	QWORD PTR [rsp+24], r8
	mov	QWORD PTR [rsp+16], rdx
	mov	QWORD PTR [rsp+8], rcx
	push	rbp
	push	rdi
	sub	rsp, 248				; 000000f8H
	lea	rbp, QWORD PTR [rsp+48]
	lea	rcx, OFFSET FLAT:__48ED051B_xmemory
	call	__CheckForDebuggerJustMyCode
$LN4@deallocate:
; Line 828
	cmp	QWORD PTR _Ptr$[rbp], 0
	jne	SHORT $LN10@deallocate
	cmp	QWORD PTR _Count$[rbp], 0
	jne	SHORT $LN8@deallocate
$LN10@deallocate:
	jmp	SHORT $LN9@deallocate
$LN8@deallocate:
$LN7@deallocate:
	lea	rax, OFFSET FLAT:??_C@_0DG@KGHKKGBC@null?5pointer?5cannot?5point?5to?5a?5@
	mov	QWORD PTR [rsp+40], rax
	lea	rax, OFFSET FLAT:??_C@_02DKCKIIND@?$CFs@
	mov	QWORD PTR [rsp+32], rax
	xor	r9d, r9d
	mov	r8d, 828				; 0000033cH
	lea	rdx, OFFSET FLAT:??_C@_0GC@DJFHHHKN@C?3?2Program?5Files?2Microsoft?5Visu@
	mov	ecx, 2
	call	QWORD PTR __imp__CrtDbgReport
	cmp	eax, 1
	jne	SHORT $LN12@deallocate
	int	3
	xor	eax, eax
$LN12@deallocate:
	mov	QWORD PTR [rsp+32], 0
	mov	r9d, 828				; 0000033cH
	lea	r8, OFFSET FLAT:??_C@_1ME@GEFGDEOM@?$AAC?$AA?3?$AA?2?$AAP?$AAr?$AAo?$AAg?$AAr?$AAa?$AAm?$AA?5?$AAF?$AAi?$AAl?$AAe@
	lea	rdx, OFFSET FLAT:??_C@_11LOCGONAA@@
	lea	rcx, OFFSET FLAT:??_C@_1HA@FACCKGGH@?$AA?$CC?$AAn?$AAu?$AAl?$AAl?$AA?5?$AAp?$AAo?$AAi?$AAn?$AAt?$AAe?$AAr?$AA?5?$AAc@
	call	QWORD PTR __imp__invalid_parameter
	xor	eax, eax
	test	eax, eax
	jne	SHORT $LN7@deallocate
$LN9@deallocate:
	xor	eax, eax
	test	eax, eax
	jne	$LN4@deallocate
; Line 830
	mov	rax, QWORD PTR _Count$[rbp]
	shl	rax, 3
	mov	rdx, rax
	mov	rcx, QWORD PTR _Ptr$[rbp]
	call	??$_Deallocate@$0BA@$0A@@std@@YAXPEAX_K@Z ; std::_Deallocate<16,0>
; Line 831
	lea	rsp, QWORD PTR [rbp+200]
	pop	rdi
	pop	rbp
	ret	0
?deallocate@?$allocator@UVkSurfaceFormatKHR@@@std@@QEAAXQEAUVkSurfaceFormatKHR@@_K@Z ENDP ; std::allocator<VkSurfaceFormatKHR>::deallocate
_TEXT	ENDS
; Function compile flags: /Odtp /RTCsu /ZI
;	COMDAT ??D?$_Optional_construct_base@I@std@@QEGAAAEAIXZ
_TEXT	SEGMENT
this$ = 224
??D?$_Optional_construct_base@I@std@@QEGAAAEAIXZ PROC	; std::_Optional_construct_base<unsigned int>::operator*, COMDAT
; File C:\Program Files\Microsoft Visual Studio\2022\Community\VC\Tools\MSVC\14.32.31326\include\optional
; Line 178
$LN12:
	mov	QWORD PTR [rsp+8], rcx
	push	rbp
	push	rdi
	sub	rsp, 248				; 000000f8H
	lea	rbp, QWORD PTR [rsp+48]
	lea	rcx, OFFSET FLAT:__14737915_optional
	call	__CheckForDebuggerJustMyCode
$LN4@operator:
; Line 180
	mov	rax, QWORD PTR this$[rbp]
	movzx	eax, BYTE PTR [rax+4]
	test	eax, eax
	je	SHORT $LN7@operator
	jmp	SHORT $LN9@operator
$LN7@operator:
	lea	rax, OFFSET FLAT:??_C@_0CG@LKEBOLJI@Cannot?5access?5value?5of?5empty?5op@
	mov	QWORD PTR [rsp+40], rax
	lea	rax, OFFSET FLAT:??_C@_02DKCKIIND@?$CFs@
	mov	QWORD PTR [rsp+32], rax
	xor	r9d, r9d
	mov	r8d, 180				; 000000b4H
	lea	rdx, OFFSET FLAT:??_C@_0GD@BMMLGIEI@C?3?2Program?5Files?2Microsoft?5Visu@
	mov	ecx, 2
	call	QWORD PTR __imp__CrtDbgReport
	cmp	eax, 1
	jne	SHORT $LN11@operator
	int	3
	xor	eax, eax
$LN11@operator:
	mov	QWORD PTR [rsp+32], 0
	mov	r9d, 180				; 000000b4H
	lea	r8, OFFSET FLAT:??_C@_1MG@LOEFAMPE@?$AAC?$AA?3?$AA?2?$AAP?$AAr?$AAo?$AAg?$AAr?$AAa?$AAm?$AA?5?$AAF?$AAi?$AAl?$AAe@
	lea	rdx, OFFSET FLAT:??_C@_11LOCGONAA@@
	lea	rcx, OFFSET FLAT:??_C@_1FA@DPIDPJCB@?$AA?$CC?$AAC?$AAa?$AAn?$AAn?$AAo?$AAt?$AA?5?$AAa?$AAc?$AAc?$AAe?$AAs?$AAs?$AA?5@
	call	QWORD PTR __imp__invalid_parameter
	xor	eax, eax
	test	eax, eax
	jne	SHORT $LN7@operator
$LN9@operator:
	xor	eax, eax
	test	eax, eax
	jne	$LN4@operator
; Line 182
	mov	rax, QWORD PTR this$[rbp]
; Line 183
	lea	rsp, QWORD PTR [rbp+200]
	pop	rdi
	pop	rbp
	ret	0
??D?$_Optional_construct_base@I@std@@QEGAAAEAIXZ ENDP	; std::_Optional_construct_base<unsigned int>::operator*
_TEXT	ENDS
; Function compile flags: /Odtp /RTCsu /ZI
;	COMDAT ??_Gruntime_error@std@@UEAAPEAXI@Z
_TEXT	SEGMENT
this$ = 224
__flags$ = 232
??_Gruntime_error@std@@UEAAPEAXI@Z PROC			; std::runtime_error::`scalar deleting destructor', COMDAT
$LN4:
	mov	DWORD PTR [rsp+16], edx
	mov	QWORD PTR [rsp+8], rcx
	push	rbp
	push	rdi
	sub	rsp, 232				; 000000e8H
	lea	rbp, QWORD PTR [rsp+32]
	mov	rcx, QWORD PTR this$[rbp]
	call	??1runtime_error@std@@UEAA@XZ
	mov	eax, DWORD PTR __flags$[rbp]
	and	eax, 1
	test	eax, eax
	je	SHORT $LN2@scalar
	mov	edx, 24
	mov	rcx, QWORD PTR this$[rbp]
	call	??3@YAXPEAX_K@Z				; operator delete
$LN2@scalar:
	mov	rax, QWORD PTR this$[rbp]
	lea	rsp, QWORD PTR [rbp+200]
	pop	rdi
	pop	rbp
	ret	0
??_Gruntime_error@std@@UEAAPEAXI@Z ENDP			; std::runtime_error::`scalar deleting destructor'
_TEXT	ENDS
; Function compile flags: /Odtp /RTCsu /ZI
;	COMDAT ??0runtime_error@std@@QEAA@AEBV01@@Z
_TEXT	SEGMENT
this$ = 224
__that$ = 232
??0runtime_error@std@@QEAA@AEBV01@@Z PROC		; std::runtime_error::runtime_error, COMDAT
$LN3:
	mov	QWORD PTR [rsp+16], rdx
	mov	QWORD PTR [rsp+8], rcx
	push	rbp
	push	rdi
	sub	rsp, 232				; 000000e8H
	lea	rbp, QWORD PTR [rsp+32]
	mov	rdx, QWORD PTR __that$[rbp]
	mov	rcx, QWORD PTR this$[rbp]
	call	??0exception@std@@QEAA@AEBV01@@Z	; std::exception::exception
	mov	rax, QWORD PTR this$[rbp]
	lea	rcx, OFFSET FLAT:??_7runtime_error@std@@6B@
	mov	QWORD PTR [rax], rcx
	mov	rax, QWORD PTR this$[rbp]
	lea	rsp, QWORD PTR [rbp+200]
	pop	rdi
	pop	rbp
	ret	0
??0runtime_error@std@@QEAA@AEBV01@@Z ENDP		; std::runtime_error::runtime_error
_TEXT	ENDS
; Function compile flags: /Odtp /RTCsu /ZI
;	COMDAT ??1runtime_error@std@@UEAA@XZ
_TEXT	SEGMENT
this$ = 224
??1runtime_error@std@@UEAA@XZ PROC			; std::runtime_error::~runtime_error, COMDAT
$LN3:
	mov	QWORD PTR [rsp+8], rcx
	push	rbp
	push	rdi
	sub	rsp, 232				; 000000e8H
	lea	rbp, QWORD PTR [rsp+32]
	mov	rcx, QWORD PTR this$[rbp]
	call	??1exception@std@@UEAA@XZ		; std::exception::~exception
	lea	rsp, QWORD PTR [rbp+200]
	pop	rdi
	pop	rbp
	ret	0
??1runtime_error@std@@UEAA@XZ ENDP			; std::runtime_error::~runtime_error
_TEXT	ENDS
; Function compile flags: /Odtp /RTCsu /ZI
;	COMDAT ??0runtime_error@std@@QEAA@PEBD@Z
_TEXT	SEGMENT
this$ = 224
_Message$ = 232
??0runtime_error@std@@QEAA@PEBD@Z PROC			; std::runtime_error::runtime_error, COMDAT
; File C:\Program Files\Microsoft Visual Studio\2022\Community\VC\Tools\MSVC\14.32.31326\include\stdexcept
; Line 107
$LN4:
	mov	QWORD PTR [rsp+16], rdx
	mov	QWORD PTR [rsp+8], rcx
	push	rbp
	push	rdi
	sub	rsp, 232				; 000000e8H
	lea	rbp, QWORD PTR [rsp+32]
	lea	rcx, OFFSET FLAT:__25D7A753_stdexcept
	call	__CheckForDebuggerJustMyCode
	mov	rdx, QWORD PTR _Message$[rbp]
	mov	rcx, QWORD PTR this$[rbp]
	call	??0exception@std@@QEAA@QEBD@Z		; std::exception::exception
	mov	rax, QWORD PTR this$[rbp]
	lea	rcx, OFFSET FLAT:??_7runtime_error@std@@6B@
	mov	QWORD PTR [rax], rcx
	mov	rax, QWORD PTR this$[rbp]
	lea	rsp, QWORD PTR [rbp+200]
	pop	rdi
	pop	rbp
	ret	0
??0runtime_error@std@@QEAA@PEBD@Z ENDP			; std::runtime_error::runtime_error
_TEXT	ENDS
; Function compile flags: /Odtp /RTCsu /ZI
;	COMDAT ?_Orphan_all_locked_v3@_Container_base12@std@@AEAAXXZ
_TEXT	SEGMENT
_Lock$ = 4
__$ArrayPad$ = 216
this$ = 256
?_Orphan_all_locked_v3@_Container_base12@std@@AEAAXXZ PROC ; std::_Container_base12::_Orphan_all_locked_v3, COMDAT
; File C:\Program Files\Microsoft Visual Studio\2022\Community\VC\Tools\MSVC\14.32.31326\include\xmemory
; Line 1078
$LN3:
	mov	QWORD PTR [rsp+8], rcx
	push	rbp
	push	rdi
	sub	rsp, 264				; 00000108H
	lea	rbp, QWORD PTR [rsp+32]
	lea	rdi, QWORD PTR [rsp+32]
	mov	ecx, 10
	mov	eax, -858993460				; ccccccccH
	rep stosd
	mov	rcx, QWORD PTR [rsp+296]
	mov	rax, QWORD PTR __security_cookie
	xor	rax, rbp
	mov	QWORD PTR __$ArrayPad$[rbp], rax
	lea	rcx, OFFSET FLAT:__48ED051B_xmemory
	call	__CheckForDebuggerJustMyCode
; Line 1079
	mov	edx, 3
	lea	rcx, QWORD PTR _Lock$[rbp]
	call	QWORD PTR __imp_??0_Lockit@std@@QEAA@H@Z
; Line 1080
	mov	rcx, QWORD PTR this$[rbp]
	call	?_Orphan_all_unlocked_v3@_Container_base12@std@@AEAAXXZ ; std::_Container_base12::_Orphan_all_unlocked_v3
; Line 1081
	lea	rcx, QWORD PTR _Lock$[rbp]
	call	QWORD PTR __imp_??1_Lockit@std@@QEAA@XZ
	lea	rcx, QWORD PTR [rbp-32]
	lea	rdx, OFFSET FLAT:?_Orphan_all_locked_v3@_Container_base12@std@@AEAAXXZ$rtcFrameData
	call	_RTC_CheckStackVars
	mov	rcx, QWORD PTR __$ArrayPad$[rbp]
	xor	rcx, rbp
	call	__security_check_cookie
	lea	rsp, QWORD PTR [rbp+232]
	pop	rdi
	pop	rbp
	ret	0
?_Orphan_all_locked_v3@_Container_base12@std@@AEAAXXZ ENDP ; std::_Container_base12::_Orphan_all_locked_v3
_TEXT	ENDS
; Function compile flags: /Odtp /RTCsu /ZI
;	COMDAT ?_Orphan_all_unlocked_v3@_Container_base12@std@@AEAAXXZ
_TEXT	SEGMENT
_Pnext$1 = 8
this$ = 256
?_Orphan_all_unlocked_v3@_Container_base12@std@@AEAAXXZ PROC ; std::_Container_base12::_Orphan_all_unlocked_v3, COMDAT
; File C:\Program Files\Microsoft Visual Studio\2022\Community\VC\Tools\MSVC\14.32.31326\include\xmemory
; Line 1219
$LN7:
	mov	QWORD PTR [rsp+8], rcx
	push	rbp
	push	rdi
	sub	rsp, 264				; 00000108H
	lea	rbp, QWORD PTR [rsp+32]
	lea	rcx, OFFSET FLAT:__48ED051B_xmemory
	call	__CheckForDebuggerJustMyCode
; Line 1220
	mov	rax, QWORD PTR this$[rbp]
	cmp	QWORD PTR [rax], 0
	jne	SHORT $LN5@Orphan_all
; Line 1221
	jmp	SHORT $LN1@Orphan_all
$LN5@Orphan_all:
; Line 1225
	mov	rax, QWORD PTR this$[rbp]
	mov	rax, QWORD PTR [rax]
	add	rax, 8
	mov	QWORD PTR _Pnext$1[rbp], rax
	jmp	SHORT $LN4@Orphan_all
$LN2@Orphan_all:
	mov	rax, QWORD PTR _Pnext$1[rbp]
	mov	rax, QWORD PTR [rax]
	mov	rcx, QWORD PTR _Pnext$1[rbp]
	mov	rax, QWORD PTR [rax+8]
	mov	QWORD PTR [rcx], rax
$LN4@Orphan_all:
	mov	rax, QWORD PTR _Pnext$1[rbp]
	cmp	QWORD PTR [rax], 0
	je	SHORT $LN3@Orphan_all
; Line 1226
	mov	rax, QWORD PTR _Pnext$1[rbp]
	mov	rax, QWORD PTR [rax]
	mov	QWORD PTR [rax], 0
; Line 1227
	jmp	SHORT $LN2@Orphan_all
$LN3@Orphan_all:
; Line 1228
	mov	rax, QWORD PTR this$[rbp]
	mov	rax, QWORD PTR [rax]
	mov	QWORD PTR [rax+8], 0
$LN1@Orphan_all:
; Line 1229
	lea	rsp, QWORD PTR [rbp+232]
	pop	rdi
	pop	rbp
	ret	0
?_Orphan_all_unlocked_v3@_Container_base12@std@@AEAAXXZ ENDP ; std::_Container_base12::_Orphan_all_unlocked_v3
_TEXT	ENDS
; Function compile flags: /Odtp /RTCsu /ZI
;	COMDAT ?_Orphan_all@_Container_base12@std@@QEAAXXZ
_TEXT	SEGMENT
this$ = 224
?_Orphan_all@_Container_base12@std@@QEAAXXZ PROC	; std::_Container_base12::_Orphan_all, COMDAT
; File C:\Program Files\Microsoft Visual Studio\2022\Community\VC\Tools\MSVC\14.32.31326\include\xmemory
; Line 1231
$LN5:
	mov	QWORD PTR [rsp+8], rcx
	push	rbp
	push	rdi
	sub	rsp, 232				; 000000e8H
	lea	rbp, QWORD PTR [rsp+32]
	lea	rcx, OFFSET FLAT:__48ED051B_xmemory
	call	__CheckForDebuggerJustMyCode
; Line 1234
	call	?is_constant_evaluated@std@@YA_NXZ	; std::is_constant_evaluated
	movzx	eax, al
	test	eax, eax
	je	SHORT $LN2@Orphan_all
; Line 1235
	mov	rcx, QWORD PTR this$[rbp]
	call	?_Orphan_all_unlocked_v3@_Container_base12@std@@AEAAXXZ ; std::_Container_base12::_Orphan_all_unlocked_v3
; Line 1236
	jmp	SHORT $LN3@Orphan_all
$LN2@Orphan_all:
; Line 1239
	mov	rcx, QWORD PTR this$[rbp]
	call	?_Orphan_all_locked_v3@_Container_base12@std@@AEAAXXZ ; std::_Container_base12::_Orphan_all_locked_v3
$LN3@Orphan_all:
; Line 1242
	lea	rsp, QWORD PTR [rbp+200]
	pop	rdi
	pop	rbp
	ret	0
?_Orphan_all@_Container_base12@std@@QEAAXXZ ENDP	; std::_Container_base12::_Orphan_all
_TEXT	ENDS
; Function compile flags: /Odtp /RTCsu /ZI
;	COMDAT ?_Adjust_manually_vector_aligned@std@@YAXAEAPEAXAEA_K@Z
_TEXT	SEGMENT
_Ptr_user$ = 8
_Ptr_container$ = 40
_Min_back_shift$ = 72
_Back_shift$ = 104
_Ptr$ = 352
_Bytes$ = 360
?_Adjust_manually_vector_aligned@std@@YAXAEAPEAXAEA_K@Z PROC ; std::_Adjust_manually_vector_aligned, COMDAT
; File C:\Program Files\Microsoft Visual Studio\2022\Community\VC\Tools\MSVC\14.32.31326\include\xmemory
; Line 145
$LN21:
	mov	QWORD PTR [rsp+16], rdx
	mov	QWORD PTR [rsp+8], rcx
	push	rbp
	push	rdi
	sub	rsp, 376				; 00000178H
	lea	rbp, QWORD PTR [rsp+48]
	lea	rcx, OFFSET FLAT:__48ED051B_xmemory
	call	__CheckForDebuggerJustMyCode
; Line 147
	mov	rax, QWORD PTR _Bytes$[rbp]
	mov	rax, QWORD PTR [rax]
	add	rax, 47					; 0000002fH
	mov	rcx, QWORD PTR _Bytes$[rbp]
	mov	QWORD PTR [rcx], rax
; Line 149
	mov	rax, QWORD PTR _Ptr$[rbp]
	mov	rax, QWORD PTR [rax]
	mov	QWORD PTR _Ptr_user$[rbp], rax
; Line 150
	mov	eax, 8
	imul	rax, rax, -1
	mov	rcx, QWORD PTR _Ptr_user$[rbp]
	mov	rax, QWORD PTR [rcx+rax]
	mov	QWORD PTR _Ptr_container$[rbp], rax
$LN4@Adjust_man:
; Line 154
	mov	eax, 8
	imul	rax, rax, -2
	mov	rcx, QWORD PTR _Ptr_user$[rbp]
	mov	rdx, -361700864190383366		; fafafafafafafafaH
	cmp	QWORD PTR [rcx+rax], rdx
	jne	SHORT $LN14@Adjust_man
	jmp	SHORT $LN15@Adjust_man
$LN14@Adjust_man:
$LN7@Adjust_man:
	mov	eax, DWORD PTR ?__LINE__Var@?0??_Adjust_manually_vector_aligned@std@@YAXAEAPEAXAEA_K@Z@4JA
	add	eax, 9
	lea	rcx, OFFSET FLAT:??_C@_0BB@FCMFBGOM@invalid?5argument@
	mov	QWORD PTR [rsp+40], rcx
	lea	rcx, OFFSET FLAT:??_C@_02DKCKIIND@?$CFs@
	mov	QWORD PTR [rsp+32], rcx
	xor	r9d, r9d
	mov	r8d, eax
	lea	rdx, OFFSET FLAT:??_C@_0GC@DJFHHHKN@C?3?2Program?5Files?2Microsoft?5Visu@
	mov	ecx, 2
	call	QWORD PTR __imp__CrtDbgReport
	cmp	eax, 1
	jne	SHORT $LN19@Adjust_man
	int	3
	xor	eax, eax
$LN19@Adjust_man:
	mov	eax, DWORD PTR ?__LINE__Var@?0??_Adjust_manually_vector_aligned@std@@YAXAEAPEAXAEA_K@Z@4JA
	add	eax, 9
	mov	QWORD PTR [rsp+32], 0
	mov	r9d, eax
	lea	r8, OFFSET FLAT:??_C@_1ME@GEFGDEOM@?$AAC?$AA?3?$AA?2?$AAP?$AAr?$AAo?$AAg?$AAr?$AAa?$AAm?$AA?5?$AAF?$AAi?$AAl?$AAe@
	lea	rdx, OFFSET FLAT:??_C@_11LOCGONAA@@
	lea	rcx, OFFSET FLAT:??_C@_1CG@JNLFBNGN@?$AA?$CC?$AAi?$AAn?$AAv?$AAa?$AAl?$AAi?$AAd?$AA?5?$AAa?$AAr?$AAg?$AAu?$AAm?$AAe@
	call	QWORD PTR __imp__invalid_parameter
	xor	eax, eax
	test	eax, eax
	jne	SHORT $LN7@Adjust_man
$LN15@Adjust_man:
	xor	eax, eax
	test	eax, eax
	jne	$LN4@Adjust_man
; Line 159
	mov	QWORD PTR _Min_back_shift$[rbp], 16
; Line 163
	mov	rax, QWORD PTR _Ptr$[rbp]
	mov	rcx, QWORD PTR _Ptr_container$[rbp]
	mov	rax, QWORD PTR [rax]
	sub	rax, rcx
	mov	QWORD PTR _Back_shift$[rbp], rax
$LN10@Adjust_man:
; Line 164
	cmp	QWORD PTR _Back_shift$[rbp], 16
	jb	SHORT $LN16@Adjust_man
	cmp	QWORD PTR _Back_shift$[rbp], 47		; 0000002fH
	ja	SHORT $LN16@Adjust_man
	jmp	SHORT $LN17@Adjust_man
$LN16@Adjust_man:
$LN13@Adjust_man:
	mov	eax, DWORD PTR ?__LINE__Var@?0??_Adjust_manually_vector_aligned@std@@YAXAEAPEAXAEA_K@Z@4JA
	add	eax, 19
	lea	rcx, OFFSET FLAT:??_C@_0BB@FCMFBGOM@invalid?5argument@
	mov	QWORD PTR [rsp+40], rcx
	lea	rcx, OFFSET FLAT:??_C@_02DKCKIIND@?$CFs@
	mov	QWORD PTR [rsp+32], rcx
	xor	r9d, r9d
	mov	r8d, eax
	lea	rdx, OFFSET FLAT:??_C@_0GC@DJFHHHKN@C?3?2Program?5Files?2Microsoft?5Visu@
	mov	ecx, 2
	call	QWORD PTR __imp__CrtDbgReport
	cmp	eax, 1
	jne	SHORT $LN20@Adjust_man
	int	3
	xor	eax, eax
$LN20@Adjust_man:
	mov	eax, DWORD PTR ?__LINE__Var@?0??_Adjust_manually_vector_aligned@std@@YAXAEAPEAXAEA_K@Z@4JA
	add	eax, 19
	mov	QWORD PTR [rsp+32], 0
	mov	r9d, eax
	lea	r8, OFFSET FLAT:??_C@_1ME@GEFGDEOM@?$AAC?$AA?3?$AA?2?$AAP?$AAr?$AAo?$AAg?$AAr?$AAa?$AAm?$AA?5?$AAF?$AAi?$AAl?$AAe@
	lea	rdx, OFFSET FLAT:??_C@_11LOCGONAA@@
	lea	rcx, OFFSET FLAT:??_C@_1CG@JNLFBNGN@?$AA?$CC?$AAi?$AAn?$AAv?$AAa?$AAl?$AAi?$AAd?$AA?5?$AAa?$AAr?$AAg?$AAu?$AAm?$AAe@
	call	QWORD PTR __imp__invalid_parameter
	xor	eax, eax
	test	eax, eax
	jne	SHORT $LN13@Adjust_man
$LN17@Adjust_man:
	xor	eax, eax
	test	eax, eax
	jne	$LN10@Adjust_man
; Line 165
	mov	rax, QWORD PTR _Ptr$[rbp]
	mov	rcx, QWORD PTR _Ptr_container$[rbp]
	mov	QWORD PTR [rax], rcx
; Line 166
	lea	rsp, QWORD PTR [rbp+328]
	pop	rdi
	pop	rbp
	ret	0
?_Adjust_manually_vector_aligned@std@@YAXAEAPEAXAEA_K@Z ENDP ; std::_Adjust_manually_vector_aligned
_TEXT	ENDS
; Function compile flags: /Odtp /RTCsu /ZI
;	COMDAT ??_Gexception@std@@UEAAPEAXI@Z
_TEXT	SEGMENT
this$ = 224
__flags$ = 232
??_Gexception@std@@UEAAPEAXI@Z PROC			; std::exception::`scalar deleting destructor', COMDAT
$LN4:
	mov	DWORD PTR [rsp+16], edx
	mov	QWORD PTR [rsp+8], rcx
	push	rbp
	push	rdi
	sub	rsp, 232				; 000000e8H
	lea	rbp, QWORD PTR [rsp+32]
	mov	rcx, QWORD PTR this$[rbp]
	call	??1exception@std@@UEAA@XZ		; std::exception::~exception
	mov	eax, DWORD PTR __flags$[rbp]
	and	eax, 1
	test	eax, eax
	je	SHORT $LN2@scalar
	mov	edx, 24
	mov	rcx, QWORD PTR this$[rbp]
	call	??3@YAXPEAX_K@Z				; operator delete
$LN2@scalar:
	mov	rax, QWORD PTR this$[rbp]
	lea	rsp, QWORD PTR [rbp+200]
	pop	rdi
	pop	rbp
	ret	0
??_Gexception@std@@UEAAPEAXI@Z ENDP			; std::exception::`scalar deleting destructor'
_TEXT	ENDS
; Function compile flags: /Odtp /RTCsu /ZI
;	COMDAT ?what@exception@std@@UEBAPEBDXZ
_TEXT	SEGMENT
tv69 = 192
this$ = 240
?what@exception@std@@UEBAPEBDXZ PROC			; std::exception::what, COMDAT
; File C:\Program Files\Microsoft Visual Studio\2022\Community\VC\Tools\MSVC\14.32.31326\include\vcruntime_exception.h
; Line 94
$LN5:
	mov	QWORD PTR [rsp+8], rcx
	push	rbp
	push	rdi
	sub	rsp, 248				; 000000f8H
	lea	rbp, QWORD PTR [rsp+32]
	lea	rcx, OFFSET FLAT:__6A8FA247_vcruntime_exception@h
	call	__CheckForDebuggerJustMyCode
; Line 95
	mov	rax, QWORD PTR this$[rbp]
	cmp	QWORD PTR [rax+8], 0
	je	SHORT $LN3@what
	mov	rax, QWORD PTR this$[rbp]
	mov	rax, QWORD PTR [rax+8]
	mov	QWORD PTR tv69[rbp], rax
	jmp	SHORT $LN4@what
$LN3@what:
	lea	rax, OFFSET FLAT:??_C@_0BC@EOODALEL@Unknown?5exception@
	mov	QWORD PTR tv69[rbp], rax
$LN4@what:
	mov	rax, QWORD PTR tv69[rbp]
; Line 96
	lea	rsp, QWORD PTR [rbp+216]
	pop	rdi
	pop	rbp
	ret	0
?what@exception@std@@UEBAPEBDXZ ENDP			; std::exception::what
_TEXT	ENDS
; Function compile flags: /Odtp /RTCsu /ZI
;	COMDAT ??1exception@std@@UEAA@XZ
_TEXT	SEGMENT
