; Listing generated by Microsoft (R) Optimizing Compiler Version 19.32.31332.0 

include listing.inc

INCLUDELIB MSVCRTD
INCLUDELIB OLDNAMES

msvcjmc	SEGMENT
__29CF54F3_concurrencysal@h DB 01H
__413FEA08_sal@h DB 01H
__6972C38F_vadefs@h DB 01H
__E6B4F19D_vcruntime@h DB 01H
__1B0272D9_corecrt@h DB 01H
__13F5961F_stddef@h DB 01H
__117FADE9_stdint@h DB 01H
__6F45C614_vk_platform@h DB 01H
__5FA1F762_vulkan_core@h DB 01H
__AD247E74_vulkan@h DB 01H
__654A365E_cowdef@hpp DB 01H
__0269B480_xkeycheck@h DB 01H
__4A835745_yvals_core@h DB 01H
__AEFC1A78_intrin0@inl@h DB 01H
__7DEB4A93_intrin0@h DB 01H
__47E06DF5_isa_availability@h DB 01H
__B9985323_float@h DB 01H
__489E80C8_cfloat DB 01H
__AF0983D6_limits@h DB 01H
__919AC1A1_climits DB 01H
__44420885_corecrt_stdio_config@h DB 01H
__AB601D8D_corecrt_wstdio@h DB 01H
__C1EC35D3_stdio@h DB 01H
__3BDA4B4F_cstdio DB 01H
__61CC25A1_errno@h DB 01H
__946B6786_vcruntime_string@h DB 01H
__E4C945B4_corecrt_memcpy_s@h DB 01H
__EF1F6BBA_corecrt_wconio@h DB 01H
__74484FB3_corecrt_wctype@h DB 01H
__3D1D430C_corecrt_wdirect@h DB 01H
__8ECB7138_corecrt_share@h DB 01H
__DB7FEBA6_corecrt_wio@h DB 01H
__9A9F0068_corecrt_wprocess@h DB 01H
__E2E33A61_corecrt_wstdlib@h DB 01H
__6490AEC5_corecrt_wstring@h DB 01H
__369A9BC3_corecrt_wtime@h DB 01H
__CE789B9D_types@h DB 01H
__9901C817_stat@h DB 01H
__3FCAD62E_wchar@h DB 01H
__A1519D1C_cwchar DB 01H
__197E5946_xtr1common DB 01H
__B0BE39FE_cstddef DB 01H
__BB16330F_corecrt_math@h DB 01H
__3BF2A406_math@h DB 01H
__45DED006_corecrt_malloc@h DB 01H
__FD6DBD68_corecrt_search@h DB 01H
__6E5ACABA_stdlib@h DB 01H
__1575E353_cstdlib DB 01H
__330922C0_initializer_list DB 01H
__D567F1CA_xstddef DB 01H
__2E78CDAC_limits DB 01H
__A82B022E_cstdint DB 01H
__4CC0724B_type_traits DB 01H
__3819D017_bit DB 01H
__68FABE09_vcruntime_new@h DB 01H
__F90F3CDE_concepts DB 01H
__EC60D9E2_compare DB 01H
__6261A715_vcruntime_new_debug@h DB 01H
__935DC21B_crtdbg@h DB 01H
__64C6F398_crtdefs@h DB 01H
__E2706B0F_use_ansi@h DB 01H
__A33555EC_yvals@h DB 01H
__8EAFF484_corecrt_memory@h DB 01H
__E8295E1E_string@h DB 01H
__59E74BB3_cstring DB 01H
__227866D8_utility DB 01H
__7DA7D514_xutility DB 01H
__85A6FDFE_tuple DB 01H
__C70F9156_Instance@hpp DB 01H
__0ED14FEE_winpackagefamily@h DB 01H
__F92EF742_winapifamily@h DB 01H
__B064E8EE_gl@h DB 01H
__D81DEF64_glfw3@h DB 01H
__FA77ED4C_malloc@h DB 01H
__89766DA4_corecrt_terminate@h DB 01H
__1CC3922D_eh@h DB 01H
__6A8FA247_vcruntime_exception@h DB 01H
__AC999D0E_exception DB 01H
__E291182A_iosfwd DB 01H
__04BF37C5_new DB 01H
__A69511D8_xatomic@h DB 01H
__48ED051B_xmemory DB 01H
__01FC9A31_xpolymorphic_allocator@h DB 01H
__3C3E8387_xstring DB 01H
__25D7A753_stdexcept DB 01H
__E8A7DAC2_Window@hpp DB 01H
__63D5BD4C_vector DB 01H
__1B6E63DA_xsmf_control@h DB 01H
__14737915_optional DB 01H
__61615CFA_Device@hpp DB 01H
__2B8D1AA2_vcruntime_typeinfo@h DB 01H
__0D78260D_typeinfo DB 01H
__13D0C879_xatomic_wait@h DB 01H
__0A9237D2_time@h DB 01H
__E53678B7_ctime DB 01H
__CB633655_xtimec@h DB 01H
__833E5CBC_xthreads@h DB 01H
__454D916E_atomic DB 01H
__92D6C122_memory DB 01H
__125A2BD9_array DB 01H
__CE2F1DBE_Swapchain@hpp DB 01H
__13D4D4C0_GraphicsCommands@hpp DB 01H
__1F813B21_GraphicsCommands@cpp DB 01H
msvcjmc	ENDS
PUBLIC	??0exception@std@@QEAA@QEBD@Z			; std::exception::exception
PUBLIC	??0exception@std@@QEAA@AEBV01@@Z		; std::exception::exception
PUBLIC	??1exception@std@@UEAA@XZ			; std::exception::~exception
PUBLIC	?what@exception@std@@UEBAPEBDXZ			; std::exception::what
PUBLIC	??_Gexception@std@@UEAAPEAXI@Z			; std::exception::`scalar deleting destructor'
PUBLIC	??0runtime_error@std@@QEAA@PEBD@Z		; std::runtime_error::runtime_error
PUBLIC	??1runtime_error@std@@UEAA@XZ			; std::runtime_error::~runtime_error
PUBLIC	??0runtime_error@std@@QEAA@AEBV01@@Z		; std::runtime_error::runtime_error
PUBLIC	??_Gruntime_error@std@@UEAAPEAXI@Z		; std::runtime_error::`scalar deleting destructor'
PUBLIC	?getExtend2D@Window@cow@@QEBA?AUVkExtent2D@@XZ	; cow::Window::getExtend2D
PUBLIC	?getDevice@Device@cow@@QEAAPEAUVkDevice_T@@XZ	; cow::Device::getDevice
PUBLIC	?getCommandPool@Device@cow@@QEAAPEAUVkCommandPool_T@@XZ ; cow::Device::getCommandPool
PUBLIC	??8type_info@@QEBA_NAEBV0@@Z			; type_info::operator==
PUBLIC	??0_Ref_count_base@std@@IEAA@XZ			; std::_Ref_count_base::_Ref_count_base
PUBLIC	??1_Ref_count_base@std@@UEAA@XZ			; std::_Ref_count_base::~_Ref_count_base
PUBLIC	?_Incref@_Ref_count_base@std@@QEAAXXZ		; std::_Ref_count_base::_Incref
PUBLIC	?_Decref@_Ref_count_base@std@@QEAAXXZ		; std::_Ref_count_base::_Decref
PUBLIC	?_Decwref@_Ref_count_base@std@@QEAAXXZ		; std::_Ref_count_base::_Decwref
PUBLIC	?getExtent2D@Swapchain@cow@@QEBA?AUVkExtent2D@@XZ ; cow::Swapchain::getExtent2D
PUBLIC	?getRenderPass@Swapchain@cow@@QEBAPEAUVkRenderPass_T@@XZ ; cow::Swapchain::getRenderPass
PUBLIC	?getFrameBuffer@Swapchain@cow@@QEAAPEAUVkFramebuffer_T@@H@Z ; cow::Swapchain::getFrameBuffer
PUBLIC	?getCurrentFrame@Swapchain@cow@@QEBA_KXZ	; cow::Swapchain::getCurrentFrame
PUBLIC	?compareSwapFormats@Swapchain@cow@@QEBA_NAEBV12@@Z ; cow::Swapchain::compareSwapFormats
PUBLIC	?get@?$_Ptr_base@VSwapchain@cow@@@std@@IEBAPEAVSwapchain@cow@@XZ ; std::_Ptr_base<cow::Swapchain>::get
PUBLIC	??0?$_Ptr_base@VSwapchain@cow@@@std@@IEAA@XZ	; std::_Ptr_base<cow::Swapchain>::_Ptr_base<cow::Swapchain>
PUBLIC	?_Incref@?$_Ptr_base@VSwapchain@cow@@@std@@IEBAXXZ ; std::_Ptr_base<cow::Swapchain>::_Incref
PUBLIC	?_Decref@?$_Ptr_base@VSwapchain@cow@@@std@@IEAAXXZ ; std::_Ptr_base<cow::Swapchain>::_Decref
PUBLIC	??0?$shared_ptr@VSwapchain@cow@@@std@@QEAA@AEBV01@@Z ; std::shared_ptr<cow::Swapchain>::shared_ptr<cow::Swapchain>
PUBLIC	??1?$shared_ptr@VSwapchain@cow@@@std@@QEAA@XZ	; std::shared_ptr<cow::Swapchain>::~shared_ptr<cow::Swapchain>
PUBLIC	?__autoclassinit2@?$shared_ptr@VSwapchain@cow@@@std@@QEAAX_K@Z ; std::shared_ptr<cow::Swapchain>::__autoclassinit2
PUBLIC	?__autoclassinit2@Swapchain@cow@@QEAAX_K@Z	; cow::Swapchain::__autoclassinit2
PUBLIC	??_GSwapchain@cow@@QEAAPEAXI@Z			; cow::Swapchain::`scalar deleting destructor'
PUBLIC	??0GraphicsCommands@cow@@QEAA@AEAVDevice@1@@Z	; cow::GraphicsCommands::GraphicsCommands
PUBLIC	??1GraphicsCommands@cow@@QEAA@XZ		; cow::GraphicsCommands::~GraphicsCommands
PUBLIC	?begin@GraphicsCommands@cow@@QEAAPEAUVkCommandBuffer_T@@XZ ; cow::GraphicsCommands::begin
PUBLIC	?beginRenderPass@GraphicsCommands@cow@@QEAAXPEAUVkCommandBuffer_T@@TVkClearColorValue@@@Z ; cow::GraphicsCommands::beginRenderPass
PUBLIC	??R?$default_delete@VSwapchain@cow@@@std@@QEBAXPEAVSwapchain@cow@@@Z ; std::default_delete<cow::Swapchain>::operator()
PUBLIC	??1?$unique_ptr@VSwapchain@cow@@U?$default_delete@VSwapchain@cow@@@std@@@std@@QEAA@XZ ; std::unique_ptr<cow::Swapchain,std::default_delete<cow::Swapchain> >::~unique_ptr<cow::Swapchain,std::default_delete<cow::Swapchain> >
PUBLIC	?get_deleter@?$unique_ptr@VSwapchain@cow@@U?$default_delete@VSwapchain@cow@@@std@@@std@@QEAAAEAU?$default_delete@VSwapchain@cow@@@2@XZ ; std::unique_ptr<cow::Swapchain,std::default_delete<cow::Swapchain> >::get_deleter
PUBLIC	??C?$unique_ptr@VSwapchain@cow@@U?$default_delete@VSwapchain@cow@@@std@@@std@@QEBAPEAVSwapchain@cow@@XZ ; std::unique_ptr<cow::Swapchain,std::default_delete<cow::Swapchain> >::operator->
PUBLIC	?get@?$unique_ptr@VSwapchain@cow@@U?$default_delete@VSwapchain@cow@@@std@@@std@@QEBAPEAVSwapchain@cow@@XZ ; std::unique_ptr<cow::Swapchain,std::default_delete<cow::Swapchain> >::get
PUBLIC	??B?$unique_ptr@VSwapchain@cow@@U?$default_delete@VSwapchain@cow@@@std@@@std@@QEBA_NXZ ; std::unique_ptr<cow::Swapchain,std::default_delete<cow::Swapchain> >::operator bool
PUBLIC	?release@?$unique_ptr@VSwapchain@cow@@U?$default_delete@VSwapchain@cow@@@std@@@std@@QEAAPEAVSwapchain@cow@@XZ ; std::unique_ptr<cow::Swapchain,std::default_delete<cow::Swapchain> >::release
PUBLIC	?reset@?$unique_ptr@VSwapchain@cow@@U?$default_delete@VSwapchain@cow@@@std@@@std@@QEAAXPEAVSwapchain@cow@@@Z ; std::unique_ptr<cow::Swapchain,std::default_delete<cow::Swapchain> >::reset
PUBLIC	?_Get_first@?$_Compressed_pair@U?$default_delete@VSwapchain@cow@@@std@@PEAVSwapchain@cow@@$00@std@@QEAAAEAU?$default_delete@VSwapchain@cow@@@2@XZ ; std::_Compressed_pair<std::default_delete<cow::Swapchain>,cow::Swapchain *,1>::_Get_first
PUBLIC	?_Get_first@?$_Compressed_pair@U?$default_delete@VSwapchain@cow@@@std@@PEAVSwapchain@cow@@$00@std@@QEBAAEBU?$default_delete@VSwapchain@cow@@@2@XZ ; std::_Compressed_pair<std::default_delete<cow::Swapchain>,cow::Swapchain *,1>::_Get_first
PUBLIC	?checkRecreation@GraphicsCommands@cow@@AEAA_NW4VkResult@@@Z ; cow::GraphicsCommands::checkRecreation
PUBLIC	?recreateSwapchain@GraphicsCommands@cow@@AEAAXXZ ; cow::GraphicsCommands::recreateSwapchain
PUBLIC	?createCommandBuffers@GraphicsCommands@cow@@AEAAXXZ ; cow::GraphicsCommands::createCommandBuffers
PUBLIC	??$?0U?$default_delete@VSwapchain@cow@@@std@@$0A@@?$unique_ptr@VSwapchain@cow@@U?$default_delete@VSwapchain@cow@@@std@@@std@@QEAA@XZ ; std::unique_ptr<cow::Swapchain,std::default_delete<cow::Swapchain> >::unique_ptr<cow::Swapchain,std::default_delete<cow::Swapchain> ><std::default_delete<cow::Swapchain>,0>
PUBLIC	?size@?$array@TVkClearValue@@$01@std@@QEBA_KXZ	; std::array<VkClearValue,2>::size
PUBLIC	??A?$array@TVkClearValue@@$01@std@@QEAAAEATVkClearValue@@_K@Z ; std::array<VkClearValue,2>::operator[]
PUBLIC	?data@?$array@TVkClearValue@@$01@std@@QEAAPEATVkClearValue@@XZ ; std::array<VkClearValue,2>::data
PUBLIC	??$?8VSwapchain@cow@@U?$default_delete@VSwapchain@cow@@@std@@@std@@YA_NAEBV?$unique_ptr@VSwapchain@cow@@U?$default_delete@VSwapchain@cow@@@std@@@0@$$T@Z ; std::operator==<cow::Swapchain,std::default_delete<cow::Swapchain> >
PUBLIC	??$make_unique@VSwapchain@cow@@AEAVDevice@2@AEAUVkExtent2D@@$0A@@std@@YA?AV?$unique_ptr@VSwapchain@cow@@U?$default_delete@VSwapchain@cow@@@std@@@0@AEAVDevice@cow@@AEAUVkExtent2D@@@Z ; std::make_unique<cow::Swapchain,cow::Device &,VkExtent2D &,0>
PUBLIC	??$?4U?$default_delete@VSwapchain@cow@@@std@@$0A@@?$unique_ptr@VSwapchain@cow@@U?$default_delete@VSwapchain@cow@@@std@@@std@@QEAAAEAV01@$$QEAV01@@Z ; std::unique_ptr<cow::Swapchain,std::default_delete<cow::Swapchain> >::operator=<std::default_delete<cow::Swapchain>,0>
PUBLIC	??$move@AEAV?$unique_ptr@VSwapchain@cow@@U?$default_delete@VSwapchain@cow@@@std@@@std@@@std@@YA$$QEAV?$unique_ptr@VSwapchain@cow@@U?$default_delete@VSwapchain@cow@@@std@@@0@AEAV10@@Z ; std::move<std::unique_ptr<cow::Swapchain,std::default_delete<cow::Swapchain> > &>
PUBLIC	??$?0VSwapchain@cow@@U?$default_delete@VSwapchain@cow@@@std@@$0A@@?$shared_ptr@VSwapchain@cow@@@std@@QEAA@$$QEAV?$unique_ptr@VSwapchain@cow@@U?$default_delete@VSwapchain@cow@@@std@@@1@@Z ; std::shared_ptr<cow::Swapchain>::shared_ptr<cow::Swapchain><cow::Swapchain,std::default_delete<cow::Swapchain>,0>
PUBLIC	??$make_unique@VSwapchain@cow@@AEAVDevice@2@AEAUVkExtent2D@@AEAV?$shared_ptr@VSwapchain@cow@@@std@@$0A@@std@@YA?AV?$unique_ptr@VSwapchain@cow@@U?$default_delete@VSwapchain@cow@@@std@@@0@AEAVDevice@cow@@AEAUVkExtent2D@@AEAV?$shared_ptr@VSwapchain@cow@@@0@@Z ; std::make_unique<cow::Swapchain,cow::Device &,VkExtent2D &,std::shared_ptr<cow::Swapchain> &,0>
PUBLIC	??$?CVSwapchain@cow@@$0A@@?$shared_ptr@VSwapchain@cow@@@std@@QEBAPEAVSwapchain@cow@@XZ ; std::shared_ptr<cow::Swapchain>::operator-><cow::Swapchain,0>
PUBLIC	??$?0$$V@?$_Compressed_pair@U?$default_delete@VSwapchain@cow@@@std@@PEAVSwapchain@cow@@$00@std@@QEAA@U_Zero_then_variadic_args_t@1@@Z ; std::_Compressed_pair<std::default_delete<cow::Swapchain>,cow::Swapchain *,1>::_Compressed_pair<std::default_delete<cow::Swapchain>,cow::Swapchain *,1><>
PUBLIC	??$forward@AEAVDevice@cow@@@std@@YAAEAVDevice@cow@@AEAV12@@Z ; std::forward<cow::Device &>
PUBLIC	??$forward@AEAUVkExtent2D@@@std@@YAAEAUVkExtent2D@@AEAU1@@Z ; std::forward<VkExtent2D &>
PUBLIC	??$?0U?$default_delete@VSwapchain@cow@@@std@@$0A@@?$unique_ptr@VSwapchain@cow@@U?$default_delete@VSwapchain@cow@@@std@@@std@@QEAA@PEAVSwapchain@cow@@@Z ; std::unique_ptr<cow::Swapchain,std::default_delete<cow::Swapchain> >::unique_ptr<cow::Swapchain,std::default_delete<cow::Swapchain> ><std::default_delete<cow::Swapchain>,0>
PUBLIC	??$addressof@V?$unique_ptr@VSwapchain@cow@@U?$default_delete@VSwapchain@cow@@@std@@@std@@@std@@YAPEAV?$unique_ptr@VSwapchain@cow@@U?$default_delete@VSwapchain@cow@@@std@@@0@AEAV10@@Z ; std::addressof<std::unique_ptr<cow::Swapchain,std::default_delete<cow::Swapchain> > >
PUBLIC	??$forward@U?$default_delete@VSwapchain@cow@@@std@@@std@@YA$$QEAU?$default_delete@VSwapchain@cow@@@0@AEAU10@@Z ; std::forward<std::default_delete<cow::Swapchain> >
PUBLIC	??0?$_Ref_count_resource@PEAVSwapchain@cow@@U?$default_delete@VSwapchain@cow@@@std@@@std@@QEAA@PEAVSwapchain@cow@@U?$default_delete@VSwapchain@cow@@@1@@Z ; std::_Ref_count_resource<cow::Swapchain *,std::default_delete<cow::Swapchain> >::_Ref_count_resource<cow::Swapchain *,std::default_delete<cow::Swapchain> >
PUBLIC	??1?$_Ref_count_resource@PEAVSwapchain@cow@@U?$default_delete@VSwapchain@cow@@@std@@@std@@UEAA@XZ ; std::_Ref_count_resource<cow::Swapchain *,std::default_delete<cow::Swapchain> >::~_Ref_count_resource<cow::Swapchain *,std::default_delete<cow::Swapchain> >
PUBLIC	?_Get_deleter@?$_Ref_count_resource@PEAVSwapchain@cow@@U?$default_delete@VSwapchain@cow@@@std@@@std@@UEBAPEAXAEBVtype_info@@@Z ; std::_Ref_count_resource<cow::Swapchain *,std::default_delete<cow::Swapchain> >::_Get_deleter
PUBLIC	?_Destroy@?$_Ref_count_resource@PEAVSwapchain@cow@@U?$default_delete@VSwapchain@cow@@@std@@@std@@EEAAXXZ ; std::_Ref_count_resource<cow::Swapchain *,std::default_delete<cow::Swapchain> >::_Destroy
PUBLIC	?_Delete_this@?$_Ref_count_resource@PEAVSwapchain@cow@@U?$default_delete@VSwapchain@cow@@@std@@@std@@EEAAXXZ ; std::_Ref_count_resource<cow::Swapchain *,std::default_delete<cow::Swapchain> >::_Delete_this
PUBLIC	?__autoclassinit2@?$_Ref_count_resource@PEAVSwapchain@cow@@U?$default_delete@VSwapchain@cow@@@std@@@std@@QEAAX_K@Z ; std::_Ref_count_resource<cow::Swapchain *,std::default_delete<cow::Swapchain> >::__autoclassinit2
PUBLIC	??_G?$_Ref_count_resource@PEAVSwapchain@cow@@U?$default_delete@VSwapchain@cow@@@std@@@std@@UEAAPEAXI@Z ; std::_Ref_count_resource<cow::Swapchain *,std::default_delete<cow::Swapchain> >::`scalar deleting destructor'
PUBLIC	??$_Set_ptr_rep_and_enable_shared@VSwapchain@cow@@@?$shared_ptr@VSwapchain@cow@@@std@@AEAAXQEAVSwapchain@cow@@QEAV_Ref_count_base@1@@Z ; std::shared_ptr<cow::Swapchain>::_Set_ptr_rep_and_enable_shared<cow::Swapchain>
PUBLIC	??$forward@AEAV?$shared_ptr@VSwapchain@cow@@@std@@@std@@YAAEAV?$shared_ptr@VSwapchain@cow@@@0@AEAV10@@Z ; std::forward<std::shared_ptr<cow::Swapchain> &>
PUBLIC	??$addressof@$$CBU?$default_delete@VSwapchain@cow@@@std@@@std@@YAPEBU?$default_delete@VSwapchain@cow@@@0@AEBU10@@Z ; std::addressof<std::default_delete<cow::Swapchain> const >
PUBLIC	??$move@AEAU?$default_delete@VSwapchain@cow@@@std@@@std@@YA$$QEAU?$default_delete@VSwapchain@cow@@@0@AEAU10@@Z ; std::move<std::default_delete<cow::Swapchain> &>
PUBLIC	??$?0U?$default_delete@VSwapchain@cow@@@std@@AEAPEAVSwapchain@cow@@@?$_Compressed_pair@U?$default_delete@VSwapchain@cow@@@std@@PEAVSwapchain@cow@@$00@std@@QEAA@U_One_then_variadic_args_t@1@$$QEAU?$default_delete@VSwapchain@cow@@@1@AEAPEAVSwapchain@cow@@@Z ; std::_Compressed_pair<std::default_delete<cow::Swapchain>,cow::Swapchain *,1>::_Compressed_pair<std::default_delete<cow::Swapchain>,cow::Swapchain *,1><std::default_delete<cow::Swapchain>,cow::Swapchain * &>
PUBLIC	??$exchange@PEAVSwapchain@cow@@AEAPEAV12@@std@@YAPEAVSwapchain@cow@@AEAPEAV12@0@Z ; std::exchange<cow::Swapchain *,cow::Swapchain * &>
PUBLIC	??$exchange@PEAVSwapchain@cow@@$$T@std@@YAPEAVSwapchain@cow@@AEAPEAV12@$$QEA$$T@Z ; std::exchange<cow::Swapchain *,std::nullptr_t>
PUBLIC	??$_Copy_construct_from@VSwapchain@cow@@@?$_Ptr_base@VSwapchain@cow@@@std@@IEAAXAEBV?$shared_ptr@VSwapchain@cow@@@1@@Z ; std::_Ptr_base<cow::Swapchain>::_Copy_construct_from<cow::Swapchain>
PUBLIC	??$?0AEAPEAVSwapchain@cow@@@?$_Compressed_pair@U?$default_delete@VSwapchain@cow@@@std@@PEAVSwapchain@cow@@$00@std@@QEAA@U_Zero_then_variadic_args_t@1@AEAPEAVSwapchain@cow@@@Z ; std::_Compressed_pair<std::default_delete<cow::Swapchain>,cow::Swapchain *,1>::_Compressed_pair<std::default_delete<cow::Swapchain>,cow::Swapchain *,1><cow::Swapchain * &>
PUBLIC	??$forward@AEAPEAVSwapchain@cow@@@std@@YAAEAPEAVSwapchain@cow@@AEAPEAV12@@Z ; std::forward<cow::Swapchain * &>
PUBLIC	__JustMyCode_Default
PUBLIC	??_7exception@std@@6B@				; std::exception::`vftable'
PUBLIC	??_C@_0BC@EOODALEL@Unknown?5exception@		; `string'
PUBLIC	??_R0?AVexception@std@@@8			; std::exception `RTTI Type Descriptor'
PUBLIC	_CT??_R0?AVexception@std@@@8??0exception@std@@QEAA@AEBV01@@Z24
PUBLIC	??_C@_02DKCKIIND@?$CFs@				; `string'
PUBLIC	??_C@_11LOCGONAA@@				; `string'
PUBLIC	??_7runtime_error@std@@6B@			; std::runtime_error::`vftable'
PUBLIC	??_R0?AVruntime_error@std@@@8			; std::runtime_error `RTTI Type Descriptor'
PUBLIC	_CT??_R0?AVruntime_error@std@@@8??0runtime_error@std@@QEAA@AEBV01@@Z24
PUBLIC	_TI2?AVruntime_error@std@@
PUBLIC	_CTA2?AVruntime_error@std@@
PUBLIC	??_C@_0CC@GCLKDMPD@failed?5to?5aquire?5swap?5chain?5ima@ ; `string'
PUBLIC	??_C@_0CJ@CAGDIOCF@failed?5to?5begin?5recording?5comma@ ; `string'
PUBLIC	??_C@_0CE@JIHFMFNH@Swap?5Chain?5Image?5format?5has?5cha@ ; `string'
PUBLIC	??_C@_0BN@HMIFLIEM@array?5subscript?5out?5of?5range@ ; `string'
PUBLIC	??_C@_0GA@LKBGKKAK@C?3?2Program?5Files?2Microsoft?5Visu@ ; `string'
PUBLIC	??_C@_1MA@HADHJGPP@?$AAC?$AA?3?$AA?2?$AAP?$AAr?$AAo?$AAg?$AAr?$AAa?$AAm?$AA?5?$AAF?$AAi?$AAl?$AAe@ ; `string'
PUBLIC	??_C@_1DO@NCBLADDF@?$AA?$CC?$AAa?$AAr?$AAr?$AAa?$AAy?$AA?5?$AAs?$AAu?$AAb?$AAs?$AAc?$AAr?$AAi?$AAp@ ; `string'
PUBLIC	??_7?$_Ref_count_resource@PEAVSwapchain@cow@@U?$default_delete@VSwapchain@cow@@@std@@@std@@6B@ ; std::_Ref_count_resource<cow::Swapchain *,std::default_delete<cow::Swapchain> >::`vftable'
PUBLIC	??_R0?AU?$default_delete@VSwapchain@cow@@@std@@@8 ; std::default_delete<cow::Swapchain> `RTTI Type Descriptor'
PUBLIC	??_R4exception@std@@6B@				; std::exception::`RTTI Complete Object Locator'
PUBLIC	??_R3exception@std@@8				; std::exception::`RTTI Class Hierarchy Descriptor'
PUBLIC	??_R2exception@std@@8				; std::exception::`RTTI Base Class Array'
PUBLIC	??_R1A@?0A@EA@exception@std@@8			; std::exception::`RTTI Base Class Descriptor at (0,-1,0,64)'
PUBLIC	??_R4runtime_error@std@@6B@			; std::runtime_error::`RTTI Complete Object Locator'
PUBLIC	??_R3runtime_error@std@@8			; std::runtime_error::`RTTI Class Hierarchy Descriptor'
PUBLIC	??_R2runtime_error@std@@8			; std::runtime_error::`RTTI Base Class Array'
PUBLIC	??_R1A@?0A@EA@runtime_error@std@@8		; std::runtime_error::`RTTI Base Class Descriptor at (0,-1,0,64)'
PUBLIC	??_R0?AV_Ref_count_base@std@@@8			; std::_Ref_count_base `RTTI Type Descriptor'
PUBLIC	??_R3_Ref_count_base@std@@8			; std::_Ref_count_base::`RTTI Class Hierarchy Descriptor'
PUBLIC	??_R2_Ref_count_base@std@@8			; std::_Ref_count_base::`RTTI Base Class Array'
PUBLIC	??_R1A@?0A@EA@_Ref_count_base@std@@8		; std::_Ref_count_base::`RTTI Base Class Descriptor at (0,-1,0,64)'
PUBLIC	??_R4?$_Ref_count_resource@PEAVSwapchain@cow@@U?$default_delete@VSwapchain@cow@@@std@@@std@@6B@ ; std::_Ref_count_resource<cow::Swapchain *,std::default_delete<cow::Swapchain> >::`RTTI Complete Object Locator'
PUBLIC	??_R0?AV?$_Ref_count_resource@PEAVSwapchain@cow@@U?$default_delete@VSwapchain@cow@@@std@@@std@@@8 ; std::_Ref_count_resource<cow::Swapchain *,std::default_delete<cow::Swapchain> > `RTTI Type Descriptor'
PUBLIC	??_R3?$_Ref_count_resource@PEAVSwapchain@cow@@U?$default_delete@VSwapchain@cow@@@std@@@std@@8 ; std::_Ref_count_resource<cow::Swapchain *,std::default_delete<cow::Swapchain> >::`RTTI Class Hierarchy Descriptor'
PUBLIC	??_R2?$_Ref_count_resource@PEAVSwapchain@cow@@U?$default_delete@VSwapchain@cow@@@std@@@std@@8 ; std::_Ref_count_resource<cow::Swapchain *,std::default_delete<cow::Swapchain> >::`RTTI Base Class Array'
PUBLIC	??_R1A@?0A@EA@?$_Ref_count_resource@PEAVSwapchain@cow@@U?$default_delete@VSwapchain@cow@@@std@@@std@@8 ; std::_Ref_count_resource<cow::Swapchain *,std::default_delete<cow::Swapchain> >::`RTTI Base Class Descriptor at (0,-1,0,64)'
PUBLIC	__real@3f800000
EXTRN	??2@YAPEAX_K@Z:PROC				; operator new
EXTRN	??3@YAXPEAX_K@Z:PROC				; operator delete
EXTRN	__imp__invalid_parameter:PROC
EXTRN	vkDeviceWaitIdle:PROC
EXTRN	vkAllocateCommandBuffers:PROC
EXTRN	vkFreeCommandBuffers:PROC
EXTRN	vkBeginCommandBuffer:PROC
EXTRN	vkCmdSetViewport:PROC
EXTRN	vkCmdSetScissor:PROC
EXTRN	vkCmdBeginRenderPass:PROC
EXTRN	__imp_calloc:PROC
EXTRN	__imp__CrtDbgReport:PROC
EXTRN	glfwWaitEvents:PROC
EXTRN	__std_exception_copy:PROC
EXTRN	__std_exception_destroy:PROC
EXTRN	??_Eexception@std@@UEAAPEAXI@Z:PROC		; std::exception::`vector deleting destructor'
EXTRN	??_Eruntime_error@std@@UEAAPEAXI@Z:PROC		; std::runtime_error::`vector deleting destructor'
EXTRN	__std_type_info_compare:PROC
EXTRN	??0Swapchain@cow@@QEAA@AEAVDevice@1@UVkExtent2D@@@Z:PROC ; cow::Swapchain::Swapchain
EXTRN	??0Swapchain@cow@@QEAA@AEAVDevice@1@UVkExtent2D@@V?$shared_ptr@VSwapchain@cow@@@std@@@Z:PROC ; cow::Swapchain::Swapchain
EXTRN	??1Swapchain@cow@@QEAA@XZ:PROC			; cow::Swapchain::~Swapchain
EXTRN	?nextImage@Swapchain@cow@@QEAA?AW4VkResult@@PEAI@Z:PROC ; cow::Swapchain::nextImage
EXTRN	??_E?$_Ref_count_resource@PEAVSwapchain@cow@@U?$default_delete@VSwapchain@cow@@@std@@@std@@UEAAPEAXI@Z:PROC ; std::_Ref_count_resource<cow::Swapchain *,std::default_delete<cow::Swapchain> >::`vector deleting destructor'
EXTRN	_CxxThrowException:PROC
EXTRN	_RTC_CheckStackVars:PROC
EXTRN	_RTC_InitBase:PROC
EXTRN	_RTC_Shutdown:PROC
EXTRN	__CheckForDebuggerJustMyCode:PROC
EXTRN	__CxxFrameHandler4:PROC
EXTRN	__GSHandlerCheck:PROC
EXTRN	__GSHandlerCheck_EH4:PROC
EXTRN	__security_check_cookie:PROC
EXTRN	??_7type_info@@6B@:BYTE				; type_info::`vftable'
EXTRN	__security_cookie:QWORD
EXTRN	_fltused:DWORD
;	COMDAT pdata
pdata	SEGMENT
$pdata$??0exception@std@@QEAA@QEBD@Z DD imagerel $LN3
	DD	imagerel $LN3+210
	DD	imagerel $unwind$??0exception@std@@QEAA@QEBD@Z
pdata	ENDS
;	COMDAT pdata
pdata	SEGMENT
$pdata$??0exception@std@@QEAA@AEBV01@@Z DD imagerel $LN3
	DD	imagerel $LN3+123
	DD	imagerel $unwind$??0exception@std@@QEAA@AEBV01@@Z
pdata	ENDS
;	COMDAT pdata
pdata	SEGMENT
$pdata$??1exception@std@@UEAA@XZ DD imagerel $LN3
	DD	imagerel $LN3+77
	DD	imagerel $unwind$??1exception@std@@UEAA@XZ
pdata	ENDS
;	COMDAT pdata
pdata	SEGMENT
$pdata$?what@exception@std@@UEBAPEBDXZ DD imagerel $LN5
	DD	imagerel $LN5+96
	DD	imagerel $unwind$?what@exception@std@@UEBAPEBDXZ
pdata	ENDS
;	COMDAT pdata
pdata	SEGMENT
$pdata$??_Gexception@std@@UEAAPEAXI@Z DD imagerel $LN4
	DD	imagerel $LN4+82
	DD	imagerel $unwind$??_Gexception@std@@UEAAPEAXI@Z
pdata	ENDS
;	COMDAT pdata
pdata	SEGMENT
$pdata$??0runtime_error@std@@QEAA@PEBD@Z DD imagerel $LN4
	DD	imagerel $LN4+89
	DD	imagerel $unwind$??0runtime_error@std@@QEAA@PEBD@Z
pdata	ENDS
;	COMDAT pdata
pdata	SEGMENT
$pdata$??1runtime_error@std@@UEAA@XZ DD imagerel $LN3
	DD	imagerel $LN3+41
	DD	imagerel $unwind$??1runtime_error@std@@UEAA@XZ
pdata	ENDS
;	COMDAT pdata
pdata	SEGMENT
$pdata$??0runtime_error@std@@QEAA@AEBV01@@Z DD imagerel $LN3
	DD	imagerel $LN3+77
	DD	imagerel $unwind$??0runtime_error@std@@QEAA@AEBV01@@Z
pdata	ENDS
;	COMDAT pdata
pdata	SEGMENT
$pdata$??_Gruntime_error@std@@UEAAPEAXI@Z DD imagerel $LN4
	DD	imagerel $LN4+82
	DD	imagerel $unwind$??_Gruntime_error@std@@UEAAPEAXI@Z
pdata	ENDS
;	COMDAT pdata
pdata	SEGMENT
$pdata$?getExtend2D@Window@cow@@QEBA?AUVkExtent2D@@XZ DD imagerel $LN3
	DD	imagerel $LN3+91
	DD	imagerel $unwind$?getExtend2D@Window@cow@@QEBA?AUVkExtent2D@@XZ
pdata	ENDS
;	COMDAT pdata
pdata	SEGMENT
$pdata$?getDevice@Device@cow@@QEAAPEAUVkDevice_T@@XZ DD imagerel $LN3
	DD	imagerel $LN3+52
	DD	imagerel $unwind$?getDevice@Device@cow@@QEAAPEAUVkDevice_T@@XZ
pdata	ENDS
;	COMDAT pdata
pdata	SEGMENT
$pdata$?getCommandPool@Device@cow@@QEAAPEAUVkCommandPool_T@@XZ DD imagerel $LN3
	DD	imagerel $LN3+52
	DD	imagerel $unwind$?getCommandPool@Device@cow@@QEAAPEAUVkCommandPool_T@@XZ
pdata	ENDS
;	COMDAT pdata
pdata	SEGMENT
$pdata$??8type_info@@QEBA_NAEBV0@@Z DD imagerel $LN5
	DD	imagerel $LN5+109
	DD	imagerel $unwind$??8type_info@@QEBA_NAEBV0@@Z
pdata	ENDS
;	COMDAT pdata
pdata	SEGMENT
$pdata$??0_Ref_count_base@std@@IEAA@XZ DD imagerel $LN3
	DD	imagerel $LN3+76
	DD	imagerel $unwind$??0_Ref_count_base@std@@IEAA@XZ
pdata	ENDS
;	COMDAT pdata
pdata	SEGMENT
$pdata$??1_Ref_count_base@std@@UEAA@XZ DD imagerel $LN3
	DD	imagerel $LN3+41
	DD	imagerel $unwind$??1_Ref_count_base@std@@UEAA@XZ
pdata	ENDS
;	COMDAT pdata
pdata	SEGMENT
$pdata$?_Incref@_Ref_count_base@std@@QEAAXXZ DD imagerel $LN3
	DD	imagerel $LN3+55
	DD	imagerel $unwind$?_Incref@_Ref_count_base@std@@QEAAXXZ
pdata	ENDS
;	COMDAT pdata
pdata	SEGMENT
$pdata$?_Decref@_Ref_count_base@std@@QEAAXXZ DD imagerel $LN4
	DD	imagerel $LN4+100
	DD	imagerel $unwind$?_Decref@_Ref_count_base@std@@QEAAXXZ
pdata	ENDS
;	COMDAT pdata
pdata	SEGMENT
$pdata$?_Decwref@_Ref_count_base@std@@QEAAXXZ DD imagerel $LN4
	DD	imagerel $LN4+89
	DD	imagerel $unwind$?_Decwref@_Ref_count_base@std@@QEAAXXZ
pdata	ENDS
;	COMDAT pdata
pdata	SEGMENT
$pdata$?getExtent2D@Swapchain@cow@@QEBA?AUVkExtent2D@@XZ DD imagerel $LN3
	DD	imagerel $LN3+74
	DD	imagerel $unwind$?getExtent2D@Swapchain@cow@@QEBA?AUVkExtent2D@@XZ
pdata	ENDS
;	COMDAT pdata
pdata	SEGMENT
$pdata$?getRenderPass@Swapchain@cow@@QEBAPEAUVkRenderPass_T@@XZ DD imagerel $LN3
	DD	imagerel $LN3+52
	DD	imagerel $unwind$?getRenderPass@Swapchain@cow@@QEBAPEAUVkRenderPass_T@@XZ
pdata	ENDS
;	COMDAT pdata
pdata	SEGMENT
$pdata$?getFrameBuffer@Swapchain@cow@@QEAAPEAUVkFramebuffer_T@@H@Z DD imagerel $LN3
	DD	imagerel $LN3+67
	DD	imagerel $unwind$?getFrameBuffer@Swapchain@cow@@QEAAPEAUVkFramebuffer_T@@H@Z
pdata	ENDS
;	COMDAT pdata
pdata	SEGMENT
$pdata$?getCurrentFrame@Swapchain@cow@@QEBA_KXZ DD imagerel $LN3
	DD	imagerel $LN3+52
	DD	imagerel $unwind$?getCurrentFrame@Swapchain@cow@@QEBA_KXZ
pdata	ENDS
;	COMDAT pdata
pdata	SEGMENT
$pdata$?compareSwapFormats@Swapchain@cow@@QEBA_NAEBV12@@Z DD imagerel $LN5
	DD	imagerel $LN5+97
	DD	imagerel $unwind$?compareSwapFormats@Swapchain@cow@@QEBA_NAEBV12@@Z
pdata	ENDS
;	COMDAT pdata
pdata	SEGMENT
$pdata$?get@?$_Ptr_base@VSwapchain@cow@@@std@@IEBAPEAVSwapchain@cow@@XZ DD imagerel $LN3
	DD	imagerel $LN3+51
	DD	imagerel $unwind$?get@?$_Ptr_base@VSwapchain@cow@@@std@@IEBAPEAVSwapchain@cow@@XZ
pdata	ENDS
;	COMDAT pdata
pdata	SEGMENT
$pdata$??0?$_Ptr_base@VSwapchain@cow@@@std@@IEAA@XZ DD imagerel $LN3
	DD	imagerel $LN3+77
	DD	imagerel $unwind$??0?$_Ptr_base@VSwapchain@cow@@@std@@IEAA@XZ
pdata	ENDS
;	COMDAT pdata
pdata	SEGMENT
$pdata$?_Incref@?$_Ptr_base@VSwapchain@cow@@@std@@IEBAXXZ DD imagerel $LN4
	DD	imagerel $LN4+71
	DD	imagerel $unwind$?_Incref@?$_Ptr_base@VSwapchain@cow@@@std@@IEBAXXZ
pdata	ENDS
;	COMDAT pdata
pdata	SEGMENT
$pdata$?_Decref@?$_Ptr_base@VSwapchain@cow@@@std@@IEAAXXZ DD imagerel $LN4
	DD	imagerel $LN4+71
	DD	imagerel $unwind$?_Decref@?$_Ptr_base@VSwapchain@cow@@@std@@IEAAXXZ
pdata	ENDS
;	COMDAT pdata
pdata	SEGMENT
$pdata$??0?$shared_ptr@VSwapchain@cow@@@std@@QEAA@AEBV01@@Z DD imagerel $LN3
	DD	imagerel $LN3+84
	DD	imagerel $unwind$??0?$shared_ptr@VSwapchain@cow@@@std@@QEAA@AEBV01@@Z
pdata	ENDS
;	COMDAT pdata
pdata	SEGMENT
$pdata$??1?$shared_ptr@VSwapchain@cow@@@std@@QEAA@XZ DD imagerel $LN3
	DD	imagerel $LN3+53
	DD	imagerel $unwind$??1?$shared_ptr@VSwapchain@cow@@@std@@QEAA@XZ
pdata	ENDS
;	COMDAT pdata
pdata	SEGMENT
$pdata$?__autoclassinit2@?$shared_ptr@VSwapchain@cow@@@std@@QEAAX_K@Z DD imagerel $LN3
	DD	imagerel $LN3+50
	DD	imagerel $unwind$?__autoclassinit2@?$shared_ptr@VSwapchain@cow@@@std@@QEAAX_K@Z
pdata	ENDS
;	COMDAT pdata
pdata	SEGMENT
$pdata$?__autoclassinit2@Swapchain@cow@@QEAAX_K@Z DD imagerel $LN3
	DD	imagerel $LN3+50
	DD	imagerel $unwind$?__autoclassinit2@Swapchain@cow@@QEAAX_K@Z
pdata	ENDS
;	COMDAT pdata
pdata	SEGMENT
$pdata$??_GSwapchain@cow@@QEAAPEAXI@Z DD imagerel $LN4
	DD	imagerel $LN4+82
	DD	imagerel $unwind$??_GSwapchain@cow@@QEAAPEAXI@Z
pdata	ENDS
;	COMDAT pdata
pdata	SEGMENT
$pdata$??0GraphicsCommands@cow@@QEAA@AEAVDevice@1@@Z DD imagerel $LN4
	DD	imagerel $LN4+112
	DD	imagerel $unwind$??0GraphicsCommands@cow@@QEAA@AEAVDevice@1@@Z
pdata	ENDS
;	COMDAT pdata
pdata	SEGMENT
$pdata$?dtor$0@?0???0GraphicsCommands@cow@@QEAA@AEAVDevice@1@@Z@4HA DD imagerel ?dtor$0@?0???0GraphicsCommands@cow@@QEAA@AEAVDevice@1@@Z@4HA
	DD	imagerel ?dtor$0@?0???0GraphicsCommands@cow@@QEAA@AEAVDevice@1@@Z@4HA+39
	DD	imagerel $unwind$?dtor$0@?0???0GraphicsCommands@cow@@QEAA@AEAVDevice@1@@Z@4HA
pdata	ENDS
;	COMDAT pdata
pdata	SEGMENT
$pdata$??1GraphicsCommands@cow@@QEAA@XZ DD imagerel $LN3
	DD	imagerel $LN3+108
	DD	imagerel $unwind$??1GraphicsCommands@cow@@QEAA@XZ
pdata	ENDS
;	COMDAT pdata
pdata	SEGMENT
$pdata$?begin@GraphicsCommands@cow@@QEAAPEAUVkCommandBuffer_T@@XZ DD imagerel $LN4
	DD	imagerel $LN4+347
	DD	imagerel $unwind$?begin@GraphicsCommands@cow@@QEAAPEAUVkCommandBuffer_T@@XZ
pdata	ENDS
;	COMDAT pdata
pdata	SEGMENT
$pdata$?beginRenderPass@GraphicsCommands@cow@@QEAAXPEAUVkCommandBuffer_T@@TVkClearColorValue@@@Z DD imagerel $LN3
	DD	imagerel $LN3+790
	DD	imagerel $unwind$?beginRenderPass@GraphicsCommands@cow@@QEAAXPEAUVkCommandBuffer_T@@TVkClearColorValue@@@Z
pdata	ENDS
;	COMDAT pdata
pdata	SEGMENT
$pdata$??R?$default_delete@VSwapchain@cow@@@std@@QEBAXPEAVSwapchain@cow@@@Z DD imagerel $LN5
	DD	imagerel $LN5+107
	DD	imagerel $unwind$??R?$default_delete@VSwapchain@cow@@@std@@QEBAXPEAVSwapchain@cow@@@Z
pdata	ENDS
;	COMDAT pdata
pdata	SEGMENT
$pdata$??1?$unique_ptr@VSwapchain@cow@@U?$default_delete@VSwapchain@cow@@@std@@@std@@QEAA@XZ DD imagerel $LN4
	DD	imagerel $LN4+112
	DD	imagerel $unwind$??1?$unique_ptr@VSwapchain@cow@@U?$default_delete@VSwapchain@cow@@@std@@@std@@QEAA@XZ
pdata	ENDS
;	COMDAT pdata
pdata	SEGMENT
$pdata$?get_deleter@?$unique_ptr@VSwapchain@cow@@U?$default_delete@VSwapchain@cow@@@std@@@std@@QEAAAEAU?$default_delete@VSwapchain@cow@@@2@XZ DD imagerel $LN3
	DD	imagerel $LN3+56
	DD	imagerel $unwind$?get_deleter@?$unique_ptr@VSwapchain@cow@@U?$default_delete@VSwapchain@cow@@@std@@@std@@QEAAAEAU?$default_delete@VSwapchain@cow@@@2@XZ
pdata	ENDS
;	COMDAT pdata
pdata	SEGMENT
$pdata$??C?$unique_ptr@VSwapchain@cow@@U?$default_delete@VSwapchain@cow@@@std@@@std@@QEBAPEAVSwapchain@cow@@XZ DD imagerel $LN3
	DD	imagerel $LN3+51
	DD	imagerel $unwind$??C?$unique_ptr@VSwapchain@cow@@U?$default_delete@VSwapchain@cow@@@std@@@std@@QEBAPEAVSwapchain@cow@@XZ
pdata	ENDS
;	COMDAT pdata
pdata	SEGMENT
$pdata$?get@?$unique_ptr@VSwapchain@cow@@U?$default_delete@VSwapchain@cow@@@std@@@std@@QEBAPEAVSwapchain@cow@@XZ DD imagerel $LN3
	DD	imagerel $LN3+51
	DD	imagerel $unwind$?get@?$unique_ptr@VSwapchain@cow@@U?$default_delete@VSwapchain@cow@@@std@@@std@@QEBAPEAVSwapchain@cow@@XZ
pdata	ENDS
;	COMDAT pdata
pdata	SEGMENT
$pdata$??B?$unique_ptr@VSwapchain@cow@@U?$default_delete@VSwapchain@cow@@@std@@@std@@QEBA_NXZ DD imagerel $LN5
	DD	imagerel $LN5+77
	DD	imagerel $unwind$??B?$unique_ptr@VSwapchain@cow@@U?$default_delete@VSwapchain@cow@@@std@@@std@@QEBA_NXZ
pdata	ENDS
;	COMDAT pdata
pdata	SEGMENT
$pdata$?release@?$unique_ptr@VSwapchain@cow@@U?$default_delete@VSwapchain@cow@@@std@@@std@@QEAAPEAVSwapchain@cow@@XZ DD imagerel $LN3
	DD	imagerel $LN3+74
	DD	imagerel $unwind$?release@?$unique_ptr@VSwapchain@cow@@U?$default_delete@VSwapchain@cow@@@std@@@std@@QEAAPEAVSwapchain@cow@@XZ
pdata	ENDS
;	COMDAT pdata
pdata	SEGMENT
$pdata$?reset@?$unique_ptr@VSwapchain@cow@@U?$default_delete@VSwapchain@cow@@@std@@@std@@QEAAXPEAVSwapchain@cow@@@Z DD imagerel $LN4
	DD	imagerel $LN4+117
	DD	imagerel $unwind$?reset@?$unique_ptr@VSwapchain@cow@@U?$default_delete@VSwapchain@cow@@@std@@@std@@QEAAXPEAVSwapchain@cow@@@Z
pdata	ENDS
;	COMDAT pdata
pdata	SEGMENT
$pdata$?_Get_first@?$_Compressed_pair@U?$default_delete@VSwapchain@cow@@@std@@PEAVSwapchain@cow@@$00@std@@QEAAAEAU?$default_delete@VSwapchain@cow@@@2@XZ DD imagerel $LN3
	DD	imagerel $LN3+48
	DD	imagerel $unwind$?_Get_first@?$_Compressed_pair@U?$default_delete@VSwapchain@cow@@@std@@PEAVSwapchain@cow@@$00@std@@QEAAAEAU?$default_delete@VSwapchain@cow@@@2@XZ
pdata	ENDS
;	COMDAT pdata
pdata	SEGMENT
$pdata$?_Get_first@?$_Compressed_pair@U?$default_delete@VSwapchain@cow@@@std@@PEAVSwapchain@cow@@$00@std@@QEBAAEBU?$default_delete@VSwapchain@cow@@@2@XZ DD imagerel $LN3
	DD	imagerel $LN3+48
	DD	imagerel $unwind$?_Get_first@?$_Compressed_pair@U?$default_delete@VSwapchain@cow@@@std@@PEAVSwapchain@cow@@$00@std@@QEBAAEBU?$default_delete@VSwapchain@cow@@@2@XZ
pdata	ENDS
;	COMDAT pdata
pdata	SEGMENT
$pdata$?checkRecreation@GraphicsCommands@cow@@AEAA_NW4VkResult@@@Z DD imagerel $LN5
	DD	imagerel $LN5+132
	DD	imagerel $unwind$?checkRecreation@GraphicsCommands@cow@@AEAA_NW4VkResult@@@Z
pdata	ENDS
;	COMDAT pdata
pdata	SEGMENT
$pdata$?recreateSwapchain@GraphicsCommands@cow@@AEAAXXZ DD imagerel $LN13
	DD	imagerel $LN13+566
	DD	imagerel $unwind$?recreateSwapchain@GraphicsCommands@cow@@AEAAXXZ
pdata	ENDS
;	COMDAT pdata
pdata	SEGMENT
$pdata$?dtor$1@?0??recreateSwapchain@GraphicsCommands@cow@@AEAAXXZ@4HA DD imagerel ?dtor$1@?0??recreateSwapchain@GraphicsCommands@cow@@AEAAXXZ@4HA
	DD	imagerel ?dtor$1@?0??recreateSwapchain@GraphicsCommands@cow@@AEAAXXZ@4HA+36
	DD	imagerel $unwind$?dtor$1@?0??recreateSwapchain@GraphicsCommands@cow@@AEAAXXZ@4HA
pdata	ENDS
;	COMDAT pdata
pdata	SEGMENT
$pdata$?createCommandBuffers@GraphicsCommands@cow@@AEAAXXZ DD imagerel $LN3
	DD	imagerel $LN3+262
	DD	imagerel $unwind$?createCommandBuffers@GraphicsCommands@cow@@AEAAXXZ
pdata	ENDS
;	COMDAT pdata
pdata	SEGMENT
$pdata$??$?0U?$default_delete@VSwapchain@cow@@@std@@$0A@@?$unique_ptr@VSwapchain@cow@@U?$default_delete@VSwapchain@cow@@@std@@@std@@QEAA@XZ DD imagerel $LN3
	DD	imagerel $LN3+81
	DD	imagerel $unwind$??$?0U?$default_delete@VSwapchain@cow@@@std@@$0A@@?$unique_ptr@VSwapchain@cow@@U?$default_delete@VSwapchain@cow@@@std@@@std@@QEAA@XZ
pdata	ENDS
;	COMDAT pdata
pdata	SEGMENT
$pdata$?size@?$array@TVkClearValue@@$01@std@@QEBA_KXZ DD imagerel $LN3
	DD	imagerel $LN3+46
	DD	imagerel $unwind$?size@?$array@TVkClearValue@@$01@std@@QEBA_KXZ
pdata	ENDS
;	COMDAT pdata
pdata	SEGMENT
$pdata$??A?$array@TVkClearValue@@$01@std@@QEAAAEATVkClearValue@@_K@Z DD imagerel $LN12
	DD	imagerel $LN12+192
	DD	imagerel $unwind$??A?$array@TVkClearValue@@$01@std@@QEAAAEATVkClearValue@@_K@Z
pdata	ENDS
;	COMDAT pdata
pdata	SEGMENT
$pdata$?data@?$array@TVkClearValue@@$01@std@@QEAAPEATVkClearValue@@XZ DD imagerel $LN3
	DD	imagerel $LN3+48
	DD	imagerel $unwind$?data@?$array@TVkClearValue@@$01@std@@QEAAPEATVkClearValue@@XZ
pdata	ENDS
;	COMDAT pdata
pdata	SEGMENT
$pdata$??$?8VSwapchain@cow@@U?$default_delete@VSwapchain@cow@@@std@@@std@@YA_NAEBV?$unique_ptr@VSwapchain@cow@@U?$default_delete@VSwapchain@cow@@@std@@@0@$$T@Z DD imagerel $LN5
	DD	imagerel $LN5+94
	DD	imagerel $unwind$??$?8VSwapchain@cow@@U?$default_delete@VSwapchain@cow@@@std@@@std@@YA_NAEBV?$unique_ptr@VSwapchain@cow@@U?$default_delete@VSwapchain@cow@@@std@@@0@$$T@Z
pdata	ENDS
;	COMDAT pdata
pdata	SEGMENT
$pdata$??$make_unique@VSwapchain@cow@@AEAVDevice@2@AEAUVkExtent2D@@$0A@@std@@YA?AV?$unique_ptr@VSwapchain@cow@@U?$default_delete@VSwapchain@cow@@@std@@@0@AEAVDevice@cow@@AEAUVkExtent2D@@@Z DD imagerel $LN8
	DD	imagerel $LN8+261
	DD	imagerel $unwind$??$make_unique@VSwapchain@cow@@AEAVDevice@2@AEAUVkExtent2D@@$0A@@std@@YA?AV?$unique_ptr@VSwapchain@cow@@U?$default_delete@VSwapchain@cow@@@std@@@0@AEAVDevice@cow@@AEAUVkExtent2D@@@Z
pdata	ENDS
;	COMDAT pdata
pdata	SEGMENT
$pdata$?dtor$0@?0???$make_unique@VSwapchain@cow@@AEAVDevice@2@AEAUVkExtent2D@@$0A@@std@@YA?AV?$unique_ptr@VSwapchain@cow@@U?$default_delete@VSwapchain@cow@@@std@@@0@AEAVDevice@cow@@AEAUVkExtent2D@@@Z@4HA DD imagerel ?dtor$0@?0???$make_unique@VSwapchain@cow@@AEAVDevice@2@AEAUVkExtent2D@@$0A@@std@@YA?AV?$unique_ptr@VSwapchain@cow@@U?$default_delete@VSwapchain@cow@@@std@@@0@AEAVDevice@cow@@AEAUVkExtent2D@@@Z@4HA
	DD	imagerel ?dtor$0@?0???$make_unique@VSwapchain@cow@@AEAVDevice@2@AEAUVkExtent2D@@$0A@@std@@YA?AV?$unique_ptr@VSwapchain@cow@@U?$default_delete@VSwapchain@cow@@@std@@@0@AEAVDevice@cow@@AEAUVkExtent2D@@@Z@4HA+44
	DD	imagerel $unwind$?dtor$0@?0???$make_unique@VSwapchain@cow@@AEAVDevice@2@AEAUVkExtent2D@@$0A@@std@@YA?AV?$unique_ptr@VSwapchain@cow@@U?$default_delete@VSwapchain@cow@@@std@@@0@AEAVDevice@cow@@AEAUVkExtent2D@@@Z@4HA
pdata	ENDS
;	COMDAT pdata
pdata	SEGMENT
$pdata$??$?4U?$default_delete@VSwapchain@cow@@@std@@$0A@@?$unique_ptr@VSwapchain@cow@@U?$default_delete@VSwapchain@cow@@@std@@@std@@QEAAAEAV01@$$QEAV01@@Z DD imagerel $LN4
	DD	imagerel $LN4+139
	DD	imagerel $unwind$??$?4U?$default_delete@VSwapchain@cow@@@std@@$0A@@?$unique_ptr@VSwapchain@cow@@U?$default_delete@VSwapchain@cow@@@std@@@std@@QEAAAEAV01@$$QEAV01@@Z
pdata	ENDS
;	COMDAT pdata
pdata	SEGMENT
$pdata$??$move@AEAV?$unique_ptr@VSwapchain@cow@@U?$default_delete@VSwapchain@cow@@@std@@@std@@@std@@YA$$QEAV?$unique_ptr@VSwapchain@cow@@U?$default_delete@VSwapchain@cow@@@std@@@0@AEAV10@@Z DD imagerel $LN3
	DD	imagerel $LN3+48
	DD	imagerel $unwind$??$move@AEAV?$unique_ptr@VSwapchain@cow@@U?$default_delete@VSwapchain@cow@@@std@@@std@@@std@@YA$$QEAV?$unique_ptr@VSwapchain@cow@@U?$default_delete@VSwapchain@cow@@@std@@@0@AEAV10@@Z
pdata	ENDS
;	COMDAT pdata
pdata	SEGMENT
$pdata$??$?0VSwapchain@cow@@U?$default_delete@VSwapchain@cow@@@std@@$0A@@?$shared_ptr@VSwapchain@cow@@@std@@QEAA@$$QEAV?$unique_ptr@VSwapchain@cow@@U?$default_delete@VSwapchain@cow@@@std@@@1@@Z DD imagerel $LN7
	DD	imagerel $LN7+274
	DD	imagerel $unwind$??$?0VSwapchain@cow@@U?$default_delete@VSwapchain@cow@@@std@@$0A@@?$shared_ptr@VSwapchain@cow@@@std@@QEAA@$$QEAV?$unique_ptr@VSwapchain@cow@@U?$default_delete@VSwapchain@cow@@@std@@@1@@Z
pdata	ENDS
;	COMDAT pdata
pdata	SEGMENT
$pdata$?dtor$0@?0???$?0VSwapchain@cow@@U?$default_delete@VSwapchain@cow@@@std@@$0A@@?$shared_ptr@VSwapchain@cow@@@std@@QEAA@$$QEAV?$unique_ptr@VSwapchain@cow@@U?$default_delete@VSwapchain@cow@@@std@@@1@@Z@4HA DD imagerel ?dtor$0@?0???$?0VSwapchain@cow@@U?$default_delete@VSwapchain@cow@@@std@@$0A@@?$shared_ptr@VSwapchain@cow@@@std@@QEAA@$$QEAV?$unique_ptr@VSwapchain@cow@@U?$default_delete@VSwapchain@cow@@@std@@@1@@Z@4HA
	DD	imagerel ?dtor$0@?0???$?0VSwapchain@cow@@U?$default_delete@VSwapchain@cow@@@std@@$0A@@?$shared_ptr@VSwapchain@cow@@@std@@QEAA@$$QEAV?$unique_ptr@VSwapchain@cow@@U?$default_delete@VSwapchain@cow@@@std@@@1@@Z@4HA+44
	DD	imagerel $unwind$?dtor$0@?0???$?0VSwapchain@cow@@U?$default_delete@VSwapchain@cow@@@std@@$0A@@?$shared_ptr@VSwapchain@cow@@@std@@QEAA@$$QEAV?$unique_ptr@VSwapchain@cow@@U?$default_delete@VSwapchain@cow@@@std@@@1@@Z@4HA
pdata	ENDS
;	COMDAT pdata
pdata	SEGMENT
$pdata$??$make_unique@VSwapchain@cow@@AEAVDevice@2@AEAUVkExtent2D@@AEAV?$shared_ptr@VSwapchain@cow@@@std@@$0A@@std@@YA?AV?$unique_ptr@VSwapchain@cow@@U?$default_delete@VSwapchain@cow@@@std@@@0@AEAVDevice@cow@@AEAUVkExtent2D@@AEAV?$shared_ptr@VSwapchain@cow@@@0@@Z DD imagerel $LN9
	DD	imagerel $LN9+353
	DD	imagerel $unwind$??$make_unique@VSwapchain@cow@@AEAVDevice@2@AEAUVkExtent2D@@AEAV?$shared_ptr@VSwapchain@cow@@@std@@$0A@@std@@YA?AV?$unique_ptr@VSwapchain@cow@@U?$default_delete@VSwapchain@cow@@@std@@@0@AEAVDevice@cow@@AEAUVkExtent2D@@AEAV?$shared_ptr@VSwapchain@cow@@@0@@Z
pdata	ENDS
;	COMDAT pdata
pdata	SEGMENT
$pdata$?dtor$0@?0???$make_unique@VSwapchain@cow@@AEAVDevice@2@AEAUVkExtent2D@@AEAV?$shared_ptr@VSwapchain@cow@@@std@@$0A@@std@@YA?AV?$unique_ptr@VSwapchain@cow@@U?$default_delete@VSwapchain@cow@@@std@@@0@AEAVDevice@cow@@AEAUVkExtent2D@@AEAV?$shared_ptr@VSwapchain@cow@@@0@@Z@4HA DD imagerel ?dtor$0@?0???$make_unique@VSwapchain@cow@@AEAVDevice@2@AEAUVkExtent2D@@AEAV?$shared_ptr@VSwapchain@cow@@@std@@$0A@@std@@YA?AV?$unique_ptr@VSwapchain@cow@@U?$default_delete@VSwapchain@cow@@@std@@@0@AEAVDevice@cow@@AEAUVkExtent2D@@AEAV?$shared_ptr@VSwapchain@cow@@@0@@Z@4HA
	DD	imagerel ?dtor$0@?0???$make_unique@VSwapchain@cow@@AEAVDevice@2@AEAUVkExtent2D@@AEAV?$shared_ptr@VSwapchain@cow@@@std@@$0A@@std@@YA?AV?$unique_ptr@VSwapchain@cow@@U?$default_delete@VSwapchain@cow@@@std@@@0@AEAVDevice@cow@@AEAUVkExtent2D@@AEAV?$shared_ptr@VSwapchain@cow@@@0@@Z@4HA+44
	DD	imagerel $unwind$?dtor$0@?0???$make_unique@VSwapchain@cow@@AEAVDevice@2@AEAUVkExtent2D@@AEAV?$shared_ptr@VSwapchain@cow@@@std@@$0A@@std@@YA?AV?$unique_ptr@VSwapchain@cow@@U?$default_delete@VSwapchain@cow@@@std@@@0@AEAVDevice@cow@@AEAUVkExtent2D@@AEAV?$shared_ptr@VSwapchain@cow@@@0@@Z@4HA
pdata	ENDS
;	COMDAT pdata
pdata	SEGMENT
$pdata$??$?CVSwapchain@cow@@$0A@@?$shared_ptr@VSwapchain@cow@@@std@@QEBAPEAVSwapchain@cow@@XZ DD imagerel $LN3
	DD	imagerel $LN3+53
	DD	imagerel $unwind$??$?CVSwapchain@cow@@$0A@@?$shared_ptr@VSwapchain@cow@@@std@@QEBAPEAVSwapchain@cow@@XZ
pdata	ENDS
;	COMDAT pdata
pdata	SEGMENT
$pdata$??$?0$$V@?$_Compressed_pair@U?$default_delete@VSwapchain@cow@@@std@@PEAVSwapchain@cow@@$00@std@@QEAA@U_Zero_then_variadic_args_t@1@@Z DD imagerel $LN3
	DD	imagerel $LN3+66
	DD	imagerel $unwind$??$?0$$V@?$_Compressed_pair@U?$default_delete@VSwapchain@cow@@@std@@PEAVSwapchain@cow@@$00@std@@QEAA@U_Zero_then_variadic_args_t@1@@Z
pdata	ENDS
;	COMDAT pdata
pdata	SEGMENT
$pdata$??$forward@AEAVDevice@cow@@@std@@YAAEAVDevice@cow@@AEAV12@@Z DD imagerel $LN3
	DD	imagerel $LN3+48
	DD	imagerel $unwind$??$forward@AEAVDevice@cow@@@std@@YAAEAVDevice@cow@@AEAV12@@Z
pdata	ENDS
;	COMDAT pdata
pdata	SEGMENT
$pdata$??$forward@AEAUVkExtent2D@@@std@@YAAEAUVkExtent2D@@AEAU1@@Z DD imagerel $LN3
	DD	imagerel $LN3+48
	DD	imagerel $unwind$??$forward@AEAUVkExtent2D@@@std@@YAAEAUVkExtent2D@@AEAU1@@Z
pdata	ENDS
;	COMDAT pdata
pdata	SEGMENT
$pdata$??$?0U?$default_delete@VSwapchain@cow@@@std@@$0A@@?$unique_ptr@VSwapchain@cow@@U?$default_delete@VSwapchain@cow@@@std@@@std@@QEAA@PEAVSwapchain@cow@@@Z DD imagerel $LN3
	DD	imagerel $LN3+93
	DD	imagerel $unwind$??$?0U?$default_delete@VSwapchain@cow@@@std@@$0A@@?$unique_ptr@VSwapchain@cow@@U?$default_delete@VSwapchain@cow@@@std@@@std@@QEAA@PEAVSwapchain@cow@@@Z
pdata	ENDS
;	COMDAT pdata
pdata	SEGMENT
$pdata$??$addressof@V?$unique_ptr@VSwapchain@cow@@U?$default_delete@VSwapchain@cow@@@std@@@std@@@std@@YAPEAV?$unique_ptr@VSwapchain@cow@@U?$default_delete@VSwapchain@cow@@@std@@@0@AEAV10@@Z DD imagerel $LN3
	DD	imagerel $LN3+48
	DD	imagerel $unwind$??$addressof@V?$unique_ptr@VSwapchain@cow@@U?$default_delete@VSwapchain@cow@@@std@@@std@@@std@@YAPEAV?$unique_ptr@VSwapchain@cow@@U?$default_delete@VSwapchain@cow@@@std@@@0@AEAV10@@Z
pdata	ENDS
;	COMDAT pdata
pdata	SEGMENT
$pdata$??$forward@U?$default_delete@VSwapchain@cow@@@std@@@std@@YA$$QEAU?$default_delete@VSwapchain@cow@@@0@AEAU10@@Z DD imagerel $LN3
	DD	imagerel $LN3+48
	DD	imagerel $unwind$??$forward@U?$default_delete@VSwapchain@cow@@@std@@@std@@YA$$QEAU?$default_delete@VSwapchain@cow@@@0@AEAU10@@Z
pdata	ENDS
;	COMDAT pdata
pdata	SEGMENT
$pdata$??0?$_Ref_count_resource@PEAVSwapchain@cow@@U?$default_delete@VSwapchain@cow@@@std@@@std@@QEAA@PEAVSwapchain@cow@@U?$default_delete@VSwapchain@cow@@@1@@Z DD imagerel $LN4
	DD	imagerel $LN4+186
	DD	imagerel $unwind$??0?$_Ref_count_resource@PEAVSwapchain@cow@@U?$default_delete@VSwapchain@cow@@@std@@@std@@QEAA@PEAVSwapchain@cow@@U?$default_delete@VSwapchain@cow@@@1@@Z
pdata	ENDS
;	COMDAT pdata
pdata	SEGMENT
$pdata$??1?$_Ref_count_resource@PEAVSwapchain@cow@@U?$default_delete@VSwapchain@cow@@@std@@@std@@UEAA@XZ DD imagerel $LN3
	DD	imagerel $LN3+53
	DD	imagerel $unwind$??1?$_Ref_count_resource@PEAVSwapchain@cow@@U?$default_delete@VSwapchain@cow@@@std@@@std@@UEAA@XZ
pdata	ENDS
;	COMDAT pdata
pdata	SEGMENT
$pdata$?_Get_deleter@?$_Ref_count_resource@PEAVSwapchain@cow@@U?$default_delete@VSwapchain@cow@@@std@@@std@@UEBAPEAXAEBVtype_info@@@Z DD imagerel $LN4
	DD	imagerel $LN4+103
	DD	imagerel $unwind$?_Get_deleter@?$_Ref_count_resource@PEAVSwapchain@cow@@U?$default_delete@VSwapchain@cow@@@std@@@std@@UEBAPEAXAEBVtype_info@@@Z
pdata	ENDS
;	COMDAT pdata
pdata	SEGMENT
$pdata$?_Destroy@?$_Ref_count_resource@PEAVSwapchain@cow@@U?$default_delete@VSwapchain@cow@@@std@@@std@@EEAAXXZ DD imagerel $LN3
	DD	imagerel $LN3+104
	DD	imagerel $unwind$?_Destroy@?$_Ref_count_resource@PEAVSwapchain@cow@@U?$default_delete@VSwapchain@cow@@@std@@@std@@EEAAXXZ
pdata	ENDS
;	COMDAT pdata
pdata	SEGMENT
$pdata$?_Delete_this@?$_Ref_count_resource@PEAVSwapchain@cow@@U?$default_delete@VSwapchain@cow@@@std@@@std@@EEAAXXZ DD imagerel $LN5
	DD	imagerel $LN5+124
	DD	imagerel $unwind$?_Delete_this@?$_Ref_count_resource@PEAVSwapchain@cow@@U?$default_delete@VSwapchain@cow@@@std@@@std@@EEAAXXZ
pdata	ENDS
;	COMDAT pdata
pdata	SEGMENT
$pdata$?__autoclassinit2@?$_Ref_count_resource@PEAVSwapchain@cow@@U?$default_delete@VSwapchain@cow@@@std@@@std@@QEAAX_K@Z DD imagerel $LN3
	DD	imagerel $LN3+50
	DD	imagerel $unwind$?__autoclassinit2@?$_Ref_count_resource@PEAVSwapchain@cow@@U?$default_delete@VSwapchain@cow@@@std@@@std@@QEAAX_K@Z
pdata	ENDS
;	COMDAT pdata
pdata	SEGMENT
$pdata$??_G?$_Ref_count_resource@PEAVSwapchain@cow@@U?$default_delete@VSwapchain@cow@@@std@@@std@@UEAAPEAXI@Z DD imagerel $LN4
	DD	imagerel $LN4+82
	DD	imagerel $unwind$??_G?$_Ref_count_resource@PEAVSwapchain@cow@@U?$default_delete@VSwapchain@cow@@@std@@@std@@UEAAPEAXI@Z
pdata	ENDS
;	COMDAT pdata
pdata	SEGMENT
$pdata$??$_Set_ptr_rep_and_enable_shared@VSwapchain@cow@@@?$shared_ptr@VSwapchain@cow@@@std@@AEAAXQEAVSwapchain@cow@@QEAV_Ref_count_base@1@@Z DD imagerel $LN3
	DD	imagerel $LN3+86
	DD	imagerel $unwind$??$_Set_ptr_rep_and_enable_shared@VSwapchain@cow@@@?$shared_ptr@VSwapchain@cow@@@std@@AEAAXQEAVSwapchain@cow@@QEAV_Ref_count_base@1@@Z
pdata	ENDS
;	COMDAT pdata
pdata	SEGMENT
$pdata$??$forward@AEAV?$shared_ptr@VSwapchain@cow@@@std@@@std@@YAAEAV?$shared_ptr@VSwapchain@cow@@@0@AEAV10@@Z DD imagerel $LN3
	DD	imagerel $LN3+48
	DD	imagerel $unwind$??$forward@AEAV?$shared_ptr@VSwapchain@cow@@@std@@@std@@YAAEAV?$shared_ptr@VSwapchain@cow@@@0@AEAV10@@Z
pdata	ENDS
;	COMDAT pdata
pdata	SEGMENT
$pdata$??$addressof@$$CBU?$default_delete@VSwapchain@cow@@@std@@@std@@YAPEBU?$default_delete@VSwapchain@cow@@@0@AEBU10@@Z DD imagerel $LN3
	DD	imagerel $LN3+48
	DD	imagerel $unwind$??$addressof@$$CBU?$default_delete@VSwapchain@cow@@@std@@@std@@YAPEBU?$default_delete@VSwapchain@cow@@@0@AEBU10@@Z
pdata	ENDS
;	COMDAT pdata
pdata	SEGMENT
$pdata$??$move@AEAU?$default_delete@VSwapchain@cow@@@std@@@std@@YA$$QEAU?$default_delete@VSwapchain@cow@@@0@AEAU10@@Z DD imagerel $LN3
	DD	imagerel $LN3+48
	DD	imagerel $unwind$??$move@AEAU?$default_delete@VSwapchain@cow@@@std@@@std@@YA$$QEAU?$default_delete@VSwapchain@cow@@@0@AEAU10@@Z
pdata	ENDS
;	COMDAT pdata
pdata	SEGMENT
$pdata$??$?0U?$default_delete@VSwapchain@cow@@@std@@AEAPEAVSwapchain@cow@@@?$_Compressed_pair@U?$default_delete@VSwapchain@cow@@@std@@PEAVSwapchain@cow@@$00@std@@QEAA@U_One_then_variadic_args_t@1@$$QEAU?$default_delete@VSwapchain@cow@@@1@AEAPEAVSwapchain@cow@@@Z DD imagerel $LN3
	DD	imagerel $LN3+99
	DD	imagerel $unwind$??$?0U?$default_delete@VSwapchain@cow@@@std@@AEAPEAVSwapchain@cow@@@?$_Compressed_pair@U?$default_delete@VSwapchain@cow@@@std@@PEAVSwapchain@cow@@$00@std@@QEAA@U_One_then_variadic_args_t@1@$$QEAU?$default_delete@VSwapchain@cow@@@1@AEAPEAVSwapchain@cow@@@Z
pdata	ENDS
;	COMDAT pdata
pdata	SEGMENT
$pdata$??$exchange@PEAVSwapchain@cow@@AEAPEAV12@@std@@YAPEAVSwapchain@cow@@AEAPEAV12@0@Z DD imagerel $LN3
	DD	imagerel $LN3+84
	DD	imagerel $unwind$??$exchange@PEAVSwapchain@cow@@AEAPEAV12@@std@@YAPEAVSwapchain@cow@@AEAPEAV12@0@Z
pdata	ENDS
;	COMDAT pdata
pdata	SEGMENT
$pdata$??$exchange@PEAVSwapchain@cow@@$$T@std@@YAPEAVSwapchain@cow@@AEAPEAV12@$$QEA$$T@Z DD imagerel $LN3
	DD	imagerel $LN3+84
	DD	imagerel $unwind$??$exchange@PEAVSwapchain@cow@@$$T@std@@YAPEAVSwapchain@cow@@AEAPEAV12@$$QEA$$T@Z
pdata	ENDS
;	COMDAT pdata
pdata	SEGMENT
$pdata$??$_Copy_construct_from@VSwapchain@cow@@@?$_Ptr_base@VSwapchain@cow@@@std@@IEAAXAEBV?$shared_ptr@VSwapchain@cow@@@1@@Z DD imagerel $LN3
	DD	imagerel $LN3+100
	DD	imagerel $unwind$??$_Copy_construct_from@VSwapchain@cow@@@?$_Ptr_base@VSwapchain@cow@@@std@@IEAAXAEBV?$shared_ptr@VSwapchain@cow@@@1@@Z
pdata	ENDS
;	COMDAT pdata
pdata	SEGMENT
$pdata$??$?0AEAPEAVSwapchain@cow@@@?$_Compressed_pair@U?$default_delete@VSwapchain@cow@@@std@@PEAVSwapchain@cow@@$00@std@@QEAA@U_Zero_then_variadic_args_t@1@AEAPEAVSwapchain@cow@@@Z DD imagerel $LN3
	DD	imagerel $LN3+82
	DD	imagerel $unwind$??$?0AEAPEAVSwapchain@cow@@@?$_Compressed_pair@U?$default_delete@VSwapchain@cow@@@std@@PEAVSwapchain@cow@@$00@std@@QEAA@U_Zero_then_variadic_args_t@1@AEAPEAVSwapchain@cow@@@Z
pdata	ENDS
;	COMDAT pdata
pdata	SEGMENT
$pdata$??$forward@AEAPEAVSwapchain@cow@@@std@@YAAEAPEAVSwapchain@cow@@AEAPEAV12@@Z DD imagerel $LN3
	DD	imagerel $LN3+48
	DD	imagerel $unwind$??$forward@AEAPEAVSwapchain@cow@@@std@@YAAEAPEAVSwapchain@cow@@AEAPEAV12@@Z
pdata	ENDS
;	COMDAT __real@3f800000
CONST	SEGMENT
__real@3f800000 DD 03f800000r			; 1
CONST	ENDS
;	COMDAT rtc$TMZ
rtc$TMZ	SEGMENT
_RTC_Shutdown.rtc$TMZ DQ FLAT:_RTC_Shutdown
rtc$TMZ	ENDS
;	COMDAT rtc$IMZ
rtc$IMZ	SEGMENT
_RTC_InitBase.rtc$IMZ DQ FLAT:_RTC_InitBase
rtc$IMZ	ENDS
;	COMDAT ??_R1A@?0A@EA@?$_Ref_count_resource@PEAVSwapchain@cow@@U?$default_delete@VSwapchain@cow@@@std@@@std@@8
rdata$r	SEGMENT
??_R1A@?0A@EA@?$_Ref_count_resource@PEAVSwapchain@cow@@U?$default_delete@VSwapchain@cow@@@std@@@std@@8 DD imagerel ??_R0?AV?$_Ref_count_resource@PEAVSwapchain@cow@@U?$default_delete@VSwapchain@cow@@@std@@@std@@@8 ; std::_Ref_count_resource<cow::Swapchain *,std::default_delete<cow::Swapchain> >::`RTTI Base Class Descriptor at (0,-1,0,64)'
	DD	01H
	DD	00H
	DD	0ffffffffH
	DD	00H
	DD	040H
	DD	imagerel ??_R3?$_Ref_count_resource@PEAVSwapchain@cow@@U?$default_delete@VSwapchain@cow@@@std@@@std@@8
rdata$r	ENDS
;	COMDAT ??_R2?$_Ref_count_resource@PEAVSwapchain@cow@@U?$default_delete@VSwapchain@cow@@@std@@@std@@8
rdata$r	SEGMENT
??_R2?$_Ref_count_resource@PEAVSwapchain@cow@@U?$default_delete@VSwapchain@cow@@@std@@@std@@8 DD imagerel ??_R1A@?0A@EA@?$_Ref_count_resource@PEAVSwapchain@cow@@U?$default_delete@VSwapchain@cow@@@std@@@std@@8 ; std::_Ref_count_resource<cow::Swapchain *,std::default_delete<cow::Swapchain> >::`RTTI Base Class Array'
	DD	imagerel ??_R1A@?0A@EA@_Ref_count_base@std@@8
	ORG $+3
rdata$r	ENDS
;	COMDAT ??_R3?$_Ref_count_resource@PEAVSwapchain@cow@@U?$default_delete@VSwapchain@cow@@@std@@@std@@8
rdata$r	SEGMENT
??_R3?$_Ref_count_resource@PEAVSwapchain@cow@@U?$default_delete@VSwapchain@cow@@@std@@@std@@8 DD 00H ; std::_Ref_count_resource<cow::Swapchain *,std::default_delete<cow::Swapchain> >::`RTTI Class Hierarchy Descriptor'
	DD	00H
	DD	02H
	DD	imagerel ??_R2?$_Ref_count_resource@PEAVSwapchain@cow@@U?$default_delete@VSwapchain@cow@@@std@@@std@@8
rdata$r	ENDS
;	COMDAT ??_R0?AV?$_Ref_count_resource@PEAVSwapchain@cow@@U?$default_delete@VSwapchain@cow@@@std@@@std@@@8
data$rs	SEGMENT
??_R0?AV?$_Ref_count_resource@PEAVSwapchain@cow@@U?$default_delete@VSwapchain@cow@@@std@@@std@@@8 DQ FLAT:??_7type_info@@6B@ ; std::_Ref_count_resource<cow::Swapchain *,std::default_delete<cow::Swapchain> > `RTTI Type Descriptor'
	DQ	0000000000000000H
	DB	'.?AV?$_Ref_count_resource@PEAVSwapchain@cow@@U?$default_'
	DB	'delete@VSwapchain@cow@@@std@@@std@@', 00H
data$rs	ENDS
;	COMDAT ??_R4?$_Ref_count_resource@PEAVSwapchain@cow@@U?$default_delete@VSwapchain@cow@@@std@@@std@@6B@
rdata$r	SEGMENT
??_R4?$_Ref_count_resource@PEAVSwapchain@cow@@U?$default_delete@VSwapchain@cow@@@std@@@std@@6B@ DD 01H ; std::_Ref_count_resource<cow::Swapchain *,std::default_delete<cow::Swapchain> >::`RTTI Complete Object Locator'
	DD	00H
	DD	00H
	DD	imagerel ??_R0?AV?$_Ref_count_resource@PEAVSwapchain@cow@@U?$default_delete@VSwapchain@cow@@@std@@@std@@@8
	DD	imagerel ??_R3?$_Ref_count_resource@PEAVSwapchain@cow@@U?$default_delete@VSwapchain@cow@@@std@@@std@@8
	DD	imagerel ??_R4?$_Ref_count_resource@PEAVSwapchain@cow@@U?$default_delete@VSwapchain@cow@@@std@@@std@@6B@
rdata$r	ENDS
;	COMDAT ??_R1A@?0A@EA@_Ref_count_base@std@@8
rdata$r	SEGMENT
??_R1A@?0A@EA@_Ref_count_base@std@@8 DD imagerel ??_R0?AV_Ref_count_base@std@@@8 ; std::_Ref_count_base::`RTTI Base Class Descriptor at (0,-1,0,64)'
	DD	00H
	DD	00H
	DD	0ffffffffH
	DD	00H
	DD	040H
	DD	imagerel ??_R3_Ref_count_base@std@@8
rdata$r	ENDS
;	COMDAT ??_R2_Ref_count_base@std@@8
rdata$r	SEGMENT
??_R2_Ref_count_base@std@@8 DD imagerel ??_R1A@?0A@EA@_Ref_count_base@std@@8 ; std::_Ref_count_base::`RTTI Base Class Array'
	ORG $+3
rdata$r	ENDS
;	COMDAT ??_R3_Ref_count_base@std@@8
rdata$r	SEGMENT
??_R3_Ref_count_base@std@@8 DD 00H			; std::_Ref_count_base::`RTTI Class Hierarchy Descriptor'
	DD	00H
	DD	01H
	DD	imagerel ??_R2_Ref_count_base@std@@8
rdata$r	ENDS
;	COMDAT ??_R0?AV_Ref_count_base@std@@@8
data$rs	SEGMENT
??_R0?AV_Ref_count_base@std@@@8 DQ FLAT:??_7type_info@@6B@ ; std::_Ref_count_base `RTTI Type Descriptor'
	DQ	0000000000000000H
	DB	'.?AV_Ref_count_base@std@@', 00H
data$rs	ENDS
;	COMDAT ??_R1A@?0A@EA@runtime_error@std@@8
rdata$r	SEGMENT
??_R1A@?0A@EA@runtime_error@std@@8 DD imagerel ??_R0?AVruntime_error@std@@@8 ; std::runtime_error::`RTTI Base Class Descriptor at (0,-1,0,64)'
	DD	01H
	DD	00H
	DD	0ffffffffH
	DD	00H
	DD	040H
	DD	imagerel ??_R3runtime_error@std@@8
rdata$r	ENDS
;	COMDAT ??_R2runtime_error@std@@8
rdata$r	SEGMENT
??_R2runtime_error@std@@8 DD imagerel ??_R1A@?0A@EA@runtime_error@std@@8 ; std::runtime_error::`RTTI Base Class Array'
	DD	imagerel ??_R1A@?0A@EA@exception@std@@8
	ORG $+3
rdata$r	ENDS
;	COMDAT ??_R3runtime_error@std@@8
rdata$r	SEGMENT
??_R3runtime_error@std@@8 DD 00H			; std::runtime_error::`RTTI Class Hierarchy Descriptor'
	DD	00H
	DD	02H
	DD	imagerel ??_R2runtime_error@std@@8
rdata$r	ENDS
;	COMDAT ??_R4runtime_error@std@@6B@
rdata$r	SEGMENT
??_R4runtime_error@std@@6B@ DD 01H			; std::runtime_error::`RTTI Complete Object Locator'
	DD	00H
	DD	00H
	DD	imagerel ??_R0?AVruntime_error@std@@@8
	DD	imagerel ??_R3runtime_error@std@@8
	DD	imagerel ??_R4runtime_error@std@@6B@
rdata$r	ENDS
;	COMDAT ??_R1A@?0A@EA@exception@std@@8
rdata$r	SEGMENT
??_R1A@?0A@EA@exception@std@@8 DD imagerel ??_R0?AVexception@std@@@8 ; std::exception::`RTTI Base Class Descriptor at (0,-1,0,64)'
	DD	00H
	DD	00H
	DD	0ffffffffH
	DD	00H
	DD	040H
	DD	imagerel ??_R3exception@std@@8
rdata$r	ENDS
;	COMDAT ??_R2exception@std@@8
rdata$r	SEGMENT
??_R2exception@std@@8 DD imagerel ??_R1A@?0A@EA@exception@std@@8 ; std::exception::`RTTI Base Class Array'
	ORG $+3
rdata$r	ENDS
;	COMDAT ??_R3exception@std@@8
rdata$r	SEGMENT
??_R3exception@std@@8 DD 00H				; std::exception::`RTTI Class Hierarchy Descriptor'
	DD	00H
	DD	01H
	DD	imagerel ??_R2exception@std@@8
rdata$r	ENDS
;	COMDAT ??_R4exception@std@@6B@
rdata$r	SEGMENT
??_R4exception@std@@6B@ DD 01H				; std::exception::`RTTI Complete Object Locator'
	DD	00H
	DD	00H
	DD	imagerel ??_R0?AVexception@std@@@8
	DD	imagerel ??_R3exception@std@@8
	DD	imagerel ??_R4exception@std@@6B@
rdata$r	ENDS
;	COMDAT ??_R0?AU?$default_delete@VSwapchain@cow@@@std@@@8
data$r	SEGMENT
??_R0?AU?$default_delete@VSwapchain@cow@@@std@@@8 DQ FLAT:??_7type_info@@6B@ ; std::default_delete<cow::Swapchain> `RTTI Type Descriptor'
	DQ	0000000000000000H
	DB	'.?AU?$default_delete@VSwapchain@cow@@@std@@', 00H
data$r	ENDS
;	COMDAT ??_7?$_Ref_count_resource@PEAVSwapchain@cow@@U?$default_delete@VSwapchain@cow@@@std@@@std@@6B@
CONST	SEGMENT
??_7?$_Ref_count_resource@PEAVSwapchain@cow@@U?$default_delete@VSwapchain@cow@@@std@@@std@@6B@ DQ FLAT:??_R4?$_Ref_count_resource@PEAVSwapchain@cow@@U?$default_delete@VSwapchain@cow@@@std@@@std@@6B@ ; std::_Ref_count_resource<cow::Swapchain *,std::default_delete<cow::Swapchain> >::`vftable'
	DQ	FLAT:?_Destroy@?$_Ref_count_resource@PEAVSwapchain@cow@@U?$default_delete@VSwapchain@cow@@@std@@@std@@EEAAXXZ
	DQ	FLAT:?_Delete_this@?$_Ref_count_resource@PEAVSwapchain@cow@@U?$default_delete@VSwapchain@cow@@@std@@@std@@EEAAXXZ
	DQ	FLAT:??_E?$_Ref_count_resource@PEAVSwapchain@cow@@U?$default_delete@VSwapchain@cow@@@std@@@std@@UEAAPEAXI@Z
	DQ	FLAT:?_Get_deleter@?$_Ref_count_resource@PEAVSwapchain@cow@@U?$default_delete@VSwapchain@cow@@@std@@@std@@UEBAPEAXAEBVtype_info@@@Z
CONST	ENDS
;	COMDAT ??_C@_1DO@NCBLADDF@?$AA?$CC?$AAa?$AAr?$AAr?$AAa?$AAy?$AA?5?$AAs?$AAu?$AAb?$AAs?$AAc?$AAr?$AAi?$AAp@
CONST	SEGMENT
??_C@_1DO@NCBLADDF@?$AA?$CC?$AAa?$AAr?$AAr?$AAa?$AAy?$AA?5?$AAs?$AAu?$AAb?$AAs?$AAc?$AAr?$AAi?$AAp@ DB '"'
	DB	00H, 'a', 00H, 'r', 00H, 'r', 00H, 'a', 00H, 'y', 00H, ' ', 00H
	DB	's', 00H, 'u', 00H, 'b', 00H, 's', 00H, 'c', 00H, 'r', 00H, 'i'
	DB	00H, 'p', 00H, 't', 00H, ' ', 00H, 'o', 00H, 'u', 00H, 't', 00H
	DB	' ', 00H, 'o', 00H, 'f', 00H, ' ', 00H, 'r', 00H, 'a', 00H, 'n'
	DB	00H, 'g', 00H, 'e', 00H, '"', 00H, 00H, 00H	; `string'
CONST	ENDS
;	COMDAT ??_C@_1MA@HADHJGPP@?$AAC?$AA?3?$AA?2?$AAP?$AAr?$AAo?$AAg?$AAr?$AAa?$AAm?$AA?5?$AAF?$AAi?$AAl?$AAe@
CONST	SEGMENT
??_C@_1MA@HADHJGPP@?$AAC?$AA?3?$AA?2?$AAP?$AAr?$AAo?$AAg?$AAr?$AAa?$AAm?$AA?5?$AAF?$AAi?$AAl?$AAe@ DB 'C'
	DB	00H, ':', 00H, '\', 00H, 'P', 00H, 'r', 00H, 'o', 00H, 'g', 00H
	DB	'r', 00H, 'a', 00H, 'm', 00H, ' ', 00H, 'F', 00H, 'i', 00H, 'l'
	DB	00H, 'e', 00H, 's', 00H, '\', 00H, 'M', 00H, 'i', 00H, 'c', 00H
	DB	'r', 00H, 'o', 00H, 's', 00H, 'o', 00H, 'f', 00H, 't', 00H, ' '
	DB	00H, 'V', 00H, 'i', 00H, 's', 00H, 'u', 00H, 'a', 00H, 'l', 00H
	DB	' ', 00H, 'S', 00H, 't', 00H, 'u', 00H, 'd', 00H, 'i', 00H, 'o'
	DB	00H, '\', 00H, '2', 00H, '0', 00H, '2', 00H, '2', 00H, '\', 00H
	DB	'C', 00H, 'o', 00H, 'm', 00H, 'm', 00H, 'u', 00H, 'n', 00H, 'i'
	DB	00H, 't', 00H, 'y', 00H, '\', 00H, 'V', 00H, 'C', 00H, '\', 00H
	DB	'T', 00H, 'o', 00H, 'o', 00H, 'l', 00H, 's', 00H, '\', 00H, 'M'
	DB	00H, 'S', 00H, 'V', 00H, 'C', 00H, '\', 00H, '1', 00H, '4', 00H
	DB	'.', 00H, '3', 00H, '2', 00H, '.', 00H, '3', 00H, '1', 00H, '3'
	DB	00H, '2', 00H, '6', 00H, '\', 00H, 'i', 00H, 'n', 00H, 'c', 00H
	DB	'l', 00H, 'u', 00H, 'd', 00H, 'e', 00H, '\', 00H, 'a', 00H, 'r'
	DB	00H, 'r', 00H, 'a', 00H, 'y', 00H, 00H, 00H	; `string'
CONST	ENDS
;	COMDAT ??_C@_0GA@LKBGKKAK@C?3?2Program?5Files?2Microsoft?5Visu@
CONST	SEGMENT
??_C@_0GA@LKBGKKAK@C?3?2Program?5Files?2Microsoft?5Visu@ DB 'C:\Program F'
	DB	'iles\Microsoft Visual Studio\2022\Community\VC\Tools\MSVC\14.'
	DB	'32.31326\include\array', 00H		; `string'
CONST	ENDS
;	COMDAT ??_C@_0BN@HMIFLIEM@array?5subscript?5out?5of?5range@
CONST	SEGMENT
??_C@_0BN@HMIFLIEM@array?5subscript?5out?5of?5range@ DB 'array subscript '
	DB	'out of range', 00H				; `string'
CONST	ENDS
;	COMDAT ??_C@_0CE@JIHFMFNH@Swap?5Chain?5Image?5format?5has?5cha@
CONST	SEGMENT
??_C@_0CE@JIHFMFNH@Swap?5Chain?5Image?5format?5has?5cha@ DB 'Swap Chain I'
	DB	'mage format has changed', 00H		; `string'
CONST	ENDS
;	COMDAT ??_C@_0CJ@CAGDIOCF@failed?5to?5begin?5recording?5comma@
CONST	SEGMENT
??_C@_0CJ@CAGDIOCF@failed?5to?5begin?5recording?5comma@ DB 'failed to beg'
	DB	'in recording command buffer', 00H		; `string'
CONST	ENDS
;	COMDAT ??_C@_0CC@GCLKDMPD@failed?5to?5aquire?5swap?5chain?5ima@
CONST	SEGMENT
??_C@_0CC@GCLKDMPD@failed?5to?5aquire?5swap?5chain?5ima@ DB 'failed to aq'
	DB	'uire swap chain image', 00H			; `string'
CONST	ENDS
;	COMDAT _CTA2?AVruntime_error@std@@
xdata$x	SEGMENT
_CTA2?AVruntime_error@std@@ DD 02H
	DD	imagerel _CT??_R0?AVruntime_error@std@@@8??0runtime_error@std@@QEAA@AEBV01@@Z24
	DD	imagerel _CT??_R0?AVexception@std@@@8??0exception@std@@QEAA@AEBV01@@Z24
xdata$x	ENDS
;	COMDAT _TI2?AVruntime_error@std@@
xdata$x	SEGMENT
_TI2?AVruntime_error@std@@ DD 00H
	DD	imagerel ??1runtime_error@std@@UEAA@XZ
	DD	00H
	DD	imagerel _CTA2?AVruntime_error@std@@
xdata$x	ENDS
;	COMDAT _CT??_R0?AVruntime_error@std@@@8??0runtime_error@std@@QEAA@AEBV01@@Z24
xdata$x	SEGMENT
_CT??_R0?AVruntime_error@std@@@8??0runtime_error@std@@QEAA@AEBV01@@Z24 DD 00H
	DD	imagerel ??_R0?AVruntime_error@std@@@8
	DD	00H
	DD	0ffffffffH
	ORG $+4
	DD	018H
	DD	imagerel ??0runtime_error@std@@QEAA@AEBV01@@Z
xdata$x	ENDS
;	COMDAT ??_R0?AVruntime_error@std@@@8
data$r	SEGMENT
??_R0?AVruntime_error@std@@@8 DQ FLAT:??_7type_info@@6B@ ; std::runtime_error `RTTI Type Descriptor'
	DQ	0000000000000000H
	DB	'.?AVruntime_error@std@@', 00H
data$r	ENDS
;	COMDAT ??_7runtime_error@std@@6B@
CONST	SEGMENT
??_7runtime_error@std@@6B@ DQ FLAT:??_R4runtime_error@std@@6B@ ; std::runtime_error::`vftable'
	DQ	FLAT:??_Eruntime_error@std@@UEAAPEAXI@Z
	DQ	FLAT:?what@exception@std@@UEBAPEBDXZ
CONST	ENDS
;	COMDAT ??_C@_11LOCGONAA@@
CONST	SEGMENT
??_C@_11LOCGONAA@@ DB 00H, 00H				; `string'
CONST	ENDS
;	COMDAT ??_C@_02DKCKIIND@?$CFs@
CONST	SEGMENT
??_C@_02DKCKIIND@?$CFs@ DB '%s', 00H			; `string'
CONST	ENDS
;	COMDAT _CT??_R0?AVexception@std@@@8??0exception@std@@QEAA@AEBV01@@Z24
xdata$x	SEGMENT
_CT??_R0?AVexception@std@@@8??0exception@std@@QEAA@AEBV01@@Z24 DD 00H
	DD	imagerel ??_R0?AVexception@std@@@8
	DD	00H
	DD	0ffffffffH
	ORG $+4
	DD	018H
	DD	imagerel ??0exception@std@@QEAA@AEBV01@@Z
xdata$x	ENDS
;	COMDAT ??_R0?AVexception@std@@@8
data$r	SEGMENT
??_R0?AVexception@std@@@8 DQ FLAT:??_7type_info@@6B@	; std::exception `RTTI Type Descriptor'
	DQ	0000000000000000H
	DB	'.?AVexception@std@@', 00H
data$r	ENDS
;	COMDAT ??_C@_0BC@EOODALEL@Unknown?5exception@
CONST	SEGMENT
??_C@_0BC@EOODALEL@Unknown?5exception@ DB 'Unknown exception', 00H ; `string'
CONST	ENDS
;	COMDAT ??_7exception@std@@6B@
CONST	SEGMENT
??_7exception@std@@6B@ DQ FLAT:??_R4exception@std@@6B@	; std::exception::`vftable'
	DQ	FLAT:??_Eexception@std@@UEAAPEAXI@Z
	DQ	FLAT:?what@exception@std@@UEBAPEBDXZ
CONST	ENDS
;	COMDAT xdata
xdata	SEGMENT
$unwind$??$forward@AEAPEAVSwapchain@cow@@@std@@YAAEAPEAVSwapchain@cow@@AEAPEAV12@@Z DD 025051301H
	DD	010e2313H
	DD	07007001dH
	DD	05006H
xdata	ENDS
;	COMDAT xdata
xdata	SEGMENT
$unwind$??$?0AEAPEAVSwapchain@cow@@@?$_Compressed_pair@U?$default_delete@VSwapchain@cow@@@std@@PEAVSwapchain@cow@@$00@std@@QEAA@U_Zero_then_variadic_args_t@1@AEAPEAVSwapchain@cow@@@Z DD 025051c01H
	DD	0117231cH
	DD	07010001dH
	DD	0500fH
xdata	ENDS
;	COMDAT xdata
xdata	SEGMENT
$unwind$??$_Copy_construct_from@VSwapchain@cow@@@?$_Ptr_base@VSwapchain@cow@@@std@@IEAAXAEBV?$shared_ptr@VSwapchain@cow@@@1@@Z DD 025051801H
	DD	01132318H
	DD	0700c001dH
	DD	0500bH
xdata	ENDS
;	COMDAT xdata
xdata	SEGMENT
$unwind$??$exchange@PEAVSwapchain@cow@@$$T@std@@YAPEAVSwapchain@cow@@AEAPEAV12@$$QEA$$T@Z DD 025051801H
	DD	01132318H
	DD	0700c0021H
	DD	0500bH
xdata	ENDS
;	COMDAT xdata
xdata	SEGMENT
$unwind$??$exchange@PEAVSwapchain@cow@@AEAPEAV12@@std@@YAPEAVSwapchain@cow@@AEAPEAV12@0@Z DD 025051801H
	DD	01132318H
	DD	0700c0021H
	DD	0500bH
xdata	ENDS
;	COMDAT xdata
xdata	SEGMENT
$unwind$??$?0U?$default_delete@VSwapchain@cow@@@std@@AEAPEAVSwapchain@cow@@@?$_Compressed_pair@U?$default_delete@VSwapchain@cow@@@std@@PEAVSwapchain@cow@@$00@std@@QEAA@U_One_then_variadic_args_t@1@$$QEAU?$default_delete@VSwapchain@cow@@@1@AEAPEAVSwapchain@cow@@@Z DD 025052101H
	DD	011c2321H
	DD	07015001dH
	DD	05014H
xdata	ENDS
;	COMDAT xdata
xdata	SEGMENT
$unwind$??$move@AEAU?$default_delete@VSwapchain@cow@@@std@@@std@@YA$$QEAU?$default_delete@VSwapchain@cow@@@0@AEAU10@@Z DD 025051301H
	DD	010e2313H
	DD	07007001dH
	DD	05006H
xdata	ENDS
;	COMDAT xdata
xdata	SEGMENT
$unwind$??$addressof@$$CBU?$default_delete@VSwapchain@cow@@@std@@@std@@YAPEBU?$default_delete@VSwapchain@cow@@@0@AEBU10@@Z DD 025051301H
	DD	010e2313H
	DD	07007001dH
	DD	05006H
xdata	ENDS
;	COMDAT xdata
xdata	SEGMENT
$unwind$??$forward@AEAV?$shared_ptr@VSwapchain@cow@@@std@@@std@@YAAEAV?$shared_ptr@VSwapchain@cow@@@0@AEAV10@@Z DD 025051301H
	DD	010e2313H
	DD	07007001dH
	DD	05006H
xdata	ENDS
;	COMDAT xdata
xdata	SEGMENT
$unwind$??$_Set_ptr_rep_and_enable_shared@VSwapchain@cow@@@?$shared_ptr@VSwapchain@cow@@@std@@AEAAXQEAVSwapchain@cow@@QEAV_Ref_count_base@1@@Z DD 025051d01H
	DD	0118231dH
	DD	07011001dH
	DD	05010H
xdata	ENDS
;	COMDAT xdata
xdata	SEGMENT
$unwind$??_G?$_Ref_count_resource@PEAVSwapchain@cow@@U?$default_delete@VSwapchain@cow@@@std@@@std@@UEAAPEAXI@Z DD 025051701H
	DD	01122317H
	DD	0700b001dH
	DD	0500aH
xdata	ENDS
;	COMDAT xdata
xdata	SEGMENT
$unwind$?__autoclassinit2@?$_Ref_count_resource@PEAVSwapchain@cow@@U?$default_delete@VSwapchain@cow@@@std@@@std@@QEAAX_K@Z DD 05051601H
	DD	01130316H
	DD	0700c0019H
	DD	0500bH
xdata	ENDS
;	COMDAT xdata
xdata	SEGMENT
$unwind$?_Delete_this@?$_Ref_count_resource@PEAVSwapchain@cow@@U?$default_delete@VSwapchain@cow@@@std@@@std@@EEAAXXZ DD 025051301H
	DD	010e2313H
	DD	070070023H
	DD	05006H
xdata	ENDS
;	COMDAT xdata
xdata	SEGMENT
$unwind$?_Destroy@?$_Ref_count_resource@PEAVSwapchain@cow@@U?$default_delete@VSwapchain@cow@@@std@@@std@@EEAAXXZ DD 025051301H
	DD	010e2313H
	DD	07007001fH
	DD	05006H
xdata	ENDS
;	COMDAT xdata
xdata	SEGMENT
$unwind$?_Get_deleter@?$_Ref_count_resource@PEAVSwapchain@cow@@U?$default_delete@VSwapchain@cow@@@std@@@std@@UEBAPEAXAEBVtype_info@@@Z DD 025051801H
	DD	01132318H
	DD	0700c001dH
	DD	0500bH
xdata	ENDS
;	COMDAT xdata
xdata	SEGMENT
$unwind$??1?$_Ref_count_resource@PEAVSwapchain@cow@@U?$default_delete@VSwapchain@cow@@@std@@@std@@UEAA@XZ DD 025051301H
	DD	010e2313H
	DD	07007001dH
	DD	05006H
xdata	ENDS
;	COMDAT xdata
xdata	SEGMENT
$unwind$??0?$_Ref_count_resource@PEAVSwapchain@cow@@U?$default_delete@VSwapchain@cow@@@std@@@std@@QEAA@PEAVSwapchain@cow@@U?$default_delete@VSwapchain@cow@@@1@@Z DD 025051d01H
	DD	0118231dH
	DD	070110027H
	DD	05010H
xdata	ENDS
;	COMDAT xdata
xdata	SEGMENT
$unwind$??$forward@U?$default_delete@VSwapchain@cow@@@std@@@std@@YA$$QEAU?$default_delete@VSwapchain@cow@@@0@AEAU10@@Z DD 025051301H
	DD	010e2313H
	DD	07007001dH
	DD	05006H
xdata	ENDS
;	COMDAT xdata
xdata	SEGMENT
$unwind$??$addressof@V?$unique_ptr@VSwapchain@cow@@U?$default_delete@VSwapchain@cow@@@std@@@std@@@std@@YAPEAV?$unique_ptr@VSwapchain@cow@@U?$default_delete@VSwapchain@cow@@@std@@@0@AEAV10@@Z DD 025051301H
	DD	010e2313H
	DD	07007001dH
	DD	05006H
xdata	ENDS
;	COMDAT xdata
xdata	SEGMENT
$unwind$??$?0U?$default_delete@VSwapchain@cow@@@std@@$0A@@?$unique_ptr@VSwapchain@cow@@U?$default_delete@VSwapchain@cow@@@std@@@std@@QEAA@PEAVSwapchain@cow@@@Z DD 025051801H
	DD	01132318H
	DD	0700c0021H
	DD	0500bH
xdata	ENDS
;	COMDAT xdata
xdata	SEGMENT
$unwind$??$forward@AEAUVkExtent2D@@@std@@YAAEAUVkExtent2D@@AEAU1@@Z DD 025051301H
	DD	010e2313H
	DD	07007001dH
	DD	05006H
xdata	ENDS
;	COMDAT xdata
xdata	SEGMENT
$unwind$??$forward@AEAVDevice@cow@@@std@@YAAEAVDevice@cow@@AEAV12@@Z DD 025051301H
	DD	010e2313H
	DD	07007001dH
	DD	05006H
xdata	ENDS
;	COMDAT xdata
xdata	SEGMENT
$unwind$??$?0$$V@?$_Compressed_pair@U?$default_delete@VSwapchain@cow@@@std@@PEAVSwapchain@cow@@$00@std@@QEAA@U_Zero_then_variadic_args_t@1@@Z DD 025051701H
	DD	01122317H
	DD	0700b001dH
	DD	0500aH
xdata	ENDS
;	COMDAT xdata
xdata	SEGMENT
$unwind$??$?CVSwapchain@cow@@$0A@@?$shared_ptr@VSwapchain@cow@@@std@@QEBAPEAVSwapchain@cow@@XZ DD 025051301H
	DD	010e2313H
	DD	07007001dH
	DD	05006H
xdata	ENDS
;	COMDAT voltbl
voltbl	SEGMENT
_volmd	DB	00H
	DB	05H
voltbl	ENDS
;	COMDAT xdata
xdata	SEGMENT
$unwind$?dtor$0@?0???$make_unique@VSwapchain@cow@@AEAVDevice@2@AEAUVkExtent2D@@AEAV?$shared_ptr@VSwapchain@cow@@@std@@$0A@@std@@YA?AV?$unique_ptr@VSwapchain@cow@@U?$default_delete@VSwapchain@cow@@@std@@@0@AEAVDevice@cow@@AEAUVkExtent2D@@AEAV?$shared_ptr@VSwapchain@cow@@@0@@Z@4HA DD 031001H
	DD	0700c4210H
	DD	0500bH
xdata	ENDS
;	COMDAT xdata
xdata	SEGMENT
$ip2state$??$make_unique@VSwapchain@cow@@AEAVDevice@2@AEAUVkExtent2D@@AEAV?$shared_ptr@VSwapchain@cow@@@std@@$0A@@std@@YA?AV?$unique_ptr@VSwapchain@cow@@U?$default_delete@VSwapchain@cow@@@std@@@0@AEAVDevice@cow@@AEAUVkExtent2D@@AEAV?$shared_ptr@VSwapchain@cow@@@0@@Z DB 06H
	DB	00H
	DB	00H
	DB	092H
	DB	02H
	DB	095H, 03H
	DB	00H
xdata	ENDS
;	COMDAT xdata
xdata	SEGMENT
$stateUnwindMap$??$make_unique@VSwapchain@cow@@AEAVDevice@2@AEAUVkExtent2D@@AEAV?$shared_ptr@VSwapchain@cow@@@std@@$0A@@std@@YA?AV?$unique_ptr@VSwapchain@cow@@U?$default_delete@VSwapchain@cow@@@std@@@0@AEAVDevice@cow@@AEAUVkExtent2D@@AEAV?$shared_ptr@VSwapchain@cow@@@0@@Z DB 02H
	DB	0eH
	DD	imagerel ?dtor$0@?0???$make_unique@VSwapchain@cow@@AEAVDevice@2@AEAUVkExtent2D@@AEAV?$shared_ptr@VSwapchain@cow@@@std@@$0A@@std@@YA?AV?$unique_ptr@VSwapchain@cow@@U?$default_delete@VSwapchain@cow@@@std@@@0@AEAVDevice@cow@@AEAUVkExtent2D@@AEAV?$shared_ptr@VSwapchain@cow@@@0@@Z@4HA
xdata	ENDS
;	COMDAT xdata
xdata	SEGMENT
$cppxdata$??$make_unique@VSwapchain@cow@@AEAVDevice@2@AEAUVkExtent2D@@AEAV?$shared_ptr@VSwapchain@cow@@@std@@$0A@@std@@YA?AV?$unique_ptr@VSwapchain@cow@@U?$default_delete@VSwapchain@cow@@@std@@@0@AEAVDevice@cow@@AEAUVkExtent2D@@AEAV?$shared_ptr@VSwapchain@cow@@@0@@Z DB 028H
	DD	imagerel $stateUnwindMap$??$make_unique@VSwapchain@cow@@AEAVDevice@2@AEAUVkExtent2D@@AEAV?$shared_ptr@VSwapchain@cow@@@std@@$0A@@std@@YA?AV?$unique_ptr@VSwapchain@cow@@U?$default_delete@VSwapchain@cow@@@std@@@0@AEAVDevice@cow@@AEAUVkExtent2D@@AEAV?$shared_ptr@VSwapchain@cow@@@0@@Z
	DD	imagerel $ip2state$??$make_unique@VSwapchain@cow@@AEAVDevice@2@AEAUVkExtent2D@@AEAV?$shared_ptr@VSwapchain@cow@@@std@@$0A@@std@@YA?AV?$unique_ptr@VSwapchain@cow@@U?$default_delete@VSwapchain@cow@@@std@@@0@AEAVDevice@cow@@AEAUVkExtent2D@@AEAV?$shared_ptr@VSwapchain@cow@@@0@@Z
xdata	ENDS
;	COMDAT xdata
xdata	SEGMENT
$unwind$??$make_unique@VSwapchain@cow@@AEAVDevice@2@AEAUVkExtent2D@@AEAV?$shared_ptr@VSwapchain@cow@@@std@@$0A@@std@@YA?AV?$unique_ptr@VSwapchain@cow@@U?$default_delete@VSwapchain@cow@@@std@@@0@AEAVDevice@cow@@AEAUVkExtent2D@@AEAV?$shared_ptr@VSwapchain@cow@@@0@@Z DD 025052211H
	DD	011d2322H
	DD	070160043H
	DD	05015H
	DD	imagerel __CxxFrameHandler4
	DD	imagerel $cppxdata$??$make_unique@VSwapchain@cow@@AEAVDevice@2@AEAUVkExtent2D@@AEAV?$shared_ptr@VSwapchain@cow@@@std@@$0A@@std@@YA?AV?$unique_ptr@VSwapchain@cow@@U?$default_delete@VSwapchain@cow@@@std@@@0@AEAVDevice@cow@@AEAUVkExtent2D@@AEAV?$shared_ptr@VSwapchain@cow@@@0@@Z
xdata	ENDS
;	COMDAT voltbl
voltbl	SEGMENT
_volmd	DB	00H
	DB	05H
voltbl	ENDS
;	COMDAT xdata
xdata	SEGMENT
$unwind$?dtor$0@?0???$?0VSwapchain@cow@@U?$default_delete@VSwapchain@cow@@@std@@$0A@@?$shared_ptr@VSwapchain@cow@@@std@@QEAA@$$QEAV?$unique_ptr@VSwapchain@cow@@U?$default_delete@VSwapchain@cow@@@std@@@1@@Z@4HA DD 031001H
	DD	0700c4210H
	DD	0500bH
xdata	ENDS
;	COMDAT xdata
xdata	SEGMENT
$ip2state$??$?0VSwapchain@cow@@U?$default_delete@VSwapchain@cow@@@std@@$0A@@?$shared_ptr@VSwapchain@cow@@@std@@QEAA@$$QEAV?$unique_ptr@VSwapchain@cow@@U?$default_delete@VSwapchain@cow@@@std@@@1@@Z DB 06H
	DB	00H
	DB	00H
	DB	0c8H
	DB	02H
	DB	0e4H
	DB	00H
xdata	ENDS
;	COMDAT xdata
xdata	SEGMENT
$stateUnwindMap$??$?0VSwapchain@cow@@U?$default_delete@VSwapchain@cow@@@std@@$0A@@?$shared_ptr@VSwapchain@cow@@@std@@QEAA@$$QEAV?$unique_ptr@VSwapchain@cow@@U?$default_delete@VSwapchain@cow@@@std@@@1@@Z DB 02H
	DB	0eH
	DD	imagerel ?dtor$0@?0???$?0VSwapchain@cow@@U?$default_delete@VSwapchain@cow@@@std@@$0A@@?$shared_ptr@VSwapchain@cow@@@std@@QEAA@$$QEAV?$unique_ptr@VSwapchain@cow@@U?$default_delete@VSwapchain@cow@@@std@@@1@@Z@4HA
xdata	ENDS
;	COMDAT xdata
xdata	SEGMENT
$cppxdata$??$?0VSwapchain@cow@@U?$default_delete@VSwapchain@cow@@@std@@$0A@@?$shared_ptr@VSwapchain@cow@@@std@@QEAA@$$QEAV?$unique_ptr@VSwapchain@cow@@U?$default_delete@VSwapchain@cow@@@std@@@1@@Z DB 028H
	DD	imagerel $stateUnwindMap$??$?0VSwapchain@cow@@U?$default_delete@VSwapchain@cow@@@std@@$0A@@?$shared_ptr@VSwapchain@cow@@@std@@QEAA@$$QEAV?$unique_ptr@VSwapchain@cow@@U?$default_delete@VSwapchain@cow@@@std@@@1@@Z
	DD	imagerel $ip2state$??$?0VSwapchain@cow@@U?$default_delete@VSwapchain@cow@@@std@@$0A@@?$shared_ptr@VSwapchain@cow@@@std@@QEAA@$$QEAV?$unique_ptr@VSwapchain@cow@@U?$default_delete@VSwapchain@cow@@@std@@@1@@Z
xdata	ENDS
;	COMDAT xdata
xdata	SEGMENT
$unwind$??$?0VSwapchain@cow@@U?$default_delete@VSwapchain@cow@@@std@@$0A@@?$shared_ptr@VSwapchain@cow@@@std@@QEAA@$$QEAV?$unique_ptr@VSwapchain@cow@@U?$default_delete@VSwapchain@cow@@@std@@@1@@Z DD 025051811H
	DD	01132318H
	DD	0700c0035H
	DD	0500bH
	DD	imagerel __CxxFrameHandler4
	DD	imagerel $cppxdata$??$?0VSwapchain@cow@@U?$default_delete@VSwapchain@cow@@@std@@$0A@@?$shared_ptr@VSwapchain@cow@@@std@@QEAA@$$QEAV?$unique_ptr@VSwapchain@cow@@U?$default_delete@VSwapchain@cow@@@std@@@1@@Z
xdata	ENDS
;	COMDAT xdata
xdata	SEGMENT
$unwind$??$move@AEAV?$unique_ptr@VSwapchain@cow@@U?$default_delete@VSwapchain@cow@@@std@@@std@@@std@@YA$$QEAV?$unique_ptr@VSwapchain@cow@@U?$default_delete@VSwapchain@cow@@@std@@@0@AEAV10@@Z DD 025051301H
	DD	010e2313H
	DD	07007001dH
	DD	05006H
xdata	ENDS
;	COMDAT xdata
xdata	SEGMENT
$unwind$??$?4U?$default_delete@VSwapchain@cow@@@std@@$0A@@?$unique_ptr@VSwapchain@cow@@U?$default_delete@VSwapchain@cow@@@std@@@std@@QEAAAEAV01@$$QEAV01@@Z DD 025051801H
	DD	01132318H
	DD	0700c001dH
	DD	0500bH
xdata	ENDS
;	COMDAT voltbl
voltbl	SEGMENT
_volmd	DB	00H
	DB	05H
voltbl	ENDS
;	COMDAT xdata
xdata	SEGMENT
$unwind$?dtor$0@?0???$make_unique@VSwapchain@cow@@AEAVDevice@2@AEAUVkExtent2D@@$0A@@std@@YA?AV?$unique_ptr@VSwapchain@cow@@U?$default_delete@VSwapchain@cow@@@std@@@0@AEAVDevice@cow@@AEAUVkExtent2D@@@Z@4HA DD 031001H
	DD	0700c4210H
	DD	0500bH
xdata	ENDS
;	COMDAT xdata
xdata	SEGMENT
$ip2state$??$make_unique@VSwapchain@cow@@AEAVDevice@2@AEAUVkExtent2D@@$0A@@std@@YA?AV?$unique_ptr@VSwapchain@cow@@U?$default_delete@VSwapchain@cow@@@std@@@0@AEAVDevice@cow@@AEAUVkExtent2D@@@Z DB 06H
	DB	00H
	DB	00H
	DB	088H
	DB	02H
	DB	'9', 02H
	DB	00H
xdata	ENDS
;	COMDAT xdata
xdata	SEGMENT
$stateUnwindMap$??$make_unique@VSwapchain@cow@@AEAVDevice@2@AEAUVkExtent2D@@$0A@@std@@YA?AV?$unique_ptr@VSwapchain@cow@@U?$default_delete@VSwapchain@cow@@@std@@@0@AEAVDevice@cow@@AEAUVkExtent2D@@@Z DB 02H
	DB	0eH
	DD	imagerel ?dtor$0@?0???$make_unique@VSwapchain@cow@@AEAVDevice@2@AEAUVkExtent2D@@$0A@@std@@YA?AV?$unique_ptr@VSwapchain@cow@@U?$default_delete@VSwapchain@cow@@@std@@@0@AEAVDevice@cow@@AEAUVkExtent2D@@@Z@4HA
xdata	ENDS
;	COMDAT xdata
xdata	SEGMENT
$cppxdata$??$make_unique@VSwapchain@cow@@AEAVDevice@2@AEAUVkExtent2D@@$0A@@std@@YA?AV?$unique_ptr@VSwapchain@cow@@U?$default_delete@VSwapchain@cow@@@std@@@0@AEAVDevice@cow@@AEAUVkExtent2D@@@Z DB 028H
	DD	imagerel $stateUnwindMap$??$make_unique@VSwapchain@cow@@AEAVDevice@2@AEAUVkExtent2D@@$0A@@std@@YA?AV?$unique_ptr@VSwapchain@cow@@U?$default_delete@VSwapchain@cow@@@std@@@0@AEAVDevice@cow@@AEAUVkExtent2D@@@Z
	DD	imagerel $ip2state$??$make_unique@VSwapchain@cow@@AEAVDevice@2@AEAUVkExtent2D@@$0A@@std@@YA?AV?$unique_ptr@VSwapchain@cow@@U?$default_delete@VSwapchain@cow@@@std@@@0@AEAVDevice@cow@@AEAUVkExtent2D@@@Z
xdata	ENDS
;	COMDAT xdata
xdata	SEGMENT
$unwind$??$make_unique@VSwapchain@cow@@AEAVDevice@2@AEAUVkExtent2D@@$0A@@std@@YA?AV?$unique_ptr@VSwapchain@cow@@U?$default_delete@VSwapchain@cow@@@std@@@0@AEAVDevice@cow@@AEAUVkExtent2D@@@Z DD 025051d11H
	DD	0118231dH
	DD	070110033H
	DD	05010H
	DD	imagerel __CxxFrameHandler4
	DD	imagerel $cppxdata$??$make_unique@VSwapchain@cow@@AEAVDevice@2@AEAUVkExtent2D@@$0A@@std@@YA?AV?$unique_ptr@VSwapchain@cow@@U?$default_delete@VSwapchain@cow@@@std@@@0@AEAVDevice@cow@@AEAUVkExtent2D@@@Z
xdata	ENDS
;	COMDAT xdata
xdata	SEGMENT
$unwind$??$?8VSwapchain@cow@@U?$default_delete@VSwapchain@cow@@@std@@@std@@YA_NAEBV?$unique_ptr@VSwapchain@cow@@U?$default_delete@VSwapchain@cow@@@std@@@0@$$T@Z DD 025051801H
	DD	01132318H
	DD	0700c001fH
	DD	0500bH
xdata	ENDS
;	COMDAT xdata
xdata	SEGMENT
$unwind$?data@?$array@TVkClearValue@@$01@std@@QEAAPEATVkClearValue@@XZ DD 025051301H
	DD	010e2313H
	DD	07007001dH
	DD	05006H
xdata	ENDS
;	COMDAT xdata
xdata	SEGMENT
$unwind$??A?$array@TVkClearValue@@$01@std@@QEAAAEATVkClearValue@@_K@Z DD 035051801H
	DD	01133318H
	DD	0700c001fH
	DD	0500bH
xdata	ENDS
;	COMDAT xdata
xdata	SEGMENT
$unwind$?size@?$array@TVkClearValue@@$01@std@@QEBA_KXZ DD 025051301H
	DD	010e2313H
	DD	07007001dH
	DD	05006H
xdata	ENDS
;	COMDAT xdata
xdata	SEGMENT
$unwind$??$?0U?$default_delete@VSwapchain@cow@@@std@@$0A@@?$unique_ptr@VSwapchain@cow@@U?$default_delete@VSwapchain@cow@@@std@@@std@@QEAA@XZ DD 025051301H
	DD	010e2313H
	DD	070070021H
	DD	05006H
xdata	ENDS
;	COMDAT voltbl
voltbl	SEGMENT
_volmd	DB	036H
	DB	0edH
voltbl	ENDS
;	COMDAT xdata
xdata	SEGMENT
$unwind$?createCommandBuffers@GraphicsCommands@cow@@AEAAXXZ DD 025053d19H
	DD	010e2313H
	DD	070070027H
	DD	05006H
	DD	imagerel __GSHandlerCheck
	DD	0128H
xdata	ENDS
;	COMDAT CONST
CONST	SEGMENT
?createCommandBuffers@GraphicsCommands@cow@@AEAAXXZ$rtcName$0 DB 061H ; cow::GraphicsCommands::createCommandBuffers
	DB	06cH
	DB	06cH
	DB	06fH
	DB	063H
	DB	049H
	DB	06eH
	DB	066H
	DB	06fH
	DB	00H
	ORG $+6
?createCommandBuffers@GraphicsCommands@cow@@AEAAXXZ$rtcVarDesc DD 028H ; cow::GraphicsCommands::createCommandBuffers
	DD	020H
	DQ	FLAT:?createCommandBuffers@GraphicsCommands@cow@@AEAAXXZ$rtcName$0
	ORG $+48
?createCommandBuffers@GraphicsCommands@cow@@AEAAXXZ$rtcFrameData DD 01H ; cow::GraphicsCommands::createCommandBuffers
	DD	00H
	DQ	FLAT:?createCommandBuffers@GraphicsCommands@cow@@AEAAXXZ$rtcVarDesc
CONST	ENDS
;	COMDAT voltbl
voltbl	SEGMENT
_volmd	DB	00H
	DB	05H
voltbl	ENDS
;	COMDAT voltbl
voltbl	SEGMENT
_volmd	DW	036H
	DW	021dH
voltbl	ENDS
;	COMDAT xdata
xdata	SEGMENT
$unwind$?dtor$1@?0??recreateSwapchain@GraphicsCommands@cow@@AEAAXXZ@4HA DD 031001H
	DD	0700c4210H
	DD	0500bH
xdata	ENDS
;	COMDAT xdata
xdata	SEGMENT
$ip2state$?recreateSwapchain@GraphicsCommands@cow@@AEAAXXZ DB 06H
	DB	00H
	DB	00H
	DB	'U', 05H
	DB	02H
	DB	0bdH, 02H
	DB	00H
xdata	ENDS
;	COMDAT xdata
xdata	SEGMENT
$stateUnwindMap$?recreateSwapchain@GraphicsCommands@cow@@AEAAXXZ DB 02H
	DB	0eH
	DD	imagerel ?dtor$1@?0??recreateSwapchain@GraphicsCommands@cow@@AEAAXXZ@4HA
xdata	ENDS
;	COMDAT xdata
xdata	SEGMENT
$cppxdata$?recreateSwapchain@GraphicsCommands@cow@@AEAAXXZ DB 028H
	DD	imagerel $stateUnwindMap$?recreateSwapchain@GraphicsCommands@cow@@AEAAXXZ
	DD	imagerel $ip2state$?recreateSwapchain@GraphicsCommands@cow@@AEAAXXZ
xdata	ENDS
;	COMDAT xdata
xdata	SEGMENT
$unwind$?recreateSwapchain@GraphicsCommands@cow@@AEAAXXZ DD 025053d19H
	DD	010e2313H
	DD	07007003bH
	DD	05006H
	DD	imagerel __GSHandlerCheck_EH4
	DD	imagerel $cppxdata$?recreateSwapchain@GraphicsCommands@cow@@AEAAXXZ
	DD	01caH
xdata	ENDS
;	COMDAT CONST
CONST	SEGMENT
?recreateSwapchain@GraphicsCommands@cow@@AEAAXXZ$rtcName$0 DB 065H ; cow::GraphicsCommands::recreateSwapchain
	DB	078H
	DB	074H
	DB	065H
	DB	06eH
	DB	074H
	DB	00H
	ORG $+1
?recreateSwapchain@GraphicsCommands@cow@@AEAAXXZ$rtcName$1 DB 06fH ; cow::GraphicsCommands::recreateSwapchain
	DB	06cH
	DB	064H
	DB	053H
	DB	077H
	DB	061H
	DB	070H
	DB	043H
	DB	068H
	DB	061H
	DB	069H
	DB	06eH
	DB	00H
	ORG $+11
?recreateSwapchain@GraphicsCommands@cow@@AEAAXXZ$rtcVarDesc DD 048H ; cow::GraphicsCommands::recreateSwapchain
	DD	010H
	DQ	FLAT:?recreateSwapchain@GraphicsCommands@cow@@AEAAXXZ$rtcName$1
	DD	028H
	DD	08H
	DQ	FLAT:?recreateSwapchain@GraphicsCommands@cow@@AEAAXXZ$rtcName$0
	ORG $+96
?recreateSwapchain@GraphicsCommands@cow@@AEAAXXZ$rtcFrameData DD 02H ; cow::GraphicsCommands::recreateSwapchain
	DD	00H
	DQ	FLAT:?recreateSwapchain@GraphicsCommands@cow@@AEAAXXZ$rtcVarDesc
CONST	ENDS
;	COMDAT xdata
xdata	SEGMENT
$unwind$?checkRecreation@GraphicsCommands@cow@@AEAA_NW4VkResult@@@Z DD 025051701H
	DD	01122317H
	DD	0700b0023H
	DD	0500aH
xdata	ENDS
;	COMDAT xdata
xdata	SEGMENT
$unwind$?_Get_first@?$_Compressed_pair@U?$default_delete@VSwapchain@cow@@@std@@PEAVSwapchain@cow@@$00@std@@QEBAAEBU?$default_delete@VSwapchain@cow@@@2@XZ DD 025051301H
	DD	010e2313H
	DD	07007001dH
	DD	05006H
xdata	ENDS
;	COMDAT xdata
xdata	SEGMENT
$unwind$?_Get_first@?$_Compressed_pair@U?$default_delete@VSwapchain@cow@@@std@@PEAVSwapchain@cow@@$00@std@@QEAAAEAU?$default_delete@VSwapchain@cow@@@2@XZ DD 025051301H
	DD	010e2313H
	DD	07007001dH
	DD	05006H
xdata	ENDS
;	COMDAT xdata
xdata	SEGMENT
$unwind$?reset@?$unique_ptr@VSwapchain@cow@@U?$default_delete@VSwapchain@cow@@@std@@@std@@QEAAXPEAVSwapchain@cow@@@Z DD 025051801H
	DD	01132318H
	DD	0700c0021H
	DD	0500bH
xdata	ENDS
;	COMDAT xdata
xdata	SEGMENT
$unwind$?release@?$unique_ptr@VSwapchain@cow@@U?$default_delete@VSwapchain@cow@@@std@@@std@@QEAAPEAVSwapchain@cow@@XZ DD 025051301H
	DD	010e2313H
	DD	070070021H
	DD	05006H
xdata	ENDS
;	COMDAT xdata
xdata	SEGMENT
$unwind$??B?$unique_ptr@VSwapchain@cow@@U?$default_delete@VSwapchain@cow@@@std@@@std@@QEBA_NXZ DD 025051301H
	DD	010e2313H
	DD	07007001fH
	DD	05006H
xdata	ENDS
;	COMDAT xdata
xdata	SEGMENT
$unwind$?get@?$unique_ptr@VSwapchain@cow@@U?$default_delete@VSwapchain@cow@@@std@@@std@@QEBAPEAVSwapchain@cow@@XZ DD 025051301H
	DD	010e2313H
	DD	07007001dH
	DD	05006H
xdata	ENDS
;	COMDAT xdata
xdata	SEGMENT
$unwind$??C?$unique_ptr@VSwapchain@cow@@U?$default_delete@VSwapchain@cow@@@std@@@std@@QEBAPEAVSwapchain@cow@@XZ DD 025051301H
	DD	010e2313H
	DD	07007001dH
	DD	05006H
xdata	ENDS
;	COMDAT xdata
xdata	SEGMENT
$unwind$?get_deleter@?$unique_ptr@VSwapchain@cow@@U?$default_delete@VSwapchain@cow@@@std@@@std@@QEAAAEAU?$default_delete@VSwapchain@cow@@@2@XZ DD 025051301H
	DD	010e2313H
	DD	07007001dH
	DD	05006H
xdata	ENDS
;	COMDAT xdata
xdata	SEGMENT
$unwind$??1?$unique_ptr@VSwapchain@cow@@U?$default_delete@VSwapchain@cow@@@std@@@std@@QEAA@XZ DD 025051301H
	DD	010e2313H
	DD	07007001fH
	DD	05006H
xdata	ENDS
;	COMDAT xdata
xdata	SEGMENT
$unwind$??R?$default_delete@VSwapchain@cow@@@std@@QEBAXPEAVSwapchain@cow@@@Z DD 025051801H
	DD	01132318H
	DD	0700c0021H
	DD	0500bH
xdata	ENDS
;	COMDAT voltbl
voltbl	SEGMENT
_volmd	DW	041H
	DW	02fcH
voltbl	ENDS
;	COMDAT xdata
xdata	SEGMENT
$unwind$?beginRenderPass@GraphicsCommands@cow@@QEAAXPEAUVkCommandBuffer_T@@TVkClearColorValue@@@Z DD 025064819H
	DD	0119231eH
	DD	07012005cH
	DD	050106011H
	DD	imagerel __GSHandlerCheck
	DD	02d8H
xdata	ENDS
;	COMDAT CONST
CONST	SEGMENT
?beginRenderPass@GraphicsCommands@cow@@QEAAXPEAUVkCommandBuffer_T@@TVkClearColorValue@@@Z$rtcName$0 DB 072H ; cow::GraphicsCommands::beginRenderPass
	DB	065H
	DB	06eH
	DB	064H
	DB	065H
	DB	072H
	DB	050H
	DB	061H
	DB	073H
	DB	073H
	DB	049H
	DB	06eH
	DB	066H
	DB	06fH
	DB	00H
	ORG $+1
?beginRenderPass@GraphicsCommands@cow@@QEAAXPEAUVkCommandBuffer_T@@TVkClearColorValue@@@Z$rtcName$1 DB 063H ; cow::GraphicsCommands::beginRenderPass
	DB	06cH
	DB	065H
	DB	061H
	DB	072H
	DB	056H
	DB	061H
	DB	06cH
	DB	075H
	DB	065H
	DB	073H
	DB	00H
	ORG $+4
?beginRenderPass@GraphicsCommands@cow@@QEAAXPEAUVkCommandBuffer_T@@TVkClearColorValue@@@Z$rtcName$2 DB 076H ; cow::GraphicsCommands::beginRenderPass
	DB	069H
	DB	065H
	DB	077H
	DB	070H
	DB	06fH
	DB	072H
	DB	074H
	DB	00H
	ORG $+7
?beginRenderPass@GraphicsCommands@cow@@QEAAXPEAUVkCommandBuffer_T@@TVkClearColorValue@@@Z$rtcName$3 DB 073H ; cow::GraphicsCommands::beginRenderPass
	DB	063H
	DB	069H
	DB	073H
	DB	073H
	DB	06fH
	DB	072H
	DB	00H
	ORG $+8
?beginRenderPass@GraphicsCommands@cow@@QEAAXPEAUVkCommandBuffer_T@@TVkClearColorValue@@@Z$rtcVarDesc DD 0f8H ; cow::GraphicsCommands::beginRenderPass
	DD	010H
	DQ	FLAT:?beginRenderPass@GraphicsCommands@cow@@QEAAXPEAUVkCommandBuffer_T@@TVkClearColorValue@@@Z$rtcName$3
	DD	0c8H
	DD	018H
	DQ	FLAT:?beginRenderPass@GraphicsCommands@cow@@QEAAXPEAUVkCommandBuffer_T@@TVkClearColorValue@@@Z$rtcName$2
	DD	088H
	DD	020H
	DQ	FLAT:?beginRenderPass@GraphicsCommands@cow@@QEAAXPEAUVkCommandBuffer_T@@TVkClearColorValue@@@Z$rtcName$1
	DD	030H
	DD	040H
	DQ	FLAT:?beginRenderPass@GraphicsCommands@cow@@QEAAXPEAUVkCommandBuffer_T@@TVkClearColorValue@@@Z$rtcName$0
	ORG $+192
?beginRenderPass@GraphicsCommands@cow@@QEAAXPEAUVkCommandBuffer_T@@TVkClearColorValue@@@Z$rtcFrameData DD 04H ; cow::GraphicsCommands::beginRenderPass
	DD	00H
	DQ	FLAT:?beginRenderPass@GraphicsCommands@cow@@QEAAXPEAUVkCommandBuffer_T@@TVkClearColorValue@@@Z$rtcVarDesc
CONST	ENDS
;	COMDAT voltbl
voltbl	SEGMENT
_volmd	DW	036H
	DW	0142H
voltbl	ENDS
;	COMDAT xdata
xdata	SEGMENT
$unwind$?begin@GraphicsCommands@cow@@QEAAPEAUVkCommandBuffer_T@@XZ DD 025053d19H
	DD	010e2313H
	DD	070070035H
	DD	05006H
	DD	imagerel __GSHandlerCheck
	DD	0198H
xdata	ENDS
;	COMDAT CONST
CONST	SEGMENT
?begin@GraphicsCommands@cow@@QEAAPEAUVkCommandBuffer_T@@XZ$rtcName$0 DB 062H ; cow::GraphicsCommands::begin
	DB	065H
	DB	067H
	DB	069H
	DB	06eH
	DB	049H
	DB	06eH
	DB	066H
	DB	06fH
	DB	00H
	ORG $+6
?begin@GraphicsCommands@cow@@QEAAPEAUVkCommandBuffer_T@@XZ$rtcVarDesc DD 068H ; cow::GraphicsCommands::begin
	DD	020H
	DQ	FLAT:?begin@GraphicsCommands@cow@@QEAAPEAUVkCommandBuffer_T@@XZ$rtcName$0
	ORG $+48
?begin@GraphicsCommands@cow@@QEAAPEAUVkCommandBuffer_T@@XZ$rtcFrameData DD 01H ; cow::GraphicsCommands::begin
	DD	00H
	DQ	FLAT:?begin@GraphicsCommands@cow@@QEAAPEAUVkCommandBuffer_T@@XZ$rtcVarDesc
CONST	ENDS
;	COMDAT xdata
xdata	SEGMENT
$unwind$??1GraphicsCommands@cow@@QEAA@XZ DD 025051301H
	DD	010e2313H
	DD	07007001dH
	DD	05006H
xdata	ENDS
;	COMDAT voltbl
voltbl	SEGMENT
_volmd	DB	00H
	DB	05H
voltbl	ENDS
;	COMDAT xdata
xdata	SEGMENT
$unwind$?dtor$0@?0???0GraphicsCommands@cow@@QEAA@AEAVDevice@1@@Z@4HA DD 031001H
	DD	0700c4210H
	DD	0500bH
xdata	ENDS
;	COMDAT xdata
xdata	SEGMENT
$ip2state$??0GraphicsCommands@cow@@QEAA@AEAVDevice@1@@Z DB 06H
	DB	00H
	DB	00H
	DB	'h'
	DB	02H
	DB	'V'
	DB	00H
xdata	ENDS
;	COMDAT xdata
xdata	SEGMENT
$stateUnwindMap$??0GraphicsCommands@cow@@QEAA@AEAVDevice@1@@Z DB 02H
	DB	0eH
	DD	imagerel ?dtor$0@?0???0GraphicsCommands@cow@@QEAA@AEAVDevice@1@@Z@4HA
xdata	ENDS
;	COMDAT xdata
xdata	SEGMENT
$cppxdata$??0GraphicsCommands@cow@@QEAA@AEAVDevice@1@@Z DB 028H
	DD	imagerel $stateUnwindMap$??0GraphicsCommands@cow@@QEAA@AEAVDevice@1@@Z
	DD	imagerel $ip2state$??0GraphicsCommands@cow@@QEAA@AEAVDevice@1@@Z
xdata	ENDS
;	COMDAT xdata
xdata	SEGMENT
$unwind$??0GraphicsCommands@cow@@QEAA@AEAVDevice@1@@Z DD 025051811H
	DD	01132318H
	DD	0700c001dH
	DD	0500bH
	DD	imagerel __CxxFrameHandler4
	DD	imagerel $cppxdata$??0GraphicsCommands@cow@@QEAA@AEAVDevice@1@@Z
xdata	ENDS
;	COMDAT xdata
xdata	SEGMENT
$unwind$??_GSwapchain@cow@@QEAAPEAXI@Z DD 025051701H
	DD	01122317H
	DD	0700b001dH
	DD	0500aH
xdata	ENDS
;	COMDAT xdata
xdata	SEGMENT
$unwind$?__autoclassinit2@Swapchain@cow@@QEAAX_K@Z DD 05051601H
	DD	01130316H
	DD	0700c0019H
	DD	0500bH
xdata	ENDS
;	COMDAT xdata
xdata	SEGMENT
$unwind$?__autoclassinit2@?$shared_ptr@VSwapchain@cow@@@std@@QEAAX_K@Z DD 05051601H
	DD	01130316H
	DD	0700c0019H
	DD	0500bH
xdata	ENDS
;	COMDAT xdata
xdata	SEGMENT
$unwind$??1?$shared_ptr@VSwapchain@cow@@@std@@QEAA@XZ DD 025051301H
	DD	010e2313H
	DD	07007001dH
	DD	05006H
xdata	ENDS
;	COMDAT xdata
xdata	SEGMENT
$unwind$??0?$shared_ptr@VSwapchain@cow@@@std@@QEAA@AEBV01@@Z DD 025051801H
	DD	01132318H
	DD	0700c001dH
	DD	0500bH
xdata	ENDS
;	COMDAT xdata
xdata	SEGMENT
$unwind$?_Decref@?$_Ptr_base@VSwapchain@cow@@@std@@IEAAXXZ DD 025051301H
	DD	010e2313H
	DD	07007001dH
	DD	05006H
xdata	ENDS
;	COMDAT xdata
xdata	SEGMENT
$unwind$?_Incref@?$_Ptr_base@VSwapchain@cow@@@std@@IEBAXXZ DD 025051301H
	DD	010e2313H
	DD	07007001dH
	DD	05006H
xdata	ENDS
;	COMDAT xdata
xdata	SEGMENT
$unwind$??0?$_Ptr_base@VSwapchain@cow@@@std@@IEAA@XZ DD 025051301H
	DD	010e2313H
	DD	07007001dH
	DD	05006H
xdata	ENDS
;	COMDAT xdata
xdata	SEGMENT
$unwind$?get@?$_Ptr_base@VSwapchain@cow@@@std@@IEBAPEAVSwapchain@cow@@XZ DD 025051301H
	DD	010e2313H
	DD	07007001dH
	DD	05006H
xdata	ENDS
;	COMDAT xdata
xdata	SEGMENT
$unwind$?compareSwapFormats@Swapchain@cow@@QEBA_NAEBV12@@Z DD 025051801H
	DD	01132318H
	DD	0700c001fH
	DD	0500bH
xdata	ENDS
;	COMDAT xdata
xdata	SEGMENT
$unwind$?getCurrentFrame@Swapchain@cow@@QEBA_KXZ DD 025051301H
	DD	010e2313H
	DD	07007001dH
	DD	05006H
xdata	ENDS
;	COMDAT xdata
xdata	SEGMENT
$unwind$?getFrameBuffer@Swapchain@cow@@QEAAPEAUVkFramebuffer_T@@H@Z DD 025051701H
	DD	01122317H
	DD	0700b001dH
	DD	0500aH
xdata	ENDS
;	COMDAT xdata
xdata	SEGMENT
$unwind$?getRenderPass@Swapchain@cow@@QEBAPEAUVkRenderPass_T@@XZ DD 025051301H
	DD	010e2313H
	DD	07007001dH
	DD	05006H
xdata	ENDS
;	COMDAT xdata
xdata	SEGMENT
$unwind$?getExtent2D@Swapchain@cow@@QEBA?AUVkExtent2D@@XZ DD 025051801H
	DD	01132318H
	DD	0700c001dH
	DD	0500bH
xdata	ENDS
;	COMDAT voltbl
voltbl	SEGMENT
_volmd	DB	02fH
voltbl	ENDS
;	COMDAT xdata
xdata	SEGMENT
$unwind$?_Decwref@_Ref_count_base@std@@QEAAXXZ DD 025051301H
	DD	010e2313H
	DD	07007001dH
	DD	05006H
xdata	ENDS
;	COMDAT voltbl
voltbl	SEGMENT
_volmd	DB	02fH
voltbl	ENDS
;	COMDAT xdata
xdata	SEGMENT
$unwind$?_Decref@_Ref_count_base@std@@QEAAXXZ DD 025051301H
	DD	010e2313H
	DD	07007001dH
	DD	05006H
xdata	ENDS
;	COMDAT voltbl
voltbl	SEGMENT
_volmd	DB	02aH
voltbl	ENDS
;	COMDAT xdata
xdata	SEGMENT
$unwind$?_Incref@_Ref_count_base@std@@QEAAXXZ DD 025051301H
	DD	010e2313H
	DD	07007001dH
	DD	05006H
xdata	ENDS
;	COMDAT xdata
xdata	SEGMENT
$unwind$??1_Ref_count_base@std@@UEAA@XZ DD 025051301H
	DD	010e2313H
	DD	07007001dH
	DD	05006H
xdata	ENDS
;	COMDAT xdata
xdata	SEGMENT
$unwind$??0_Ref_count_base@std@@IEAA@XZ DD 025051301H
	DD	010e2313H
	DD	07007001dH
	DD	05006H
xdata	ENDS
;	COMDAT xdata
xdata	SEGMENT
$unwind$??8type_info@@QEBA_NAEBV0@@Z DD 025051801H
	DD	01132318H
	DD	0700c001fH
	DD	0500bH
xdata	ENDS
;	COMDAT xdata
xdata	SEGMENT
$unwind$?getCommandPool@Device@cow@@QEAAPEAUVkCommandPool_T@@XZ DD 025051301H
	DD	010e2313H
	DD	07007001dH
	DD	05006H
xdata	ENDS
;	COMDAT xdata
xdata	SEGMENT
$unwind$?getDevice@Device@cow@@QEAAPEAUVkDevice_T@@XZ DD 025051301H
	DD	010e2313H
	DD	07007001dH
	DD	05006H
xdata	ENDS
;	COMDAT xdata
xdata	SEGMENT
$unwind$?getExtend2D@Window@cow@@QEBA?AUVkExtent2D@@XZ DD 025051801H
	DD	01132318H
	DD	0700c001dH
	DD	0500bH
xdata	ENDS
;	COMDAT xdata
xdata	SEGMENT
$unwind$??_Gruntime_error@std@@UEAAPEAXI@Z DD 025051701H
	DD	01122317H
	DD	0700b001dH
	DD	0500aH
xdata	ENDS
;	COMDAT xdata
xdata	SEGMENT
$unwind$??0runtime_error@std@@QEAA@AEBV01@@Z DD 025051801H
	DD	01132318H
	DD	0700c001dH
	DD	0500bH
xdata	ENDS
;	COMDAT xdata
xdata	SEGMENT
$unwind$??1runtime_error@std@@UEAA@XZ DD 025051301H
	DD	010e2313H
	DD	07007001dH
	DD	05006H
xdata	ENDS
;	COMDAT xdata
xdata	SEGMENT
$unwind$??0runtime_error@std@@QEAA@PEBD@Z DD 025051801H
	DD	01132318H
	DD	0700c001dH
	DD	0500bH
xdata	ENDS
;	COMDAT xdata
xdata	SEGMENT
$unwind$??_Gexception@std@@UEAAPEAXI@Z DD 025051701H
	DD	01122317H
	DD	0700b001dH
	DD	0500aH
xdata	ENDS
;	COMDAT xdata
xdata	SEGMENT
$unwind$?what@exception@std@@UEBAPEBDXZ DD 025051301H
	DD	010e2313H
	DD	07007001fH
	DD	05006H
xdata	ENDS
;	COMDAT xdata
xdata	SEGMENT
$unwind$??1exception@std@@UEAA@XZ DD 025051301H
	DD	010e2313H
	DD	07007001dH
	DD	05006H
xdata	ENDS
;	COMDAT xdata
xdata	SEGMENT
$unwind$??0exception@std@@QEAA@AEBV01@@Z DD 025051801H
	DD	01132318H
	DD	0700c001dH
	DD	0500bH
xdata	ENDS
;	COMDAT voltbl
voltbl	SEGMENT
_volmd	DB	03bH
	DB	0b9H
voltbl	ENDS
;	COMDAT xdata
xdata	SEGMENT
$unwind$??0exception@std@@QEAA@QEBD@Z DD 025054219H
	DD	01132318H
	DD	0700c0023H
	DD	0500bH
	DD	imagerel __GSHandlerCheck
	DD	0108H
xdata	ENDS
;	COMDAT CONST
CONST	SEGMENT
??0exception@std@@QEAA@QEBD@Z$rtcName$0 DB 05fH		; std::exception::exception
	DB	049H
	DB	06eH
	DB	069H
	DB	074H
	DB	044H
	DB	061H
	DB	074H
	DB	061H
	DB	00H
	ORG $+6
??0exception@std@@QEAA@QEBD@Z$rtcVarDesc DD 028H	; std::exception::exception
	DD	010H
	DQ	FLAT:??0exception@std@@QEAA@QEBD@Z$rtcName$0
	ORG $+48
??0exception@std@@QEAA@QEBD@Z$rtcFrameData DD 01H	; std::exception::exception
	DD	00H
	DQ	FLAT:??0exception@std@@QEAA@QEBD@Z$rtcVarDesc
CONST	ENDS
; Function compile flags: /Odt
;	COMDAT __JustMyCode_Default
_TEXT	SEGMENT
__JustMyCode_Default PROC				; COMDAT
	ret	0
__JustMyCode_Default ENDP
_TEXT	ENDS
; Function compile flags: /Odtp /RTCsu /ZI
;	COMDAT ??$forward@AEAPEAVSwapchain@cow@@@std@@YAAEAPEAVSwapchain@cow@@AEAPEAV12@@Z
_TEXT	SEGMENT
_Arg$ = 224
??$forward@AEAPEAVSwapchain@cow@@@std@@YAAEAPEAVSwapchain@cow@@AEAPEAV12@@Z PROC ; std::forward<cow::Swapchain * &>, COMDAT
; File C:\Program Files\Microsoft Visual Studio\2022\Community\VC\Tools\MSVC\14.32.31326\include\type_traits
; Line 1341
$LN3:
	mov	QWORD PTR [rsp+8], rcx
	push	rbp
	push	rdi
	sub	rsp, 232				; 000000e8H
	lea	rbp, QWORD PTR [rsp+32]
	lea	rcx, OFFSET FLAT:__4CC0724B_type_traits
	call	__CheckForDebuggerJustMyCode
; Line 1342
	mov	rax, QWORD PTR _Arg$[rbp]
; Line 1343
	lea	rsp, QWORD PTR [rbp+200]
	pop	rdi
	pop	rbp
	ret	0
??$forward@AEAPEAVSwapchain@cow@@@std@@YAAEAPEAVSwapchain@cow@@AEAPEAV12@@Z ENDP ; std::forward<cow::Swapchain * &>
_TEXT	ENDS
; Function compile flags: /Odtp /RTCsu /ZI
;	COMDAT ??$?0AEAPEAVSwapchain@cow@@@?$_Compressed_pair@U?$default_delete@VSwapchain@cow@@@std@@PEAVSwapchain@cow@@$00@std@@QEAA@U_Zero_then_variadic_args_t@1@AEAPEAVSwapchain@cow@@@Z
_TEXT	SEGMENT
this$ = 224
__formal$ = 232
<_Val2_0>$ = 240
??$?0AEAPEAVSwapchain@cow@@@?$_Compressed_pair@U?$default_delete@VSwapchain@cow@@@std@@PEAVSwapchain@cow@@$00@std@@QEAA@U_Zero_then_variadic_args_t@1@AEAPEAVSwapchain@cow@@@Z PROC ; std::_Compressed_pair<std::default_delete<cow::Swapchain>,cow::Swapchain *,1>::_Compressed_pair<std::default_delete<cow::Swapchain>,cow::Swapchain *,1><cow::Swapchain * &>, COMDAT
; File C:\Program Files\Microsoft Visual Studio\2022\Community\VC\Tools\MSVC\14.32.31326\include\xmemory
; Line 1370
$LN3:
	mov	QWORD PTR [rsp+24], r8
	mov	BYTE PTR [rsp+16], dl
	mov	QWORD PTR [rsp+8], rcx
	push	rbp
	push	rdi
	sub	rsp, 232				; 000000e8H
	lea	rbp, QWORD PTR [rsp+32]
	lea	rcx, OFFSET FLAT:__48ED051B_xmemory
	call	__CheckForDebuggerJustMyCode
	mov	rcx, QWORD PTR <_Val2_0>$[rbp]
	call	??$forward@AEAPEAVSwapchain@cow@@@std@@YAAEAPEAVSwapchain@cow@@AEAPEAV12@@Z ; std::forward<cow::Swapchain * &>
	mov	rcx, QWORD PTR this$[rbp]
	mov	rax, QWORD PTR [rax]
	mov	QWORD PTR [rcx], rax
	mov	rax, QWORD PTR this$[rbp]
	lea	rsp, QWORD PTR [rbp+200]
	pop	rdi
	pop	rbp
	ret	0
??$?0AEAPEAVSwapchain@cow@@@?$_Compressed_pair@U?$default_delete@VSwapchain@cow@@@std@@PEAVSwapchain@cow@@$00@std@@QEAA@U_Zero_then_variadic_args_t@1@AEAPEAVSwapchain@cow@@@Z ENDP ; std::_Compressed_pair<std::default_delete<cow::Swapchain>,cow::Swapchain *,1>::_Compressed_pair<std::default_delete<cow::Swapchain>,cow::Swapchain *,1><cow::Swapchain * &>
_TEXT	ENDS
; Function compile flags: /Odtp /RTCsu /ZI
;	COMDAT ??$_Copy_construct_from@VSwapchain@cow@@@?$_Ptr_base@VSwapchain@cow@@@std@@IEAAXAEBV?$shared_ptr@VSwapchain@cow@@@1@@Z
_TEXT	SEGMENT
this$ = 224
_Other$ = 232
??$_Copy_construct_from@VSwapchain@cow@@@?$_Ptr_base@VSwapchain@cow@@@std@@IEAAXAEBV?$shared_ptr@VSwapchain@cow@@@1@@Z PROC ; std::_Ptr_base<cow::Swapchain>::_Copy_construct_from<cow::Swapchain>, COMDAT
; File C:\Program Files\Microsoft Visual Studio\2022\Community\VC\Tools\MSVC\14.32.31326\include\memory
; Line 1284
$LN3:
	mov	QWORD PTR [rsp+16], rdx
	mov	QWORD PTR [rsp+8], rcx
	push	rbp
	push	rdi
	sub	rsp, 232				; 000000e8H
	lea	rbp, QWORD PTR [rsp+32]
	lea	rcx, OFFSET FLAT:__92D6C122_memory
	call	__CheckForDebuggerJustMyCode
; Line 1286
	mov	rcx, QWORD PTR _Other$[rbp]
	call	?_Incref@?$_Ptr_base@VSwapchain@cow@@@std@@IEBAXXZ ; std::_Ptr_base<cow::Swapchain>::_Incref
; Line 1288
	mov	rax, QWORD PTR this$[rbp]
	mov	rcx, QWORD PTR _Other$[rbp]
	mov	rcx, QWORD PTR [rcx]
	mov	QWORD PTR [rax], rcx
; Line 1289
	mov	rax, QWORD PTR this$[rbp]
	mov	rcx, QWORD PTR _Other$[rbp]
	mov	rcx, QWORD PTR [rcx+8]
	mov	QWORD PTR [rax+8], rcx
; Line 1290
	lea	rsp, QWORD PTR [rbp+200]
	pop	rdi
	pop	rbp
	ret	0
??$_Copy_construct_from@VSwapchain@cow@@@?$_Ptr_base@VSwapchain@cow@@@std@@IEAAXAEBV?$shared_ptr@VSwapchain@cow@@@1@@Z ENDP ; std::_Ptr_base<cow::Swapchain>::_Copy_construct_from<cow::Swapchain>
_TEXT	ENDS
; Function compile flags: /Odtp /RTCsu /ZI
;	COMDAT ??$exchange@PEAVSwapchain@cow@@$$T@std@@YAPEAVSwapchain@cow@@AEAPEAV12@$$QEA$$T@Z
_TEXT	SEGMENT
_Old_val$ = 8
_Val$ = 256
_New_val$ = 264
??$exchange@PEAVSwapchain@cow@@$$T@std@@YAPEAVSwapchain@cow@@AEAPEAV12@$$QEA$$T@Z PROC ; std::exchange<cow::Swapchain *,std::nullptr_t>, COMDAT
; File C:\Program Files\Microsoft Visual Studio\2022\Community\VC\Tools\MSVC\14.32.31326\include\utility
; Line 605
$LN3:
	mov	QWORD PTR [rsp+16], rdx
	mov	QWORD PTR [rsp+8], rcx
	push	rbp
	push	rdi
	sub	rsp, 264				; 00000108H
	lea	rbp, QWORD PTR [rsp+32]
	lea	rcx, OFFSET FLAT:__227866D8_utility
	call	__CheckForDebuggerJustMyCode
; Line 607
	mov	rax, QWORD PTR _Val$[rbp]
	mov	rax, QWORD PTR [rax]
	mov	QWORD PTR _Old_val$[rbp], rax
; Line 608
	mov	rax, QWORD PTR _Val$[rbp]
	mov	rcx, QWORD PTR _New_val$[rbp]
	mov	rcx, QWORD PTR [rcx]
	mov	QWORD PTR [rax], rcx
; Line 609
	mov	rax, QWORD PTR _Old_val$[rbp]
; Line 610
	lea	rsp, QWORD PTR [rbp+232]
	pop	rdi
	pop	rbp
	ret	0
??$exchange@PEAVSwapchain@cow@@$$T@std@@YAPEAVSwapchain@cow@@AEAPEAV12@$$QEA$$T@Z ENDP ; std::exchange<cow::Swapchain *,std::nullptr_t>
_TEXT	ENDS
; Function compile flags: /Odtp /RTCsu /ZI
;	COMDAT ??$exchange@PEAVSwapchain@cow@@AEAPEAV12@@std@@YAPEAVSwapchain@cow@@AEAPEAV12@0@Z
_TEXT	SEGMENT
_Old_val$ = 8
_Val$ = 256
_New_val$ = 264
??$exchange@PEAVSwapchain@cow@@AEAPEAV12@@std@@YAPEAVSwapchain@cow@@AEAPEAV12@0@Z PROC ; std::exchange<cow::Swapchain *,cow::Swapchain * &>, COMDAT
; File C:\Program Files\Microsoft Visual Studio\2022\Community\VC\Tools\MSVC\14.32.31326\include\utility
; Line 605
$LN3:
	mov	QWORD PTR [rsp+16], rdx
	mov	QWORD PTR [rsp+8], rcx
	push	rbp
	push	rdi
	sub	rsp, 264				; 00000108H
	lea	rbp, QWORD PTR [rsp+32]
	lea	rcx, OFFSET FLAT:__227866D8_utility
	call	__CheckForDebuggerJustMyCode
; Line 607
	mov	rax, QWORD PTR _Val$[rbp]
	mov	rax, QWORD PTR [rax]
	mov	QWORD PTR _Old_val$[rbp], rax
; Line 608
	mov	rax, QWORD PTR _Val$[rbp]
	mov	rcx, QWORD PTR _New_val$[rbp]
	mov	rcx, QWORD PTR [rcx]
	mov	QWORD PTR [rax], rcx
; Line 609
	mov	rax, QWORD PTR _Old_val$[rbp]
; Line 610
	lea	rsp, QWORD PTR [rbp+232]
	pop	rdi
	pop	rbp
	ret	0
??$exchange@PEAVSwapchain@cow@@AEAPEAV12@@std@@YAPEAVSwapchain@cow@@AEAPEAV12@0@Z ENDP ; std::exchange<cow::Swapchain *,cow::Swapchain * &>
_TEXT	ENDS
; Function compile flags: /Odtp /RTCsu /ZI
;	COMDAT ??$?0U?$default_delete@VSwapchain@cow@@@std@@AEAPEAVSwapchain@cow@@@?$_Compressed_pair@U?$default_delete@VSwapchain@cow@@@std@@PEAVSwapchain@cow@@$00@std@@QEAA@U_One_then_variadic_args_t@1@$$QEAU?$default_delete@VSwapchain@cow@@@1@AEAPEAVSwapchain@cow@@@Z
_TEXT	SEGMENT
this$ = 224
__formal$ = 232
_Val1$ = 240
<_Val2_0>$ = 248
??$?0U?$default_delete@VSwapchain@cow@@@std@@AEAPEAVSwapchain@cow@@@?$_Compressed_pair@U?$default_delete@VSwapchain@cow@@@std@@PEAVSwapchain@cow@@$00@std@@QEAA@U_One_then_variadic_args_t@1@$$QEAU?$default_delete@VSwapchain@cow@@@1@AEAPEAVSwapchain@cow@@@Z PROC ; std::_Compressed_pair<std::default_delete<cow::Swapchain>,cow::Swapchain *,1>::_Compressed_pair<std::default_delete<cow::Swapchain>,cow::Swapchain *,1><std::default_delete<cow::Swapchain>,cow::Swapchain * &>, COMDAT
; File C:\Program Files\Microsoft Visual Studio\2022\Community\VC\Tools\MSVC\14.32.31326\include\xmemory
; Line 1375
$LN3:
	mov	QWORD PTR [rsp+32], r9
	mov	QWORD PTR [rsp+24], r8
	mov	BYTE PTR [rsp+16], dl
	mov	QWORD PTR [rsp+8], rcx
	push	rbp
	push	rdi
	sub	rsp, 232				; 000000e8H
	lea	rbp, QWORD PTR [rsp+32]
	lea	rcx, OFFSET FLAT:__48ED051B_xmemory
	call	__CheckForDebuggerJustMyCode
	mov	rcx, QWORD PTR _Val1$[rbp]
	call	??$forward@U?$default_delete@VSwapchain@cow@@@std@@@std@@YA$$QEAU?$default_delete@VSwapchain@cow@@@0@AEAU10@@Z ; std::forward<std::default_delete<cow::Swapchain> >
	mov	rcx, QWORD PTR <_Val2_0>$[rbp]
	call	??$forward@AEAPEAVSwapchain@cow@@@std@@YAAEAPEAVSwapchain@cow@@AEAPEAV12@@Z ; std::forward<cow::Swapchain * &>
	mov	rcx, QWORD PTR this$[rbp]
	mov	rax, QWORD PTR [rax]
	mov	QWORD PTR [rcx], rax
	mov	rax, QWORD PTR this$[rbp]
	lea	rsp, QWORD PTR [rbp+200]
	pop	rdi
	pop	rbp
	ret	0
??$?0U?$default_delete@VSwapchain@cow@@@std@@AEAPEAVSwapchain@cow@@@?$_Compressed_pair@U?$default_delete@VSwapchain@cow@@@std@@PEAVSwapchain@cow@@$00@std@@QEAA@U_One_then_variadic_args_t@1@$$QEAU?$default_delete@VSwapchain@cow@@@1@AEAPEAVSwapchain@cow@@@Z ENDP ; std::_Compressed_pair<std::default_delete<cow::Swapchain>,cow::Swapchain *,1>::_Compressed_pair<std::default_delete<cow::Swapchain>,cow::Swapchain *,1><std::default_delete<cow::Swapchain>,cow::Swapchain * &>
_TEXT	ENDS
; Function compile flags: /Odtp /RTCsu /ZI
;	COMDAT ??$move@AEAU?$default_delete@VSwapchain@cow@@@std@@@std@@YA$$QEAU?$default_delete@VSwapchain@cow@@@0@AEAU10@@Z
_TEXT	SEGMENT
_Arg$ = 224
??$move@AEAU?$default_delete@VSwapchain@cow@@@std@@@std@@YA$$QEAU?$default_delete@VSwapchain@cow@@@0@AEAU10@@Z PROC ; std::move<std::default_delete<cow::Swapchain> &>, COMDAT
; File C:\Program Files\Microsoft Visual Studio\2022\Community\VC\Tools\MSVC\14.32.31326\include\type_traits
; Line 1352
$LN3:
	mov	QWORD PTR [rsp+8], rcx
	push	rbp
	push	rdi
	sub	rsp, 232				; 000000e8H
	lea	rbp, QWORD PTR [rsp+32]
	lea	rcx, OFFSET FLAT:__4CC0724B_type_traits
	call	__CheckForDebuggerJustMyCode
; Line 1353
	mov	rax, QWORD PTR _Arg$[rbp]
; Line 1354
	lea	rsp, QWORD PTR [rbp+200]
	pop	rdi
	pop	rbp
	ret	0
??$move@AEAU?$default_delete@VSwapchain@cow@@@std@@@std@@YA$$QEAU?$default_delete@VSwapchain@cow@@@0@AEAU10@@Z ENDP ; std::move<std::default_delete<cow::Swapchain> &>
_TEXT	ENDS
; Function compile flags: /Odtp /RTCsu /ZI
;	COMDAT ??$addressof@$$CBU?$default_delete@VSwapchain@cow@@@std@@@std@@YAPEBU?$default_delete@VSwapchain@cow@@@0@AEBU10@@Z
_TEXT	SEGMENT
_Val$ = 224
??$addressof@$$CBU?$default_delete@VSwapchain@cow@@@std@@@std@@YAPEBU?$default_delete@VSwapchain@cow@@@0@AEBU10@@Z PROC ; std::addressof<std::default_delete<cow::Swapchain> const >, COMDAT
; File C:\Program Files\Microsoft Visual Studio\2022\Community\VC\Tools\MSVC\14.32.31326\include\xstddef
; Line 252
$LN3:
	mov	QWORD PTR [rsp+8], rcx
	push	rbp
	push	rdi
	sub	rsp, 232				; 000000e8H
	lea	rbp, QWORD PTR [rsp+32]
	lea	rcx, OFFSET FLAT:__D567F1CA_xstddef
	call	__CheckForDebuggerJustMyCode
; Line 253
	mov	rax, QWORD PTR _Val$[rbp]
; Line 254
	lea	rsp, QWORD PTR [rbp+200]
	pop	rdi
	pop	rbp
	ret	0
??$addressof@$$CBU?$default_delete@VSwapchain@cow@@@std@@@std@@YAPEBU?$default_delete@VSwapchain@cow@@@0@AEBU10@@Z ENDP ; std::addressof<std::default_delete<cow::Swapchain> const >
_TEXT	ENDS
; Function compile flags: /Odtp /RTCsu /ZI
;	COMDAT ??$forward@AEAV?$shared_ptr@VSwapchain@cow@@@std@@@std@@YAAEAV?$shared_ptr@VSwapchain@cow@@@0@AEAV10@@Z
_TEXT	SEGMENT
_Arg$ = 224
??$forward@AEAV?$shared_ptr@VSwapchain@cow@@@std@@@std@@YAAEAV?$shared_ptr@VSwapchain@cow@@@0@AEAV10@@Z PROC ; std::forward<std::shared_ptr<cow::Swapchain> &>, COMDAT
; File C:\Program Files\Microsoft Visual Studio\2022\Community\VC\Tools\MSVC\14.32.31326\include\type_traits
; Line 1341
$LN3:
	mov	QWORD PTR [rsp+8], rcx
	push	rbp
	push	rdi
	sub	rsp, 232				; 000000e8H
	lea	rbp, QWORD PTR [rsp+32]
	lea	rcx, OFFSET FLAT:__4CC0724B_type_traits
	call	__CheckForDebuggerJustMyCode
; Line 1342
	mov	rax, QWORD PTR _Arg$[rbp]
; Line 1343
	lea	rsp, QWORD PTR [rbp+200]
	pop	rdi
	pop	rbp
	ret	0
??$forward@AEAV?$shared_ptr@VSwapchain@cow@@@std@@@std@@YAAEAV?$shared_ptr@VSwapchain@cow@@@0@AEAV10@@Z ENDP ; std::forward<std::shared_ptr<cow::Swapchain> &>
_TEXT	ENDS
; Function compile flags: /Odtp /RTCsu /ZI
;	COMDAT ??$_Set_ptr_rep_and_enable_shared@VSwapchain@cow@@@?$shared_ptr@VSwapchain@cow@@@std@@AEAAXQEAVSwapchain@cow@@QEAV_Ref_count_base@1@@Z
_TEXT	SEGMENT
this$ = 224
_Px$ = 232
_Rx$ = 240
??$_Set_ptr_rep_and_enable_shared@VSwapchain@cow@@@?$shared_ptr@VSwapchain@cow@@@std@@AEAAXQEAVSwapchain@cow@@QEAV_Ref_count_base@1@@Z PROC ; std::shared_ptr<cow::Swapchain>::_Set_ptr_rep_and_enable_shared<cow::Swapchain>, COMDAT
; File C:\Program Files\Microsoft Visual Studio\2022\Community\VC\Tools\MSVC\14.32.31326\include\memory
; Line 1773
$LN3:
	mov	QWORD PTR [rsp+24], r8
	mov	QWORD PTR [rsp+16], rdx
	mov	QWORD PTR [rsp+8], rcx
	push	rbp
	push	rdi
	sub	rsp, 232				; 000000e8H
	lea	rbp, QWORD PTR [rsp+32]
	lea	rcx, OFFSET FLAT:__92D6C122_memory
	call	__CheckForDebuggerJustMyCode
; Line 1774
	mov	rax, QWORD PTR this$[rbp]
	mov	rcx, QWORD PTR _Px$[rbp]
	mov	QWORD PTR [rax], rcx
; Line 1775
	mov	rax, QWORD PTR this$[rbp]
	mov	rcx, QWORD PTR _Rx$[rbp]
	mov	QWORD PTR [rax+8], rcx
; Line 1781
	lea	rsp, QWORD PTR [rbp+200]
	pop	rdi
	pop	rbp
	ret	0
??$_Set_ptr_rep_and_enable_shared@VSwapchain@cow@@@?$shared_ptr@VSwapchain@cow@@@std@@AEAAXQEAVSwapchain@cow@@QEAV_Ref_count_base@1@@Z ENDP ; std::shared_ptr<cow::Swapchain>::_Set_ptr_rep_and_enable_shared<cow::Swapchain>
_TEXT	ENDS
; Function compile flags: /Odtp /RTCsu /ZI
;	COMDAT ??_G?$_Ref_count_resource@PEAVSwapchain@cow@@U?$default_delete@VSwapchain@cow@@@std@@@std@@UEAAPEAXI@Z
_TEXT	SEGMENT
this$ = 224
__flags$ = 232
??_G?$_Ref_count_resource@PEAVSwapchain@cow@@U?$default_delete@VSwapchain@cow@@@std@@@std@@UEAAPEAXI@Z PROC ; std::_Ref_count_resource<cow::Swapchain *,std::default_delete<cow::Swapchain> >::`scalar deleting destructor', COMDAT
$LN4:
	mov	DWORD PTR [rsp+16], edx
	mov	QWORD PTR [rsp+8], rcx
	push	rbp
	push	rdi
	sub	rsp, 232				; 000000e8H
	lea	rbp, QWORD PTR [rsp+32]
	mov	rcx, QWORD PTR this$[rbp]
	call	??1?$_Ref_count_resource@PEAVSwapchain@cow@@U?$default_delete@VSwapchain@cow@@@std@@@std@@UEAA@XZ ; std::_Ref_count_resource<cow::Swapchain *,std::default_delete<cow::Swapchain> >::~_Ref_count_resource<cow::Swapchain *,std::default_delete<cow::Swapchain> >
	mov	eax, DWORD PTR __flags$[rbp]
	and	eax, 1
	test	eax, eax
	je	SHORT $LN2@scalar
	mov	edx, 24
	mov	rcx, QWORD PTR this$[rbp]
	call	??3@YAXPEAX_K@Z				; operator delete
$LN2@scalar:
	mov	rax, QWORD PTR this$[rbp]
	lea	rsp, QWORD PTR [rbp+200]
	pop	rdi
	pop	rbp
	ret	0
??_G?$_Ref_count_resource@PEAVSwapchain@cow@@U?$default_delete@VSwapchain@cow@@@std@@@std@@UEAAPEAXI@Z ENDP ; std::_Ref_count_resource<cow::Swapchain *,std::default_delete<cow::Swapchain> >::`scalar deleting destructor'
_TEXT	ENDS
; Function compile flags: /Odtp /RTCsu /ZI
;	COMDAT ?__autoclassinit2@?$_Ref_count_resource@PEAVSwapchain@cow@@U?$default_delete@VSwapchain@cow@@@std@@@std@@QEAAX_K@Z
_TEXT	SEGMENT
this$ = 224
classSize$ = 232
?__autoclassinit2@?$_Ref_count_resource@PEAVSwapchain@cow@@U?$default_delete@VSwapchain@cow@@@std@@@std@@QEAAX_K@Z PROC ; std::_Ref_count_resource<cow::Swapchain *,std::default_delete<cow::Swapchain> >::__autoclassinit2, COMDAT
$LN3:
	mov	QWORD PTR [rsp+16], rdx
	mov	QWORD PTR [rsp+8], rcx
	push	rbp
	push	rdi
	sub	rsp, 200				; 000000c8H
	mov	rbp, rsp
	mov	rdi, QWORD PTR this$[rbp]
	xor	eax, eax
	mov	rcx, QWORD PTR classSize$[rbp]
	rep stosb
	lea	rsp, QWORD PTR [rbp+200]
	pop	rdi
	pop	rbp
	ret	0
?__autoclassinit2@?$_Ref_count_resource@PEAVSwapchain@cow@@U?$default_delete@VSwapchain@cow@@@std@@@std@@QEAAX_K@Z ENDP ; std::_Ref_count_resource<cow::Swapchain *,std::default_delete<cow::Swapchain> >::__autoclassinit2
_TEXT	ENDS
; Function compile flags: /Odtp /RTCsu /ZI
;	COMDAT ?_Delete_this@?$_Ref_count_resource@PEAVSwapchain@cow@@U?$default_delete@VSwapchain@cow@@@std@@@std@@EEAAXXZ
_TEXT	SEGMENT
$T1 = 200
tv75 = 216
tv76 = 224
this$ = 272
?_Delete_this@?$_Ref_count_resource@PEAVSwapchain@cow@@U?$default_delete@VSwapchain@cow@@@std@@@std@@EEAAXXZ PROC ; std::_Ref_count_resource<cow::Swapchain *,std::default_delete<cow::Swapchain> >::_Delete_this, COMDAT
; File C:\Program Files\Microsoft Visual Studio\2022\Community\VC\Tools\MSVC\14.32.31326\include\memory
; Line 1175
$LN5:
	mov	QWORD PTR [rsp+8], rcx
	push	rbp
	push	rdi
	sub	rsp, 280				; 00000118H
	lea	rbp, QWORD PTR [rsp+32]
	lea	rcx, OFFSET FLAT:__92D6C122_memory
	call	__CheckForDebuggerJustMyCode
; Line 1176
	mov	rax, QWORD PTR this$[rbp]
	mov	QWORD PTR $T1[rbp], rax
	cmp	QWORD PTR $T1[rbp], 0
	je	SHORT $LN3@Delete_thi
	mov	rax, QWORD PTR $T1[rbp]
	mov	rax, QWORD PTR [rax]
	mov	rax, QWORD PTR [rax+16]
	mov	QWORD PTR tv75[rbp], rax
	mov	edx, 1
	mov	rcx, QWORD PTR $T1[rbp]
	call	QWORD PTR tv75[rbp]
	mov	QWORD PTR tv76[rbp], rax
	jmp	SHORT $LN4@Delete_thi
$LN3@Delete_thi:
	mov	QWORD PTR tv76[rbp], 0
$LN4@Delete_thi:
; Line 1177
	lea	rsp, QWORD PTR [rbp+248]
	pop	rdi
	pop	rbp
	ret	0
?_Delete_this@?$_Ref_count_resource@PEAVSwapchain@cow@@U?$default_delete@VSwapchain@cow@@@std@@@std@@EEAAXXZ ENDP ; std::_Ref_count_resource<cow::Swapchain *,std::default_delete<cow::Swapchain> >::_Delete_this
_TEXT	ENDS
; Function compile flags: /Odtp /RTCsu /ZI
;	COMDAT ?_Destroy@?$_Ref_count_resource@PEAVSwapchain@cow@@U?$default_delete@VSwapchain@cow@@@std@@@std@@EEAAXXZ
_TEXT	SEGMENT
tv74 = 192
tv72 = 200
this$ = 240
?_Destroy@?$_Ref_count_resource@PEAVSwapchain@cow@@U?$default_delete@VSwapchain@cow@@@std@@@std@@EEAAXXZ PROC ; std::_Ref_count_resource<cow::Swapchain *,std::default_delete<cow::Swapchain> >::_Destroy, COMDAT
; File C:\Program Files\Microsoft Visual Studio\2022\Community\VC\Tools\MSVC\14.32.31326\include\memory
; Line 1171
$LN3:
	mov	QWORD PTR [rsp+8], rcx
	push	rbp
	push	rdi
	sub	rsp, 248				; 000000f8H
	lea	rbp, QWORD PTR [rsp+32]
	lea	rcx, OFFSET FLAT:__92D6C122_memory
	call	__CheckForDebuggerJustMyCode
; Line 1172
	mov	rax, QWORD PTR this$[rbp]
	add	rax, 16
	mov	rcx, rax
	call	?_Get_first@?$_Compressed_pair@U?$default_delete@VSwapchain@cow@@@std@@PEAVSwapchain@cow@@$00@std@@QEAAAEAU?$default_delete@VSwapchain@cow@@@2@XZ ; std::_Compressed_pair<std::default_delete<cow::Swapchain>,cow::Swapchain *,1>::_Get_first
	mov	QWORD PTR tv74[rbp], rax
	mov	rax, QWORD PTR this$[rbp]
	mov	rax, QWORD PTR [rax+16]
	mov	QWORD PTR tv72[rbp], rax
	mov	rdx, QWORD PTR tv72[rbp]
	mov	rcx, QWORD PTR tv74[rbp]
	call	??R?$default_delete@VSwapchain@cow@@@std@@QEBAXPEAVSwapchain@cow@@@Z ; std::default_delete<cow::Swapchain>::operator()
; Line 1173
	lea	rsp, QWORD PTR [rbp+216]
	pop	rdi
	pop	rbp
	ret	0
?_Destroy@?$_Ref_count_resource@PEAVSwapchain@cow@@U?$default_delete@VSwapchain@cow@@@std@@@std@@EEAAXXZ ENDP ; std::_Ref_count_resource<cow::Swapchain *,std::default_delete<cow::Swapchain> >::_Destroy
_TEXT	ENDS
; Function compile flags: /Odtp /RTCsu /ZI
;	COMDAT ?_Get_deleter@?$_Ref_count_resource@PEAVSwapchain@cow@@U?$default_delete@VSwapchain@cow@@@std@@@std@@UEBAPEAXAEBVtype_info@@@Z
_TEXT	SEGMENT
this$ = 224
_Typeid$ = 232
?_Get_deleter@?$_Ref_count_resource@PEAVSwapchain@cow@@U?$default_delete@VSwapchain@cow@@@std@@@std@@UEBAPEAXAEBVtype_info@@@Z PROC ; std::_Ref_count_resource<cow::Swapchain *,std::default_delete<cow::Swapchain> >::_Get_deleter, COMDAT
; File C:\Program Files\Microsoft Visual Studio\2022\Community\VC\Tools\MSVC\14.32.31326\include\memory
; Line 1158
$LN4:
	mov	QWORD PTR [rsp+16], rdx
	mov	QWORD PTR [rsp+8], rcx
	push	rbp
	push	rdi
	sub	rsp, 232				; 000000e8H
	lea	rbp, QWORD PTR [rsp+32]
	lea	rcx, OFFSET FLAT:__92D6C122_memory
	call	__CheckForDebuggerJustMyCode
; Line 1160
	lea	rdx, OFFSET FLAT:??_R0?AU?$default_delete@VSwapchain@cow@@@std@@@8
	mov	rcx, QWORD PTR _Typeid$[rbp]
	call	??8type_info@@QEBA_NAEBV0@@Z		; type_info::operator==
	movzx	eax, al
	test	eax, eax
	je	SHORT $LN2@Get_delete
; Line 1161
	mov	rax, QWORD PTR this$[rbp]
	add	rax, 16
	mov	rcx, rax
	call	?_Get_first@?$_Compressed_pair@U?$default_delete@VSwapchain@cow@@@std@@PEAVSwapchain@cow@@$00@std@@QEBAAEBU?$default_delete@VSwapchain@cow@@@2@XZ ; std::_Compressed_pair<std::default_delete<cow::Swapchain>,cow::Swapchain *,1>::_Get_first
	mov	rcx, rax
	call	??$addressof@$$CBU?$default_delete@VSwapchain@cow@@@std@@@std@@YAPEBU?$default_delete@VSwapchain@cow@@@0@AEBU10@@Z ; std::addressof<std::default_delete<cow::Swapchain> const >
	jmp	SHORT $LN1@Get_delete
$LN2@Get_delete:
; Line 1167
	xor	eax, eax
$LN1@Get_delete:
; Line 1168
	lea	rsp, QWORD PTR [rbp+200]
	pop	rdi
	pop	rbp
	ret	0
?_Get_deleter@?$_Ref_count_resource@PEAVSwapchain@cow@@U?$default_delete@VSwapchain@cow@@@std@@@std@@UEBAPEAXAEBVtype_info@@@Z ENDP ; std::_Ref_count_resource<cow::Swapchain *,std::default_delete<cow::Swapchain> >::_Get_deleter
_TEXT	ENDS
; Function compile flags: /Odtp /RTCsu /ZI
;	COMDAT ??1?$_Ref_count_resource@PEAVSwapchain@cow@@U?$default_delete@VSwapchain@cow@@@std@@@std@@UEAA@XZ
_TEXT	SEGMENT
this$ = 224
??1?$_Ref_count_resource@PEAVSwapchain@cow@@U?$default_delete@VSwapchain@cow@@@std@@@std@@UEAA@XZ PROC ; std::_Ref_count_resource<cow::Swapchain *,std::default_delete<cow::Swapchain> >::~_Ref_count_resource<cow::Swapchain *,std::default_delete<cow::Swapchain> >, COMDAT
; File C:\Program Files\Microsoft Visual Studio\2022\Community\VC\Tools\MSVC\14.32.31326\include\memory
; Line 1155
$LN3:
	mov	QWORD PTR [rsp+8], rcx
	push	rbp
	push	rdi
	sub	rsp, 232				; 000000e8H
	lea	rbp, QWORD PTR [rsp+32]
	lea	rcx, OFFSET FLAT:__92D6C122_memory
	call	__CheckForDebuggerJustMyCode
	mov	rcx, QWORD PTR this$[rbp]
	call	??1_Ref_count_base@std@@UEAA@XZ		; std::_Ref_count_base::~_Ref_count_base
	lea	rsp, QWORD PTR [rbp+200]
	pop	rdi
	pop	rbp
	ret	0
??1?$_Ref_count_resource@PEAVSwapchain@cow@@U?$default_delete@VSwapchain@cow@@@std@@@std@@UEAA@XZ ENDP ; std::_Ref_count_resource<cow::Swapchain *,std::default_delete<cow::Swapchain> >::~_Ref_count_resource<cow::Swapchain *,std::default_delete<cow::Swapchain> >
_TEXT	ENDS
; Function compile flags: /Odtp /RTCsu /ZI
;	COMDAT ??0?$_Ref_count_resource@PEAVSwapchain@cow@@U?$default_delete@VSwapchain@cow@@@std@@@std@@QEAA@PEAVSwapchain@cow@@U?$default_delete@VSwapchain@cow@@@1@@Z
_TEXT	SEGMENT
$T1 = 196
$T2 = 228
tv132 = 248
tv130 = 256
this$ = 304
_Px$ = 312
_Dt$ = 320
??0?$_Ref_count_resource@PEAVSwapchain@cow@@U?$default_delete@VSwapchain@cow@@@std@@@std@@QEAA@PEAVSwapchain@cow@@U?$default_delete@VSwapchain@cow@@@1@@Z PROC ; std::_Ref_count_resource<cow::Swapchain *,std::default_delete<cow::Swapchain> >::_Ref_count_resource<cow::Swapchain *,std::default_delete<cow::Swapchain> >, COMDAT
; File C:\Program Files\Microsoft Visual Studio\2022\Community\VC\Tools\MSVC\14.32.31326\include\memory
; Line 1150
$LN4:
	mov	BYTE PTR [rsp+24], r8b
	mov	QWORD PTR [rsp+16], rdx
	mov	QWORD PTR [rsp+8], rcx
	push	rbp
	push	rdi
	sub	rsp, 312				; 00000138H
	lea	rbp, QWORD PTR [rsp+32]
	lea	rcx, OFFSET FLAT:__92D6C122_memory
	call	__CheckForDebuggerJustMyCode
	mov	rdi, QWORD PTR this$[rbp]
	xor	eax, eax
	mov	ecx, 16
	rep stosb
	mov	rcx, QWORD PTR this$[rbp]
	call	??0_Ref_count_base@std@@IEAA@XZ		; std::_Ref_count_base::_Ref_count_base
	mov	rax, QWORD PTR this$[rbp]
	lea	rcx, OFFSET FLAT:??_7?$_Ref_count_resource@PEAVSwapchain@cow@@U?$default_delete@VSwapchain@cow@@@std@@@std@@6B@
	mov	QWORD PTR [rax], rcx
	mov	rax, QWORD PTR this$[rbp]
	add	rax, 16
	mov	QWORD PTR tv132[rbp], rax
	lea	rcx, QWORD PTR _Dt$[rbp]
	call	??$move@AEAU?$default_delete@VSwapchain@cow@@@std@@@std@@YA$$QEAU?$default_delete@VSwapchain@cow@@@0@AEAU10@@Z ; std::move<std::default_delete<cow::Swapchain> &>
	mov	QWORD PTR tv130[rbp], rax
	movzx	eax, BYTE PTR $T1[rbp]
	mov	BYTE PTR $T2[rbp], al
	lea	r9, QWORD PTR _Px$[rbp]
	mov	r8, QWORD PTR tv130[rbp]
	movzx	edx, BYTE PTR $T2[rbp]
	mov	rcx, QWORD PTR tv132[rbp]
	call	??$?0U?$default_delete@VSwapchain@cow@@@std@@AEAPEAVSwapchain@cow@@@?$_Compressed_pair@U?$default_delete@VSwapchain@cow@@@std@@PEAVSwapchain@cow@@$00@std@@QEAA@U_One_then_variadic_args_t@1@$$QEAU?$default_delete@VSwapchain@cow@@@1@AEAPEAVSwapchain@cow@@@Z ; std::_Compressed_pair<std::default_delete<cow::Swapchain>,cow::Swapchain *,1>::_Compressed_pair<std::default_delete<cow::Swapchain>,cow::Swapchain *,1><std::default_delete<cow::Swapchain>,cow::Swapchain * &>
	mov	rax, QWORD PTR this$[rbp]
	lea	rsp, QWORD PTR [rbp+280]
	pop	rdi
	pop	rbp
	ret	0
??0?$_Ref_count_resource@PEAVSwapchain@cow@@U?$default_delete@VSwapchain@cow@@@std@@@std@@QEAA@PEAVSwapchain@cow@@U?$default_delete@VSwapchain@cow@@@1@@Z ENDP ; std::_Ref_count_resource<cow::Swapchain *,std::default_delete<cow::Swapchain> >::_Ref_count_resource<cow::Swapchain *,std::default_delete<cow::Swapchain> >
_TEXT	ENDS
; Function compile flags: /Odtp /RTCsu /ZI
;	COMDAT ??$forward@U?$default_delete@VSwapchain@cow@@@std@@@std@@YA$$QEAU?$default_delete@VSwapchain@cow@@@0@AEAU10@@Z
_TEXT	SEGMENT
_Arg$ = 224
??$forward@U?$default_delete@VSwapchain@cow@@@std@@@std@@YA$$QEAU?$default_delete@VSwapchain@cow@@@0@AEAU10@@Z PROC ; std::forward<std::default_delete<cow::Swapchain> >, COMDAT
; File C:\Program Files\Microsoft Visual Studio\2022\Community\VC\Tools\MSVC\14.32.31326\include\type_traits
; Line 1341
$LN3:
	mov	QWORD PTR [rsp+8], rcx
	push	rbp
	push	rdi
	sub	rsp, 232				; 000000e8H
	lea	rbp, QWORD PTR [rsp+32]
	lea	rcx, OFFSET FLAT:__4CC0724B_type_traits
	call	__CheckForDebuggerJustMyCode
; Line 1342
	mov	rax, QWORD PTR _Arg$[rbp]
; Line 1343
	lea	rsp, QWORD PTR [rbp+200]
	pop	rdi
	pop	rbp
	ret	0
??$forward@U?$default_delete@VSwapchain@cow@@@std@@@std@@YA$$QEAU?$default_delete@VSwapchain@cow@@@0@AEAU10@@Z ENDP ; std::forward<std::default_delete<cow::Swapchain> >
_TEXT	ENDS
; Function compile flags: /Odtp /RTCsu /ZI
;	COMDAT ??$addressof@V?$unique_ptr@VSwapchain@cow@@U?$default_delete@VSwapchain@cow@@@std@@@std@@@std@@YAPEAV?$unique_ptr@VSwapchain@cow@@U?$default_delete@VSwapchain@cow@@@std@@@0@AEAV10@@Z
_TEXT	SEGMENT
_Val$ = 224
??$addressof@V?$unique_ptr@VSwapchain@cow@@U?$default_delete@VSwapchain@cow@@@std@@@std@@@std@@YAPEAV?$unique_ptr@VSwapchain@cow@@U?$default_delete@VSwapchain@cow@@@std@@@0@AEAV10@@Z PROC ; std::addressof<std::unique_ptr<cow::Swapchain,std::default_delete<cow::Swapchain> > >, COMDAT
; File C:\Program Files\Microsoft Visual Studio\2022\Community\VC\Tools\MSVC\14.32.31326\include\xstddef
; Line 252
$LN3:
	mov	QWORD PTR [rsp+8], rcx
	push	rbp
	push	rdi
	sub	rsp, 232				; 000000e8H
	lea	rbp, QWORD PTR [rsp+32]
	lea	rcx, OFFSET FLAT:__D567F1CA_xstddef
	call	__CheckForDebuggerJustMyCode
; Line 253
	mov	rax, QWORD PTR _Val$[rbp]
; Line 254
	lea	rsp, QWORD PTR [rbp+200]
	pop	rdi
	pop	rbp
	ret	0
??$addressof@V?$unique_ptr@VSwapchain@cow@@U?$default_delete@VSwapchain@cow@@@std@@@std@@@std@@YAPEAV?$unique_ptr@VSwapchain@cow@@U?$default_delete@VSwapchain@cow@@@std@@@0@AEAV10@@Z ENDP ; std::addressof<std::unique_ptr<cow::Swapchain,std::default_delete<cow::Swapchain> > >
_TEXT	ENDS
; Function compile flags: /Odtp /RTCsu /ZI
;	COMDAT ??$?0U?$default_delete@VSwapchain@cow@@@std@@$0A@@?$unique_ptr@VSwapchain@cow@@U?$default_delete@VSwapchain@cow@@@std@@@std@@QEAA@PEAVSwapchain@cow@@@Z
_TEXT	SEGMENT
$T1 = 196
tv70 = 216
this$ = 256
_Ptr$ = 264
??$?0U?$default_delete@VSwapchain@cow@@@std@@$0A@@?$unique_ptr@VSwapchain@cow@@U?$default_delete@VSwapchain@cow@@@std@@@std@@QEAA@PEAVSwapchain@cow@@@Z PROC ; std::unique_ptr<cow::Swapchain,std::default_delete<cow::Swapchain> >::unique_ptr<cow::Swapchain,std::default_delete<cow::Swapchain> ><std::default_delete<cow::Swapchain>,0>, COMDAT
; File C:\Program Files\Microsoft Visual Studio\2022\Community\VC\Tools\MSVC\14.32.31326\include\memory
; Line 3182
$LN3:
	mov	QWORD PTR [rsp+16], rdx
	mov	QWORD PTR [rsp+8], rcx
	push	rbp
	push	rdi
	sub	rsp, 264				; 00000108H
	lea	rbp, QWORD PTR [rsp+32]
	lea	rcx, OFFSET FLAT:__92D6C122_memory
	call	__CheckForDebuggerJustMyCode
	mov	rax, QWORD PTR this$[rbp]
	mov	QWORD PTR tv70[rbp], rax
	lea	r8, QWORD PTR _Ptr$[rbp]
	movzx	edx, BYTE PTR $T1[rbp]
	mov	rcx, QWORD PTR tv70[rbp]
	call	??$?0AEAPEAVSwapchain@cow@@@?$_Compressed_pair@U?$default_delete@VSwapchain@cow@@@std@@PEAVSwapchain@cow@@$00@std@@QEAA@U_Zero_then_variadic_args_t@1@AEAPEAVSwapchain@cow@@@Z ; std::_Compressed_pair<std::default_delete<cow::Swapchain>,cow::Swapchain *,1>::_Compressed_pair<std::default_delete<cow::Swapchain>,cow::Swapchain *,1><cow::Swapchain * &>
	mov	rax, QWORD PTR this$[rbp]
	lea	rsp, QWORD PTR [rbp+232]
	pop	rdi
	pop	rbp
	ret	0
??$?0U?$default_delete@VSwapchain@cow@@@std@@$0A@@?$unique_ptr@VSwapchain@cow@@U?$default_delete@VSwapchain@cow@@@std@@@std@@QEAA@PEAVSwapchain@cow@@@Z ENDP ; std::unique_ptr<cow::Swapchain,std::default_delete<cow::Swapchain> >::unique_ptr<cow::Swapchain,std::default_delete<cow::Swapchain> ><std::default_delete<cow::Swapchain>,0>
_TEXT	ENDS
; Function compile flags: /Odtp /RTCsu /ZI
;	COMDAT ??$forward@AEAUVkExtent2D@@@std@@YAAEAUVkExtent2D@@AEAU1@@Z
_TEXT	SEGMENT
_Arg$ = 224
??$forward@AEAUVkExtent2D@@@std@@YAAEAUVkExtent2D@@AEAU1@@Z PROC ; std::forward<VkExtent2D &>, COMDAT
; File C:\Program Files\Microsoft Visual Studio\2022\Community\VC\Tools\MSVC\14.32.31326\include\type_traits
; Line 1341
$LN3:
	mov	QWORD PTR [rsp+8], rcx
	push	rbp
	push	rdi
	sub	rsp, 232				; 000000e8H
	lea	rbp, QWORD PTR [rsp+32]
	lea	rcx, OFFSET FLAT:__4CC0724B_type_traits
	call	__CheckForDebuggerJustMyCode
; Line 1342
	mov	rax, QWORD PTR _Arg$[rbp]
; Line 1343
	lea	rsp, QWORD PTR [rbp+200]
	pop	rdi
	pop	rbp
	ret	0
??$forward@AEAUVkExtent2D@@@std@@YAAEAUVkExtent2D@@AEAU1@@Z ENDP ; std::forward<VkExtent2D &>
_TEXT	ENDS
; Function compile flags: /Odtp /RTCsu /ZI
;	COMDAT ??$forward@AEAVDevice@cow@@@std@@YAAEAVDevice@cow@@AEAV12@@Z
_TEXT	SEGMENT
_Arg$ = 224
??$forward@AEAVDevice@cow@@@std@@YAAEAVDevice@cow@@AEAV12@@Z PROC ; std::forward<cow::Device &>, COMDAT
; File C:\Program Files\Microsoft Visual Studio\2022\Community\VC\Tools\MSVC\14.32.31326\include\type_traits
; Line 1341
$LN3:
	mov	QWORD PTR [rsp+8], rcx
	push	rbp
	push	rdi
	sub	rsp, 232				; 000000e8H
	lea	rbp, QWORD PTR [rsp+32]
	lea	rcx, OFFSET FLAT:__4CC0724B_type_traits
	call	__CheckForDebuggerJustMyCode
; Line 1342
	mov	rax, QWORD PTR _Arg$[rbp]
; Line 1343
	lea	rsp, QWORD PTR [rbp+200]
	pop	rdi
	pop	rbp
	ret	0
??$forward@AEAVDevice@cow@@@std@@YAAEAVDevice@cow@@AEAV12@@Z ENDP ; std::forward<cow::Device &>
_TEXT	ENDS
; Function compile flags: /Odtp /RTCsu /ZI
;	COMDAT ??$?0$$V@?$_Compressed_pair@U?$default_delete@VSwapchain@cow@@@std@@PEAVSwapchain@cow@@$00@std@@QEAA@U_Zero_then_variadic_args_t@1@@Z
_TEXT	SEGMENT
this$ = 224
__formal$ = 232
??$?0$$V@?$_Compressed_pair@U?$default_delete@VSwapchain@cow@@@std@@PEAVSwapchain@cow@@$00@std@@QEAA@U_Zero_then_variadic_args_t@1@@Z PROC ; std::_Compressed_pair<std::default_delete<cow::Swapchain>,cow::Swapchain *,1>::_Compressed_pair<std::default_delete<cow::Swapchain>,cow::Swapchain *,1><>, COMDAT
; File C:\Program Files\Microsoft Visual Studio\2022\Community\VC\Tools\MSVC\14.32.31326\include\xmemory
; Line 1370
$LN3:
	mov	BYTE PTR [rsp+16], dl
	mov	QWORD PTR [rsp+8], rcx
	push	rbp
	push	rdi
	sub	rsp, 232				; 000000e8H
	lea	rbp, QWORD PTR [rsp+32]
	lea	rcx, OFFSET FLAT:__48ED051B_xmemory
	call	__CheckForDebuggerJustMyCode
	mov	rax, QWORD PTR this$[rbp]
	mov	QWORD PTR [rax], 0
	mov	rax, QWORD PTR this$[rbp]
	lea	rsp, QWORD PTR [rbp+200]
	pop	rdi
	pop	rbp
	ret	0
??$?0$$V@?$_Compressed_pair@U?$default_delete@VSwapchain@cow@@@std@@PEAVSwapchain@cow@@$00@std@@QEAA@U_Zero_then_variadic_args_t@1@@Z ENDP ; std::_Compressed_pair<std::default_delete<cow::Swapchain>,cow::Swapchain *,1>::_Compressed_pair<std::default_delete<cow::Swapchain>,cow::Swapchain *,1><>
_TEXT	ENDS
; Function compile flags: /Odtp /RTCsu /ZI
;	COMDAT ??$?CVSwapchain@cow@@$0A@@?$shared_ptr@VSwapchain@cow@@@std@@QEBAPEAVSwapchain@cow@@XZ
_TEXT	SEGMENT
this$ = 224
??$?CVSwapchain@cow@@$0A@@?$shared_ptr@VSwapchain@cow@@@std@@QEBAPEAVSwapchain@cow@@XZ PROC ; std::shared_ptr<cow::Swapchain>::operator-><cow::Swapchain,0>, COMDAT
; File C:\Program Files\Microsoft Visual Studio\2022\Community\VC\Tools\MSVC\14.32.31326\include\memory
; Line 1688
$LN3:
	mov	QWORD PTR [rsp+8], rcx
	push	rbp
	push	rdi
	sub	rsp, 232				; 000000e8H
	lea	rbp, QWORD PTR [rsp+32]
	lea	rcx, OFFSET FLAT:__92D6C122_memory
	call	__CheckForDebuggerJustMyCode
; Line 1689
	mov	rcx, QWORD PTR this$[rbp]
	call	?get@?$_Ptr_base@VSwapchain@cow@@@std@@IEBAPEAVSwapchain@cow@@XZ ; std::_Ptr_base<cow::Swapchain>::get
; Line 1690
	lea	rsp, QWORD PTR [rbp+200]
	pop	rdi
	pop	rbp
	ret	0
??$?CVSwapchain@cow@@$0A@@?$shared_ptr@VSwapchain@cow@@@std@@QEBAPEAVSwapchain@cow@@XZ ENDP ; std::shared_ptr<cow::Swapchain>::operator-><cow::Swapchain,0>
_TEXT	ENDS
; Function compile flags: /Odtp /RTCsu /ZI
;	COMDAT ??$make_unique@VSwapchain@cow@@AEAVDevice@2@AEAUVkExtent2D@@AEAV?$shared_ptr@VSwapchain@cow@@@std@@$0A@@std@@YA?AV?$unique_ptr@VSwapchain@cow@@U?$default_delete@VSwapchain@cow@@@std@@@0@AEAVDevice@cow@@AEAUVkExtent2D@@AEAV?$shared_ptr@VSwapchain@cow@@@0@@Z
_TEXT	SEGMENT
$T1 = 200
$T2 = 232
$T3 = 264
$T4 = 312
$T5 = 344
$T6 = 376
$T7 = 408
$T8 = 436
tv142 = 456
tv132 = 464
tv129 = 472
tv136 = 480
__$ReturnUdt$ = 528
<_Args_0>$ = 536
<_Args_1>$ = 544
<_Args_2>$ = 552
??$make_unique@VSwapchain@cow@@AEAVDevice@2@AEAUVkExtent2D@@AEAV?$shared_ptr@VSwapchain@cow@@@std@@$0A@@std@@YA?AV?$unique_ptr@VSwapchain@cow@@U?$default_delete@VSwapchain@cow@@@std@@@0@AEAVDevice@cow@@AEAUVkExtent2D@@AEAV?$shared_ptr@VSwapchain@cow@@@0@@Z PROC ; std::make_unique<cow::Swapchain,cow::Device &,VkExtent2D &,std::shared_ptr<cow::Swapchain> &,0>, COMDAT
; File C:\Program Files\Microsoft Visual Studio\2022\Community\VC\Tools\MSVC\14.32.31326\include\memory
; Line 3422
$LN9:
	mov	QWORD PTR [rsp+32], r9
	mov	QWORD PTR [rsp+24], r8
	mov	QWORD PTR [rsp+16], rdx
	mov	QWORD PTR [rsp+8], rcx
	push	rbp
	push	rdi
	sub	rsp, 536				; 00000218H
	lea	rbp, QWORD PTR [rsp+32]
	mov	DWORD PTR $T8[rbp], 0
	lea	rcx, OFFSET FLAT:__92D6C122_memory
	call	__CheckForDebuggerJustMyCode
; Line 3423
	mov	ecx, 160				; 000000a0H
	call	??2@YAPEAX_K@Z				; operator new
	mov	QWORD PTR $T2[rbp], rax
	cmp	QWORD PTR $T2[rbp], 0
	je	$LN3@make_uniqu
	mov	edx, 160				; 000000a0H
	mov	rcx, QWORD PTR $T2[rbp]
	call	?__autoclassinit2@Swapchain@cow@@QEAAX_K@Z
	lea	rax, QWORD PTR $T3[rbp]
	mov	QWORD PTR $T4[rbp], rax
	mov	rcx, QWORD PTR <_Args_2>$[rbp]
	call	??$forward@AEAV?$shared_ptr@VSwapchain@cow@@@std@@@std@@YAAEAV?$shared_ptr@VSwapchain@cow@@@0@AEAV10@@Z ; std::forward<std::shared_ptr<cow::Swapchain> &>
	mov	rdx, rax
	mov	rcx, QWORD PTR $T4[rbp]
	call	??0?$shared_ptr@VSwapchain@cow@@@std@@QEAA@AEBV01@@Z ; std::shared_ptr<cow::Swapchain>::shared_ptr<cow::Swapchain>
	mov	QWORD PTR tv142[rbp], rax
	mov	rax, QWORD PTR tv142[rbp]
	mov	QWORD PTR tv132[rbp], rax
	mov	rcx, QWORD PTR <_Args_1>$[rbp]
	call	??$forward@AEAUVkExtent2D@@@std@@YAAEAUVkExtent2D@@AEAU1@@Z ; std::forward<VkExtent2D &>
	mov	rax, QWORD PTR [rax]
	mov	QWORD PTR $T5[rbp], rax
	mov	rax, QWORD PTR $T5[rbp]
	mov	QWORD PTR $T6[rbp], rax
	mov	rax, QWORD PTR $T6[rbp]
	mov	QWORD PTR $T7[rbp], rax
	mov	rcx, QWORD PTR <_Args_0>$[rbp]
	call	??$forward@AEAVDevice@cow@@@std@@YAAEAVDevice@cow@@AEAV12@@Z ; std::forward<cow::Device &>
	mov	QWORD PTR tv129[rbp], rax
	mov	r9, QWORD PTR tv132[rbp]
	mov	r8, QWORD PTR $T7[rbp]
	mov	rdx, QWORD PTR tv129[rbp]
	mov	rcx, QWORD PTR $T2[rbp]
	call	??0Swapchain@cow@@QEAA@AEAVDevice@1@UVkExtent2D@@V?$shared_ptr@VSwapchain@cow@@@std@@@Z ; cow::Swapchain::Swapchain
	mov	QWORD PTR tv136[rbp], rax
	jmp	SHORT $LN4@make_uniqu
$LN3@make_uniqu:
	mov	QWORD PTR tv136[rbp], 0
$LN4@make_uniqu:
	mov	rax, QWORD PTR tv136[rbp]
	mov	QWORD PTR $T1[rbp], rax
	mov	rdx, QWORD PTR $T1[rbp]
	mov	rcx, QWORD PTR __$ReturnUdt$[rbp]
	call	??$?0U?$default_delete@VSwapchain@cow@@@std@@$0A@@?$unique_ptr@VSwapchain@cow@@U?$default_delete@VSwapchain@cow@@@std@@@std@@QEAA@PEAVSwapchain@cow@@@Z ; std::unique_ptr<cow::Swapchain,std::default_delete<cow::Swapchain> >::unique_ptr<cow::Swapchain,std::default_delete<cow::Swapchain> ><std::default_delete<cow::Swapchain>,0>
	mov	eax, DWORD PTR $T8[rbp]
	or	eax, 1
	mov	DWORD PTR $T8[rbp], eax
	mov	rax, QWORD PTR __$ReturnUdt$[rbp]
; Line 3424
	lea	rsp, QWORD PTR [rbp+504]
	pop	rdi
	pop	rbp
	ret	0
??$make_unique@VSwapchain@cow@@AEAVDevice@2@AEAUVkExtent2D@@AEAV?$shared_ptr@VSwapchain@cow@@@std@@$0A@@std@@YA?AV?$unique_ptr@VSwapchain@cow@@U?$default_delete@VSwapchain@cow@@@std@@@0@AEAVDevice@cow@@AEAUVkExtent2D@@AEAV?$shared_ptr@VSwapchain@cow@@@0@@Z ENDP ; std::make_unique<cow::Swapchain,cow::Device &,VkExtent2D &,std::shared_ptr<cow::Swapchain> &,0>
_TEXT	ENDS
; Function compile flags: /Odtp /RTCsu /ZI
;	COMDAT text$x
text$x	SEGMENT
$T1 = 200
$T2 = 232
$T3 = 264
$T4 = 312
$T5 = 344
$T6 = 376
$T7 = 408
$T8 = 436
tv142 = 456
tv132 = 464
tv129 = 472
tv136 = 480
__$ReturnUdt$ = 528
<_Args_0>$ = 536
<_Args_1>$ = 544
<_Args_2>$ = 552
?dtor$0@?0???$make_unique@VSwapchain@cow@@AEAVDevice@2@AEAUVkExtent2D@@AEAV?$shared_ptr@VSwapchain@cow@@@std@@$0A@@std@@YA?AV?$unique_ptr@VSwapchain@cow@@U?$default_delete@VSwapchain@cow@@@std@@@0@AEAVDevice@cow@@AEAUVkExtent2D@@AEAV?$shared_ptr@VSwapchain@cow@@@0@@Z@4HA PROC ; `std::make_unique<cow::Swapchain,cow::Device &,VkExtent2D &,std::shared_ptr<cow::Swapchain> &,0>'::`1'::dtor$0
	mov	QWORD PTR [rsp+8], rcx
	mov	QWORD PTR [rsp+16], rdx
	push	rbp
	push	rdi
	sub	rsp, 40					; 00000028H
	lea	rbp, QWORD PTR [rdx+32]
	mov	edx, 160				; 000000a0H
	mov	rcx, QWORD PTR $T2[rbp]
	call	??3@YAXPEAX_K@Z				; operator delete
	add	rsp, 40					; 00000028H
	pop	rdi
	pop	rbp
	ret	0
?dtor$0@?0???$make_unique@VSwapchain@cow@@AEAVDevice@2@AEAUVkExtent2D@@AEAV?$shared_ptr@VSwapchain@cow@@@std@@$0A@@std@@YA?AV?$unique_ptr@VSwapchain@cow@@U?$default_delete@VSwapchain@cow@@@std@@@0@AEAVDevice@cow@@AEAUVkExtent2D@@AEAV?$shared_ptr@VSwapchain@cow@@@0@@Z@4HA ENDP ; `std::make_unique<cow::Swapchain,cow::Device &,VkExtent2D &,std::shared_ptr<cow::Swapchain> &,0>'::`1'::dtor$0
text$x	ENDS
; Function compile flags: /Odtp /RTCsu /ZI
;	COMDAT ??$?0VSwapchain@cow@@U?$default_delete@VSwapchain@cow@@@std@@$0A@@?$shared_ptr@VSwapchain@cow@@@std@@QEAA@$$QEAV?$unique_ptr@VSwapchain@cow@@U?$default_delete@VSwapchain@cow@@@std@@@1@@Z
_TEXT	SEGMENT
_Fancy$ = 8
_Raw$1 = 40
_Rx$2 = 72
$T3 = 296
$T4 = 328
$T5 = 356
tv92 = 376
this$ = 416
_Other$ = 424
??$?0VSwapchain@cow@@U?$default_delete@VSwapchain@cow@@@std@@$0A@@?$shared_ptr@VSwapchain@cow@@@std@@QEAA@$$QEAV?$unique_ptr@VSwapchain@cow@@U?$default_delete@VSwapchain@cow@@@std@@@1@@Z PROC ; std::shared_ptr<cow::Swapchain>::shared_ptr<cow::Swapchain><cow::Swapchain,std::default_delete<cow::Swapchain>,0>, COMDAT
; File C:\Program Files\Microsoft Visual Studio\2022\Community\VC\Tools\MSVC\14.32.31326\include\memory
; Line 1601
$LN7:
	mov	QWORD PTR [rsp+16], rdx
	mov	QWORD PTR [rsp+8], rcx
	push	rbp
	push	rdi
	sub	rsp, 424				; 000001a8H
	lea	rbp, QWORD PTR [rsp+32]
	lea	rcx, OFFSET FLAT:__92D6C122_memory
	call	__CheckForDebuggerJustMyCode
	mov	rcx, QWORD PTR this$[rbp]
	call	??0?$_Ptr_base@VSwapchain@cow@@@std@@IEAA@XZ ; std::_Ptr_base<cow::Swapchain>::_Ptr_base<cow::Swapchain>
; Line 1606
	mov	rcx, QWORD PTR _Other$[rbp]
	call	?get@?$unique_ptr@VSwapchain@cow@@U?$default_delete@VSwapchain@cow@@@std@@@std@@QEBAPEAVSwapchain@cow@@XZ ; std::unique_ptr<cow::Swapchain,std::default_delete<cow::Swapchain> >::get
	mov	QWORD PTR _Fancy$[rbp], rax
; Line 1608
	cmp	QWORD PTR _Fancy$[rbp], 0
	je	$LN2@Swapchain
; Line 1609
	mov	rax, QWORD PTR _Fancy$[rbp]
	mov	QWORD PTR _Raw$1[rbp], rax
; Line 1610
	mov	ecx, 24
	call	??2@YAPEAX_K@Z				; operator new
	mov	QWORD PTR $T4[rbp], rax
	cmp	QWORD PTR $T4[rbp], 0
	je	SHORT $LN4@Swapchain
	mov	edx, 24
	mov	rcx, QWORD PTR $T4[rbp]
	call	?__autoclassinit2@?$_Ref_count_resource@PEAVSwapchain@cow@@U?$default_delete@VSwapchain@cow@@@std@@@std@@QEAAX_K@Z
	mov	rcx, QWORD PTR _Other$[rbp]
	call	?get_deleter@?$unique_ptr@VSwapchain@cow@@U?$default_delete@VSwapchain@cow@@@std@@@std@@QEAAAEAU?$default_delete@VSwapchain@cow@@@2@XZ ; std::unique_ptr<cow::Swapchain,std::default_delete<cow::Swapchain> >::get_deleter
	mov	rcx, rax
	call	??$forward@U?$default_delete@VSwapchain@cow@@@std@@@std@@YA$$QEAU?$default_delete@VSwapchain@cow@@@0@AEAU10@@Z ; std::forward<std::default_delete<cow::Swapchain> >
	movzx	eax, BYTE PTR [rax]
	mov	BYTE PTR $T5[rbp], al
	movzx	r8d, BYTE PTR $T5[rbp]
	mov	rdx, QWORD PTR _Fancy$[rbp]
	mov	rcx, QWORD PTR $T4[rbp]
	call	??0?$_Ref_count_resource@PEAVSwapchain@cow@@U?$default_delete@VSwapchain@cow@@@std@@@std@@QEAA@PEAVSwapchain@cow@@U?$default_delete@VSwapchain@cow@@@1@@Z ; std::_Ref_count_resource<cow::Swapchain *,std::default_delete<cow::Swapchain> >::_Ref_count_resource<cow::Swapchain *,std::default_delete<cow::Swapchain> >
	mov	QWORD PTR tv92[rbp], rax
	jmp	SHORT $LN5@Swapchain
$LN4@Swapchain:
	mov	QWORD PTR tv92[rbp], 0
$LN5@Swapchain:
	mov	rax, QWORD PTR tv92[rbp]
	mov	QWORD PTR $T3[rbp], rax
	mov	rax, QWORD PTR $T3[rbp]
	mov	QWORD PTR _Rx$2[rbp], rax
; Line 1612
	mov	r8, QWORD PTR _Rx$2[rbp]
	mov	rdx, QWORD PTR _Raw$1[rbp]
	mov	rcx, QWORD PTR this$[rbp]
	call	??$_Set_ptr_rep_and_enable_shared@VSwapchain@cow@@@?$shared_ptr@VSwapchain@cow@@@std@@AEAAXQEAVSwapchain@cow@@QEAV_Ref_count_base@1@@Z ; std::shared_ptr<cow::Swapchain>::_Set_ptr_rep_and_enable_shared<cow::Swapchain>
; Line 1613
	mov	rcx, QWORD PTR _Other$[rbp]
	call	?release@?$unique_ptr@VSwapchain@cow@@U?$default_delete@VSwapchain@cow@@@std@@@std@@QEAAPEAVSwapchain@cow@@XZ ; std::unique_ptr<cow::Swapchain,std::default_delete<cow::Swapchain> >::release
$LN2@Swapchain:
; Line 1615
	mov	rax, QWORD PTR this$[rbp]
	lea	rsp, QWORD PTR [rbp+392]
	pop	rdi
	pop	rbp
	ret	0
??$?0VSwapchain@cow@@U?$default_delete@VSwapchain@cow@@@std@@$0A@@?$shared_ptr@VSwapchain@cow@@@std@@QEAA@$$QEAV?$unique_ptr@VSwapchain@cow@@U?$default_delete@VSwapchain@cow@@@std@@@1@@Z ENDP ; std::shared_ptr<cow::Swapchain>::shared_ptr<cow::Swapchain><cow::Swapchain,std::default_delete<cow::Swapchain>,0>
_TEXT	ENDS
; Function compile flags: /Odtp /RTCsu /ZI
;	COMDAT text$x
text$x	SEGMENT
_Fancy$ = 8
_Raw$1 = 40
_Rx$2 = 72
$T3 = 296
$T4 = 328
$T5 = 356
tv92 = 376
this$ = 416
_Other$ = 424
?dtor$0@?0???$?0VSwapchain@cow@@U?$default_delete@VSwapchain@cow@@@std@@$0A@@?$shared_ptr@VSwapchain@cow@@@std@@QEAA@$$QEAV?$unique_ptr@VSwapchain@cow@@U?$default_delete@VSwapchain@cow@@@std@@@1@@Z@4HA PROC ; `std::shared_ptr<cow::Swapchain>::shared_ptr<cow::Swapchain><cow::Swapchain,std::default_delete<cow::Swapchain>,0>'::`1'::dtor$0
	mov	QWORD PTR [rsp+8], rcx
	mov	QWORD PTR [rsp+16], rdx
	push	rbp
	push	rdi
	sub	rsp, 40					; 00000028H
	lea	rbp, QWORD PTR [rdx+32]
	mov	edx, 24
	mov	rcx, QWORD PTR $T4[rbp]
	call	??3@YAXPEAX_K@Z				; operator delete
	add	rsp, 40					; 00000028H
	pop	rdi
	pop	rbp
	ret	0
?dtor$0@?0???$?0VSwapchain@cow@@U?$default_delete@VSwapchain@cow@@@std@@$0A@@?$shared_ptr@VSwapchain@cow@@@std@@QEAA@$$QEAV?$unique_ptr@VSwapchain@cow@@U?$default_delete@VSwapchain@cow@@@std@@@1@@Z@4HA ENDP ; `std::shared_ptr<cow::Swapchain>::shared_ptr<cow::Swapchain><cow::Swapchain,std::default_delete<cow::Swapchain>,0>'::`1'::dtor$0
text$x	ENDS
; Function compile flags: /Odtp /RTCsu /ZI
;	COMDAT ??$move@AEAV?$unique_ptr@VSwapchain@cow@@U?$default_delete@VSwapchain@cow@@@std@@@std@@@std@@YA$$QEAV?$unique_ptr@VSwapchain@cow@@U?$default_delete@VSwapchain@cow@@@std@@@0@AEAV10@@Z
_TEXT	SEGMENT
_Arg$ = 224
??$move@AEAV?$unique_ptr@VSwapchain@cow@@U?$default_delete@VSwapchain@cow@@@std@@@std@@@std@@YA$$QEAV?$unique_ptr@VSwapchain@cow@@U?$default_delete@VSwapchain@cow@@@std@@@0@AEAV10@@Z PROC ; std::move<std::unique_ptr<cow::Swapchain,std::default_delete<cow::Swapchain> > &>, COMDAT
; File C:\Program Files\Microsoft Visual Studio\2022\Community\VC\Tools\MSVC\14.32.31326\include\type_traits
; Line 1352
$LN3:
	mov	QWORD PTR [rsp+8], rcx
	push	rbp
	push	rdi
	sub	rsp, 232				; 000000e8H
	lea	rbp, QWORD PTR [rsp+32]
	lea	rcx, OFFSET FLAT:__4CC0724B_type_traits
	call	__CheckForDebuggerJustMyCode
; Line 1353
	mov	rax, QWORD PTR _Arg$[rbp]
; Line 1354
	lea	rsp, QWORD PTR [rbp+200]
	pop	rdi
	pop	rbp
	ret	0
??$move@AEAV?$unique_ptr@VSwapchain@cow@@U?$default_delete@VSwapchain@cow@@@std@@@std@@@std@@YA$$QEAV?$unique_ptr@VSwapchain@cow@@U?$default_delete@VSwapchain@cow@@@std@@@0@AEAV10@@Z ENDP ; std::move<std::unique_ptr<cow::Swapchain,std::default_delete<cow::Swapchain> > &>
_TEXT	ENDS
; Function compile flags: /Odtp /RTCsu /ZI
;	COMDAT ??$?4U?$default_delete@VSwapchain@cow@@@std@@$0A@@?$unique_ptr@VSwapchain@cow@@U?$default_delete@VSwapchain@cow@@@std@@@std@@QEAAAEAV01@$$QEAV01@@Z
_TEXT	SEGMENT
this$ = 224
_Right$ = 232
??$?4U?$default_delete@VSwapchain@cow@@@std@@$0A@@?$unique_ptr@VSwapchain@cow@@U?$default_delete@VSwapchain@cow@@@std@@@std@@QEAAAEAV01@$$QEAV01@@Z PROC ; std::unique_ptr<cow::Swapchain,std::default_delete<cow::Swapchain> >::operator=<std::default_delete<cow::Swapchain>,0>, COMDAT
; File C:\Program Files\Microsoft Visual Studio\2022\Community\VC\Tools\MSVC\14.32.31326\include\memory
; Line 3224
$LN4:
	mov	QWORD PTR [rsp+16], rdx
	mov	QWORD PTR [rsp+8], rcx
	push	rbp
	push	rdi
	sub	rsp, 232				; 000000e8H
	lea	rbp, QWORD PTR [rsp+32]
	lea	rcx, OFFSET FLAT:__92D6C122_memory
	call	__CheckForDebuggerJustMyCode
; Line 3225
	mov	rcx, QWORD PTR _Right$[rbp]
	call	??$addressof@V?$unique_ptr@VSwapchain@cow@@U?$default_delete@VSwapchain@cow@@@std@@@std@@@std@@YAPEAV?$unique_ptr@VSwapchain@cow@@U?$default_delete@VSwapchain@cow@@@std@@@0@AEAV10@@Z ; std::addressof<std::unique_ptr<cow::Swapchain,std::default_delete<cow::Swapchain> > >
	cmp	QWORD PTR this$[rbp], rax
	je	SHORT $LN2@operator
; Line 3226
	mov	rcx, QWORD PTR _Right$[rbp]
	call	?release@?$unique_ptr@VSwapchain@cow@@U?$default_delete@VSwapchain@cow@@@std@@@std@@QEAAPEAVSwapchain@cow@@XZ ; std::unique_ptr<cow::Swapchain,std::default_delete<cow::Swapchain> >::release
	mov	rdx, rax
	mov	rcx, QWORD PTR this$[rbp]
	call	?reset@?$unique_ptr@VSwapchain@cow@@U?$default_delete@VSwapchain@cow@@@std@@@std@@QEAAXPEAVSwapchain@cow@@@Z ; std::unique_ptr<cow::Swapchain,std::default_delete<cow::Swapchain> >::reset
; Line 3227
	mov	rax, QWORD PTR _Right$[rbp]
	mov	rcx, rax
	call	?_Get_first@?$_Compressed_pair@U?$default_delete@VSwapchain@cow@@@std@@PEAVSwapchain@cow@@$00@std@@QEAAAEAU?$default_delete@VSwapchain@cow@@@2@XZ ; std::_Compressed_pair<std::default_delete<cow::Swapchain>,cow::Swapchain *,1>::_Get_first
	mov	rcx, rax
	call	??$forward@U?$default_delete@VSwapchain@cow@@@std@@@std@@YA$$QEAU?$default_delete@VSwapchain@cow@@@0@AEAU10@@Z ; std::forward<std::default_delete<cow::Swapchain> >
	mov	rax, QWORD PTR this$[rbp]
	mov	rcx, rax
	call	?_Get_first@?$_Compressed_pair@U?$default_delete@VSwapchain@cow@@@std@@PEAVSwapchain@cow@@$00@std@@QEAAAEAU?$default_delete@VSwapchain@cow@@@2@XZ ; std::_Compressed_pair<std::default_delete<cow::Swapchain>,cow::Swapchain *,1>::_Get_first
$LN2@operator:
; Line 3229
	mov	rax, QWORD PTR this$[rbp]
; Line 3230
	lea	rsp, QWORD PTR [rbp+200]
	pop	rdi
	pop	rbp
	ret	0
??$?4U?$default_delete@VSwapchain@cow@@@std@@$0A@@?$unique_ptr@VSwapchain@cow@@U?$default_delete@VSwapchain@cow@@@std@@@std@@QEAAAEAV01@$$QEAV01@@Z ENDP ; std::unique_ptr<cow::Swapchain,std::default_delete<cow::Swapchain> >::operator=<std::default_delete<cow::Swapchain>,0>
_TEXT	ENDS
; Function compile flags: /Odtp /RTCsu /ZI
;	COMDAT ??$make_unique@VSwapchain@cow@@AEAVDevice@2@AEAUVkExtent2D@@$0A@@std@@YA?AV?$unique_ptr@VSwapchain@cow@@U?$default_delete@VSwapchain@cow@@@std@@@0@AEAVDevice@cow@@AEAUVkExtent2D@@@Z
_TEXT	SEGMENT
$T1 = 200
$T2 = 232
$T3 = 264
$T4 = 296
$T5 = 324
tv86 = 344
tv89 = 352
__$ReturnUdt$ = 400
<_Args_0>$ = 408
<_Args_1>$ = 416
??$make_unique@VSwapchain@cow@@AEAVDevice@2@AEAUVkExtent2D@@$0A@@std@@YA?AV?$unique_ptr@VSwapchain@cow@@U?$default_delete@VSwapchain@cow@@@std@@@0@AEAVDevice@cow@@AEAUVkExtent2D@@@Z PROC ; std::make_unique<cow::Swapchain,cow::Device &,VkExtent2D &,0>, COMDAT
; File C:\Program Files\Microsoft Visual Studio\2022\Community\VC\Tools\MSVC\14.32.31326\include\memory
; Line 3422
$LN8:
	mov	QWORD PTR [rsp+24], r8
	mov	QWORD PTR [rsp+16], rdx
	mov	QWORD PTR [rsp+8], rcx
	push	rbp
	push	rdi
	sub	rsp, 408				; 00000198H
	lea	rbp, QWORD PTR [rsp+32]
	mov	DWORD PTR $T5[rbp], 0
	lea	rcx, OFFSET FLAT:__92D6C122_memory
	call	__CheckForDebuggerJustMyCode
; Line 3423
	mov	ecx, 160				; 000000a0H
	call	??2@YAPEAX_K@Z				; operator new
	mov	QWORD PTR $T2[rbp], rax
	cmp	QWORD PTR $T2[rbp], 0
	je	SHORT $LN3@make_uniqu
	mov	edx, 160				; 000000a0H
	mov	rcx, QWORD PTR $T2[rbp]
	call	?__autoclassinit2@Swapchain@cow@@QEAAX_K@Z
	mov	rcx, QWORD PTR <_Args_1>$[rbp]
	call	??$forward@AEAUVkExtent2D@@@std@@YAAEAUVkExtent2D@@AEAU1@@Z ; std::forward<VkExtent2D &>
	mov	rax, QWORD PTR [rax]
	mov	QWORD PTR $T3[rbp], rax
	mov	rax, QWORD PTR $T3[rbp]
	mov	QWORD PTR $T4[rbp], rax
	mov	rcx, QWORD PTR <_Args_0>$[rbp]
	call	??$forward@AEAVDevice@cow@@@std@@YAAEAVDevice@cow@@AEAV12@@Z ; std::forward<cow::Device &>
	mov	QWORD PTR tv86[rbp], rax
	mov	r8, QWORD PTR $T4[rbp]
	mov	rdx, QWORD PTR tv86[rbp]
	mov	rcx, QWORD PTR $T2[rbp]
	call	??0Swapchain@cow@@QEAA@AEAVDevice@1@UVkExtent2D@@@Z ; cow::Swapchain::Swapchain
	mov	QWORD PTR tv89[rbp], rax
	jmp	SHORT $LN4@make_uniqu
$LN3@make_uniqu:
	mov	QWORD PTR tv89[rbp], 0
$LN4@make_uniqu:
	mov	rax, QWORD PTR tv89[rbp]
	mov	QWORD PTR $T1[rbp], rax
	mov	rdx, QWORD PTR $T1[rbp]
	mov	rcx, QWORD PTR __$ReturnUdt$[rbp]
	call	??$?0U?$default_delete@VSwapchain@cow@@@std@@$0A@@?$unique_ptr@VSwapchain@cow@@U?$default_delete@VSwapchain@cow@@@std@@@std@@QEAA@PEAVSwapchain@cow@@@Z ; std::unique_ptr<cow::Swapchain,std::default_delete<cow::Swapchain> >::unique_ptr<cow::Swapchain,std::default_delete<cow::Swapchain> ><std::default_delete<cow::Swapchain>,0>
	mov	eax, DWORD PTR $T5[rbp]
	or	eax, 1
	mov	DWORD PTR $T5[rbp], eax
	mov	rax, QWORD PTR __$ReturnUdt$[rbp]
; Line 3424
	lea	rsp, QWORD PTR [rbp+376]
	pop	rdi
	pop	rbp
	ret	0
??$make_unique@VSwapchain@cow@@AEAVDevice@2@AEAUVkExtent2D@@$0A@@std@@YA?AV?$unique_ptr@VSwapchain@cow@@U?$default_delete@VSwapchain@cow@@@std@@@0@AEAVDevice@cow@@AEAUVkExtent2D@@@Z ENDP ; std::make_unique<cow::Swapchain,cow::Device &,VkExtent2D &,0>
_TEXT	ENDS
; Function compile flags: /Odtp /RTCsu /ZI
;	COMDAT text$x
text$x	SEGMENT
$T1 = 200
$T2 = 232
$T3 = 264
$T4 = 296
$T5 = 324
tv86 = 344
tv89 = 352
__$ReturnUdt$ = 400
<_Args_0>$ = 408
<_Args_1>$ = 416
?dtor$0@?0???$make_unique@VSwapchain@cow@@AEAVDevice@2@AEAUVkExtent2D@@$0A@@std@@YA?AV?$unique_ptr@VSwapchain@cow@@U?$default_delete@VSwapchain@cow@@@std@@@0@AEAVDevice@cow@@AEAUVkExtent2D@@@Z@4HA PROC ; `std::make_unique<cow::Swapchain,cow::Device &,VkExtent2D &,0>'::`1'::dtor$0
	mov	QWORD PTR [rsp+8], rcx
	mov	QWORD PTR [rsp+16], rdx
	push	rbp
	push	rdi
	sub	rsp, 40					; 00000028H
	lea	rbp, QWORD PTR [rdx+32]
	mov	edx, 160				; 000000a0H
	mov	rcx, QWORD PTR $T2[rbp]
	call	??3@YAXPEAX_K@Z				; operator delete
	add	rsp, 40					; 00000028H
	pop	rdi
	pop	rbp
	ret	0
?dtor$0@?0???$make_unique@VSwapchain@cow@@AEAVDevice@2@AEAUVkExtent2D@@$0A@@std@@YA?AV?$unique_ptr@VSwapchain@cow@@U?$default_delete@VSwapchain@cow@@@std@@@0@AEAVDevice@cow@@AEAUVkExtent2D@@@Z@4HA ENDP ; `std::make_unique<cow::Swapchain,cow::Device &,VkExtent2D &,0>'::`1'::dtor$0
text$x	ENDS
; Function compile flags: /Odtp /RTCsu /ZI
;	COMDAT ??$?8VSwapchain@cow@@U?$default_delete@VSwapchain@cow@@@std@@@std@@YA_NAEBV?$unique_ptr@VSwapchain@cow@@U?$default_delete@VSwapchain@cow@@@std@@@0@$$T@Z
_TEXT	SEGMENT
tv68 = 192
_Left$ = 240
__formal$ = 248
??$?8VSwapchain@cow@@U?$default_delete@VSwapchain@cow@@@std@@@std@@YA_NAEBV?$unique_ptr@VSwapchain@cow@@U?$default_delete@VSwapchain@cow@@@std@@@0@$$T@Z PROC ; std::operator==<cow::Swapchain,std::default_delete<cow::Swapchain> >, COMDAT
; File C:\Program Files\Microsoft Visual Studio\2022\Community\VC\Tools\MSVC\14.32.31326\include\memory
; Line 3506
$LN5:
	mov	QWORD PTR [rsp+16], rdx
	mov	QWORD PTR [rsp+8], rcx
	push	rbp
	push	rdi
	sub	rsp, 248				; 000000f8H
	lea	rbp, QWORD PTR [rsp+32]
	lea	rcx, OFFSET FLAT:__92D6C122_memory
	call	__CheckForDebuggerJustMyCode
; Line 3507
	mov	rcx, QWORD PTR _Left$[rbp]
	call	??B?$unique_ptr@VSwapchain@cow@@U?$default_delete@VSwapchain@cow@@@std@@@std@@QEBA_NXZ ; std::unique_ptr<cow::Swapchain,std::default_delete<cow::Swapchain> >::operator bool
	movzx	eax, al
	test	eax, eax
	jne	SHORT $LN3@operator
	mov	DWORD PTR tv68[rbp], 1
	jmp	SHORT $LN4@operator
$LN3@operator:
	mov	DWORD PTR tv68[rbp], 0
$LN4@operator:
	movzx	eax, BYTE PTR tv68[rbp]
; Line 3508
	lea	rsp, QWORD PTR [rbp+216]
	pop	rdi
	pop	rbp
	ret	0
??$?8VSwapchain@cow@@U?$default_delete@VSwapchain@cow@@@std@@@std@@YA_NAEBV?$unique_ptr@VSwapchain@cow@@U?$default_delete@VSwapchain@cow@@@std@@@0@$$T@Z ENDP ; std::operator==<cow::Swapchain,std::default_delete<cow::Swapchain> >
_TEXT	ENDS
; Function compile flags: /Odtp /RTCsu /ZI
;	COMDAT ?data@?$array@TVkClearValue@@$01@std@@QEAAPEATVkClearValue@@XZ
_TEXT	SEGMENT
this$ = 224
?data@?$array@TVkClearValue@@$01@std@@QEAAPEATVkClearValue@@XZ PROC ; std::array<VkClearValue,2>::data, COMDAT
; File C:\Program Files\Microsoft Visual Studio\2022\Community\VC\Tools\MSVC\14.32.31326\include\array
; Line 590
$LN3:
	mov	QWORD PTR [rsp+8], rcx
	push	rbp
	push	rdi
	sub	rsp, 232				; 000000e8H
	lea	rbp, QWORD PTR [rsp+32]
	lea	rcx, OFFSET FLAT:__125A2BD9_array
	call	__CheckForDebuggerJustMyCode
; Line 591
	mov	rax, QWORD PTR this$[rbp]
; Line 592
	lea	rsp, QWORD PTR [rbp+200]
	pop	rdi
	pop	rbp
	ret	0
?data@?$array@TVkClearValue@@$01@std@@QEAAPEATVkClearValue@@XZ ENDP ; std::array<VkClearValue,2>::data
_TEXT	ENDS
; Function compile flags: /Odtp /RTCsu /ZI
;	COMDAT ??A?$array@TVkClearValue@@$01@std@@QEAAAEATVkClearValue@@_K@Z
_TEXT	SEGMENT
this$ = 224
_Pos$ = 232
??A?$array@TVkClearValue@@$01@std@@QEAAAEATVkClearValue@@_K@Z PROC ; std::array<VkClearValue,2>::operator[], COMDAT
; File C:\Program Files\Microsoft Visual Studio\2022\Community\VC\Tools\MSVC\14.32.31326\include\array
; Line 557
$LN12:
	mov	QWORD PTR [rsp+16], rdx
	mov	QWORD PTR [rsp+8], rcx
	push	rbp
	push	rdi
	sub	rsp, 248				; 000000f8H
	lea	rbp, QWORD PTR [rsp+48]
	lea	rcx, OFFSET FLAT:__125A2BD9_array
	call	__CheckForDebuggerJustMyCode
$LN4@operator:
; Line 559
	cmp	QWORD PTR _Pos$[rbp], 2
	jae	SHORT $LN7@operator
	jmp	SHORT $LN9@operator
$LN7@operator:
	lea	rax, OFFSET FLAT:??_C@_0BN@HMIFLIEM@array?5subscript?5out?5of?5range@
	mov	QWORD PTR [rsp+40], rax
	lea	rax, OFFSET FLAT:??_C@_02DKCKIIND@?$CFs@
	mov	QWORD PTR [rsp+32], rax
	xor	r9d, r9d
	mov	r8d, 559				; 0000022fH
	lea	rdx, OFFSET FLAT:??_C@_0GA@LKBGKKAK@C?3?2Program?5Files?2Microsoft?5Visu@
	mov	ecx, 2
	call	QWORD PTR __imp__CrtDbgReport
	cmp	eax, 1
	jne	SHORT $LN11@operator
	int	3
	xor	eax, eax
$LN11@operator:
	mov	QWORD PTR [rsp+32], 0
	mov	r9d, 559				; 0000022fH
	lea	r8, OFFSET FLAT:??_C@_1MA@HADHJGPP@?$AAC?$AA?3?$AA?2?$AAP?$AAr?$AAo?$AAg?$AAr?$AAa?$AAm?$AA?5?$AAF?$AAi?$AAl?$AAe@
	lea	rdx, OFFSET FLAT:??_C@_11LOCGONAA@@
	lea	rcx, OFFSET FLAT:??_C@_1DO@NCBLADDF@?$AA?$CC?$AAa?$AAr?$AAr?$AAa?$AAy?$AA?5?$AAs?$AAu?$AAb?$AAs?$AAc?$AAr?$AAi?$AAp@
	call	QWORD PTR __imp__invalid_parameter
	xor	eax, eax
	test	eax, eax
	jne	SHORT $LN7@operator
$LN9@operator:
	xor	eax, eax
	test	eax, eax
	jne	SHORT $LN4@operator
; Line 562
	imul	rax, QWORD PTR _Pos$[rbp], 16
	mov	rcx, QWORD PTR this$[rbp]
	add	rcx, rax
	mov	rax, rcx
; Line 563
	lea	rsp, QWORD PTR [rbp+200]
	pop	rdi
	pop	rbp
	ret	0
??A?$array@TVkClearValue@@$01@std@@QEAAAEATVkClearValue@@_K@Z ENDP ; std::array<VkClearValue,2>::operator[]
_TEXT	ENDS
; Function compile flags: /Odtp /RTCsu /ZI
;	COMDAT ?size@?$array@TVkClearValue@@$01@std@@QEBA_KXZ
_TEXT	SEGMENT
this$ = 224
?size@?$array@TVkClearValue@@$01@std@@QEBA_KXZ PROC	; std::array<VkClearValue,2>::size, COMDAT
; File C:\Program Files\Microsoft Visual Studio\2022\Community\VC\Tools\MSVC\14.32.31326\include\array
; Line 529
$LN3:
	mov	QWORD PTR [rsp+8], rcx
	push	rbp
	push	rdi
	sub	rsp, 232				; 000000e8H
	lea	rbp, QWORD PTR [rsp+32]
	lea	rcx, OFFSET FLAT:__125A2BD9_array
	call	__CheckForDebuggerJustMyCode
; Line 530
	mov	eax, 2
; Line 531
	lea	rsp, QWORD PTR [rbp+200]
	pop	rdi
	pop	rbp
	ret	0
?size@?$array@TVkClearValue@@$01@std@@QEBA_KXZ ENDP	; std::array<VkClearValue,2>::size
_TEXT	ENDS
; Function compile flags: /Odtp /RTCsu /ZI
;	COMDAT ??$?0U?$default_delete@VSwapchain@cow@@@std@@$0A@@?$unique_ptr@VSwapchain@cow@@U?$default_delete@VSwapchain@cow@@@std@@@std@@QEAA@XZ
_TEXT	SEGMENT
$T1 = 196
tv69 = 216
this$ = 256
??$?0U?$default_delete@VSwapchain@cow@@@std@@$0A@@?$unique_ptr@VSwapchain@cow@@U?$default_delete@VSwapchain@cow@@@std@@@std@@QEAA@XZ PROC ; std::unique_ptr<cow::Swapchain,std::default_delete<cow::Swapchain> >::unique_ptr<cow::Swapchain,std::default_delete<cow::Swapchain> ><std::default_delete<cow::Swapchain>,0>, COMDAT
; File C:\Program Files\Microsoft Visual Studio\2022\Community\VC\Tools\MSVC\14.32.31326\include\memory
; Line 3169
$LN3:
	mov	QWORD PTR [rsp+8], rcx
	push	rbp
	push	rdi
	sub	rsp, 264				; 00000108H
	lea	rbp, QWORD PTR [rsp+32]
	lea	rcx, OFFSET FLAT:__92D6C122_memory
	call	__CheckForDebuggerJustMyCode
	mov	rax, QWORD PTR this$[rbp]
	mov	QWORD PTR tv69[rbp], rax
	movzx	edx, BYTE PTR $T1[rbp]
	mov	rcx, QWORD PTR tv69[rbp]
	call	??$?0$$V@?$_Compressed_pair@U?$default_delete@VSwapchain@cow@@@std@@PEAVSwapchain@cow@@$00@std@@QEAA@U_Zero_then_variadic_args_t@1@@Z ; std::_Compressed_pair<std::default_delete<cow::Swapchain>,cow::Swapchain *,1>::_Compressed_pair<std::default_delete<cow::Swapchain>,cow::Swapchain *,1><>
	mov	rax, QWORD PTR this$[rbp]
	lea	rsp, QWORD PTR [rbp+232]
	pop	rdi
	pop	rbp
	ret	0
??$?0U?$default_delete@VSwapchain@cow@@@std@@$0A@@?$unique_ptr@VSwapchain@cow@@U?$default_delete@VSwapchain@cow@@@std@@@std@@QEAA@XZ ENDP ; std::unique_ptr<cow::Swapchain,std::default_delete<cow::Swapchain> >::unique_ptr<cow::Swapchain,std::default_delete<cow::Swapchain> ><std::default_delete<cow::Swapchain>,0>
_TEXT	ENDS
; Function compile flags: /Odtp /RTCsu /ZI
;	COMDAT ?createCommandBuffers@GraphicsCommands@cow@@AEAAXXZ
_TEXT	SEGMENT
allocInfo$ = 8
tv89 = 248
tv87 = 256
__$ArrayPad$ = 264
this$ = 304
?createCommandBuffers@GraphicsCommands@cow@@AEAAXXZ PROC ; cow::GraphicsCommands::createCommandBuffers, COMDAT
; File C:\Users\anton\source\repos\GPU-VM\GPU-VM\GraphicsCommands.cpp
; Line 19
$LN3:
	mov	QWORD PTR [rsp+8], rcx
	push	rbp
	push	rdi
	sub	rsp, 312				; 00000138H
	lea	rbp, QWORD PTR [rsp+32]
	lea	rdi, QWORD PTR [rsp+32]
	mov	ecx, 22
	mov	eax, -858993460				; ccccccccH
	rep stosd
	mov	rcx, QWORD PTR [rsp+344]
	mov	rax, QWORD PTR __security_cookie
	xor	rax, rbp
	mov	QWORD PTR __$ArrayPad$[rbp], rax
	lea	rcx, OFFSET FLAT:__1F813B21_GraphicsCommands@cpp
	call	__CheckForDebuggerJustMyCode
; Line 20
	mov	edx, 8
	mov	ecx, 2
	call	QWORD PTR __imp_calloc
	mov	rcx, QWORD PTR this$[rbp]
	mov	QWORD PTR [rcx+8], rax
; Line 22
	lea	rax, QWORD PTR allocInfo$[rbp]
	mov	rdi, rax
	xor	eax, eax
	mov	ecx, 32					; 00000020H
	rep stosb
; Line 23
	mov	DWORD PTR allocInfo$[rbp], 40		; 00000028H
; Line 24
	mov	DWORD PTR allocInfo$[rbp+24], 0
; Line 25
	mov	rax, QWORD PTR this$[rbp]
	mov	rcx, QWORD PTR [rax+24]
	call	?getCommandPool@Device@cow@@QEAAPEAUVkCommandPool_T@@XZ ; cow::Device::getCommandPool
	mov	QWORD PTR allocInfo$[rbp+16], rax
; Line 26
	mov	DWORD PTR allocInfo$[rbp+28], 2
; Line 27
	mov	rax, QWORD PTR this$[rbp]
	mov	rax, QWORD PTR [rax+8]
	mov	QWORD PTR tv89[rbp], rax
	mov	rax, QWORD PTR this$[rbp]
	mov	rcx, QWORD PTR [rax+24]
	call	?getDevice@Device@cow@@QEAAPEAUVkDevice_T@@XZ ; cow::Device::getDevice
	mov	QWORD PTR tv87[rbp], rax
	mov	r8, QWORD PTR tv89[rbp]
	lea	rdx, QWORD PTR allocInfo$[rbp]
	mov	rcx, QWORD PTR tv87[rbp]
	call	vkAllocateCommandBuffers
; Line 29
	lea	rcx, QWORD PTR [rbp-32]
	lea	rdx, OFFSET FLAT:?createCommandBuffers@GraphicsCommands@cow@@AEAAXXZ$rtcFrameData
	call	_RTC_CheckStackVars
	mov	rcx, QWORD PTR __$ArrayPad$[rbp]
	xor	rcx, rbp
	call	__security_check_cookie
	lea	rsp, QWORD PTR [rbp+280]
	pop	rdi
	pop	rbp
	ret	0
?createCommandBuffers@GraphicsCommands@cow@@AEAAXXZ ENDP ; cow::GraphicsCommands::createCommandBuffers
_TEXT	ENDS
; Function compile flags: /Odtp /RTCsu /ZI
;	COMDAT ?recreateSwapchain@GraphicsCommands@cow@@AEAAXXZ
_TEXT	SEGMENT
extent$ = 8
oldSwapChain$5 = 40
$T6 = 276
$T7 = 312
$T8 = 344
$T9 = 376
tv175 = 408
tv172 = 408
tv163 = 408
tv78 = 408
tv70 = 408
tv161 = 416
__$ArrayPad$ = 424
this$ = 464
?recreateSwapchain@GraphicsCommands@cow@@AEAAXXZ PROC	; cow::GraphicsCommands::recreateSwapchain, COMDAT
; File C:\Users\anton\source\repos\GPU-VM\GPU-VM\GraphicsCommands.cpp
; Line 98
$LN13:
	mov	QWORD PTR [rsp+8], rcx
	push	rbp
	push	rdi
	sub	rsp, 472				; 000001d8H
	lea	rbp, QWORD PTR [rsp+32]
	lea	rdi, QWORD PTR [rsp+32]
	mov	ecx, 62					; 0000003eH
	mov	eax, -858993460				; ccccccccH
	rep stosd
	mov	rcx, QWORD PTR [rsp+504]
	mov	rax, QWORD PTR __security_cookie
	xor	rax, rbp
	mov	QWORD PTR __$ArrayPad$[rbp], rax
	lea	rcx, OFFSET FLAT:__1F813B21_GraphicsCommands@cpp
	call	__CheckForDebuggerJustMyCode
; Line 99
	mov	rax, QWORD PTR this$[rbp]
	mov	rax, QWORD PTR [rax+24]
	mov	rax, QWORD PTR [rax+56]
	mov	QWORD PTR tv70[rbp], rax
	lea	rdx, QWORD PTR extent$[rbp]
	mov	rcx, QWORD PTR tv70[rbp]
	call	?getExtend2D@Window@cow@@QEBA?AUVkExtent2D@@XZ ; cow::Window::getExtend2D
$LN2@recreateSw:
; Line 100
	cmp	DWORD PTR extent$[rbp], 0
	je	SHORT $LN4@recreateSw
	cmp	DWORD PTR extent$[rbp+4], 0
	jne	SHORT $LN3@recreateSw
$LN4@recreateSw:
; Line 102
	mov	rax, QWORD PTR this$[rbp]
	mov	rax, QWORD PTR [rax+24]
	mov	rax, QWORD PTR [rax+56]
	mov	QWORD PTR tv78[rbp], rax
	lea	rdx, QWORD PTR $T6[rbp]
	mov	rcx, QWORD PTR tv78[rbp]
	call	?getExtend2D@Window@cow@@QEBA?AUVkExtent2D@@XZ ; cow::Window::getExtend2D
	mov	rax, QWORD PTR [rax]
	mov	QWORD PTR extent$[rbp], rax
; Line 103
	call	glfwWaitEvents
; Line 104
	jmp	SHORT $LN2@recreateSw
$LN3@recreateSw:
; Line 105
	mov	rax, QWORD PTR this$[rbp]
	mov	rcx, QWORD PTR [rax+24]
	call	?getDevice@Device@cow@@QEAAPEAUVkDevice_T@@XZ ; cow::Device::getDevice
	mov	rcx, rax
	call	vkDeviceWaitIdle
; Line 107
	mov	rax, QWORD PTR this$[rbp]
	xor	edx, edx
	mov	rcx, rax
	call	??$?8VSwapchain@cow@@U?$default_delete@VSwapchain@cow@@@std@@@std@@YA_NAEBV?$unique_ptr@VSwapchain@cow@@U?$default_delete@VSwapchain@cow@@@std@@@0@$$T@Z ; std::operator==<cow::Swapchain,std::default_delete<cow::Swapchain> >
	movzx	eax, al
	test	eax, eax
	je	SHORT $LN5@recreateSw
; Line 109
	lea	r8, QWORD PTR extent$[rbp]
	mov	rax, QWORD PTR this$[rbp]
	mov	rdx, QWORD PTR [rax+24]
	lea	rcx, QWORD PTR $T7[rbp]
	call	??$make_unique@VSwapchain@cow@@AEAVDevice@2@AEAUVkExtent2D@@$0A@@std@@YA?AV?$unique_ptr@VSwapchain@cow@@U?$default_delete@VSwapchain@cow@@@std@@@0@AEAVDevice@cow@@AEAUVkExtent2D@@@Z ; std::make_unique<cow::Swapchain,cow::Device &,VkExtent2D &,0>
	mov	QWORD PTR tv172[rbp], rax
	mov	rax, QWORD PTR this$[rbp]
	mov	rdx, QWORD PTR tv172[rbp]
	mov	rcx, rax
	call	??$?4U?$default_delete@VSwapchain@cow@@@std@@$0A@@?$unique_ptr@VSwapchain@cow@@U?$default_delete@VSwapchain@cow@@@std@@@std@@QEAAAEAV01@$$QEAV01@@Z ; std::unique_ptr<cow::Swapchain,std::default_delete<cow::Swapchain> >::operator=<std::default_delete<cow::Swapchain>,0>
	lea	rcx, QWORD PTR $T7[rbp]
	call	??1?$unique_ptr@VSwapchain@cow@@U?$default_delete@VSwapchain@cow@@@std@@@std@@QEAA@XZ ; std::unique_ptr<cow::Swapchain,std::default_delete<cow::Swapchain> >::~unique_ptr<cow::Swapchain,std::default_delete<cow::Swapchain> >
; Line 110
	jmp	$LN8@recreateSw
$LN5@recreateSw:
; Line 113
	mov	edx, 16
	lea	rcx, QWORD PTR oldSwapChain$5[rbp]
	call	?__autoclassinit2@?$shared_ptr@VSwapchain@cow@@@std@@QEAAX_K@Z
	mov	rax, QWORD PTR this$[rbp]
	mov	rcx, rax
	call	??$move@AEAV?$unique_ptr@VSwapchain@cow@@U?$default_delete@VSwapchain@cow@@@std@@@std@@@std@@YA$$QEAV?$unique_ptr@VSwapchain@cow@@U?$default_delete@VSwapchain@cow@@@std@@@0@AEAV10@@Z ; std::move<std::unique_ptr<cow::Swapchain,std::default_delete<cow::Swapchain> > &>
	mov	rdx, rax
	lea	rcx, QWORD PTR oldSwapChain$5[rbp]
	call	??$?0VSwapchain@cow@@U?$default_delete@VSwapchain@cow@@@std@@$0A@@?$shared_ptr@VSwapchain@cow@@@std@@QEAA@$$QEAV?$unique_ptr@VSwapchain@cow@@U?$default_delete@VSwapchain@cow@@@std@@@1@@Z ; std::shared_ptr<cow::Swapchain>::shared_ptr<cow::Swapchain><cow::Swapchain,std::default_delete<cow::Swapchain>,0>
	npad	1
; Line 115
	lea	r9, QWORD PTR oldSwapChain$5[rbp]
	lea	r8, QWORD PTR extent$[rbp]
	mov	rax, QWORD PTR this$[rbp]
	mov	rdx, QWORD PTR [rax+24]
	lea	rcx, QWORD PTR $T8[rbp]
	call	??$make_unique@VSwapchain@cow@@AEAVDevice@2@AEAUVkExtent2D@@AEAV?$shared_ptr@VSwapchain@cow@@@std@@$0A@@std@@YA?AV?$unique_ptr@VSwapchain@cow@@U?$default_delete@VSwapchain@cow@@@std@@@0@AEAVDevice@cow@@AEAUVkExtent2D@@AEAV?$shared_ptr@VSwapchain@cow@@@0@@Z ; std::make_unique<cow::Swapchain,cow::Device &,VkExtent2D &,std::shared_ptr<cow::Swapchain> &,0>
	mov	QWORD PTR tv175[rbp], rax
	mov	rax, QWORD PTR this$[rbp]
	mov	rdx, QWORD PTR tv175[rbp]
	mov	rcx, rax
	call	??$?4U?$default_delete@VSwapchain@cow@@@std@@$0A@@?$unique_ptr@VSwapchain@cow@@U?$default_delete@VSwapchain@cow@@@std@@@std@@QEAAAEAV01@$$QEAV01@@Z ; std::unique_ptr<cow::Swapchain,std::default_delete<cow::Swapchain> >::operator=<std::default_delete<cow::Swapchain>,0>
	lea	rcx, QWORD PTR $T8[rbp]
	call	??1?$unique_ptr@VSwapchain@cow@@U?$default_delete@VSwapchain@cow@@@std@@@std@@QEAA@XZ ; std::unique_ptr<cow::Swapchain,std::default_delete<cow::Swapchain> >::~unique_ptr<cow::Swapchain,std::default_delete<cow::Swapchain> >
; Line 117
	lea	rcx, QWORD PTR oldSwapChain$5[rbp]
	call	??$?CVSwapchain@cow@@$0A@@?$shared_ptr@VSwapchain@cow@@@std@@QEBAPEAVSwapchain@cow@@XZ ; std::shared_ptr<cow::Swapchain>::operator-><cow::Swapchain,0>
	mov	QWORD PTR tv163[rbp], rax
	mov	rax, QWORD PTR this$[rbp]
	mov	rcx, rax
	call	?get@?$unique_ptr@VSwapchain@cow@@U?$default_delete@VSwapchain@cow@@@std@@@std@@QEBAPEAVSwapchain@cow@@XZ ; std::unique_ptr<cow::Swapchain,std::default_delete<cow::Swapchain> >::get
	mov	QWORD PTR tv161[rbp], rax
	mov	rdx, QWORD PTR tv161[rbp]
	mov	rcx, QWORD PTR tv163[rbp]
	call	?compareSwapFormats@Swapchain@cow@@QEBA_NAEBV12@@Z ; cow::Swapchain::compareSwapFormats
	movzx	eax, al
	test	eax, eax
	je	SHORT $LN7@recreateSw
; Line 119
	lea	rdx, OFFSET FLAT:??_C@_0CE@JIHFMFNH@Swap?5Chain?5Image?5format?5has?5cha@
	lea	rcx, QWORD PTR $T9[rbp]
	call	??0runtime_error@std@@QEAA@PEBD@Z	; std::runtime_error::runtime_error
	lea	rdx, OFFSET FLAT:_TI2?AVruntime_error@std@@
	lea	rcx, QWORD PTR $T9[rbp]
	call	_CxxThrowException
	npad	1
$LN7@recreateSw:
; Line 121
	lea	rcx, QWORD PTR oldSwapChain$5[rbp]
	call	??1?$shared_ptr@VSwapchain@cow@@@std@@QEAA@XZ ; std::shared_ptr<cow::Swapchain>::~shared_ptr<cow::Swapchain>
$LN8@recreateSw:
; Line 122
	lea	rcx, QWORD PTR [rbp-32]
	lea	rdx, OFFSET FLAT:?recreateSwapchain@GraphicsCommands@cow@@AEAAXXZ$rtcFrameData
	call	_RTC_CheckStackVars
	mov	rcx, QWORD PTR __$ArrayPad$[rbp]
	xor	rcx, rbp
	call	__security_check_cookie
	lea	rsp, QWORD PTR [rbp+440]
	pop	rdi
	pop	rbp
	ret	0
$LN12@recreateSw:
?recreateSwapchain@GraphicsCommands@cow@@AEAAXXZ ENDP	; cow::GraphicsCommands::recreateSwapchain
_TEXT	ENDS
; Function compile flags: /Odtp /RTCsu /ZI
;	COMDAT text$x
text$x	SEGMENT
extent$ = 8
oldSwapChain$5 = 40
$T6 = 276
$T7 = 312
$T8 = 344
$T9 = 376
tv175 = 408
tv172 = 408
tv163 = 408
tv78 = 408
tv70 = 408
tv161 = 416
__$ArrayPad$ = 424
this$ = 464
?dtor$1@?0??recreateSwapchain@GraphicsCommands@cow@@AEAAXXZ@4HA PROC ; `cow::GraphicsCommands::recreateSwapchain'::`1'::dtor$1
	mov	QWORD PTR [rsp+8], rcx
	mov	QWORD PTR [rsp+16], rdx
	push	rbp
	push	rdi
	sub	rsp, 40					; 00000028H
	lea	rbp, QWORD PTR [rdx+32]
	lea	rcx, QWORD PTR oldSwapChain$5[rbp]
	call	??1?$shared_ptr@VSwapchain@cow@@@std@@QEAA@XZ ; std::shared_ptr<cow::Swapchain>::~shared_ptr<cow::Swapchain>
	add	rsp, 40					; 00000028H
	pop	rdi
	pop	rbp
	ret	0
?dtor$1@?0??recreateSwapchain@GraphicsCommands@cow@@AEAAXXZ@4HA ENDP ; `cow::GraphicsCommands::recreateSwapchain'::`1'::dtor$1
text$x	ENDS
; Function compile flags: /Odtp /RTCsu /ZI
;	COMDAT ?checkRecreation@GraphicsCommands@cow@@AEAA_NW4VkResult@@@Z
_TEXT	SEGMENT
$T1 = 200
this$ = 272
result$ = 280
?checkRecreation@GraphicsCommands@cow@@AEAA_NW4VkResult@@@Z PROC ; cow::GraphicsCommands::checkRecreation, COMDAT
; File C:\Users\anton\source\repos\GPU-VM\GPU-VM\GraphicsCommands.cpp
; Line 31
$LN5:
	mov	DWORD PTR [rsp+16], edx
	mov	QWORD PTR [rsp+8], rcx
	push	rbp
	push	rdi
	sub	rsp, 280				; 00000118H
	lea	rbp, QWORD PTR [rsp+32]
	lea	rcx, OFFSET FLAT:__1F813B21_GraphicsCommands@cpp
	call	__CheckForDebuggerJustMyCode
; Line 37
	cmp	DWORD PTR result$[rbp], -1000001004	; ffffffffc4653214H
	jne	SHORT $LN2@checkRecre
; Line 39
	mov	rcx, QWORD PTR this$[rbp]
	call	?recreateSwapchain@GraphicsCommands@cow@@AEAAXXZ ; cow::GraphicsCommands::recreateSwapchain
; Line 40
	mov	al, 1
	jmp	SHORT $LN1@checkRecre
$LN2@checkRecre:
; Line 47
	cmp	DWORD PTR result$[rbp], 0
	je	SHORT $LN3@checkRecre
	cmp	DWORD PTR result$[rbp], 1000001003	; 3b9acdebH
	je	SHORT $LN3@checkRecre
; Line 49
	lea	rdx, OFFSET FLAT:??_C@_0CC@GCLKDMPD@failed?5to?5aquire?5swap?5chain?5ima@
	lea	rcx, QWORD PTR $T1[rbp]
	call	??0runtime_error@std@@QEAA@PEBD@Z	; std::runtime_error::runtime_error
	lea	rdx, OFFSET FLAT:_TI2?AVruntime_error@std@@
	lea	rcx, QWORD PTR $T1[rbp]
	call	_CxxThrowException
$LN3@checkRecre:
$LN1@checkRecre:
$LN4@checkRecre:
; Line 51
	lea	rsp, QWORD PTR [rbp+248]
	pop	rdi
	pop	rbp
	ret	0
?checkRecreation@GraphicsCommands@cow@@AEAA_NW4VkResult@@@Z ENDP ; cow::GraphicsCommands::checkRecreation
_TEXT	ENDS
; Function compile flags: /Odtp /RTCsu /ZI
;	COMDAT ?_Get_first@?$_Compressed_pair@U?$default_delete@VSwapchain@cow@@@std@@PEAVSwapchain@cow@@$00@std@@QEBAAEBU?$default_delete@VSwapchain@cow@@@2@XZ
_TEXT	SEGMENT
this$ = 224
?_Get_first@?$_Compressed_pair@U?$default_delete@VSwapchain@cow@@@std@@PEAVSwapchain@cow@@$00@std@@QEBAAEBU?$default_delete@VSwapchain@cow@@@2@XZ PROC ; std::_Compressed_pair<std::default_delete<cow::Swapchain>,cow::Swapchain *,1>::_Get_first, COMDAT
; File C:\Program Files\Microsoft Visual Studio\2022\Community\VC\Tools\MSVC\14.32.31326\include\xmemory
; Line 1381
$LN3:
	mov	QWORD PTR [rsp+8], rcx
	push	rbp
	push	rdi
	sub	rsp, 232				; 000000e8H
	lea	rbp, QWORD PTR [rsp+32]
	lea	rcx, OFFSET FLAT:__48ED051B_xmemory
	call	__CheckForDebuggerJustMyCode
; Line 1382
	mov	rax, QWORD PTR this$[rbp]
; Line 1383
	lea	rsp, QWORD PTR [rbp+200]
	pop	rdi
	pop	rbp
	ret	0
?_Get_first@?$_Compressed_pair@U?$default_delete@VSwapchain@cow@@@std@@PEAVSwapchain@cow@@$00@std@@QEBAAEBU?$default_delete@VSwapchain@cow@@@2@XZ ENDP ; std::_Compressed_pair<std::default_delete<cow::Swapchain>,cow::Swapchain *,1>::_Get_first
_TEXT	ENDS
; Function compile flags: /Odtp /RTCsu /ZI
;	COMDAT ?_Get_first@?$_Compressed_pair@U?$default_delete@VSwapchain@cow@@@std@@PEAVSwapchain@cow@@$00@std@@QEAAAEAU?$default_delete@VSwapchain@cow@@@2@XZ
_TEXT	SEGMENT
this$ = 224
?_Get_first@?$_Compressed_pair@U?$default_delete@VSwapchain@cow@@@std@@PEAVSwapchain@cow@@$00@std@@QEAAAEAU?$default_delete@VSwapchain@cow@@@2@XZ PROC ; std::_Compressed_pair<std::default_delete<cow::Swapchain>,cow::Swapchain *,1>::_Get_first, COMDAT
; File C:\Program Files\Microsoft Visual Studio\2022\Community\VC\Tools\MSVC\14.32.31326\include\xmemory
; Line 1377
$LN3:
	mov	QWORD PTR [rsp+8], rcx
	push	rbp
	push	rdi
	sub	rsp, 232				; 000000e8H
	lea	rbp, QWORD PTR [rsp+32]
	lea	rcx, OFFSET FLAT:__48ED051B_xmemory
	call	__CheckForDebuggerJustMyCode
; Line 1378
	mov	rax, QWORD PTR this$[rbp]
; Line 1379
	lea	rsp, QWORD PTR [rbp+200]
	pop	rdi
	pop	rbp
	ret	0
?_Get_first@?$_Compressed_pair@U?$default_delete@VSwapchain@cow@@@std@@PEAVSwapchain@cow@@$00@std@@QEAAAEAU?$default_delete@VSwapchain@cow@@@2@XZ ENDP ; std::_Compressed_pair<std::default_delete<cow::Swapchain>,cow::Swapchain *,1>::_Get_first
_TEXT	ENDS
; Function compile flags: /Odtp /RTCsu /ZI
;	COMDAT ?reset@?$unique_ptr@VSwapchain@cow@@U?$default_delete@VSwapchain@cow@@@std@@@std@@QEAAXPEAVSwapchain@cow@@@Z
_TEXT	SEGMENT
_Old$ = 8
tv76 = 216
this$ = 256
_Ptr$ = 264
?reset@?$unique_ptr@VSwapchain@cow@@U?$default_delete@VSwapchain@cow@@@std@@@std@@QEAAXPEAVSwapchain@cow@@@Z PROC ; std::unique_ptr<cow::Swapchain,std::default_delete<cow::Swapchain> >::reset, COMDAT
; File C:\Program Files\Microsoft Visual Studio\2022\Community\VC\Tools\MSVC\14.32.31326\include\memory
; Line 3271
$LN4:
	mov	QWORD PTR [rsp+16], rdx
	mov	QWORD PTR [rsp+8], rcx
	push	rbp
	push	rdi
	sub	rsp, 264				; 00000108H
	lea	rbp, QWORD PTR [rsp+32]
	lea	rcx, OFFSET FLAT:__92D6C122_memory
	call	__CheckForDebuggerJustMyCode
; Line 3272
	mov	rax, QWORD PTR this$[rbp]
	lea	rdx, QWORD PTR _Ptr$[rbp]
	mov	rcx, rax
	call	??$exchange@PEAVSwapchain@cow@@AEAPEAV12@@std@@YAPEAVSwapchain@cow@@AEAPEAV12@0@Z ; std::exchange<cow::Swapchain *,cow::Swapchain * &>
	mov	QWORD PTR _Old$[rbp], rax
; Line 3273
	cmp	QWORD PTR _Old$[rbp], 0
	je	SHORT $LN2@reset
; Line 3274
	mov	rax, QWORD PTR this$[rbp]
	mov	rcx, rax
	call	?_Get_first@?$_Compressed_pair@U?$default_delete@VSwapchain@cow@@@std@@PEAVSwapchain@cow@@$00@std@@QEAAAEAU?$default_delete@VSwapchain@cow@@@2@XZ ; std::_Compressed_pair<std::default_delete<cow::Swapchain>,cow::Swapchain *,1>::_Get_first
	mov	QWORD PTR tv76[rbp], rax
	mov	rdx, QWORD PTR _Old$[rbp]
	mov	rcx, QWORD PTR tv76[rbp]
	call	??R?$default_delete@VSwapchain@cow@@@std@@QEBAXPEAVSwapchain@cow@@@Z ; std::default_delete<cow::Swapchain>::operator()
$LN2@reset:
; Line 3276
	lea	rsp, QWORD PTR [rbp+232]
	pop	rdi
	pop	rbp
	ret	0
?reset@?$unique_ptr@VSwapchain@cow@@U?$default_delete@VSwapchain@cow@@@std@@@std@@QEAAXPEAVSwapchain@cow@@@Z ENDP ; std::unique_ptr<cow::Swapchain,std::default_delete<cow::Swapchain> >::reset
_TEXT	ENDS
; Function compile flags: /Odtp /RTCsu /ZI
;	COMDAT ?release@?$unique_ptr@VSwapchain@cow@@U?$default_delete@VSwapchain@cow@@@std@@@std@@QEAAPEAVSwapchain@cow@@XZ
_TEXT	SEGMENT
$T1 = 196
this$ = 256
?release@?$unique_ptr@VSwapchain@cow@@U?$default_delete@VSwapchain@cow@@@std@@@std@@QEAAPEAVSwapchain@cow@@XZ PROC ; std::unique_ptr<cow::Swapchain,std::default_delete<cow::Swapchain> >::release, COMDAT
; File C:\Program Files\Microsoft Visual Studio\2022\Community\VC\Tools\MSVC\14.32.31326\include\memory
; Line 3267
$LN3:
	mov	QWORD PTR [rsp+8], rcx
	push	rbp
	push	rdi
	sub	rsp, 264				; 00000108H
	lea	rbp, QWORD PTR [rsp+32]
	lea	rcx, OFFSET FLAT:__92D6C122_memory
	call	__CheckForDebuggerJustMyCode
; Line 3268
	mov	QWORD PTR $T1[rbp], 0
	mov	rax, QWORD PTR this$[rbp]
	lea	rdx, QWORD PTR $T1[rbp]
	mov	rcx, rax
	call	??$exchange@PEAVSwapchain@cow@@$$T@std@@YAPEAVSwapchain@cow@@AEAPEAV12@$$QEA$$T@Z ; std::exchange<cow::Swapchain *,std::nullptr_t>
; Line 3269
	lea	rsp, QWORD PTR [rbp+232]
	pop	rdi
	pop	rbp
	ret	0
?release@?$unique_ptr@VSwapchain@cow@@U?$default_delete@VSwapchain@cow@@@std@@@std@@QEAAPEAVSwapchain@cow@@XZ ENDP ; std::unique_ptr<cow::Swapchain,std::default_delete<cow::Swapchain> >::release
_TEXT	ENDS
; Function compile flags: /Odtp /RTCsu /ZI
;	COMDAT ??B?$unique_ptr@VSwapchain@cow@@U?$default_delete@VSwapchain@cow@@@std@@@std@@QEBA_NXZ
_TEXT	SEGMENT
tv67 = 192
this$ = 240
??B?$unique_ptr@VSwapchain@cow@@U?$default_delete@VSwapchain@cow@@@std@@@std@@QEBA_NXZ PROC ; std::unique_ptr<cow::Swapchain,std::default_delete<cow::Swapchain> >::operator bool, COMDAT
; File C:\Program Files\Microsoft Visual Studio\2022\Community\VC\Tools\MSVC\14.32.31326\include\memory
; Line 3263
$LN5:
	mov	QWORD PTR [rsp+8], rcx
	push	rbp
	push	rdi
	sub	rsp, 248				; 000000f8H
	lea	rbp, QWORD PTR [rsp+32]
	lea	rcx, OFFSET FLAT:__92D6C122_memory
	call	__CheckForDebuggerJustMyCode
; Line 3264
	mov	rax, QWORD PTR this$[rbp]
	cmp	QWORD PTR [rax], 0
	je	SHORT $LN3@operator
	mov	BYTE PTR tv67[rbp], 1
	jmp	SHORT $LN4@operator
$LN3@operator:
	mov	BYTE PTR tv67[rbp], 0
$LN4@operator:
	movzx	eax, BYTE PTR tv67[rbp]
; Line 3265
	lea	rsp, QWORD PTR [rbp+216]
	pop	rdi
	pop	rbp
	ret	0
??B?$unique_ptr@VSwapchain@cow@@U?$default_delete@VSwapchain@cow@@@std@@@std@@QEBA_NXZ ENDP ; std::unique_ptr<cow::Swapchain,std::default_delete<cow::Swapchain> >::operator bool
_TEXT	ENDS
; Function compile flags: /Odtp /RTCsu /ZI
;	COMDAT ?get@?$unique_ptr@VSwapchain@cow@@U?$default_delete@VSwapchain@cow@@@std@@@std@@QEBAPEAVSwapchain@cow@@XZ
_TEXT	SEGMENT
this$ = 224
?get@?$unique_ptr@VSwapchain@cow@@U?$default_delete@VSwapchain@cow@@@std@@@std@@QEBAPEAVSwapchain@cow@@XZ PROC ; std::unique_ptr<cow::Swapchain,std::default_delete<cow::Swapchain> >::get, COMDAT
; File C:\Program Files\Microsoft Visual Studio\2022\Community\VC\Tools\MSVC\14.32.31326\include\memory
; Line 3259
$LN3:
	mov	QWORD PTR [rsp+8], rcx
	push	rbp
	push	rdi
	sub	rsp, 232				; 000000e8H
	lea	rbp, QWORD PTR [rsp+32]
	lea	rcx, OFFSET FLAT:__92D6C122_memory
	call	__CheckForDebuggerJustMyCode
; Line 3260
	mov	rax, QWORD PTR this$[rbp]
	mov	rax, QWORD PTR [rax]
; Line 3261
	lea	rsp, QWORD PTR [rbp+200]
	pop	rdi
	pop	rbp
	ret	0
?get@?$unique_ptr@VSwapchain@cow@@U?$default_delete@VSwapchain@cow@@@std@@@std@@QEBAPEAVSwapchain@cow@@XZ ENDP ; std::unique_ptr<cow::Swapchain,std::default_delete<cow::Swapchain> >::get
_TEXT	ENDS
; Function compile flags: /Odtp /RTCsu /ZI
;	COMDAT ??C?$unique_ptr@VSwapchain@cow@@U?$default_delete@VSwapchain@cow@@@std@@@std@@QEBAPEAVSwapchain@cow@@XZ
_TEXT	SEGMENT
this$ = 224
??C?$unique_ptr@VSwapchain@cow@@U?$default_delete@VSwapchain@cow@@@std@@@std@@QEBAPEAVSwapchain@cow@@XZ PROC ; std::unique_ptr<cow::Swapchain,std::default_delete<cow::Swapchain> >::operator->, COMDAT
; File C:\Program Files\Microsoft Visual Studio\2022\Community\VC\Tools\MSVC\14.32.31326\include\memory
; Line 3255
$LN3:
	mov	QWORD PTR [rsp+8], rcx
	push	rbp
	push	rdi
	sub	rsp, 232				; 000000e8H
	lea	rbp, QWORD PTR [rsp+32]
	lea	rcx, OFFSET FLAT:__92D6C122_memory
	call	__CheckForDebuggerJustMyCode
; Line 3256
	mov	rax, QWORD PTR this$[rbp]
	mov	rax, QWORD PTR [rax]
; Line 3257
	lea	rsp, QWORD PTR [rbp+200]
	pop	rdi
	pop	rbp
	ret	0
??C?$unique_ptr@VSwapchain@cow@@U?$default_delete@VSwapchain@cow@@@std@@@std@@QEBAPEAVSwapchain@cow@@XZ ENDP ; std::unique_ptr<cow::Swapchain,std::default_delete<cow::Swapchain> >::operator->
_TEXT	ENDS
; Function compile flags: /Odtp /RTCsu /ZI
;	COMDAT ?get_deleter@?$unique_ptr@VSwapchain@cow@@U?$default_delete@VSwapchain@cow@@@std@@@std@@QEAAAEAU?$default_delete@VSwapchain@cow@@@2@XZ
_TEXT	SEGMENT
this$ = 224
?get_deleter@?$unique_ptr@VSwapchain@cow@@U?$default_delete@VSwapchain@cow@@@std@@@std@@QEAAAEAU?$default_delete@VSwapchain@cow@@@2@XZ PROC ; std::unique_ptr<cow::Swapchain,std::default_delete<cow::Swapchain> >::get_deleter, COMDAT
; File C:\Program Files\Microsoft Visual Studio\2022\Community\VC\Tools\MSVC\14.32.31326\include\memory
; Line 3243
$LN3:
	mov	QWORD PTR [rsp+8], rcx
	push	rbp
	push	rdi
	sub	rsp, 232				; 000000e8H
	lea	rbp, QWORD PTR [rsp+32]
	lea	rcx, OFFSET FLAT:__92D6C122_memory
	call	__CheckForDebuggerJustMyCode
; Line 3244
	mov	rax, QWORD PTR this$[rbp]
	mov	rcx, rax
	call	?_Get_first@?$_Compressed_pair@U?$default_delete@VSwapchain@cow@@@std@@PEAVSwapchain@cow@@$00@std@@QEAAAEAU?$default_delete@VSwapchain@cow@@@2@XZ ; std::_Compressed_pair<std::default_delete<cow::Swapchain>,cow::Swapchain *,1>::_Get_first
; Line 3245
	lea	rsp, QWORD PTR [rbp+200]
	pop	rdi
	pop	rbp
	ret	0
?get_deleter@?$unique_ptr@VSwapchain@cow@@U?$default_delete@VSwapchain@cow@@@std@@@std@@QEAAAEAU?$default_delete@VSwapchain@cow@@@2@XZ ENDP ; std::unique_ptr<cow::Swapchain,std::default_delete<cow::Swapchain> >::get_deleter
_TEXT	ENDS
; Function compile flags: /Odtp /RTCsu /ZI
;	COMDAT ??1?$unique_ptr@VSwapchain@cow@@U?$default_delete@VSwapchain@cow@@@std@@@std@@QEAA@XZ
_TEXT	SEGMENT
tv77 = 192
tv75 = 200
this$ = 240
??1?$unique_ptr@VSwapchain@cow@@U?$default_delete@VSwapchain@cow@@@std@@@std@@QEAA@XZ PROC ; std::unique_ptr<cow::Swapchain,std::default_delete<cow::Swapchain> >::~unique_ptr<cow::Swapchain,std::default_delete<cow::Swapchain> >, COMDAT
; File C:\Program Files\Microsoft Visual Studio\2022\Community\VC\Tools\MSVC\14.32.31326\include\memory
; Line 3237
$LN4:
	mov	QWORD PTR [rsp+8], rcx
	push	rbp
	push	rdi
	sub	rsp, 248				; 000000f8H
	lea	rbp, QWORD PTR [rsp+32]
	lea	rcx, OFFSET FLAT:__92D6C122_memory
	call	__CheckForDebuggerJustMyCode
; Line 3238
	mov	rax, QWORD PTR this$[rbp]
	cmp	QWORD PTR [rax], 0
	je	SHORT $LN2@unique_ptr
; Line 3239
	mov	rax, QWORD PTR this$[rbp]
	mov	rcx, rax
	call	?_Get_first@?$_Compressed_pair@U?$default_delete@VSwapchain@cow@@@std@@PEAVSwapchain@cow@@$00@std@@QEAAAEAU?$default_delete@VSwapchain@cow@@@2@XZ ; std::_Compressed_pair<std::default_delete<cow::Swapchain>,cow::Swapchain *,1>::_Get_first
	mov	QWORD PTR tv77[rbp], rax
	mov	rax, QWORD PTR this$[rbp]
	mov	rax, QWORD PTR [rax]
	mov	QWORD PTR tv75[rbp], rax
	mov	rdx, QWORD PTR tv75[rbp]
	mov	rcx, QWORD PTR tv77[rbp]
	call	??R?$default_delete@VSwapchain@cow@@@std@@QEBAXPEAVSwapchain@cow@@@Z ; std::default_delete<cow::Swapchain>::operator()
$LN2@unique_ptr:
; Line 3241
	lea	rsp, QWORD PTR [rbp+216]
	pop	rdi
	pop	rbp
	ret	0
??1?$unique_ptr@VSwapchain@cow@@U?$default_delete@VSwapchain@cow@@@std@@@std@@QEAA@XZ ENDP ; std::unique_ptr<cow::Swapchain,std::default_delete<cow::Swapchain> >::~unique_ptr<cow::Swapchain,std::default_delete<cow::Swapchain> >
_TEXT	ENDS
; Function compile flags: /Odtp /RTCsu /ZI
;	COMDAT ??R?$default_delete@VSwapchain@cow@@@std@@QEBAXPEAVSwapchain@cow@@@Z
_TEXT	SEGMENT
$T1 = 200
tv68 = 216
this$ = 256
_Ptr$ = 264
??R?$default_delete@VSwapchain@cow@@@std@@QEBAXPEAVSwapchain@cow@@@Z PROC ; std::default_delete<cow::Swapchain>::operator(), COMDAT
; File C:\Program Files\Microsoft Visual Studio\2022\Community\VC\Tools\MSVC\14.32.31326\include\memory
; Line 3127
$LN5:
	mov	QWORD PTR [rsp+16], rdx
	mov	QWORD PTR [rsp+8], rcx
	push	rbp
	push	rdi
	sub	rsp, 264				; 00000108H
	lea	rbp, QWORD PTR [rsp+32]
	lea	rcx, OFFSET FLAT:__92D6C122_memory
	call	__CheckForDebuggerJustMyCode
; Line 3129
	mov	rax, QWORD PTR _Ptr$[rbp]
	mov	QWORD PTR $T1[rbp], rax
	cmp	QWORD PTR $T1[rbp], 0
	je	SHORT $LN3@operator
	mov	edx, 1
	mov	rcx, QWORD PTR $T1[rbp]
	call	??_GSwapchain@cow@@QEAAPEAXI@Z
	mov	QWORD PTR tv68[rbp], rax
	jmp	SHORT $LN4@operator
$LN3@operator:
	mov	QWORD PTR tv68[rbp], 0
$LN4@operator:
; Line 3130
	lea	rsp, QWORD PTR [rbp+232]
	pop	rdi
	pop	rbp
	ret	0
??R?$default_delete@VSwapchain@cow@@@std@@QEBAXPEAVSwapchain@cow@@@Z ENDP ; std::default_delete<cow::Swapchain>::operator()
_TEXT	ENDS
; Function compile flags: /Odtp /RTCsu /ZI
;	COMDAT ?beginRenderPass@GraphicsCommands@cow@@QEAAXPEAUVkCommandBuffer_T@@TVkClearColorValue@@@Z
_TEXT	SEGMENT
renderPassInfo$ = 16
clearValues$ = 104
viewport$ = 168
scissor$ = 216
$T7 = 452
$T8 = 484
$T9 = 520
$T10 = 564
$T11 = 600
$T12 = 628
$T13 = 660
tv211 = 680
tv201 = 680
tv159 = 680
tv91 = 680
tv83 = 680
tv81 = 688
__$ArrayPad$ = 696
this$ = 736
commandBuffer$ = 744
color$ = 752
?beginRenderPass@GraphicsCommands@cow@@QEAAXPEAUVkCommandBuffer_T@@TVkClearColorValue@@@Z PROC ; cow::GraphicsCommands::beginRenderPass, COMDAT
; File C:\Users\anton\source\repos\GPU-VM\GPU-VM\GraphicsCommands.cpp
; Line 67
$LN3:
	mov	QWORD PTR [rsp+24], r8
	mov	QWORD PTR [rsp+16], rdx
	mov	QWORD PTR [rsp+8], rcx
	push	rbp
	push	rsi
	push	rdi
	sub	rsp, 736				; 000002e0H
	lea	rbp, QWORD PTR [rsp+32]
	lea	rdi, QWORD PTR [rsp+32]
	mov	ecx, 128				; 00000080H
	mov	eax, -858993460				; ccccccccH
	rep stosd
	mov	rcx, QWORD PTR [rsp+776]
	mov	rax, QWORD PTR __security_cookie
	xor	rax, rbp
	mov	QWORD PTR __$ArrayPad$[rbp], rax
	lea	rcx, OFFSET FLAT:__1F813B21_GraphicsCommands@cpp
	call	__CheckForDebuggerJustMyCode
; Line 68
	lea	rax, QWORD PTR renderPassInfo$[rbp]
	mov	rdi, rax
	xor	eax, eax
	mov	ecx, 64					; 00000040H
	rep stosb
; Line 69
	mov	DWORD PTR renderPassInfo$[rbp], 43	; 0000002bH
; Line 70
	mov	rax, QWORD PTR this$[rbp]
	mov	rcx, rax
	call	??C?$unique_ptr@VSwapchain@cow@@U?$default_delete@VSwapchain@cow@@@std@@@std@@QEBAPEAVSwapchain@cow@@XZ ; std::unique_ptr<cow::Swapchain,std::default_delete<cow::Swapchain> >::operator->
	mov	rcx, rax
	call	?getRenderPass@Swapchain@cow@@QEBAPEAUVkRenderPass_T@@XZ ; cow::Swapchain::getRenderPass
	mov	QWORD PTR renderPassInfo$[rbp+16], rax
; Line 71
	mov	rax, QWORD PTR this$[rbp]
	mov	rcx, rax
	call	??C?$unique_ptr@VSwapchain@cow@@U?$default_delete@VSwapchain@cow@@@std@@@std@@QEBAPEAVSwapchain@cow@@XZ ; std::unique_ptr<cow::Swapchain,std::default_delete<cow::Swapchain> >::operator->
	mov	QWORD PTR tv83[rbp], rax
	mov	rax, QWORD PTR this$[rbp]
	mov	eax, DWORD PTR [rax+16]
	mov	DWORD PTR tv81[rbp], eax
	mov	edx, DWORD PTR tv81[rbp]
	mov	rcx, QWORD PTR tv83[rbp]
	call	?getFrameBuffer@Swapchain@cow@@QEAAPEAUVkFramebuffer_T@@H@Z ; cow::Swapchain::getFrameBuffer
	mov	QWORD PTR renderPassInfo$[rbp+24], rax
; Line 73
	mov	DWORD PTR $T7[rbp], 0
	mov	DWORD PTR $T7[rbp+4], 0
	mov	rax, QWORD PTR $T7[rbp]
	mov	QWORD PTR renderPassInfo$[rbp+32], rax
; Line 74
	mov	rax, QWORD PTR this$[rbp]
	mov	rcx, rax
	call	??C?$unique_ptr@VSwapchain@cow@@U?$default_delete@VSwapchain@cow@@@std@@@std@@QEBAPEAVSwapchain@cow@@XZ ; std::unique_ptr<cow::Swapchain,std::default_delete<cow::Swapchain> >::operator->
	mov	QWORD PTR tv91[rbp], rax
	lea	rdx, QWORD PTR $T8[rbp]
	mov	rcx, QWORD PTR tv91[rbp]
	call	?getExtent2D@Swapchain@cow@@QEBA?AUVkExtent2D@@XZ ; cow::Swapchain::getExtent2D
	mov	rax, QWORD PTR [rax]
	mov	QWORD PTR renderPassInfo$[rbp+40], rax
; Line 76
	lea	rax, QWORD PTR clearValues$[rbp]
	mov	rdi, rax
	xor	eax, eax
	mov	ecx, 32					; 00000020H
	rep stosb
; Line 77
	lea	rax, QWORD PTR $T9[rbp]
	mov	rdi, rax
	mov	rsi, QWORD PTR color$[rbp]
	mov	ecx, 16
	rep movsb
	xor	edx, edx
	lea	rcx, QWORD PTR clearValues$[rbp]
	call	??A?$array@TVkClearValue@@$01@std@@QEAAAEATVkClearValue@@_K@Z ; std::array<VkClearValue,2>::operator[]
	lea	rcx, QWORD PTR $T9[rbp]
	mov	rdi, rax
	mov	rsi, rcx
	mov	ecx, 16
	rep movsb
; Line 78
	movss	xmm0, DWORD PTR __real@3f800000
	movss	DWORD PTR $T10[rbp], xmm0
	mov	DWORD PTR $T10[rbp+4], 0
	mov	rax, QWORD PTR $T10[rbp]
	mov	QWORD PTR $T11[rbp], rax
	mov	edx, 1
	lea	rcx, QWORD PTR clearValues$[rbp]
	call	??A?$array@TVkClearValue@@$01@std@@QEAAAEATVkClearValue@@_K@Z ; std::array<VkClearValue,2>::operator[]
	mov	rcx, QWORD PTR $T11[rbp]
	mov	QWORD PTR [rax], rcx
; Line 79
	lea	rcx, QWORD PTR clearValues$[rbp]
	call	?size@?$array@TVkClearValue@@$01@std@@QEBA_KXZ ; std::array<VkClearValue,2>::size
	mov	DWORD PTR renderPassInfo$[rbp+48], eax
; Line 80
	lea	rcx, QWORD PTR clearValues$[rbp]
	call	?data@?$array@TVkClearValue@@$01@std@@QEAAPEATVkClearValue@@XZ ; std::array<VkClearValue,2>::data
	mov	QWORD PTR renderPassInfo$[rbp+56], rax
; Line 82
	xor	r8d, r8d
	lea	rdx, QWORD PTR renderPassInfo$[rbp]
	mov	rcx, QWORD PTR commandBuffer$[rbp]
	call	vkCmdBeginRenderPass
; Line 85
	lea	rax, QWORD PTR viewport$[rbp]
	mov	rdi, rax
	xor	eax, eax
	mov	ecx, 24
	rep stosb
; Line 86
	xorps	xmm0, xmm0
	movss	DWORD PTR viewport$[rbp], xmm0
; Line 87
	xorps	xmm0, xmm0
	movss	DWORD PTR viewport$[rbp+4], xmm0
; Line 88
	mov	rax, QWORD PTR this$[rbp]
	mov	rcx, rax
	call	??C?$unique_ptr@VSwapchain@cow@@U?$default_delete@VSwapchain@cow@@@std@@@std@@QEBAPEAVSwapchain@cow@@XZ ; std::unique_ptr<cow::Swapchain,std::default_delete<cow::Swapchain> >::operator->
	mov	QWORD PTR tv159[rbp], rax
	lea	rdx, QWORD PTR $T12[rbp]
	mov	rcx, QWORD PTR tv159[rbp]
	call	?getExtent2D@Swapchain@cow@@QEBA?AUVkExtent2D@@XZ ; cow::Swapchain::getExtent2D
	mov	eax, DWORD PTR [rax]
	cvtsi2ss xmm0, rax
	movss	DWORD PTR viewport$[rbp+8], xmm0
; Line 89
	mov	rax, QWORD PTR this$[rbp]
	mov	rcx, rax
	call	??C?$unique_ptr@VSwapchain@cow@@U?$default_delete@VSwapchain@cow@@@std@@@std@@QEBAPEAVSwapchain@cow@@XZ ; std::unique_ptr<cow::Swapchain,std::default_delete<cow::Swapchain> >::operator->
	mov	QWORD PTR tv201[rbp], rax
	lea	rdx, QWORD PTR $T13[rbp]
	mov	rcx, QWORD PTR tv201[rbp]
	call	?getExtent2D@Swapchain@cow@@QEBA?AUVkExtent2D@@XZ ; cow::Swapchain::getExtent2D
	mov	eax, DWORD PTR [rax+4]
	cvtsi2ss xmm0, rax
	movss	DWORD PTR viewport$[rbp+12], xmm0
; Line 90
	xorps	xmm0, xmm0
	movss	DWORD PTR viewport$[rbp+16], xmm0
; Line 91
	movss	xmm0, DWORD PTR __real@3f800000
	movss	DWORD PTR viewport$[rbp+20], xmm0
; Line 92
	mov	DWORD PTR scissor$[rbp], 0
	mov	DWORD PTR scissor$[rbp+4], 0
	mov	rax, QWORD PTR this$[rbp]
	mov	rcx, rax
	call	??C?$unique_ptr@VSwapchain@cow@@U?$default_delete@VSwapchain@cow@@@std@@@std@@QEBAPEAVSwapchain@cow@@XZ ; std::unique_ptr<cow::Swapchain,std::default_delete<cow::Swapchain> >::operator->
	mov	QWORD PTR tv211[rbp], rax
	lea	rdx, QWORD PTR scissor$[rbp+8]
	mov	rcx, QWORD PTR tv211[rbp]
	call	?getExtent2D@Swapchain@cow@@QEBA?AUVkExtent2D@@XZ ; cow::Swapchain::getExtent2D
; Line 93
	lea	r9, QWORD PTR viewport$[rbp]
	mov	r8d, 1
	xor	edx, edx
	mov	rcx, QWORD PTR commandBuffer$[rbp]
	call	vkCmdSetViewport
; Line 94
	lea	r9, QWORD PTR scissor$[rbp]
	mov	r8d, 1
	xor	edx, edx
	mov	rcx, QWORD PTR commandBuffer$[rbp]
	call	vkCmdSetScissor
; Line 95
	lea	rcx, QWORD PTR [rbp-32]
	lea	rdx, OFFSET FLAT:?beginRenderPass@GraphicsCommands@cow@@QEAAXPEAUVkCommandBuffer_T@@TVkClearColorValue@@@Z$rtcFrameData
	call	_RTC_CheckStackVars
	mov	rcx, QWORD PTR __$ArrayPad$[rbp]
	xor	rcx, rbp
	call	__security_check_cookie
	lea	rsp, QWORD PTR [rbp+704]
	pop	rdi
	pop	rsi
	pop	rbp
	ret	0
?beginRenderPass@GraphicsCommands@cow@@QEAAXPEAUVkCommandBuffer_T@@TVkClearColorValue@@@Z ENDP ; cow::GraphicsCommands::beginRenderPass
_TEXT	ENDS
; Function compile flags: /Odtp /RTCsu /ZI
;	COMDAT ?begin@GraphicsCommands@cow@@QEAAPEAUVkCommandBuffer_T@@XZ
_TEXT	SEGMENT
result$ = 4
commandBuffer$ = 40
beginInfo$ = 72
$T4 = 328
tv86 = 360
tv72 = 360
tv84 = 368
__$ArrayPad$ = 376
this$ = 416
?begin@GraphicsCommands@cow@@QEAAPEAUVkCommandBuffer_T@@XZ PROC ; cow::GraphicsCommands::begin, COMDAT
; File C:\Users\anton\source\repos\GPU-VM\GPU-VM\GraphicsCommands.cpp
; Line 53
$LN4:
	mov	QWORD PTR [rsp+8], rcx
	push	rbp
	push	rdi
	sub	rsp, 424				; 000001a8H
	lea	rbp, QWORD PTR [rsp+32]
	lea	rdi, QWORD PTR [rsp+32]
	mov	ecx, 50					; 00000032H
	mov	eax, -858993460				; ccccccccH
	rep stosd
	mov	rcx, QWORD PTR [rsp+456]
	mov	rax, QWORD PTR __security_cookie
	xor	rax, rbp
	mov	QWORD PTR __$ArrayPad$[rbp], rax
	lea	rcx, OFFSET FLAT:__1F813B21_GraphicsCommands@cpp
	call	__CheckForDebuggerJustMyCode
; Line 54
	mov	rax, QWORD PTR this$[rbp]
	mov	rcx, rax
	call	??C?$unique_ptr@VSwapchain@cow@@U?$default_delete@VSwapchain@cow@@@std@@@std@@QEBAPEAVSwapchain@cow@@XZ ; std::unique_ptr<cow::Swapchain,std::default_delete<cow::Swapchain> >::operator->
	mov	QWORD PTR tv72[rbp], rax
	mov	rax, QWORD PTR this$[rbp]
	add	rax, 16
	mov	rdx, rax
	mov	rcx, QWORD PTR tv72[rbp]
	call	?nextImage@Swapchain@cow@@QEAA?AW4VkResult@@PEAI@Z ; cow::Swapchain::nextImage
	mov	DWORD PTR result$[rbp], eax
; Line 55
	mov	edx, DWORD PTR result$[rbp]
	mov	rcx, QWORD PTR this$[rbp]
	call	?checkRecreation@GraphicsCommands@cow@@AEAA_NW4VkResult@@@Z ; cow::GraphicsCommands::checkRecreation
; Line 57
	mov	rax, QWORD PTR this$[rbp]
	mov	rax, QWORD PTR [rax+8]
	mov	QWORD PTR tv86[rbp], rax
	mov	rax, QWORD PTR this$[rbp]
	mov	rcx, rax
	call	??C?$unique_ptr@VSwapchain@cow@@U?$default_delete@VSwapchain@cow@@@std@@@std@@QEBAPEAVSwapchain@cow@@XZ ; std::unique_ptr<cow::Swapchain,std::default_delete<cow::Swapchain> >::operator->
	mov	rcx, rax
	call	?getCurrentFrame@Swapchain@cow@@QEBA_KXZ ; cow::Swapchain::getCurrentFrame
	shl	rax, 3
	mov	QWORD PTR tv84[rbp], rax
	mov	rax, QWORD PTR tv84[rbp]
	mov	rcx, QWORD PTR tv86[rbp]
	add	rcx, rax
	mov	rax, rcx
	mov	rax, QWORD PTR [rax]
	mov	QWORD PTR commandBuffer$[rbp], rax
; Line 58
	lea	rax, QWORD PTR beginInfo$[rbp]
	mov	rdi, rax
	xor	eax, eax
	mov	ecx, 32					; 00000020H
	rep stosb
; Line 59
	mov	DWORD PTR beginInfo$[rbp], 42		; 0000002aH
; Line 60
	lea	rdx, QWORD PTR beginInfo$[rbp]
	mov	rcx, QWORD PTR commandBuffer$[rbp]
	call	vkBeginCommandBuffer
	test	eax, eax
	je	SHORT $LN2@begin
; Line 62
	lea	rdx, OFFSET FLAT:??_C@_0CJ@CAGDIOCF@failed?5to?5begin?5recording?5comma@
	lea	rcx, QWORD PTR $T4[rbp]
	call	??0runtime_error@std@@QEAA@PEBD@Z	; std::runtime_error::runtime_error
	lea	rdx, OFFSET FLAT:_TI2?AVruntime_error@std@@
	lea	rcx, QWORD PTR $T4[rbp]
	call	_CxxThrowException
$LN2@begin:
; Line 64
	mov	rax, QWORD PTR commandBuffer$[rbp]
$LN3@begin:
; Line 65
	mov	rdi, rax
	lea	rcx, QWORD PTR [rbp-32]
	lea	rdx, OFFSET FLAT:?begin@GraphicsCommands@cow@@QEAAPEAUVkCommandBuffer_T@@XZ$rtcFrameData
	call	_RTC_CheckStackVars
	mov	rax, rdi
	mov	rcx, QWORD PTR __$ArrayPad$[rbp]
	xor	rcx, rbp
	call	__security_check_cookie
	lea	rsp, QWORD PTR [rbp+392]
	pop	rdi
	pop	rbp
	ret	0
?begin@GraphicsCommands@cow@@QEAAPEAUVkCommandBuffer_T@@XZ ENDP ; cow::GraphicsCommands::begin
_TEXT	ENDS
; Function compile flags: /Odtp /RTCsu /ZI
;	COMDAT ??1GraphicsCommands@cow@@QEAA@XZ
_TEXT	SEGMENT
this$ = 224
??1GraphicsCommands@cow@@QEAA@XZ PROC			; cow::GraphicsCommands::~GraphicsCommands, COMDAT
; File C:\Users\anton\source\repos\GPU-VM\GPU-VM\GraphicsCommands.cpp
; Line 15
$LN3:
	mov	QWORD PTR [rsp+8], rcx
	push	rbp
	push	rdi
	sub	rsp, 232				; 000000e8H
	lea	rbp, QWORD PTR [rsp+32]
	lea	rcx, OFFSET FLAT:__1F813B21_GraphicsCommands@cpp
	call	__CheckForDebuggerJustMyCode
; Line 16
	mov	rax, QWORD PTR this$[rbp]
	mov	rax, QWORD PTR [rax+24]
	mov	rcx, QWORD PTR this$[rbp]
	mov	rcx, QWORD PTR [rcx+24]
	mov	rdx, QWORD PTR this$[rbp]
	mov	r9, QWORD PTR [rdx+8]
	mov	r8d, 2
	mov	rdx, QWORD PTR [rax+32]
	mov	rcx, QWORD PTR [rcx+24]
	call	vkFreeCommandBuffers
; Line 17
	mov	rax, QWORD PTR this$[rbp]
	mov	rcx, rax
	call	??1?$unique_ptr@VSwapchain@cow@@U?$default_delete@VSwapchain@cow@@@std@@@std@@QEAA@XZ ; std::unique_ptr<cow::Swapchain,std::default_delete<cow::Swapchain> >::~unique_ptr<cow::Swapchain,std::default_delete<cow::Swapchain> >
	lea	rsp, QWORD PTR [rbp+200]
	pop	rdi
	pop	rbp
	ret	0
??1GraphicsCommands@cow@@QEAA@XZ ENDP			; cow::GraphicsCommands::~GraphicsCommands
_TEXT	ENDS
; Function compile flags: /Odtp /RTCsu /ZI
;	COMDAT ??0GraphicsCommands@cow@@QEAA@AEAVDevice@1@@Z
_TEXT	SEGMENT
this$ = 224
device$ = 232
??0GraphicsCommands@cow@@QEAA@AEAVDevice@1@@Z PROC	; cow::GraphicsCommands::GraphicsCommands, COMDAT
; File C:\Users\anton\source\repos\GPU-VM\GPU-VM\GraphicsCommands.cpp
; Line 8
$LN4:
	mov	QWORD PTR [rsp+16], rdx
	mov	QWORD PTR [rsp+8], rcx
	push	rbp
	push	rdi
	sub	rsp, 232				; 000000e8H
	lea	rbp, QWORD PTR [rsp+32]
	lea	rcx, OFFSET FLAT:__1F813B21_GraphicsCommands@cpp
	call	__CheckForDebuggerJustMyCode
	mov	rax, QWORD PTR this$[rbp]
	mov	rcx, rax
	call	??$?0U?$default_delete@VSwapchain@cow@@@std@@$0A@@?$unique_ptr@VSwapchain@cow@@U?$default_delete@VSwapchain@cow@@@std@@@std@@QEAA@XZ ; std::unique_ptr<cow::Swapchain,std::default_delete<cow::Swapchain> >::unique_ptr<cow::Swapchain,std::default_delete<cow::Swapchain> ><std::default_delete<cow::Swapchain>,0>
	npad	1
; Line 7
	mov	rax, QWORD PTR this$[rbp]
	mov	rcx, QWORD PTR device$[rbp]
	mov	QWORD PTR [rax+24], rcx
; Line 9
	mov	rcx, QWORD PTR this$[rbp]
	call	?recreateSwapchain@GraphicsCommands@cow@@AEAAXXZ ; cow::GraphicsCommands::recreateSwapchain
; Line 11
	mov	rcx, QWORD PTR this$[rbp]
	call	?createCommandBuffers@GraphicsCommands@cow@@AEAAXXZ ; cow::GraphicsCommands::createCommandBuffers
	npad	1
; Line 12
	mov	rax, QWORD PTR this$[rbp]
	lea	rsp, QWORD PTR [rbp+200]
	pop	rdi
	pop	rbp
	ret	0
??0GraphicsCommands@cow@@QEAA@AEAVDevice@1@@Z ENDP	; cow::GraphicsCommands::GraphicsCommands
_TEXT	ENDS
; Function compile flags: /Odtp /RTCsu /ZI
;	COMDAT text$x
text$x	SEGMENT
this$ = 224
device$ = 232
?dtor$0@?0???0GraphicsCommands@cow@@QEAA@AEAVDevice@1@@Z@4HA PROC ; `cow::GraphicsCommands::GraphicsCommands'::`1'::dtor$0
	mov	QWORD PTR [rsp+8], rcx
	mov	QWORD PTR [rsp+16], rdx
	push	rbp
	push	rdi
	sub	rsp, 40					; 00000028H
	lea	rbp, QWORD PTR [rdx+32]
	mov	rcx, QWORD PTR this$[rbp]
	call	??1?$unique_ptr@VSwapchain@cow@@U?$default_delete@VSwapchain@cow@@@std@@@std@@QEAA@XZ ; std::unique_ptr<cow::Swapchain,std::default_delete<cow::Swapchain> >::~unique_ptr<cow::Swapchain,std::default_delete<cow::Swapchain> >
	add	rsp, 40					; 00000028H
	pop	rdi
	pop	rbp
	ret	0
?dtor$0@?0???0GraphicsCommands@cow@@QEAA@AEAVDevice@1@@Z@4HA ENDP ; `cow::GraphicsCommands::GraphicsCommands'::`1'::dtor$0
text$x	ENDS
; Function compile flags: /Odtp /RTCsu /ZI
;	COMDAT ??_GSwapchain@cow@@QEAAPEAXI@Z
_TEXT	SEGMENT
this$ = 224
__flags$ = 232
??_GSwapchain@cow@@QEAAPEAXI@Z PROC			; cow::Swapchain::`scalar deleting destructor', COMDAT
$LN4:
	mov	DWORD PTR [rsp+16], edx
	mov	QWORD PTR [rsp+8], rcx
	push	rbp
	push	rdi
	sub	rsp, 232				; 000000e8H
	lea	rbp, QWORD PTR [rsp+32]
	mov	rcx, QWORD PTR this$[rbp]
	call	??1Swapchain@cow@@QEAA@XZ		; cow::Swapchain::~Swapchain
	mov	eax, DWORD PTR __flags$[rbp]
	and	eax, 1
	test	eax, eax
	je	SHORT $LN2@scalar
	mov	edx, 160				; 000000a0H
	mov	rcx, QWORD PTR this$[rbp]
	call	??3@YAXPEAX_K@Z				; operator delete
$LN2@scalar:
	mov	rax, QWORD PTR this$[rbp]
	lea	rsp, QWORD PTR [rbp+200]
	pop	rdi
	pop	rbp
	ret	0
??_GSwapchain@cow@@QEAAPEAXI@Z ENDP			; cow::Swapchain::`scalar deleting destructor'
_TEXT	ENDS
; Function compile flags: /Odtp /RTCsu /ZI
;	COMDAT ?__autoclassinit2@Swapchain@cow@@QEAAX_K@Z
_TEXT	SEGMENT
this$ = 224
classSize$ = 232
?__autoclassinit2@Swapchain@cow@@QEAAX_K@Z PROC		; cow::Swapchain::__autoclassinit2, COMDAT
$LN3:
	mov	QWORD PTR [rsp+16], rdx
	mov	QWORD PTR [rsp+8], rcx
	push	rbp
	push	rdi
	sub	rsp, 200				; 000000c8H
	mov	rbp, rsp
	mov	rdi, QWORD PTR this$[rbp]
	xor	eax, eax
	mov	rcx, QWORD PTR classSize$[rbp]
	rep stosb
	lea	rsp, QWORD PTR [rbp+200]
	pop	rdi
	pop	rbp
	ret	0
?__autoclassinit2@Swapchain@cow@@QEAAX_K@Z ENDP		; cow::Swapchain::__autoclassinit2
_TEXT	ENDS
; Function compile flags: /Odtp /RTCsu /ZI
;	COMDAT ?__autoclassinit2@?$shared_ptr@VSwapchain@cow@@@std@@QEAAX_K@Z
_TEXT	SEGMENT
this$ = 224
classSize$ = 232
?__autoclassinit2@?$shared_ptr@VSwapchain@cow@@@std@@QEAAX_K@Z PROC ; std::shared_ptr<cow::Swapchain>::__autoclassinit2, COMDAT
$LN3:
	mov	QWORD PTR [rsp+16], rdx
	mov	QWORD PTR [rsp+8], rcx
	push	rbp
	push	rdi
	sub	rsp, 200				; 000000c8H
	mov	rbp, rsp
	mov	rdi, QWORD PTR this$[rbp]
	xor	eax, eax
	mov	rcx, QWORD PTR classSize$[rbp]
	rep stosb
	lea	rsp, QWORD PTR [rbp+200]
	pop	rdi
	pop	rbp
	ret	0
?__autoclassinit2@?$shared_ptr@VSwapchain@cow@@@std@@QEAAX_K@Z ENDP ; std::shared_ptr<cow::Swapchain>::__autoclassinit2
_TEXT	ENDS
; Function compile flags: /Odtp /RTCsu /ZI
;	COMDAT ??1?$shared_ptr@VSwapchain@cow@@@std@@QEAA@XZ
_TEXT	SEGMENT
this$ = 224
??1?$shared_ptr@VSwapchain@cow@@@std@@QEAA@XZ PROC	; std::shared_ptr<cow::Swapchain>::~shared_ptr<cow::Swapchain>, COMDAT
; File C:\Program Files\Microsoft Visual Studio\2022\Community\VC\Tools\MSVC\14.32.31326\include\memory
; Line 1617
$LN3:
	mov	QWORD PTR [rsp+8], rcx
	push	rbp
	push	rdi
	sub	rsp, 232				; 000000e8H
	lea	rbp, QWORD PTR [rsp+32]
	lea	rcx, OFFSET FLAT:__92D6C122_memory
	call	__CheckForDebuggerJustMyCode
; Line 1618
	mov	rcx, QWORD PTR this$[rbp]
	call	?_Decref@?$_Ptr_base@VSwapchain@cow@@@std@@IEAAXXZ ; std::_Ptr_base<cow::Swapchain>::_Decref
; Line 1619
	lea	rsp, QWORD PTR [rbp+200]
	pop	rdi
	pop	rbp
	ret	0
??1?$shared_ptr@VSwapchain@cow@@@std@@QEAA@XZ ENDP	; std::shared_ptr<cow::Swapchain>::~shared_ptr<cow::Swapchain>
_TEXT	ENDS
; Function compile flags: /Odtp /RTCsu /ZI
;	COMDAT ??0?$shared_ptr@VSwapchain@cow@@@std@@QEAA@AEBV01@@Z
_TEXT	SEGMENT
this$ = 224
_Other$ = 232
??0?$shared_ptr@VSwapchain@cow@@@std@@QEAA@AEBV01@@Z PROC ; std::shared_ptr<cow::Swapchain>::shared_ptr<cow::Swapchain>, COMDAT
; File C:\Program Files\Microsoft Visual Studio\2022\Community\VC\Tools\MSVC\14.32.31326\include\memory
; Line 1562
$LN3:
	mov	QWORD PTR [rsp+16], rdx
	mov	QWORD PTR [rsp+8], rcx
	push	rbp
	push	rdi
	sub	rsp, 232				; 000000e8H
	lea	rbp, QWORD PTR [rsp+32]
	lea	rcx, OFFSET FLAT:__92D6C122_memory
	call	__CheckForDebuggerJustMyCode
	mov	rcx, QWORD PTR this$[rbp]
	call	??0?$_Ptr_base@VSwapchain@cow@@@std@@IEAA@XZ ; std::_Ptr_base<cow::Swapchain>::_Ptr_base<cow::Swapchain>
; Line 1563
	mov	rdx, QWORD PTR _Other$[rbp]
	mov	rcx, QWORD PTR this$[rbp]
	call	??$_Copy_construct_from@VSwapchain@cow@@@?$_Ptr_base@VSwapchain@cow@@@std@@IEAAXAEBV?$shared_ptr@VSwapchain@cow@@@1@@Z ; std::_Ptr_base<cow::Swapchain>::_Copy_construct_from<cow::Swapchain>
; Line 1564
	mov	rax, QWORD PTR this$[rbp]
	lea	rsp, QWORD PTR [rbp+200]
	pop	rdi
	pop	rbp
	ret	0
??0?$shared_ptr@VSwapchain@cow@@@std@@QEAA@AEBV01@@Z ENDP ; std::shared_ptr<cow::Swapchain>::shared_ptr<cow::Swapchain>
_TEXT	ENDS
; Function compile flags: /Odtp /RTCsu /ZI
;	COMDAT ?_Decref@?$_Ptr_base@VSwapchain@cow@@@std@@IEAAXXZ
_TEXT	SEGMENT
this$ = 224
?_Decref@?$_Ptr_base@VSwapchain@cow@@@std@@IEAAXXZ PROC	; std::_Ptr_base<cow::Swapchain>::_Decref, COMDAT
; File C:\Program Files\Microsoft Visual Studio\2022\Community\VC\Tools\MSVC\14.32.31326\include\memory
; Line 1332
$LN4:
	mov	QWORD PTR [rsp+8], rcx
	push	rbp
	push	rdi
	sub	rsp, 232				; 000000e8H
	lea	rbp, QWORD PTR [rsp+32]
	lea	rcx, OFFSET FLAT:__92D6C122_memory
	call	__CheckForDebuggerJustMyCode
; Line 1333
	mov	rax, QWORD PTR this$[rbp]
	cmp	QWORD PTR [rax+8], 0
	je	SHORT $LN2@Decref
; Line 1334
	mov	rax, QWORD PTR this$[rbp]
	mov	rcx, QWORD PTR [rax+8]
	call	?_Decref@_Ref_count_base@std@@QEAAXXZ	; std::_Ref_count_base::_Decref
$LN2@Decref:
; Line 1336
	lea	rsp, QWORD PTR [rbp+200]
	pop	rdi
	pop	rbp
	ret	0
?_Decref@?$_Ptr_base@VSwapchain@cow@@@std@@IEAAXXZ ENDP	; std::_Ptr_base<cow::Swapchain>::_Decref
_TEXT	ENDS
; Function compile flags: /Odtp /RTCsu /ZI
;	COMDAT ?_Incref@?$_Ptr_base@VSwapchain@cow@@@std@@IEBAXXZ
_TEXT	SEGMENT
this$ = 224
?_Incref@?$_Ptr_base@VSwapchain@cow@@@std@@IEBAXXZ PROC	; std::_Ptr_base<cow::Swapchain>::_Incref, COMDAT
; File C:\Program Files\Microsoft Visual Studio\2022\Community\VC\Tools\MSVC\14.32.31326\include\memory
; Line 1326
$LN4:
	mov	QWORD PTR [rsp+8], rcx
	push	rbp
	push	rdi
	sub	rsp, 232				; 000000e8H
	lea	rbp, QWORD PTR [rsp+32]
	lea	rcx, OFFSET FLAT:__92D6C122_memory
	call	__CheckForDebuggerJustMyCode
; Line 1327
	mov	rax, QWORD PTR this$[rbp]
	cmp	QWORD PTR [rax+8], 0
	je	SHORT $LN2@Incref
; Line 1328
	mov	rax, QWORD PTR this$[rbp]
	mov	rcx, QWORD PTR [rax+8]
	call	?_Incref@_Ref_count_base@std@@QEAAXXZ	; std::_Ref_count_base::_Incref
$LN2@Incref:
; Line 1330
	lea	rsp, QWORD PTR [rbp+200]
	pop	rdi
	pop	rbp
	ret	0
?_Incref@?$_Ptr_base@VSwapchain@cow@@@std@@IEBAXXZ ENDP	; std::_Ptr_base<cow::Swapchain>::_Incref
_TEXT	ENDS
; Function compile flags: /Odtp /RTCsu /ZI
;	COMDAT ??0?$_Ptr_base@VSwapchain@cow@@@std@@IEAA@XZ
_TEXT	SEGMENT
this$ = 224
??0?$_Ptr_base@VSwapchain@cow@@@std@@IEAA@XZ PROC	; std::_Ptr_base<cow::Swapchain>::_Ptr_base<cow::Swapchain>, COMDAT
; File C:\Program Files\Microsoft Visual Studio\2022\Community\VC\Tools\MSVC\14.32.31326\include\memory
; Line 1269
$LN3:
	mov	QWORD PTR [rsp+8], rcx
	push	rbp
	push	rdi
	sub	rsp, 232				; 000000e8H
	lea	rbp, QWORD PTR [rsp+32]
	lea	rcx, OFFSET FLAT:__92D6C122_memory
	call	__CheckForDebuggerJustMyCode
; Line 1401
	mov	rax, QWORD PTR this$[rbp]
	mov	QWORD PTR [rax], 0
; Line 1402
	mov	rax, QWORD PTR this$[rbp]
	mov	QWORD PTR [rax+8], 0
; Line 1269
	mov	rax, QWORD PTR this$[rbp]
	lea	rsp, QWORD PTR [rbp+200]
	pop	rdi
	pop	rbp
	ret	0
??0?$_Ptr_base@VSwapchain@cow@@@std@@IEAA@XZ ENDP	; std::_Ptr_base<cow::Swapchain>::_Ptr_base<cow::Swapchain>
_TEXT	ENDS
; Function compile flags: /Odtp /RTCsu /ZI
;	COMDAT ?get@?$_Ptr_base@VSwapchain@cow@@@std@@IEBAPEAVSwapchain@cow@@XZ
_TEXT	SEGMENT
this$ = 224
?get@?$_Ptr_base@VSwapchain@cow@@@std@@IEBAPEAVSwapchain@cow@@XZ PROC ; std::_Ptr_base<cow::Swapchain>::get, COMDAT
; File C:\Program Files\Microsoft Visual Studio\2022\Community\VC\Tools\MSVC\14.32.31326\include\memory
; Line 1265
$LN3:
	mov	QWORD PTR [rsp+8], rcx
	push	rbp
	push	rdi
	sub	rsp, 232				; 000000e8H
	lea	rbp, QWORD PTR [rsp+32]
	lea	rcx, OFFSET FLAT:__92D6C122_memory
	call	__CheckForDebuggerJustMyCode
; Line 1266
	mov	rax, QWORD PTR this$[rbp]
	mov	rax, QWORD PTR [rax]
; Line 1267
	lea	rsp, QWORD PTR [rbp+200]
	pop	rdi
	pop	rbp
	ret	0
?get@?$_Ptr_base@VSwapchain@cow@@@std@@IEBAPEAVSwapchain@cow@@XZ ENDP ; std::_Ptr_base<cow::Swapchain>::get
_TEXT	ENDS
; Function compile flags: /Odtp /RTCsu /ZI
;	COMDAT ?compareSwapFormats@Swapchain@cow@@QEBA_NAEBV12@@Z
_TEXT	SEGMENT
tv67 = 192
this$ = 240
swapChain$ = 248
?compareSwapFormats@Swapchain@cow@@QEBA_NAEBV12@@Z PROC	; cow::Swapchain::compareSwapFormats, COMDAT
; File C:\Users\anton\source\repos\GPU-VM\GPU-VM\Swapchain.hpp
; Line 37
$LN5:
	mov	QWORD PTR [rsp+16], rdx
	mov	QWORD PTR [rsp+8], rcx
	push	rbp
	push	rdi
	sub	rsp, 248				; 000000f8H
	lea	rbp, QWORD PTR [rsp+32]
	lea	rcx, OFFSET FLAT:__CE2F1DBE_Swapchain@hpp
	call	__CheckForDebuggerJustMyCode
; Line 38
	mov	rax, QWORD PTR swapChain$[rbp]
	mov	rcx, QWORD PTR this$[rbp]
	mov	ecx, DWORD PTR [rcx+8]
	cmp	DWORD PTR [rax+8], ecx
	jne	SHORT $LN3@compareSwa
	mov	DWORD PTR tv67[rbp], 1
	jmp	SHORT $LN4@compareSwa
$LN3@compareSwa:
	mov	DWORD PTR tv67[rbp], 0
$LN4@compareSwa:
	movzx	eax, BYTE PTR tv67[rbp]
; Line 39
	lea	rsp, QWORD PTR [rbp+216]
	pop	rdi
	pop	rbp
	ret	0
?compareSwapFormats@Swapchain@cow@@QEBA_NAEBV12@@Z ENDP	; cow::Swapchain::compareSwapFormats
_TEXT	ENDS
; Function compile flags: /Odtp /RTCsu /ZI
;	COMDAT ?getCurrentFrame@Swapchain@cow@@QEBA_KXZ
_TEXT	SEGMENT
this$ = 224
?getCurrentFrame@Swapchain@cow@@QEBA_KXZ PROC		; cow::Swapchain::getCurrentFrame, COMDAT
; File C:\Users\anton\source\repos\GPU-VM\GPU-VM\Swapchain.hpp
; Line 34
$LN3:
	mov	QWORD PTR [rsp+8], rcx
	push	rbp
	push	rdi
	sub	rsp, 232				; 000000e8H
	lea	rbp, QWORD PTR [rsp+32]
	lea	rcx, OFFSET FLAT:__CE2F1DBE_Swapchain@hpp
	call	__CheckForDebuggerJustMyCode
	mov	rax, QWORD PTR this$[rbp]
	mov	rax, QWORD PTR [rax+24]
	lea	rsp, QWORD PTR [rbp+200]
	pop	rdi
	pop	rbp
	ret	0
?getCurrentFrame@Swapchain@cow@@QEBA_KXZ ENDP		; cow::Swapchain::getCurrentFrame
_TEXT	ENDS
; Function compile flags: /Odtp /RTCsu /ZI
;	COMDAT ?getFrameBuffer@Swapchain@cow@@QEAAPEAUVkFramebuffer_T@@H@Z
_TEXT	SEGMENT
this$ = 224
index$ = 232
?getFrameBuffer@Swapchain@cow@@QEAAPEAUVkFramebuffer_T@@H@Z PROC ; cow::Swapchain::getFrameBuffer, COMDAT
; File C:\Users\anton\source\repos\GPU-VM\GPU-VM\Swapchain.hpp
; Line 31
$LN3:
	mov	DWORD PTR [rsp+16], edx
	mov	QWORD PTR [rsp+8], rcx
	push	rbp
	push	rdi
	sub	rsp, 232				; 000000e8H
	lea	rbp, QWORD PTR [rsp+32]
	lea	rcx, OFFSET FLAT:__CE2F1DBE_Swapchain@hpp
	call	__CheckForDebuggerJustMyCode
	movsxd	rax, DWORD PTR index$[rbp]
	mov	rcx, QWORD PTR this$[rbp]
	mov	rcx, QWORD PTR [rcx+88]
	mov	rax, QWORD PTR [rcx+rax*8]
	lea	rsp, QWORD PTR [rbp+200]
	pop	rdi
	pop	rbp
	ret	0
?getFrameBuffer@Swapchain@cow@@QEAAPEAUVkFramebuffer_T@@H@Z ENDP ; cow::Swapchain::getFrameBuffer
_TEXT	ENDS
; Function compile flags: /Odtp /RTCsu /ZI
;	COMDAT ?getRenderPass@Swapchain@cow@@QEBAPEAUVkRenderPass_T@@XZ
_TEXT	SEGMENT
this$ = 224
?getRenderPass@Swapchain@cow@@QEBAPEAUVkRenderPass_T@@XZ PROC ; cow::Swapchain::getRenderPass, COMDAT
; File C:\Users\anton\source\repos\GPU-VM\GPU-VM\Swapchain.hpp
; Line 30
$LN3:
	mov	QWORD PTR [rsp+8], rcx
	push	rbp
	push	rdi
	sub	rsp, 232				; 000000e8H
	lea	rbp, QWORD PTR [rsp+32]
	lea	rcx, OFFSET FLAT:__CE2F1DBE_Swapchain@hpp
	call	__CheckForDebuggerJustMyCode
	mov	rax, QWORD PTR this$[rbp]
	mov	rax, QWORD PTR [rax+64]
	lea	rsp, QWORD PTR [rbp+200]
	pop	rdi
	pop	rbp
	ret	0
?getRenderPass@Swapchain@cow@@QEBAPEAUVkRenderPass_T@@XZ ENDP ; cow::Swapchain::getRenderPass
_TEXT	ENDS
; Function compile flags: /Odtp /RTCsu /ZI
;	COMDAT ?getExtent2D@Swapchain@cow@@QEBA?AUVkExtent2D@@XZ
_TEXT	SEGMENT
this$ = 224
__$ReturnUdt$ = 232
?getExtent2D@Swapchain@cow@@QEBA?AUVkExtent2D@@XZ PROC	; cow::Swapchain::getExtent2D, COMDAT
; File C:\Users\anton\source\repos\GPU-VM\GPU-VM\Swapchain.hpp
; Line 29
$LN3:
	mov	QWORD PTR [rsp+16], rdx
	mov	QWORD PTR [rsp+8], rcx
	push	rbp
	push	rdi
	sub	rsp, 232				; 000000e8H
	lea	rbp, QWORD PTR [rsp+32]
	lea	rcx, OFFSET FLAT:__CE2F1DBE_Swapchain@hpp
	call	__CheckForDebuggerJustMyCode
	mov	rax, QWORD PTR this$[rbp]
	mov	rax, QWORD PTR [rax+12]
	mov	rcx, QWORD PTR __$ReturnUdt$[rbp]
	mov	QWORD PTR [rcx], rax
	mov	rax, QWORD PTR __$ReturnUdt$[rbp]
	lea	rsp, QWORD PTR [rbp+200]
	pop	rdi
	pop	rbp
	ret	0
?getExtent2D@Swapchain@cow@@QEBA?AUVkExtent2D@@XZ ENDP	; cow::Swapchain::getExtent2D
_TEXT	ENDS
; Function compile flags: /Odtp /RTCsu /ZI
;	COMDAT ?_Decwref@_Ref_count_base@std@@QEAAXXZ
_TEXT	SEGMENT
this$ = 224
?_Decwref@_Ref_count_base@std@@QEAAXXZ PROC		; std::_Ref_count_base::_Decwref, COMDAT
; File C:\Program Files\Microsoft Visual Studio\2022\Community\VC\Tools\MSVC\14.32.31326\include\memory
; Line 1114
$LN4:
	mov	QWORD PTR [rsp+8], rcx
	push	rbp
	push	rdi
	sub	rsp, 232				; 000000e8H
	lea	rbp, QWORD PTR [rsp+32]
	lea	rcx, OFFSET FLAT:__92D6C122_memory
	call	__CheckForDebuggerJustMyCode
; Line 1115
	mov	rax, QWORD PTR this$[rbp]
	add	rax, 12
	mov	ecx, -1
	lock xadd DWORD PTR [rax], ecx
	dec	ecx
	mov	eax, ecx
	test	eax, eax
	jne	SHORT $LN2@Decwref
; Line 1116
	mov	rax, QWORD PTR this$[rbp]
	mov	rax, QWORD PTR [rax]
	mov	rcx, QWORD PTR this$[rbp]
	call	QWORD PTR [rax+8]
$LN2@Decwref:
; Line 1118
	lea	rsp, QWORD PTR [rbp+200]
	pop	rdi
	pop	rbp
	ret	0
?_Decwref@_Ref_count_base@std@@QEAAXXZ ENDP		; std::_Ref_count_base::_Decwref
_TEXT	ENDS
; Function compile flags: /Odtp /RTCsu /ZI
;	COMDAT ?_Decref@_Ref_count_base@std@@QEAAXXZ
_TEXT	SEGMENT
this$ = 224
?_Decref@_Ref_count_base@std@@QEAAXXZ PROC		; std::_Ref_count_base::_Decref, COMDAT
; File C:\Program Files\Microsoft Visual Studio\2022\Community\VC\Tools\MSVC\14.32.31326\include\memory
; Line 1107
$LN4:
	mov	QWORD PTR [rsp+8], rcx
	push	rbp
	push	rdi
	sub	rsp, 232				; 000000e8H
	lea	rbp, QWORD PTR [rsp+32]
	lea	rcx, OFFSET FLAT:__92D6C122_memory
	call	__CheckForDebuggerJustMyCode
; Line 1108
	mov	rax, QWORD PTR this$[rbp]
	add	rax, 8
	mov	ecx, -1
	lock xadd DWORD PTR [rax], ecx
	dec	ecx
	mov	eax, ecx
	test	eax, eax
	jne	SHORT $LN2@Decref
; Line 1109
	mov	rax, QWORD PTR this$[rbp]
	mov	rax, QWORD PTR [rax]
	mov	rcx, QWORD PTR this$[rbp]
	call	QWORD PTR [rax]
; Line 1110
	mov	rcx, QWORD PTR this$[rbp]
	call	?_Decwref@_Ref_count_base@std@@QEAAXXZ	; std::_Ref_count_base::_Decwref
$LN2@Decref:
; Line 1112
	lea	rsp, QWORD PTR [rbp+200]
	pop	rdi
	pop	rbp
	ret	0
?_Decref@_Ref_count_base@std@@QEAAXXZ ENDP		; std::_Ref_count_base::_Decref
_TEXT	ENDS
; Function compile flags: /Odtp /RTCsu /ZI
;	COMDAT ?_Incref@_Ref_count_base@std@@QEAAXXZ
_TEXT	SEGMENT
this$ = 224
?_Incref@_Ref_count_base@std@@QEAAXXZ PROC		; std::_Ref_count_base::_Incref, COMDAT
; File C:\Program Files\Microsoft Visual Studio\2022\Community\VC\Tools\MSVC\14.32.31326\include\memory
; Line 1099
$LN3:
	mov	QWORD PTR [rsp+8], rcx
	push	rbp
	push	rdi
	sub	rsp, 232				; 000000e8H
	lea	rbp, QWORD PTR [rsp+32]
	lea	rcx, OFFSET FLAT:__92D6C122_memory
	call	__CheckForDebuggerJustMyCode
; Line 1100
	mov	rax, QWORD PTR this$[rbp]
	add	rax, 8
	lock inc DWORD PTR [rax]
; Line 1101
	lea	rsp, QWORD PTR [rbp+200]
	pop	rdi
	pop	rbp
	ret	0
?_Incref@_Ref_count_base@std@@QEAAXXZ ENDP		; std::_Ref_count_base::_Incref
_TEXT	ENDS
; Function compile flags: /Odtp /RTCsu /ZI
;	COMDAT ??1_Ref_count_base@std@@UEAA@XZ
_TEXT	SEGMENT
this$ = 224
??1_Ref_count_base@std@@UEAA@XZ PROC			; std::_Ref_count_base::~_Ref_count_base, COMDAT
; File C:\Program Files\Microsoft Visual Studio\2022\Community\VC\Tools\MSVC\14.32.31326\include\memory
; Line 1078
$LN3:
	mov	QWORD PTR [rsp+8], rcx
	push	rbp
	push	rdi
	sub	rsp, 232				; 000000e8H
	lea	rbp, QWORD PTR [rsp+32]
	lea	rcx, OFFSET FLAT:__92D6C122_memory
	call	__CheckForDebuggerJustMyCode
	lea	rsp, QWORD PTR [rbp+200]
	pop	rdi
	pop	rbp
	ret	0
??1_Ref_count_base@std@@UEAA@XZ ENDP			; std::_Ref_count_base::~_Ref_count_base
_TEXT	ENDS
; Function compile flags: /Odtp /RTCsu /ZI
;	COMDAT ??0_Ref_count_base@std@@IEAA@XZ
_TEXT	SEGMENT
this$ = 224
??0_Ref_count_base@std@@IEAA@XZ PROC			; std::_Ref_count_base::_Ref_count_base, COMDAT
; File C:\Program Files\Microsoft Visual Studio\2022\Community\VC\Tools\MSVC\14.32.31326\include\memory
; Line 1072
$LN3:
	mov	QWORD PTR [rsp+8], rcx
	push	rbp
	push	rdi
	sub	rsp, 232				; 000000e8H
	lea	rbp, QWORD PTR [rsp+32]
	lea	rcx, OFFSET FLAT:__92D6C122_memory
	call	__CheckForDebuggerJustMyCode
; Line 1068
	mov	rax, QWORD PTR this$[rbp]
	mov	DWORD PTR [rax+8], 1
; Line 1069
	mov	rax, QWORD PTR this$[rbp]
	mov	DWORD PTR [rax+12], 1
; Line 1072
	mov	rax, QWORD PTR this$[rbp]
	lea	rsp, QWORD PTR [rbp+200]
	pop	rdi
	pop	rbp
	ret	0
??0_Ref_count_base@std@@IEAA@XZ ENDP			; std::_Ref_count_base::_Ref_count_base
_TEXT	ENDS
; Function compile flags: /Odtp /RTCsu /ZI
;	COMDAT ??8type_info@@QEBA_NAEBV0@@Z
_TEXT	SEGMENT
tv70 = 192
this$ = 240
_Other$ = 248
??8type_info@@QEBA_NAEBV0@@Z PROC			; type_info::operator==, COMDAT
; File C:\Program Files\Microsoft Visual Studio\2022\Community\VC\Tools\MSVC\14.32.31326\include\vcruntime_typeinfo.h
; Line 82
$LN5:
	mov	QWORD PTR [rsp+16], rdx
	mov	QWORD PTR [rsp+8], rcx
	push	rbp
	push	rdi
	sub	rsp, 248				; 000000f8H
	lea	rbp, QWORD PTR [rsp+32]
	lea	rcx, OFFSET FLAT:__2B8D1AA2_vcruntime_typeinfo@h
	call	__CheckForDebuggerJustMyCode
; Line 83
	mov	rax, QWORD PTR _Other$[rbp]
	add	rax, 8
	mov	rcx, QWORD PTR this$[rbp]
	add	rcx, 8
	mov	rdx, rax
	call	__std_type_info_compare
	test	eax, eax
	jne	SHORT $LN3@operator
	mov	DWORD PTR tv70[rbp], 1
	jmp	SHORT $LN4@operator
$LN3@operator:
	mov	DWORD PTR tv70[rbp], 0
$LN4@operator:
	movzx	eax, BYTE PTR tv70[rbp]
; Line 84
	lea	rsp, QWORD PTR [rbp+216]
	pop	rdi
	pop	rbp
	ret	0
??8type_info@@QEBA_NAEBV0@@Z ENDP			; type_info::operator==
_TEXT	ENDS
; Function compile flags: /Odtp /RTCsu /ZI
;	COMDAT ?getCommandPool@Device@cow@@QEAAPEAUVkCommandPool_T@@XZ
_TEXT	SEGMENT
this$ = 224
?getCommandPool@Device@cow@@QEAAPEAUVkCommandPool_T@@XZ PROC ; cow::Device::getCommandPool, COMDAT
; File C:\Users\anton\source\repos\GPU-VM\GPU-VM\Device.hpp
; Line 41
$LN3:
	mov	QWORD PTR [rsp+8], rcx
	push	rbp
	push	rdi
	sub	rsp, 232				; 000000e8H
	lea	rbp, QWORD PTR [rsp+32]
	lea	rcx, OFFSET FLAT:__61615CFA_Device@hpp
	call	__CheckForDebuggerJustMyCode
	mov	rax, QWORD PTR this$[rbp]
	mov	rax, QWORD PTR [rax+32]
	lea	rsp, QWORD PTR [rbp+200]
	pop	rdi
	pop	rbp
	ret	0
?getCommandPool@Device@cow@@QEAAPEAUVkCommandPool_T@@XZ ENDP ; cow::Device::getCommandPool
_TEXT	ENDS
; Function compile flags: /Odtp /RTCsu /ZI
;	COMDAT ?getDevice@Device@cow@@QEAAPEAUVkDevice_T@@XZ
_TEXT	SEGMENT
this$ = 224
?getDevice@Device@cow@@QEAAPEAUVkDevice_T@@XZ PROC	; cow::Device::getDevice, COMDAT
; File C:\Users\anton\source\repos\GPU-VM\GPU-VM\Device.hpp
; Line 40
$LN3:
	mov	QWORD PTR [rsp+8], rcx
	push	rbp
	push	rdi
	sub	rsp, 232				; 000000e8H
	lea	rbp, QWORD PTR [rsp+32]
	lea	rcx, OFFSET FLAT:__61615CFA_Device@hpp
	call	__CheckForDebuggerJustMyCode
	mov	rax, QWORD PTR this$[rbp]
	mov	rax, QWORD PTR [rax+24]
	lea	rsp, QWORD PTR [rbp+200]
	pop	rdi
	pop	rbp
	ret	0
?getDevice@Device@cow@@QEAAPEAUVkDevice_T@@XZ ENDP	; cow::Device::getDevice
_TEXT	ENDS
; Function compile flags: /Odtp /RTCsu /ZI
;	COMDAT ?getExtend2D@Window@cow@@QEBA?AUVkExtent2D@@XZ
_TEXT	SEGMENT
this$ = 224
__$ReturnUdt$ = 232
?getExtend2D@Window@cow@@QEBA?AUVkExtent2D@@XZ PROC	; cow::Window::getExtend2D, COMDAT
; File C:\Users\anton\source\repos\GPU-VM\GPU-VM\Window.hpp
; Line 14
$LN3:
	mov	QWORD PTR [rsp+16], rdx
	mov	QWORD PTR [rsp+8], rcx
	push	rbp
	push	rdi
	sub	rsp, 232				; 000000e8H
	lea	rbp, QWORD PTR [rsp+32]
	lea	rcx, OFFSET FLAT:__E8A7DAC2_Window@hpp
	call	__CheckForDebuggerJustMyCode
	mov	rax, QWORD PTR __$ReturnUdt$[rbp]
	mov	rcx, QWORD PTR this$[rbp]
	mov	ecx, DWORD PTR [rcx]
	mov	DWORD PTR [rax], ecx
	mov	rax, QWORD PTR __$ReturnUdt$[rbp]
	mov	rcx, QWORD PTR this$[rbp]
	mov	ecx, DWORD PTR [rcx+4]
	mov	DWORD PTR [rax+4], ecx
	mov	rax, QWORD PTR __$ReturnUdt$[rbp]
	lea	rsp, QWORD PTR [rbp+200]
	pop	rdi
	pop	rbp
	ret	0
?getExtend2D@Window@cow@@QEBA?AUVkExtent2D@@XZ ENDP	; cow::Window::getExtend2D
_TEXT	ENDS
; Function compile flags: /Odtp /RTCsu /ZI
;	COMDAT ??_Gruntime_error@std@@UEAAPEAXI@Z
_TEXT	SEGMENT
this$ = 224
__flags$ = 232
??_Gruntime_error@std@@UEAAPEAXI@Z PROC			; std::runtime_error::`scalar deleting destructor', COMDAT
$LN4:
	mov	DWORD PTR [rsp+16], edx
	mov	QWORD PTR [rsp+8], rcx
	push	rbp
	push	rdi
	sub	rsp, 232				; 000000e8H
	lea	rbp, QWORD PTR [rsp+32]
	mov	rcx, QWORD PTR this$[rbp]
	call	??1runtime_error@std@@UEAA@XZ
	mov	eax, DWORD PTR __flags$[rbp]
	and	eax, 1
	test	eax, eax
	je	SHORT $LN2@scalar
	mov	edx, 24
	mov	rcx, QWORD PTR this$[rbp]
	call	??3@YAXPEAX_K@Z				; operator delete
$LN2@scalar:
	mov	rax, QWORD PTR this$[rbp]
	lea	rsp, QWORD PTR [rbp+200]
	pop	rdi
	pop	rbp
	ret	0
??_Gruntime_error@std@@UEAAPEAXI@Z ENDP			; std::runtime_error::`scalar deleting destructor'
_TEXT	ENDS
; Function compile flags: /Odtp /RTCsu /ZI
;	COMDAT ??0runtime_error@std@@QEAA@AEBV01@@Z
_TEXT	SEGMENT
this$ = 224
__that$ = 232
??0runtime_error@std@@QEAA@AEBV01@@Z PROC		; std::runtime_error::runtime_error, COMDAT
$LN3:
	mov	QWORD PTR [rsp+16], rdx
	mov	QWORD PTR [rsp+8], rcx
	push	rbp
	push	rdi
	sub	rsp, 232				; 000000e8H
	lea	rbp, QWORD PTR [rsp+32]
	mov	rdx, QWORD PTR __that$[rbp]
	mov	rcx, QWORD PTR this$[rbp]
	call	??0exception@std@@QEAA@AEBV01@@Z	; std::exception::exception
	mov	rax, QWORD PTR this$[rbp]
	lea	rcx, OFFSET FLAT:??_7runtime_error@std@@6B@
	mov	QWORD PTR [rax], rcx
	mov	rax, QWORD PTR this$[rbp]
	lea	rsp, QWORD PTR [rbp+200]
	pop	rdi
	pop	rbp
	ret	0
??0runtime_error@std@@QEAA@AEBV01@@Z ENDP		; std::runtime_error::runtime_error
_TEXT	ENDS
; Function compile flags: /Odtp /RTCsu /ZI
;	COMDAT ??1runtime_error@std@@UEAA@XZ
_TEXT	SEGMENT
this$ = 224
??1runtime_error@std@@UEAA@XZ PROC			; std::runtime_error::~runtime_error, COMDAT
$LN3:
	mov	QWORD PTR [rsp+8], rcx
	push	rbp
	push	rdi
	sub	rsp, 232				; 000000e8H
	lea	rbp, QWORD PTR [rsp+32]
	mov	rcx, QWORD PTR this$[rbp]
	call	??1exception@std@@UEAA@XZ		; std::exception::~exception
	lea	rsp, QWORD PTR [rbp+200]
	pop	rdi
	pop	rbp
	ret	0
??1runtime_error@std@@UEAA@XZ ENDP			; std::runtime_error::~runtime_error
_TEXT	ENDS
; Function compile flags: /Odtp /RTCsu /ZI
;	COMDAT ??0runtime_error@std@@QEAA@PEBD@Z
_TEXT	SEGMENT
this$ = 224
_Message$ = 232
??0runtime_error@std@@QEAA@PEBD@Z PROC			; std::runtime_error::runtime_error, COMDAT
; File C:\Program Files\Microsoft Visual Studio\2022\Community\VC\Tools\MSVC\14.32.31326\include\stdexcept
; Line 107
$LN4:
	mov	QWORD PTR [rsp+16], rdx
	mov	QWORD PTR [rsp+8], rcx
	push	rbp
	push	rdi
	sub	rsp, 232				; 000000e8H
	lea	rbp, QWORD PTR [rsp+32]
	lea	rcx, OFFSET FLAT:__25D7A753_stdexcept
	call	__CheckForDebuggerJustMyCode
	mov	rdx, QWORD PTR _Message$[rbp]
	mov	rcx, QWORD PTR this$[rbp]
	call	??0exception@std@@QEAA@QEBD@Z		; std::exception::exception
	mov	rax, QWORD PTR this$[rbp]
	lea	rcx, OFFSET FLAT:??_7runtime_error@std@@6B@
	mov	QWORD PTR [rax], rcx
	mov	rax, QWORD PTR this$[rbp]
	lea	rsp, QWORD PTR [rbp+200]
	pop	rdi
	pop	rbp
	ret	0
??0runtime_error@std@@QEAA@PEBD@Z ENDP			; std::runtime_error::runtime_error
_TEXT	ENDS
; Function compile flags: /Odtp /RTCsu /ZI
;	COMDAT ??_Gexception@std@@UEAAPEAXI@Z
_TEXT	SEGMENT
this$ = 224
__flags$ = 232
??_Gexception@std@@UEAAPEAXI@Z PROC			; std::exception::`scalar deleting destructor', COMDAT
$LN4:
	mov	DWORD PTR [rsp+16], edx
	mov	QWORD PTR [rsp+8], rcx
	push	rbp
	push	rdi
	sub	rsp, 232				; 000000e8H
	lea	rbp, QWORD PTR [rsp+32]
	mov	rcx, QWORD PTR this$[rbp]
	call	??1exception@std@@UEAA@XZ		; std::exception::~exception
	mov	eax, DWORD PTR __flags$[rbp]
	and	eax, 1
	test	eax, eax
	je	SHORT $LN2@scalar
	mov	edx, 24
	mov	rcx, QWORD PTR this$[rbp]
	call	??3@YAXPEAX_K@Z				; operator delete
$LN2@scalar:
	mov	rax, QWORD PTR this$[rbp]
	lea	rsp, QWORD PTR [rbp+200]
	pop	rdi
	pop	rbp
	ret	0
??_Gexception@std@@UEAAPEAXI@Z ENDP			; std::exception::`scalar deleting destructor'
_TEXT	ENDS
; Function compile flags: /Odtp /RTCsu /ZI
;	COMDAT ?what@exception@std@@UEBAPEBDXZ
_TEXT	SEGMENT
tv69 = 192
this$ = 240
?what@exception@std@@UEBAPEBDXZ PROC			; std::exception::what, COMDAT
; File C:\Program Files\Microsoft Visual Studio\2022\Community\VC\Tools\MSVC\14.32.31326\include\vcruntime_exception.h
; Line 94
$LN5:
	mov	QWORD PTR [rsp+8], rcx
	push	rbp
	push	rdi
	sub	rsp, 248				; 000000f8H
	lea	rbp, QWORD PTR [rsp+32]
	lea	rcx, OFFSET FLAT:__6A8FA247_vcruntime_exception@h
	call	__CheckForDebuggerJustMyCode
; Line 95
	mov	rax, QWORD PTR this$[rbp]
	cmp	QWORD PTR [rax+8], 0
	je	SHORT $LN3@what
	mov	rax, QWORD PTR this$[rbp]
	mov	rax, QWORD PTR [rax+8]
	mov	QWORD PTR tv69[rbp], rax
	jmp	SHORT $LN4@what
$LN3@what:
	lea	rax, OFFSET FLAT:??_C@_0BC@EOODALEL@Unknown?5exception@
	mov	QWORD PTR tv69[rbp], rax
$LN4@what:
	mov	rax, QWORD PTR tv69[rbp]
; Line 96
	lea	rsp, QWORD PTR [rbp+216]
	pop	rdi
	pop	rbp
	ret	0
?what@exception@std@@UEBAPEBDXZ ENDP			; std::exception::what
_TEXT	ENDS
; Function compile flags: /Odtp /RTCsu /ZI
;	COMDAT ??1exception@std@@UEAA@XZ
_TEXT	SEGMENT
this$ = 224
??1exception@std@@UEAA@XZ PROC				; std::exception::~exception, COMDAT
; File C:\Program Files\Microsoft Visual Studio\2022\Community\VC\Tools\MSVC\14.32.31326\include\vcruntime_exception.h
; Line 89
$LN3:
	mov	QWORD PTR [rsp+8], rcx
	push	rbp
	push	rdi
	sub	rsp, 232				; 000000e8H
	lea	rbp, QWORD PTR [rsp+32]
	lea	rcx, OFFSET FLAT:__6A8FA247_vcruntime_exception@h
	call	__CheckForDebuggerJustMyCode
	mov	rax, QWORD PTR this$[rbp]
	lea	rcx, OFFSET FLAT:??_7exception@std@@6B@
	mov	QWORD PTR [rax], rcx
; Line 90
	mov	rax, QWORD PTR this$[rbp]
	add	rax, 8
	mov	rcx, rax
	call	__std_exception_destroy
; Line 91
	lea	rsp, QWORD PTR [rbp+200]
	pop	rdi
	pop	rbp
	ret	0
??1exception@std@@UEAA@XZ ENDP				; std::exception::~exception
_TEXT	ENDS
; Function compile flags: /Odtp /RTCsu /ZI
;	COMDAT ??0exception@std@@QEAA@AEBV01@@Z
_TEXT	SEGMENT
this$ = 224
_Other$ = 232
??0exception@std@@QEAA@AEBV01@@Z PROC			; std::exception::exception, COMDAT
; File C:\Program Files\Microsoft Visual Studio\2022\Community\VC\Tools\MSVC\14.32.31326\include\vcruntime_exception.h
; Line 72
$LN3:
	mov	QWORD PTR [rsp+16], rdx
	mov	QWORD PTR [rsp+8], rcx
	push	rbp
	push	rdi
	sub	rsp, 232				; 000000e8H
	lea	rbp, QWORD PTR [rsp+32]
	lea	rcx, OFFSET FLAT:__6A8FA247_vcruntime_exception@h
	call	__CheckForDebuggerJustMyCode
	mov	rax, QWORD PTR this$[rbp]
	lea	rcx, OFFSET FLAT:??_7exception@std@@6B@
	mov	QWORD PTR [rax], rcx
; Line 71
	mov	rax, QWORD PTR this$[rbp]
	add	rax, 8
	mov	rdi, rax
	xor	eax, eax
	mov	ecx, 16
	rep stosb
; Line 73
	mov	rax, QWORD PTR this$[rbp]
	add	rax, 8
	mov	rcx, QWORD PTR _Other$[rbp]
	add	rcx, 8
	mov	rdx, rax
	call	__std_exception_copy
; Line 74
	mov	rax, QWORD PTR this$[rbp]
	lea	rsp, QWORD PTR [rbp+200]
	pop	rdi
	pop	rbp
	ret	0
??0exception@std@@QEAA@AEBV01@@Z ENDP			; std::exception::exception
_TEXT	ENDS
; Function compile flags: /Odtp /RTCsu /ZI
;	COMDAT ??0exception@std@@QEAA@QEBD@Z
_TEXT	SEGMENT
_InitData$ = 8
__$ArrayPad$ = 232
this$ = 272
_Message$ = 280
??0exception@std@@QEAA@QEBD@Z PROC			; std::exception::exception, COMDAT
; File C:\Program Files\Microsoft Visual Studio\2022\Community\VC\Tools\MSVC\14.32.31326\include\vcruntime_exception.h
; Line 59
$LN3:
	mov	QWORD PTR [rsp+16], rdx
	mov	QWORD PTR [rsp+8], rcx
	push	rbp
	push	rdi
	sub	rsp, 280				; 00000118H
	lea	rbp, QWORD PTR [rsp+32]
	lea	rdi, QWORD PTR [rsp+32]
	mov	ecx, 14
	mov	eax, -858993460				; ccccccccH
	rep stosd
	mov	rcx, QWORD PTR [rsp+312]
	mov	rax, QWORD PTR __security_cookie
	xor	rax, rbp
	mov	QWORD PTR __$ArrayPad$[rbp], rax
	lea	rcx, OFFSET FLAT:__6A8FA247_vcruntime_exception@h
	call	__CheckForDebuggerJustMyCode
	mov	rax, QWORD PTR this$[rbp]
	lea	rcx, OFFSET FLAT:??_7exception@std@@6B@
	mov	QWORD PTR [rax], rcx
; Line 58
	mov	rax, QWORD PTR this$[rbp]
	add	rax, 8
	mov	rdi, rax
	xor	eax, eax
	mov	ecx, 16
	rep stosb
; Line 60
	mov	rax, QWORD PTR _Message$[rbp]
	mov	QWORD PTR _InitData$[rbp], rax
	mov	BYTE PTR _InitData$[rbp+8], 1
; Line 61
	mov	rax, QWORD PTR this$[rbp]
	add	rax, 8
	mov	rdx, rax
	lea	rcx, QWORD PTR _InitData$[rbp]
	call	__std_exception_copy
; Line 62
	mov	rax, QWORD PTR this$[rbp]
	mov	rdi, rax
	lea	rcx, QWORD PTR [rbp-32]
	lea	rdx, OFFSET FLAT:??0exception@std@@QEAA@QEBD@Z$rtcFrameData
	call	_RTC_CheckStackVars
	mov	rax, rdi
	mov	rcx, QWORD PTR __$ArrayPad$[rbp]
	xor	rcx, rbp
	call	__security_check_cookie
	lea	rsp, QWORD PTR [rbp+248]
	pop	rdi
	pop	rbp
	ret	0
??0exception@std@@QEAA@QEBD@Z ENDP			; std::exception::exception
_TEXT	ENDS
END
