; Listing generated by Microsoft (R) Optimizing Compiler Version 19.32.31332.0 

include listing.inc

INCLUDELIB MSVCRTD
INCLUDELIB OLDNAMES

msvcjmc	SEGMENT
__29CF54F3_concurrencysal@h DB 01H
__413FEA08_sal@h DB 01H
__6972C38F_vadefs@h DB 01H
__E6B4F19D_vcruntime@h DB 01H
__1B0272D9_corecrt@h DB 01H
__13F5961F_stddef@h DB 01H
__117FADE9_stdint@h DB 01H
__6F45C614_vk_platform@h DB 01H
__5FA1F762_vulkan_core@h DB 01H
__AD247E74_vulkan@h DB 01H
__654A365E_cowdef@hpp DB 01H
__0269B480_xkeycheck@h DB 01H
__4A835745_yvals_core@h DB 01H
__AEFC1A78_intrin0@inl@h DB 01H
__7DEB4A93_intrin0@h DB 01H
__47E06DF5_isa_availability@h DB 01H
__B9985323_float@h DB 01H
__489E80C8_cfloat DB 01H
__AF0983D6_limits@h DB 01H
__919AC1A1_climits DB 01H
__44420885_corecrt_stdio_config@h DB 01H
__AB601D8D_corecrt_wstdio@h DB 01H
__C1EC35D3_stdio@h DB 01H
__3BDA4B4F_cstdio DB 01H
__61CC25A1_errno@h DB 01H
__946B6786_vcruntime_string@h DB 01H
__E4C945B4_corecrt_memcpy_s@h DB 01H
__EF1F6BBA_corecrt_wconio@h DB 01H
__74484FB3_corecrt_wctype@h DB 01H
__3D1D430C_corecrt_wdirect@h DB 01H
__8ECB7138_corecrt_share@h DB 01H
__DB7FEBA6_corecrt_wio@h DB 01H
__9A9F0068_corecrt_wprocess@h DB 01H
__E2E33A61_corecrt_wstdlib@h DB 01H
__6490AEC5_corecrt_wstring@h DB 01H
__369A9BC3_corecrt_wtime@h DB 01H
__CE789B9D_types@h DB 01H
__9901C817_stat@h DB 01H
__3FCAD62E_wchar@h DB 01H
__A1519D1C_cwchar DB 01H
__197E5946_xtr1common DB 01H
__B0BE39FE_cstddef DB 01H
__BB16330F_corecrt_math@h DB 01H
__3BF2A406_math@h DB 01H
__45DED006_corecrt_malloc@h DB 01H
__FD6DBD68_corecrt_search@h DB 01H
__6E5ACABA_stdlib@h DB 01H
__1575E353_cstdlib DB 01H
__330922C0_initializer_list DB 01H
__D567F1CA_xstddef DB 01H
__2E78CDAC_limits DB 01H
__A82B022E_cstdint DB 01H
__4CC0724B_type_traits DB 01H
__3819D017_bit DB 01H
__68FABE09_vcruntime_new@h DB 01H
__F90F3CDE_concepts DB 01H
__EC60D9E2_compare DB 01H
__6261A715_vcruntime_new_debug@h DB 01H
__935DC21B_crtdbg@h DB 01H
__64C6F398_crtdefs@h DB 01H
__E2706B0F_use_ansi@h DB 01H
__A33555EC_yvals@h DB 01H
__8EAFF484_corecrt_memory@h DB 01H
__E8295E1E_string@h DB 01H
__59E74BB3_cstring DB 01H
__227866D8_utility DB 01H
__7DA7D514_xutility DB 01H
__85A6FDFE_tuple DB 01H
__C70F9156_Instance@hpp DB 01H
__0ED14FEE_winpackagefamily@h DB 01H
__F92EF742_winapifamily@h DB 01H
__B064E8EE_gl@h DB 01H
__D81DEF64_glfw3@h DB 01H
__125A2BD9_array DB 01H
__FA77ED4C_malloc@h DB 01H
__89766DA4_corecrt_terminate@h DB 01H
__1CC3922D_eh@h DB 01H
__6A8FA247_vcruntime_exception@h DB 01H
__AC999D0E_exception DB 01H
__E291182A_iosfwd DB 01H
__04BF37C5_new DB 01H
__A69511D8_xatomic@h DB 01H
__48ED051B_xmemory DB 01H
__01FC9A31_xpolymorphic_allocator@h DB 01H
__3C3E8387_xstring DB 01H
__25D7A753_stdexcept DB 01H
__CB5A7EB7_Instance@cpp DB 01H
msvcjmc	ENDS
PUBLIC	??0Instance@cow@@QEAA@XZ			; cow::Instance::Instance
PUBLIC	??1Instance@cow@@QEAA@XZ			; cow::Instance::~Instance
PUBLIC	?enumeratePhysicalDevices@Instance@cow@@QEBA?AV?$tuple@IPEAPEAUVkPhysicalDevice_T@@@std@@XZ ; cow::Instance::enumeratePhysicalDevices
PUBLIC	?enumeratePhysicalDeviceGroups@Instance@cow@@QEBA?AV?$tuple@IPEAUVkPhysicalDeviceGroupProperties@@@std@@XZ ; cow::Instance::enumeratePhysicalDeviceGroups
PUBLIC	?enumerateExtensionProperties@Instance@cow@@SA?AV?$tuple@IPEAUVkExtensionProperties@@@std@@XZ ; cow::Instance::enumerateExtensionProperties
PUBLIC	??0exception@std@@QEAA@QEBD@Z			; std::exception::exception
PUBLIC	??0exception@std@@QEAA@AEBV01@@Z		; std::exception::exception
PUBLIC	??1exception@std@@UEAA@XZ			; std::exception::~exception
PUBLIC	?what@exception@std@@UEBAPEBDXZ			; std::exception::what
PUBLIC	??_Gexception@std@@UEAAPEAXI@Z			; std::exception::`scalar deleting destructor'
PUBLIC	??0runtime_error@std@@QEAA@PEBD@Z		; std::runtime_error::runtime_error
PUBLIC	??1runtime_error@std@@UEAA@XZ			; std::runtime_error::~runtime_error
PUBLIC	??0runtime_error@std@@QEAA@AEBV01@@Z		; std::runtime_error::runtime_error
PUBLIC	??_Gruntime_error@std@@UEAAPEAXI@Z		; std::runtime_error::`scalar deleting destructor'
PUBLIC	?size@?$array@PEBD$00@std@@QEBA_KXZ		; std::array<char const *,1>::size
PUBLIC	?data@?$array@PEBD$00@std@@QEAAPEAPEBDXZ	; std::array<char const *,1>::data
PUBLIC	??$make_pair@H$$T@std@@YA?AU?$pair@H$$T@0@$$QEAH$$QEA$$T@Z ; std::make_pair<int,std::nullptr_t>
PUBLIC	??$?0H$$T$0A@@?$tuple@IPEAPEAUVkPhysicalDevice_T@@@std@@QEAA@$$QEAU?$pair@H$$T@1@@Z ; std::tuple<unsigned int,VkPhysicalDevice_T * *>::tuple<unsigned int,VkPhysicalDevice_T * *><int,std::nullptr_t,0>
PUBLIC	??$?0AEAIAEAPEAPEAUVkPhysicalDevice_T@@$0A@@?$tuple@IPEAPEAUVkPhysicalDevice_T@@@std@@QEAA@AEAIAEAPEAPEAUVkPhysicalDevice_T@@@Z ; std::tuple<unsigned int,VkPhysicalDevice_T * *>::tuple<unsigned int,VkPhysicalDevice_T * *><unsigned int &,VkPhysicalDevice_T * * &,0>
PUBLIC	??$?0H$$T$0A@@?$tuple@IPEAUVkPhysicalDeviceGroupProperties@@@std@@QEAA@$$QEAU?$pair@H$$T@1@@Z ; std::tuple<unsigned int,VkPhysicalDeviceGroupProperties *>::tuple<unsigned int,VkPhysicalDeviceGroupProperties *><int,std::nullptr_t,0>
PUBLIC	??$?0AEAIAEAPEAUVkPhysicalDeviceGroupProperties@@$0A@@?$tuple@IPEAUVkPhysicalDeviceGroupProperties@@@std@@QEAA@AEAIAEAPEAUVkPhysicalDeviceGroupProperties@@@Z ; std::tuple<unsigned int,VkPhysicalDeviceGroupProperties *>::tuple<unsigned int,VkPhysicalDeviceGroupProperties *><unsigned int &,VkPhysicalDeviceGroupProperties * &,0>
PUBLIC	??$?0H$$T$0A@@?$tuple@IPEAUVkExtensionProperties@@@std@@QEAA@$$QEAU?$pair@H$$T@1@@Z ; std::tuple<unsigned int,VkExtensionProperties *>::tuple<unsigned int,VkExtensionProperties *><int,std::nullptr_t,0>
PUBLIC	??$?0AEAIAEAPEAUVkExtensionProperties@@$0A@@?$tuple@IPEAUVkExtensionProperties@@@std@@QEAA@AEAIAEAPEAUVkExtensionProperties@@@Z ; std::tuple<unsigned int,VkExtensionProperties *>::tuple<unsigned int,VkExtensionProperties *><unsigned int &,VkExtensionProperties * &,0>
PUBLIC	??$forward@H@std@@YA$$QEAHAEAH@Z		; std::forward<int>
PUBLIC	??$forward@$$T@std@@YA$$QEA$$TAEA$$T@Z		; std::forward<std::nullptr_t>
PUBLIC	??$?0H$$T$0A@@?$pair@H$$T@std@@QEAA@$$QEAH$$QEA$$T@Z ; std::pair<int,std::nullptr_t>::pair<int,std::nullptr_t><int,std::nullptr_t,0>
PUBLIC	??$move@AEAU?$pair@H$$T@std@@@std@@YA$$QEAU?$pair@H$$T@0@AEAU10@@Z ; std::move<std::pair<int,std::nullptr_t> &>
PUBLIC	??$?0U_Unpack_tuple_t@std@@U?$pair@H$$T@1@$0A@@?$tuple@IPEAPEAUVkPhysicalDevice_T@@@std@@QEAA@U_Unpack_tuple_t@1@$$QEAU?$pair@H$$T@1@@Z ; std::tuple<unsigned int,VkPhysicalDevice_T * *>::tuple<unsigned int,VkPhysicalDevice_T * *><std::_Unpack_tuple_t,std::pair<int,std::nullptr_t>,0>
PUBLIC	??$forward@AEAI@std@@YAAEAIAEAI@Z		; std::forward<unsigned int &>
PUBLIC	??$forward@AEAPEAPEAUVkPhysicalDevice_T@@@std@@YAAEAPEAPEAUVkPhysicalDevice_T@@AEAPEAPEAU1@@Z ; std::forward<VkPhysicalDevice_T * * &>
PUBLIC	??$?0U_Exact_args_t@std@@AEAIAEAPEAPEAUVkPhysicalDevice_T@@$0A@@?$tuple@IPEAPEAUVkPhysicalDevice_T@@@std@@QEAA@U_Exact_args_t@1@AEAIAEAPEAPEAUVkPhysicalDevice_T@@@Z ; std::tuple<unsigned int,VkPhysicalDevice_T * *>::tuple<unsigned int,VkPhysicalDevice_T * *><std::_Exact_args_t,unsigned int &,VkPhysicalDevice_T * * &,0>
PUBLIC	??$?0U_Unpack_tuple_t@std@@U?$pair@H$$T@1@$0A@@?$tuple@IPEAUVkPhysicalDeviceGroupProperties@@@std@@QEAA@U_Unpack_tuple_t@1@$$QEAU?$pair@H$$T@1@@Z ; std::tuple<unsigned int,VkPhysicalDeviceGroupProperties *>::tuple<unsigned int,VkPhysicalDeviceGroupProperties *><std::_Unpack_tuple_t,std::pair<int,std::nullptr_t>,0>
PUBLIC	??$forward@AEAPEAUVkPhysicalDeviceGroupProperties@@@std@@YAAEAPEAUVkPhysicalDeviceGroupProperties@@AEAPEAU1@@Z ; std::forward<VkPhysicalDeviceGroupProperties * &>
PUBLIC	??$?0U_Exact_args_t@std@@AEAIAEAPEAUVkPhysicalDeviceGroupProperties@@$0A@@?$tuple@IPEAUVkPhysicalDeviceGroupProperties@@@std@@QEAA@U_Exact_args_t@1@AEAIAEAPEAUVkPhysicalDeviceGroupProperties@@@Z ; std::tuple<unsigned int,VkPhysicalDeviceGroupProperties *>::tuple<unsigned int,VkPhysicalDeviceGroupProperties *><std::_Exact_args_t,unsigned int &,VkPhysicalDeviceGroupProperties * &,0>
PUBLIC	??$?0U_Unpack_tuple_t@std@@U?$pair@H$$T@1@$0A@@?$tuple@IPEAUVkExtensionProperties@@@std@@QEAA@U_Unpack_tuple_t@1@$$QEAU?$pair@H$$T@1@@Z ; std::tuple<unsigned int,VkExtensionProperties *>::tuple<unsigned int,VkExtensionProperties *><std::_Unpack_tuple_t,std::pair<int,std::nullptr_t>,0>
PUBLIC	??$forward@AEAPEAUVkExtensionProperties@@@std@@YAAEAPEAUVkExtensionProperties@@AEAPEAU1@@Z ; std::forward<VkExtensionProperties * &>
PUBLIC	??$?0U_Exact_args_t@std@@AEAIAEAPEAUVkExtensionProperties@@$0A@@?$tuple@IPEAUVkExtensionProperties@@@std@@QEAA@U_Exact_args_t@1@AEAIAEAPEAUVkExtensionProperties@@@Z ; std::tuple<unsigned int,VkExtensionProperties *>::tuple<unsigned int,VkExtensionProperties *><std::_Exact_args_t,unsigned int &,VkExtensionProperties * &,0>
PUBLIC	??$forward@U?$pair@H$$T@std@@@std@@YA$$QEAU?$pair@H$$T@0@AEAU10@@Z ; std::forward<std::pair<int,std::nullptr_t> >
PUBLIC	??$?0U_Unpack_tuple_t@std@@U?$pair@H$$T@1@$0A@$00$0A@@?$tuple@IPEAPEAUVkPhysicalDevice_T@@@std@@QEAA@U_Unpack_tuple_t@1@$$QEAU?$pair@H$$T@1@U?$integer_sequence@_K$0A@$00@1@@Z ; std::tuple<unsigned int,VkPhysicalDevice_T * *>::tuple<unsigned int,VkPhysicalDevice_T * *><std::_Unpack_tuple_t,std::pair<int,std::nullptr_t>,0,1,0>
PUBLIC	??$?0U_Exact_args_t@std@@AEAPEAPEAUVkPhysicalDevice_T@@$$V$0A@@?$tuple@PEAPEAUVkPhysicalDevice_T@@@std@@QEAA@U_Exact_args_t@1@AEAPEAPEAUVkPhysicalDevice_T@@@Z ; std::tuple<VkPhysicalDevice_T * *>::tuple<VkPhysicalDevice_T * *><std::_Exact_args_t,VkPhysicalDevice_T * * &,0>
PUBLIC	??$?0AEAI@?$_Tuple_val@I@std@@QEAA@AEAI@Z	; std::_Tuple_val<unsigned int>::_Tuple_val<unsigned int><unsigned int &>
PUBLIC	??$?0U_Unpack_tuple_t@std@@U?$pair@H$$T@1@$0A@$00$0A@@?$tuple@IPEAUVkPhysicalDeviceGroupProperties@@@std@@QEAA@U_Unpack_tuple_t@1@$$QEAU?$pair@H$$T@1@U?$integer_sequence@_K$0A@$00@1@@Z ; std::tuple<unsigned int,VkPhysicalDeviceGroupProperties *>::tuple<unsigned int,VkPhysicalDeviceGroupProperties *><std::_Unpack_tuple_t,std::pair<int,std::nullptr_t>,0,1,0>
PUBLIC	??$?0U_Exact_args_t@std@@AEAPEAUVkPhysicalDeviceGroupProperties@@$$V$0A@@?$tuple@PEAUVkPhysicalDeviceGroupProperties@@@std@@QEAA@U_Exact_args_t@1@AEAPEAUVkPhysicalDeviceGroupProperties@@@Z ; std::tuple<VkPhysicalDeviceGroupProperties *>::tuple<VkPhysicalDeviceGroupProperties *><std::_Exact_args_t,VkPhysicalDeviceGroupProperties * &,0>
PUBLIC	??$?0U_Unpack_tuple_t@std@@U?$pair@H$$T@1@$0A@$00$0A@@?$tuple@IPEAUVkExtensionProperties@@@std@@QEAA@U_Unpack_tuple_t@1@$$QEAU?$pair@H$$T@1@U?$integer_sequence@_K$0A@$00@1@@Z ; std::tuple<unsigned int,VkExtensionProperties *>::tuple<unsigned int,VkExtensionProperties *><std::_Unpack_tuple_t,std::pair<int,std::nullptr_t>,0,1,0>
PUBLIC	??$?0U_Exact_args_t@std@@AEAPEAUVkExtensionProperties@@$$V$0A@@?$tuple@PEAUVkExtensionProperties@@@std@@QEAA@U_Exact_args_t@1@AEAPEAUVkExtensionProperties@@@Z ; std::tuple<VkExtensionProperties *>::tuple<VkExtensionProperties *><std::_Exact_args_t,VkExtensionProperties * &,0>
PUBLIC	??$get@$0A@H$$T@std@@YA$$QEAH$$QEAU?$pair@H$$T@0@@Z ; std::get<0,int,std::nullptr_t>
PUBLIC	??$get@$0A@H$$T@std@@YAAEAHAEAU?$pair@H$$T@0@@Z	; std::get<0,int,std::nullptr_t>
PUBLIC	??$get@$00H$$T@std@@YA$$QEA$$T$$QEAU?$pair@H$$T@0@@Z ; std::get<1,int,std::nullptr_t>
PUBLIC	??$get@$00H$$T@std@@YAAEA$$TAEAU?$pair@H$$T@0@@Z ; std::get<1,int,std::nullptr_t>
PUBLIC	??$?0U_Exact_args_t@std@@H$$T$0A@@?$tuple@IPEAPEAUVkPhysicalDevice_T@@@std@@QEAA@U_Exact_args_t@1@$$QEAH$$QEA$$T@Z ; std::tuple<unsigned int,VkPhysicalDevice_T * *>::tuple<unsigned int,VkPhysicalDevice_T * *><std::_Exact_args_t,int,std::nullptr_t,0>
PUBLIC	??$?0U_Exact_args_t@std@@$0A@@?$tuple@$$V@std@@QEAA@U_Exact_args_t@1@@Z ; std::tuple<>::tuple<><std::_Exact_args_t,0>
PUBLIC	??$?0AEAPEAPEAUVkPhysicalDevice_T@@@?$_Tuple_val@PEAPEAUVkPhysicalDevice_T@@@std@@QEAA@AEAPEAPEAUVkPhysicalDevice_T@@@Z ; std::_Tuple_val<VkPhysicalDevice_T * *>::_Tuple_val<VkPhysicalDevice_T * *><VkPhysicalDevice_T * * &>
PUBLIC	??$?0U_Exact_args_t@std@@H$$T$0A@@?$tuple@IPEAUVkPhysicalDeviceGroupProperties@@@std@@QEAA@U_Exact_args_t@1@$$QEAH$$QEA$$T@Z ; std::tuple<unsigned int,VkPhysicalDeviceGroupProperties *>::tuple<unsigned int,VkPhysicalDeviceGroupProperties *><std::_Exact_args_t,int,std::nullptr_t,0>
PUBLIC	??$?0AEAPEAUVkPhysicalDeviceGroupProperties@@@?$_Tuple_val@PEAUVkPhysicalDeviceGroupProperties@@@std@@QEAA@AEAPEAUVkPhysicalDeviceGroupProperties@@@Z ; std::_Tuple_val<VkPhysicalDeviceGroupProperties *>::_Tuple_val<VkPhysicalDeviceGroupProperties *><VkPhysicalDeviceGroupProperties * &>
PUBLIC	??$?0U_Exact_args_t@std@@H$$T$0A@@?$tuple@IPEAUVkExtensionProperties@@@std@@QEAA@U_Exact_args_t@1@$$QEAH$$QEA$$T@Z ; std::tuple<unsigned int,VkExtensionProperties *>::tuple<unsigned int,VkExtensionProperties *><std::_Exact_args_t,int,std::nullptr_t,0>
PUBLIC	??$?0AEAPEAUVkExtensionProperties@@@?$_Tuple_val@PEAUVkExtensionProperties@@@std@@QEAA@AEAPEAUVkExtensionProperties@@@Z ; std::_Tuple_val<VkExtensionProperties *>::_Tuple_val<VkExtensionProperties *><VkExtensionProperties * &>
PUBLIC	??$forward@$$QEAH@std@@YA$$QEAHAEAH@Z		; std::forward<int &&>
PUBLIC	??$forward@$$QEA$$T@std@@YA$$QEA$$TAEA$$T@Z	; std::forward<std::nullptr_t &&>
PUBLIC	??$?0U_Exact_args_t@std@@$$T$$V$0A@@?$tuple@PEAPEAUVkPhysicalDevice_T@@@std@@QEAA@U_Exact_args_t@1@$$QEA$$T@Z ; std::tuple<VkPhysicalDevice_T * *>::tuple<VkPhysicalDevice_T * *><std::_Exact_args_t,std::nullptr_t,0>
PUBLIC	??$?0H@?$_Tuple_val@I@std@@QEAA@$$QEAH@Z	; std::_Tuple_val<unsigned int>::_Tuple_val<unsigned int><int>
PUBLIC	??$?0U_Exact_args_t@std@@$$T$$V$0A@@?$tuple@PEAUVkPhysicalDeviceGroupProperties@@@std@@QEAA@U_Exact_args_t@1@$$QEA$$T@Z ; std::tuple<VkPhysicalDeviceGroupProperties *>::tuple<VkPhysicalDeviceGroupProperties *><std::_Exact_args_t,std::nullptr_t,0>
PUBLIC	??$?0U_Exact_args_t@std@@$$T$$V$0A@@?$tuple@PEAUVkExtensionProperties@@@std@@QEAA@U_Exact_args_t@1@$$QEA$$T@Z ; std::tuple<VkExtensionProperties *>::tuple<VkExtensionProperties *><std::_Exact_args_t,std::nullptr_t,0>
PUBLIC	??$_Pair_get@AEAHU?$pair@H$$T@std@@@std@@YAAEAHAEAU?$pair@H$$T@0@U?$integral_constant@_K$0A@@0@@Z ; std::_Pair_get<int &,std::pair<int,std::nullptr_t> >
PUBLIC	??$_Pair_get@AEA$$TU?$pair@H$$T@std@@@std@@YAAEA$$TAEAU?$pair@H$$T@0@U?$integral_constant@_K$00@0@@Z ; std::_Pair_get<std::nullptr_t &,std::pair<int,std::nullptr_t> >
PUBLIC	??$?0$$T@?$_Tuple_val@PEAPEAUVkPhysicalDevice_T@@@std@@QEAA@$$QEA$$T@Z ; std::_Tuple_val<VkPhysicalDevice_T * *>::_Tuple_val<VkPhysicalDevice_T * *><std::nullptr_t>
PUBLIC	??$?0$$T@?$_Tuple_val@PEAUVkPhysicalDeviceGroupProperties@@@std@@QEAA@$$QEA$$T@Z ; std::_Tuple_val<VkPhysicalDeviceGroupProperties *>::_Tuple_val<VkPhysicalDeviceGroupProperties *><std::nullptr_t>
PUBLIC	??$?0$$T@?$_Tuple_val@PEAUVkExtensionProperties@@@std@@QEAA@$$QEA$$T@Z ; std::_Tuple_val<VkExtensionProperties *>::_Tuple_val<VkExtensionProperties *><std::nullptr_t>
PUBLIC	__JustMyCode_Default
PUBLIC	??_7exception@std@@6B@				; std::exception::`vftable'
PUBLIC	??_C@_0BC@EOODALEL@Unknown?5exception@		; `string'
PUBLIC	??_R0?AVexception@std@@@8			; std::exception `RTTI Type Descriptor'
PUBLIC	_CT??_R0?AVexception@std@@@8??0exception@std@@QEAA@AEBV01@@Z24
PUBLIC	??_7runtime_error@std@@6B@			; std::runtime_error::`vftable'
PUBLIC	??_R0?AVruntime_error@std@@@8			; std::runtime_error `RTTI Type Descriptor'
PUBLIC	_CT??_R0?AVruntime_error@std@@@8??0runtime_error@std@@QEAA@AEBV01@@Z24
PUBLIC	??_C@_0BM@LGHMGEMH@VK_LAYER_KHRONOS_validation@	; `string'
PUBLIC	??_C@_06MNAPODND@vk_app@			; `string'
PUBLIC	??_C@_03HPADHAHE@N?1A@				; `string'
PUBLIC	_TI2?AVruntime_error@std@@
PUBLIC	_CTA2?AVruntime_error@std@@
PUBLIC	??_C@_0BL@KEOADLBH@couldn?8t?5create?5VkInstance@ ; `string'
PUBLIC	??_R4exception@std@@6B@				; std::exception::`RTTI Complete Object Locator'
PUBLIC	??_R3exception@std@@8				; std::exception::`RTTI Class Hierarchy Descriptor'
PUBLIC	??_R2exception@std@@8				; std::exception::`RTTI Base Class Array'
PUBLIC	??_R1A@?0A@EA@exception@std@@8			; std::exception::`RTTI Base Class Descriptor at (0,-1,0,64)'
PUBLIC	??_R4runtime_error@std@@6B@			; std::runtime_error::`RTTI Complete Object Locator'
PUBLIC	??_R3runtime_error@std@@8			; std::runtime_error::`RTTI Class Hierarchy Descriptor'
PUBLIC	??_R2runtime_error@std@@8			; std::runtime_error::`RTTI Base Class Array'
PUBLIC	??_R1A@?0A@EA@runtime_error@std@@8		; std::runtime_error::`RTTI Base Class Descriptor at (0,-1,0,64)'
EXTRN	??3@YAXPEAX_K@Z:PROC				; operator delete
EXTRN	vkCreateInstance:PROC
EXTRN	vkDestroyInstance:PROC
EXTRN	vkEnumeratePhysicalDevices:PROC
EXTRN	vkEnumerateInstanceExtensionProperties:PROC
EXTRN	vkEnumeratePhysicalDeviceGroups:PROC
EXTRN	__imp_calloc:PROC
EXTRN	glfwGetRequiredInstanceExtensions:PROC
EXTRN	__std_exception_copy:PROC
EXTRN	__std_exception_destroy:PROC
EXTRN	??_Eexception@std@@UEAAPEAXI@Z:PROC		; std::exception::`vector deleting destructor'
EXTRN	??_Eruntime_error@std@@UEAAPEAXI@Z:PROC		; std::runtime_error::`vector deleting destructor'
EXTRN	_CxxThrowException:PROC
EXTRN	_RTC_CheckStackVars:PROC
EXTRN	_RTC_InitBase:PROC
EXTRN	_RTC_Shutdown:PROC
EXTRN	__CheckForDebuggerJustMyCode:PROC
EXTRN	__CxxFrameHandler4:PROC
EXTRN	__GSHandlerCheck:PROC
EXTRN	__security_check_cookie:PROC
EXTRN	??_7type_info@@6B@:BYTE				; type_info::`vftable'
EXTRN	__security_cookie:QWORD
;	COMDAT pdata
pdata	SEGMENT
$pdata$??0Instance@cow@@QEAA@XZ DD imagerel $LN6
	DD	imagerel $LN6+426
	DD	imagerel $unwind$??0Instance@cow@@QEAA@XZ
pdata	ENDS
;	COMDAT pdata
pdata	SEGMENT
$pdata$??1Instance@cow@@QEAA@XZ DD imagerel $LN3
	DD	imagerel $LN3+58
	DD	imagerel $unwind$??1Instance@cow@@QEAA@XZ
pdata	ENDS
;	COMDAT pdata
pdata	SEGMENT
$pdata$?enumeratePhysicalDevices@Instance@cow@@QEBA?AV?$tuple@IPEAPEAUVkPhysicalDevice_T@@@std@@XZ DD imagerel $LN4
	DD	imagerel $LN4+294
	DD	imagerel $unwind$?enumeratePhysicalDevices@Instance@cow@@QEBA?AV?$tuple@IPEAPEAUVkPhysicalDevice_T@@@std@@XZ
pdata	ENDS
;	COMDAT pdata
pdata	SEGMENT
$pdata$?enumeratePhysicalDeviceGroups@Instance@cow@@QEBA?AV?$tuple@IPEAUVkPhysicalDeviceGroupProperties@@@std@@XZ DD imagerel $LN4
	DD	imagerel $LN4+294
	DD	imagerel $unwind$?enumeratePhysicalDeviceGroups@Instance@cow@@QEBA?AV?$tuple@IPEAUVkPhysicalDeviceGroupProperties@@@std@@XZ
pdata	ENDS
;	COMDAT pdata
pdata	SEGMENT
$pdata$?enumerateExtensionProperties@Instance@cow@@SA?AV?$tuple@IPEAUVkExtensionProperties@@@std@@XZ DD imagerel $LN4
	DD	imagerel $LN4+273
	DD	imagerel $unwind$?enumerateExtensionProperties@Instance@cow@@SA?AV?$tuple@IPEAUVkExtensionProperties@@@std@@XZ
pdata	ENDS
;	COMDAT pdata
pdata	SEGMENT
$pdata$??0exception@std@@QEAA@QEBD@Z DD imagerel $LN3
	DD	imagerel $LN3+210
	DD	imagerel $unwind$??0exception@std@@QEAA@QEBD@Z
pdata	ENDS
;	COMDAT pdata
pdata	SEGMENT
$pdata$??0exception@std@@QEAA@AEBV01@@Z DD imagerel $LN3
	DD	imagerel $LN3+123
	DD	imagerel $unwind$??0exception@std@@QEAA@AEBV01@@Z
pdata	ENDS
;	COMDAT pdata
pdata	SEGMENT
$pdata$??1exception@std@@UEAA@XZ DD imagerel $LN3
	DD	imagerel $LN3+77
	DD	imagerel $unwind$??1exception@std@@UEAA@XZ
pdata	ENDS
;	COMDAT pdata
pdata	SEGMENT
$pdata$?what@exception@std@@UEBAPEBDXZ DD imagerel $LN5
	DD	imagerel $LN5+96
	DD	imagerel $unwind$?what@exception@std@@UEBAPEBDXZ
pdata	ENDS
;	COMDAT pdata
pdata	SEGMENT
$pdata$??_Gexception@std@@UEAAPEAXI@Z DD imagerel $LN4
	DD	imagerel $LN4+82
	DD	imagerel $unwind$??_Gexception@std@@UEAAPEAXI@Z
pdata	ENDS
;	COMDAT pdata
pdata	SEGMENT
$pdata$??0runtime_error@std@@QEAA@PEBD@Z DD imagerel $LN4
	DD	imagerel $LN4+89
	DD	imagerel $unwind$??0runtime_error@std@@QEAA@PEBD@Z
pdata	ENDS
;	COMDAT pdata
pdata	SEGMENT
$pdata$??1runtime_error@std@@UEAA@XZ DD imagerel $LN3
	DD	imagerel $LN3+41
	DD	imagerel $unwind$??1runtime_error@std@@UEAA@XZ
pdata	ENDS
;	COMDAT pdata
pdata	SEGMENT
$pdata$??0runtime_error@std@@QEAA@AEBV01@@Z DD imagerel $LN3
	DD	imagerel $LN3+77
	DD	imagerel $unwind$??0runtime_error@std@@QEAA@AEBV01@@Z
pdata	ENDS
;	COMDAT pdata
pdata	SEGMENT
$pdata$??_Gruntime_error@std@@UEAAPEAXI@Z DD imagerel $LN4
	DD	imagerel $LN4+82
	DD	imagerel $unwind$??_Gruntime_error@std@@UEAAPEAXI@Z
pdata	ENDS
;	COMDAT pdata
pdata	SEGMENT
$pdata$?size@?$array@PEBD$00@std@@QEBA_KXZ DD imagerel $LN3
	DD	imagerel $LN3+46
	DD	imagerel $unwind$?size@?$array@PEBD$00@std@@QEBA_KXZ
pdata	ENDS
;	COMDAT pdata
pdata	SEGMENT
$pdata$?data@?$array@PEBD$00@std@@QEAAPEAPEBDXZ DD imagerel $LN3
	DD	imagerel $LN3+48
	DD	imagerel $unwind$?data@?$array@PEBD$00@std@@QEAAPEAPEBDXZ
pdata	ENDS
;	COMDAT pdata
pdata	SEGMENT
$pdata$??$make_pair@H$$T@std@@YA?AU?$pair@H$$T@0@$$QEAH$$QEA$$T@Z DD imagerel $LN3
	DD	imagerel $LN3+122
	DD	imagerel $unwind$??$make_pair@H$$T@std@@YA?AU?$pair@H$$T@0@$$QEAH$$QEA$$T@Z
pdata	ENDS
;	COMDAT pdata
pdata	SEGMENT
$pdata$??$?0H$$T$0A@@?$tuple@IPEAPEAUVkPhysicalDevice_T@@@std@@QEAA@$$QEAU?$pair@H$$T@1@@Z DD imagerel $LN3
	DD	imagerel $LN3+111
	DD	imagerel $unwind$??$?0H$$T$0A@@?$tuple@IPEAPEAUVkPhysicalDevice_T@@@std@@QEAA@$$QEAU?$pair@H$$T@1@@Z
pdata	ENDS
;	COMDAT pdata
pdata	SEGMENT
$pdata$??$?0AEAIAEAPEAPEAUVkPhysicalDevice_T@@$0A@@?$tuple@IPEAPEAUVkPhysicalDevice_T@@@std@@QEAA@AEAIAEAPEAPEAUVkPhysicalDevice_T@@@Z DD imagerel $LN3
	DD	imagerel $LN3+155
	DD	imagerel $unwind$??$?0AEAIAEAPEAPEAUVkPhysicalDevice_T@@$0A@@?$tuple@IPEAPEAUVkPhysicalDevice_T@@@std@@QEAA@AEAIAEAPEAPEAUVkPhysicalDevice_T@@@Z
pdata	ENDS
;	COMDAT pdata
pdata	SEGMENT
$pdata$??$?0H$$T$0A@@?$tuple@IPEAUVkPhysicalDeviceGroupProperties@@@std@@QEAA@$$QEAU?$pair@H$$T@1@@Z DD imagerel $LN3
	DD	imagerel $LN3+111
	DD	imagerel $unwind$??$?0H$$T$0A@@?$tuple@IPEAUVkPhysicalDeviceGroupProperties@@@std@@QEAA@$$QEAU?$pair@H$$T@1@@Z
pdata	ENDS
;	COMDAT pdata
pdata	SEGMENT
$pdata$??$?0AEAIAEAPEAUVkPhysicalDeviceGroupProperties@@$0A@@?$tuple@IPEAUVkPhysicalDeviceGroupProperties@@@std@@QEAA@AEAIAEAPEAUVkPhysicalDeviceGroupProperties@@@Z DD imagerel $LN3
	DD	imagerel $LN3+155
	DD	imagerel $unwind$??$?0AEAIAEAPEAUVkPhysicalDeviceGroupProperties@@$0A@@?$tuple@IPEAUVkPhysicalDeviceGroupProperties@@@std@@QEAA@AEAIAEAPEAUVkPhysicalDeviceGroupProperties@@@Z
pdata	ENDS
;	COMDAT pdata
pdata	SEGMENT
$pdata$??$?0H$$T$0A@@?$tuple@IPEAUVkExtensionProperties@@@std@@QEAA@$$QEAU?$pair@H$$T@1@@Z DD imagerel $LN3
	DD	imagerel $LN3+111
	DD	imagerel $unwind$??$?0H$$T$0A@@?$tuple@IPEAUVkExtensionProperties@@@std@@QEAA@$$QEAU?$pair@H$$T@1@@Z
pdata	ENDS
;	COMDAT pdata
pdata	SEGMENT
$pdata$??$?0AEAIAEAPEAUVkExtensionProperties@@$0A@@?$tuple@IPEAUVkExtensionProperties@@@std@@QEAA@AEAIAEAPEAUVkExtensionProperties@@@Z DD imagerel $LN3
	DD	imagerel $LN3+155
	DD	imagerel $unwind$??$?0AEAIAEAPEAUVkExtensionProperties@@$0A@@?$tuple@IPEAUVkExtensionProperties@@@std@@QEAA@AEAIAEAPEAUVkExtensionProperties@@@Z
pdata	ENDS
;	COMDAT pdata
pdata	SEGMENT
$pdata$??$forward@H@std@@YA$$QEAHAEAH@Z DD imagerel $LN3
	DD	imagerel $LN3+48
	DD	imagerel $unwind$??$forward@H@std@@YA$$QEAHAEAH@Z
pdata	ENDS
;	COMDAT pdata
pdata	SEGMENT
$pdata$??$forward@$$T@std@@YA$$QEA$$TAEA$$T@Z DD imagerel $LN3
	DD	imagerel $LN3+48
	DD	imagerel $unwind$??$forward@$$T@std@@YA$$QEA$$TAEA$$T@Z
pdata	ENDS
;	COMDAT pdata
pdata	SEGMENT
$pdata$??$?0H$$T$0A@@?$pair@H$$T@std@@QEAA@$$QEAH$$QEA$$T@Z DD imagerel $LN3
	DD	imagerel $LN3+107
	DD	imagerel $unwind$??$?0H$$T$0A@@?$pair@H$$T@std@@QEAA@$$QEAH$$QEA$$T@Z
pdata	ENDS
;	COMDAT pdata
pdata	SEGMENT
$pdata$??$move@AEAU?$pair@H$$T@std@@@std@@YA$$QEAU?$pair@H$$T@0@AEAU10@@Z DD imagerel $LN3
	DD	imagerel $LN3+48
	DD	imagerel $unwind$??$move@AEAU?$pair@H$$T@std@@@std@@YA$$QEAU?$pair@H$$T@0@AEAU10@@Z
pdata	ENDS
;	COMDAT pdata
pdata	SEGMENT
$pdata$??$?0U_Unpack_tuple_t@std@@U?$pair@H$$T@1@$0A@@?$tuple@IPEAPEAUVkPhysicalDevice_T@@@std@@QEAA@U_Unpack_tuple_t@1@$$QEAU?$pair@H$$T@1@@Z DD imagerel $LN3
	DD	imagerel $LN3+155
	DD	imagerel $unwind$??$?0U_Unpack_tuple_t@std@@U?$pair@H$$T@1@$0A@@?$tuple@IPEAPEAUVkPhysicalDevice_T@@@std@@QEAA@U_Unpack_tuple_t@1@$$QEAU?$pair@H$$T@1@@Z
pdata	ENDS
;	COMDAT pdata
pdata	SEGMENT
$pdata$??$forward@AEAI@std@@YAAEAIAEAI@Z DD imagerel $LN3
	DD	imagerel $LN3+48
	DD	imagerel $unwind$??$forward@AEAI@std@@YAAEAIAEAI@Z
pdata	ENDS
;	COMDAT pdata
pdata	SEGMENT
$pdata$??$forward@AEAPEAPEAUVkPhysicalDevice_T@@@std@@YAAEAPEAPEAUVkPhysicalDevice_T@@AEAPEAPEAU1@@Z DD imagerel $LN3
	DD	imagerel $LN3+48
	DD	imagerel $unwind$??$forward@AEAPEAPEAUVkPhysicalDevice_T@@@std@@YAAEAPEAPEAUVkPhysicalDevice_T@@AEAPEAPEAU1@@Z
pdata	ENDS
;	COMDAT pdata
pdata	SEGMENT
$pdata$??$?0U_Exact_args_t@std@@AEAIAEAPEAPEAUVkPhysicalDevice_T@@$0A@@?$tuple@IPEAPEAUVkPhysicalDevice_T@@@std@@QEAA@U_Exact_args_t@1@AEAIAEAPEAPEAUVkPhysicalDevice_T@@@Z DD imagerel $LN3
	DD	imagerel $LN3+165
	DD	imagerel $unwind$??$?0U_Exact_args_t@std@@AEAIAEAPEAPEAUVkPhysicalDevice_T@@$0A@@?$tuple@IPEAPEAUVkPhysicalDevice_T@@@std@@QEAA@U_Exact_args_t@1@AEAIAEAPEAPEAUVkPhysicalDevice_T@@@Z
pdata	ENDS
;	COMDAT pdata
pdata	SEGMENT
$pdata$??$?0U_Unpack_tuple_t@std@@U?$pair@H$$T@1@$0A@@?$tuple@IPEAUVkPhysicalDeviceGroupProperties@@@std@@QEAA@U_Unpack_tuple_t@1@$$QEAU?$pair@H$$T@1@@Z DD imagerel $LN3
	DD	imagerel $LN3+155
	DD	imagerel $unwind$??$?0U_Unpack_tuple_t@std@@U?$pair@H$$T@1@$0A@@?$tuple@IPEAUVkPhysicalDeviceGroupProperties@@@std@@QEAA@U_Unpack_tuple_t@1@$$QEAU?$pair@H$$T@1@@Z
pdata	ENDS
;	COMDAT pdata
pdata	SEGMENT
$pdata$??$forward@AEAPEAUVkPhysicalDeviceGroupProperties@@@std@@YAAEAPEAUVkPhysicalDeviceGroupProperties@@AEAPEAU1@@Z DD imagerel $LN3
	DD	imagerel $LN3+48
	DD	imagerel $unwind$??$forward@AEAPEAUVkPhysicalDeviceGroupProperties@@@std@@YAAEAPEAUVkPhysicalDeviceGroupProperties@@AEAPEAU1@@Z
pdata	ENDS
;	COMDAT pdata
pdata	SEGMENT
$pdata$??$?0U_Exact_args_t@std@@AEAIAEAPEAUVkPhysicalDeviceGroupProperties@@$0A@@?$tuple@IPEAUVkPhysicalDeviceGroupProperties@@@std@@QEAA@U_Exact_args_t@1@AEAIAEAPEAUVkPhysicalDeviceGroupProperties@@@Z DD imagerel $LN3
	DD	imagerel $LN3+165
	DD	imagerel $unwind$??$?0U_Exact_args_t@std@@AEAIAEAPEAUVkPhysicalDeviceGroupProperties@@$0A@@?$tuple@IPEAUVkPhysicalDeviceGroupProperties@@@std@@QEAA@U_Exact_args_t@1@AEAIAEAPEAUVkPhysicalDeviceGroupProperties@@@Z
pdata	ENDS
;	COMDAT pdata
pdata	SEGMENT
$pdata$??$?0U_Unpack_tuple_t@std@@U?$pair@H$$T@1@$0A@@?$tuple@IPEAUVkExtensionProperties@@@std@@QEAA@U_Unpack_tuple_t@1@$$QEAU?$pair@H$$T@1@@Z DD imagerel $LN3
	DD	imagerel $LN3+155
	DD	imagerel $unwind$??$?0U_Unpack_tuple_t@std@@U?$pair@H$$T@1@$0A@@?$tuple@IPEAUVkExtensionProperties@@@std@@QEAA@U_Unpack_tuple_t@1@$$QEAU?$pair@H$$T@1@@Z
pdata	ENDS
;	COMDAT pdata
pdata	SEGMENT
$pdata$??$forward@AEAPEAUVkExtensionProperties@@@std@@YAAEAPEAUVkExtensionProperties@@AEAPEAU1@@Z DD imagerel $LN3
	DD	imagerel $LN3+48
	DD	imagerel $unwind$??$forward@AEAPEAUVkExtensionProperties@@@std@@YAAEAPEAUVkExtensionProperties@@AEAPEAU1@@Z
pdata	ENDS
;	COMDAT pdata
pdata	SEGMENT
$pdata$??$?0U_Exact_args_t@std@@AEAIAEAPEAUVkExtensionProperties@@$0A@@?$tuple@IPEAUVkExtensionProperties@@@std@@QEAA@U_Exact_args_t@1@AEAIAEAPEAUVkExtensionProperties@@@Z DD imagerel $LN3
	DD	imagerel $LN3+165
	DD	imagerel $unwind$??$?0U_Exact_args_t@std@@AEAIAEAPEAUVkExtensionProperties@@$0A@@?$tuple@IPEAUVkExtensionProperties@@@std@@QEAA@U_Exact_args_t@1@AEAIAEAPEAUVkExtensionProperties@@@Z
pdata	ENDS
;	COMDAT pdata
pdata	SEGMENT
$pdata$??$forward@U?$pair@H$$T@std@@@std@@YA$$QEAU?$pair@H$$T@0@AEAU10@@Z DD imagerel $LN3
	DD	imagerel $LN3+48
	DD	imagerel $unwind$??$forward@U?$pair@H$$T@std@@@std@@YA$$QEAU?$pair@H$$T@0@AEAU10@@Z
pdata	ENDS
;	COMDAT pdata
pdata	SEGMENT
$pdata$??$?0U_Unpack_tuple_t@std@@U?$pair@H$$T@1@$0A@$00$0A@@?$tuple@IPEAPEAUVkPhysicalDevice_T@@@std@@QEAA@U_Unpack_tuple_t@1@$$QEAU?$pair@H$$T@1@U?$integer_sequence@_K$0A@$00@1@@Z DD imagerel $LN3
	DD	imagerel $LN3+175
	DD	imagerel $unwind$??$?0U_Unpack_tuple_t@std@@U?$pair@H$$T@1@$0A@$00$0A@@?$tuple@IPEAPEAUVkPhysicalDevice_T@@@std@@QEAA@U_Unpack_tuple_t@1@$$QEAU?$pair@H$$T@1@U?$integer_sequence@_K$0A@$00@1@@Z
pdata	ENDS
;	COMDAT pdata
pdata	SEGMENT
$pdata$??$?0U_Exact_args_t@std@@AEAPEAPEAUVkPhysicalDevice_T@@$$V$0A@@?$tuple@PEAPEAUVkPhysicalDevice_T@@@std@@QEAA@U_Exact_args_t@1@AEAPEAPEAUVkPhysicalDevice_T@@@Z DD imagerel $LN3
	DD	imagerel $LN3+117
	DD	imagerel $unwind$??$?0U_Exact_args_t@std@@AEAPEAPEAUVkPhysicalDevice_T@@$$V$0A@@?$tuple@PEAPEAUVkPhysicalDevice_T@@@std@@QEAA@U_Exact_args_t@1@AEAPEAPEAUVkPhysicalDevice_T@@@Z
pdata	ENDS
;	COMDAT pdata
pdata	SEGMENT
$pdata$??$?0AEAI@?$_Tuple_val@I@std@@QEAA@AEAI@Z DD imagerel $LN3
	DD	imagerel $LN3+76
	DD	imagerel $unwind$??$?0AEAI@?$_Tuple_val@I@std@@QEAA@AEAI@Z
pdata	ENDS
;	COMDAT pdata
pdata	SEGMENT
$pdata$??$?0U_Unpack_tuple_t@std@@U?$pair@H$$T@1@$0A@$00$0A@@?$tuple@IPEAUVkPhysicalDeviceGroupProperties@@@std@@QEAA@U_Unpack_tuple_t@1@$$QEAU?$pair@H$$T@1@U?$integer_sequence@_K$0A@$00@1@@Z DD imagerel $LN3
	DD	imagerel $LN3+175
	DD	imagerel $unwind$??$?0U_Unpack_tuple_t@std@@U?$pair@H$$T@1@$0A@$00$0A@@?$tuple@IPEAUVkPhysicalDeviceGroupProperties@@@std@@QEAA@U_Unpack_tuple_t@1@$$QEAU?$pair@H$$T@1@U?$integer_sequence@_K$0A@$00@1@@Z
pdata	ENDS
;	COMDAT pdata
pdata	SEGMENT
$pdata$??$?0U_Exact_args_t@std@@AEAPEAUVkPhysicalDeviceGroupProperties@@$$V$0A@@?$tuple@PEAUVkPhysicalDeviceGroupProperties@@@std@@QEAA@U_Exact_args_t@1@AEAPEAUVkPhysicalDeviceGroupProperties@@@Z DD imagerel $LN3
	DD	imagerel $LN3+117
	DD	imagerel $unwind$??$?0U_Exact_args_t@std@@AEAPEAUVkPhysicalDeviceGroupProperties@@$$V$0A@@?$tuple@PEAUVkPhysicalDeviceGroupProperties@@@std@@QEAA@U_Exact_args_t@1@AEAPEAUVkPhysicalDeviceGroupProperties@@@Z
pdata	ENDS
;	COMDAT pdata
pdata	SEGMENT
$pdata$??$?0U_Unpack_tuple_t@std@@U?$pair@H$$T@1@$0A@$00$0A@@?$tuple@IPEAUVkExtensionProperties@@@std@@QEAA@U_Unpack_tuple_t@1@$$QEAU?$pair@H$$T@1@U?$integer_sequence@_K$0A@$00@1@@Z DD imagerel $LN3
	DD	imagerel $LN3+175
	DD	imagerel $unwind$??$?0U_Unpack_tuple_t@std@@U?$pair@H$$T@1@$0A@$00$0A@@?$tuple@IPEAUVkExtensionProperties@@@std@@QEAA@U_Unpack_tuple_t@1@$$QEAU?$pair@H$$T@1@U?$integer_sequence@_K$0A@$00@1@@Z
pdata	ENDS
;	COMDAT pdata
pdata	SEGMENT
$pdata$??$?0U_Exact_args_t@std@@AEAPEAUVkExtensionProperties@@$$V$0A@@?$tuple@PEAUVkExtensionProperties@@@std@@QEAA@U_Exact_args_t@1@AEAPEAUVkExtensionProperties@@@Z DD imagerel $LN3
	DD	imagerel $LN3+117
	DD	imagerel $unwind$??$?0U_Exact_args_t@std@@AEAPEAUVkExtensionProperties@@$$V$0A@@?$tuple@PEAUVkExtensionProperties@@@std@@QEAA@U_Exact_args_t@1@AEAPEAUVkExtensionProperties@@@Z
pdata	ENDS
;	COMDAT pdata
pdata	SEGMENT
$pdata$??$get@$0A@H$$T@std@@YA$$QEAH$$QEAU?$pair@H$$T@0@@Z DD imagerel $LN3
	DD	imagerel $LN3+61
	DD	imagerel $unwind$??$get@$0A@H$$T@std@@YA$$QEAH$$QEAU?$pair@H$$T@0@@Z
pdata	ENDS
;	COMDAT pdata
pdata	SEGMENT
$pdata$??$get@$0A@H$$T@std@@YAAEAHAEAU?$pair@H$$T@0@@Z DD imagerel $LN3
	DD	imagerel $LN3+79
	DD	imagerel $unwind$??$get@$0A@H$$T@std@@YAAEAHAEAU?$pair@H$$T@0@@Z
pdata	ENDS
;	COMDAT pdata
pdata	SEGMENT
$pdata$??$get@$00H$$T@std@@YA$$QEA$$T$$QEAU?$pair@H$$T@0@@Z DD imagerel $LN3
	DD	imagerel $LN3+61
	DD	imagerel $unwind$??$get@$00H$$T@std@@YA$$QEA$$T$$QEAU?$pair@H$$T@0@@Z
pdata	ENDS
;	COMDAT pdata
pdata	SEGMENT
$pdata$??$get@$00H$$T@std@@YAAEA$$TAEAU?$pair@H$$T@0@@Z DD imagerel $LN3
	DD	imagerel $LN3+79
	DD	imagerel $unwind$??$get@$00H$$T@std@@YAAEA$$TAEAU?$pair@H$$T@0@@Z
pdata	ENDS
;	COMDAT pdata
pdata	SEGMENT
$pdata$??$?0U_Exact_args_t@std@@H$$T$0A@@?$tuple@IPEAPEAUVkPhysicalDevice_T@@@std@@QEAA@U_Exact_args_t@1@$$QEAH$$QEA$$T@Z DD imagerel $LN3
	DD	imagerel $LN3+165
	DD	imagerel $unwind$??$?0U_Exact_args_t@std@@H$$T$0A@@?$tuple@IPEAPEAUVkPhysicalDevice_T@@@std@@QEAA@U_Exact_args_t@1@$$QEAH$$QEA$$T@Z
pdata	ENDS
;	COMDAT pdata
pdata	SEGMENT
$pdata$??$?0U_Exact_args_t@std@@$0A@@?$tuple@$$V@std@@QEAA@U_Exact_args_t@1@@Z DD imagerel $LN3
	DD	imagerel $LN3+52
	DD	imagerel $unwind$??$?0U_Exact_args_t@std@@$0A@@?$tuple@$$V@std@@QEAA@U_Exact_args_t@1@@Z
pdata	ENDS
;	COMDAT pdata
pdata	SEGMENT
$pdata$??$?0AEAPEAPEAUVkPhysicalDevice_T@@@?$_Tuple_val@PEAPEAUVkPhysicalDevice_T@@@std@@QEAA@AEAPEAPEAUVkPhysicalDevice_T@@@Z DD imagerel $LN3
	DD	imagerel $LN3+78
	DD	imagerel $unwind$??$?0AEAPEAPEAUVkPhysicalDevice_T@@@?$_Tuple_val@PEAPEAUVkPhysicalDevice_T@@@std@@QEAA@AEAPEAPEAUVkPhysicalDevice_T@@@Z
pdata	ENDS
;	COMDAT pdata
pdata	SEGMENT
$pdata$??$?0U_Exact_args_t@std@@H$$T$0A@@?$tuple@IPEAUVkPhysicalDeviceGroupProperties@@@std@@QEAA@U_Exact_args_t@1@$$QEAH$$QEA$$T@Z DD imagerel $LN3
	DD	imagerel $LN3+165
	DD	imagerel $unwind$??$?0U_Exact_args_t@std@@H$$T$0A@@?$tuple@IPEAUVkPhysicalDeviceGroupProperties@@@std@@QEAA@U_Exact_args_t@1@$$QEAH$$QEA$$T@Z
pdata	ENDS
;	COMDAT pdata
pdata	SEGMENT
$pdata$??$?0AEAPEAUVkPhysicalDeviceGroupProperties@@@?$_Tuple_val@PEAUVkPhysicalDeviceGroupProperties@@@std@@QEAA@AEAPEAUVkPhysicalDeviceGroupProperties@@@Z DD imagerel $LN3
	DD	imagerel $LN3+78
	DD	imagerel $unwind$??$?0AEAPEAUVkPhysicalDeviceGroupProperties@@@?$_Tuple_val@PEAUVkPhysicalDeviceGroupProperties@@@std@@QEAA@AEAPEAUVkPhysicalDeviceGroupProperties@@@Z
pdata	ENDS
;	COMDAT pdata
pdata	SEGMENT
$pdata$??$?0U_Exact_args_t@std@@H$$T$0A@@?$tuple@IPEAUVkExtensionProperties@@@std@@QEAA@U_Exact_args_t@1@$$QEAH$$QEA$$T@Z DD imagerel $LN3
	DD	imagerel $LN3+165
	DD	imagerel $unwind$??$?0U_Exact_args_t@std@@H$$T$0A@@?$tuple@IPEAUVkExtensionProperties@@@std@@QEAA@U_Exact_args_t@1@$$QEAH$$QEA$$T@Z
pdata	ENDS
;	COMDAT pdata
pdata	SEGMENT
$pdata$??$?0AEAPEAUVkExtensionProperties@@@?$_Tuple_val@PEAUVkExtensionProperties@@@std@@QEAA@AEAPEAUVkExtensionProperties@@@Z DD imagerel $LN3
	DD	imagerel $LN3+78
	DD	imagerel $unwind$??$?0AEAPEAUVkExtensionProperties@@@?$_Tuple_val@PEAUVkExtensionProperties@@@std@@QEAA@AEAPEAUVkExtensionProperties@@@Z
pdata	ENDS
;	COMDAT pdata
pdata	SEGMENT
$pdata$??$forward@$$QEAH@std@@YA$$QEAHAEAH@Z DD imagerel $LN3
	DD	imagerel $LN3+48
	DD	imagerel $unwind$??$forward@$$QEAH@std@@YA$$QEAHAEAH@Z
pdata	ENDS
;	COMDAT pdata
pdata	SEGMENT
$pdata$??$forward@$$QEA$$T@std@@YA$$QEA$$TAEA$$T@Z DD imagerel $LN3
	DD	imagerel $LN3+48
	DD	imagerel $unwind$??$forward@$$QEA$$T@std@@YA$$QEA$$TAEA$$T@Z
pdata	ENDS
;	COMDAT pdata
pdata	SEGMENT
$pdata$??$?0U_Exact_args_t@std@@$$T$$V$0A@@?$tuple@PEAPEAUVkPhysicalDevice_T@@@std@@QEAA@U_Exact_args_t@1@$$QEA$$T@Z DD imagerel $LN3
	DD	imagerel $LN3+117
	DD	imagerel $unwind$??$?0U_Exact_args_t@std@@$$T$$V$0A@@?$tuple@PEAPEAUVkPhysicalDevice_T@@@std@@QEAA@U_Exact_args_t@1@$$QEA$$T@Z
pdata	ENDS
;	COMDAT pdata
pdata	SEGMENT
$pdata$??$?0H@?$_Tuple_val@I@std@@QEAA@$$QEAH@Z DD imagerel $LN3
	DD	imagerel $LN3+76
	DD	imagerel $unwind$??$?0H@?$_Tuple_val@I@std@@QEAA@$$QEAH@Z
pdata	ENDS
;	COMDAT pdata
pdata	SEGMENT
$pdata$??$?0U_Exact_args_t@std@@$$T$$V$0A@@?$tuple@PEAUVkPhysicalDeviceGroupProperties@@@std@@QEAA@U_Exact_args_t@1@$$QEA$$T@Z DD imagerel $LN3
	DD	imagerel $LN3+117
	DD	imagerel $unwind$??$?0U_Exact_args_t@std@@$$T$$V$0A@@?$tuple@PEAUVkPhysicalDeviceGroupProperties@@@std@@QEAA@U_Exact_args_t@1@$$QEA$$T@Z
pdata	ENDS
;	COMDAT pdata
pdata	SEGMENT
$pdata$??$?0U_Exact_args_t@std@@$$T$$V$0A@@?$tuple@PEAUVkExtensionProperties@@@std@@QEAA@U_Exact_args_t@1@$$QEA$$T@Z DD imagerel $LN3
	DD	imagerel $LN3+117
	DD	imagerel $unwind$??$?0U_Exact_args_t@std@@$$T$$V$0A@@?$tuple@PEAUVkExtensionProperties@@@std@@QEAA@U_Exact_args_t@1@$$QEA$$T@Z
pdata	ENDS
;	COMDAT pdata
pdata	SEGMENT
$pdata$??$_Pair_get@AEAHU?$pair@H$$T@std@@@std@@YAAEAHAEAU?$pair@H$$T@0@U?$integral_constant@_K$0A@@0@@Z DD imagerel $LN3
	DD	imagerel $LN3+52
	DD	imagerel $unwind$??$_Pair_get@AEAHU?$pair@H$$T@std@@@std@@YAAEAHAEAU?$pair@H$$T@0@U?$integral_constant@_K$0A@@0@@Z
pdata	ENDS
;	COMDAT pdata
pdata	SEGMENT
$pdata$??$_Pair_get@AEA$$TU?$pair@H$$T@std@@@std@@YAAEA$$TAEAU?$pair@H$$T@0@U?$integral_constant@_K$00@0@@Z DD imagerel $LN3
	DD	imagerel $LN3+56
	DD	imagerel $unwind$??$_Pair_get@AEA$$TU?$pair@H$$T@std@@@std@@YAAEA$$TAEAU?$pair@H$$T@0@U?$integral_constant@_K$00@0@@Z
pdata	ENDS
;	COMDAT pdata
pdata	SEGMENT
$pdata$??$?0$$T@?$_Tuple_val@PEAPEAUVkPhysicalDevice_T@@@std@@QEAA@$$QEA$$T@Z DD imagerel $LN3
	DD	imagerel $LN3+78
	DD	imagerel $unwind$??$?0$$T@?$_Tuple_val@PEAPEAUVkPhysicalDevice_T@@@std@@QEAA@$$QEA$$T@Z
pdata	ENDS
;	COMDAT pdata
pdata	SEGMENT
$pdata$??$?0$$T@?$_Tuple_val@PEAUVkPhysicalDeviceGroupProperties@@@std@@QEAA@$$QEA$$T@Z DD imagerel $LN3
	DD	imagerel $LN3+78
	DD	imagerel $unwind$??$?0$$T@?$_Tuple_val@PEAUVkPhysicalDeviceGroupProperties@@@std@@QEAA@$$QEA$$T@Z
pdata	ENDS
;	COMDAT pdata
pdata	SEGMENT
$pdata$??$?0$$T@?$_Tuple_val@PEAUVkExtensionProperties@@@std@@QEAA@$$QEA$$T@Z DD imagerel $LN3
	DD	imagerel $LN3+78
	DD	imagerel $unwind$??$?0$$T@?$_Tuple_val@PEAUVkExtensionProperties@@@std@@QEAA@$$QEA$$T@Z
pdata	ENDS
;	COMDAT rtc$TMZ
rtc$TMZ	SEGMENT
_RTC_Shutdown.rtc$TMZ DQ FLAT:_RTC_Shutdown
rtc$TMZ	ENDS
;	COMDAT rtc$IMZ
rtc$IMZ	SEGMENT
_RTC_InitBase.rtc$IMZ DQ FLAT:_RTC_InitBase
rtc$IMZ	ENDS
;	COMDAT ??_R1A@?0A@EA@runtime_error@std@@8
rdata$r	SEGMENT
??_R1A@?0A@EA@runtime_error@std@@8 DD imagerel ??_R0?AVruntime_error@std@@@8 ; std::runtime_error::`RTTI Base Class Descriptor at (0,-1,0,64)'
	DD	01H
	DD	00H
	DD	0ffffffffH
	DD	00H
	DD	040H
	DD	imagerel ??_R3runtime_error@std@@8
rdata$r	ENDS
;	COMDAT ??_R2runtime_error@std@@8
rdata$r	SEGMENT
??_R2runtime_error@std@@8 DD imagerel ??_R1A@?0A@EA@runtime_error@std@@8 ; std::runtime_error::`RTTI Base Class Array'
	DD	imagerel ??_R1A@?0A@EA@exception@std@@8
	ORG $+3
rdata$r	ENDS
;	COMDAT ??_R3runtime_error@std@@8
rdata$r	SEGMENT
??_R3runtime_error@std@@8 DD 00H			; std::runtime_error::`RTTI Class Hierarchy Descriptor'
	DD	00H
	DD	02H
	DD	imagerel ??_R2runtime_error@std@@8
rdata$r	ENDS
;	COMDAT ??_R4runtime_error@std@@6B@
rdata$r	SEGMENT
??_R4runtime_error@std@@6B@ DD 01H			; std::runtime_error::`RTTI Complete Object Locator'
	DD	00H
	DD	00H
	DD	imagerel ??_R0?AVruntime_error@std@@@8
	DD	imagerel ??_R3runtime_error@std@@8
	DD	imagerel ??_R4runtime_error@std@@6B@
rdata$r	ENDS
;	COMDAT ??_R1A@?0A@EA@exception@std@@8
rdata$r	SEGMENT
??_R1A@?0A@EA@exception@std@@8 DD imagerel ??_R0?AVexception@std@@@8 ; std::exception::`RTTI Base Class Descriptor at (0,-1,0,64)'
	DD	00H
	DD	00H
	DD	0ffffffffH
	DD	00H
	DD	040H
	DD	imagerel ??_R3exception@std@@8
rdata$r	ENDS
;	COMDAT ??_R2exception@std@@8
rdata$r	SEGMENT
??_R2exception@std@@8 DD imagerel ??_R1A@?0A@EA@exception@std@@8 ; std::exception::`RTTI Base Class Array'
	ORG $+3
rdata$r	ENDS
;	COMDAT ??_R3exception@std@@8
rdata$r	SEGMENT
??_R3exception@std@@8 DD 00H				; std::exception::`RTTI Class Hierarchy Descriptor'
	DD	00H
	DD	01H
	DD	imagerel ??_R2exception@std@@8
rdata$r	ENDS
;	COMDAT ??_R4exception@std@@6B@
rdata$r	SEGMENT
??_R4exception@std@@6B@ DD 01H				; std::exception::`RTTI Complete Object Locator'
	DD	00H
	DD	00H
	DD	imagerel ??_R0?AVexception@std@@@8
	DD	imagerel ??_R3exception@std@@8
	DD	imagerel ??_R4exception@std@@6B@
rdata$r	ENDS
;	COMDAT ??_C@_0BL@KEOADLBH@couldn?8t?5create?5VkInstance@
CONST	SEGMENT
??_C@_0BL@KEOADLBH@couldn?8t?5create?5VkInstance@ DB 'couldn''t create Vk'
	DB	'Instance', 00H				; `string'
CONST	ENDS
;	COMDAT _CTA2?AVruntime_error@std@@
xdata$x	SEGMENT
_CTA2?AVruntime_error@std@@ DD 02H
	DD	imagerel _CT??_R0?AVruntime_error@std@@@8??0runtime_error@std@@QEAA@AEBV01@@Z24
	DD	imagerel _CT??_R0?AVexception@std@@@8??0exception@std@@QEAA@AEBV01@@Z24
xdata$x	ENDS
;	COMDAT _TI2?AVruntime_error@std@@
xdata$x	SEGMENT
_TI2?AVruntime_error@std@@ DD 00H
	DD	imagerel ??1runtime_error@std@@UEAA@XZ
	DD	00H
	DD	imagerel _CTA2?AVruntime_error@std@@
xdata$x	ENDS
;	COMDAT ??_C@_03HPADHAHE@N?1A@
CONST	SEGMENT
??_C@_03HPADHAHE@N?1A@ DB 'N/A', 00H			; `string'
CONST	ENDS
;	COMDAT ??_C@_06MNAPODND@vk_app@
CONST	SEGMENT
??_C@_06MNAPODND@vk_app@ DB 'vk_app', 00H		; `string'
CONST	ENDS
;	COMDAT ??_C@_0BM@LGHMGEMH@VK_LAYER_KHRONOS_validation@
CONST	SEGMENT
??_C@_0BM@LGHMGEMH@VK_LAYER_KHRONOS_validation@ DB 'VK_LAYER_KHRONOS_vali'
	DB	'dation', 00H				; `string'
CONST	ENDS
;	COMDAT _CT??_R0?AVruntime_error@std@@@8??0runtime_error@std@@QEAA@AEBV01@@Z24
xdata$x	SEGMENT
_CT??_R0?AVruntime_error@std@@@8??0runtime_error@std@@QEAA@AEBV01@@Z24 DD 00H
	DD	imagerel ??_R0?AVruntime_error@std@@@8
	DD	00H
	DD	0ffffffffH
	ORG $+4
	DD	018H
	DD	imagerel ??0runtime_error@std@@QEAA@AEBV01@@Z
xdata$x	ENDS
;	COMDAT ??_R0?AVruntime_error@std@@@8
data$r	SEGMENT
??_R0?AVruntime_error@std@@@8 DQ FLAT:??_7type_info@@6B@ ; std::runtime_error `RTTI Type Descriptor'
	DQ	0000000000000000H
	DB	'.?AVruntime_error@std@@', 00H
data$r	ENDS
;	COMDAT ??_7runtime_error@std@@6B@
CONST	SEGMENT
??_7runtime_error@std@@6B@ DQ FLAT:??_R4runtime_error@std@@6B@ ; std::runtime_error::`vftable'
	DQ	FLAT:??_Eruntime_error@std@@UEAAPEAXI@Z
	DQ	FLAT:?what@exception@std@@UEBAPEBDXZ
CONST	ENDS
;	COMDAT _CT??_R0?AVexception@std@@@8??0exception@std@@QEAA@AEBV01@@Z24
xdata$x	SEGMENT
_CT??_R0?AVexception@std@@@8??0exception@std@@QEAA@AEBV01@@Z24 DD 00H
	DD	imagerel ??_R0?AVexception@std@@@8
	DD	00H
	DD	0ffffffffH
	ORG $+4
	DD	018H
	DD	imagerel ??0exception@std@@QEAA@AEBV01@@Z
xdata$x	ENDS
;	COMDAT ??_R0?AVexception@std@@@8
data$r	SEGMENT
??_R0?AVexception@std@@@8 DQ FLAT:??_7type_info@@6B@	; std::exception `RTTI Type Descriptor'
	DQ	0000000000000000H
	DB	'.?AVexception@std@@', 00H
data$r	ENDS
;	COMDAT ??_C@_0BC@EOODALEL@Unknown?5exception@
CONST	SEGMENT
??_C@_0BC@EOODALEL@Unknown?5exception@ DB 'Unknown exception', 00H ; `string'
CONST	ENDS
;	COMDAT ??_7exception@std@@6B@
CONST	SEGMENT
??_7exception@std@@6B@ DQ FLAT:??_R4exception@std@@6B@	; std::exception::`vftable'
	DQ	FLAT:??_Eexception@std@@UEAAPEAXI@Z
	DQ	FLAT:?what@exception@std@@UEBAPEBDXZ
CONST	ENDS
;	COMDAT xdata
xdata	SEGMENT
$unwind$??$?0$$T@?$_Tuple_val@PEAUVkExtensionProperties@@@std@@QEAA@$$QEA$$T@Z DD 025051801H
	DD	01132318H
	DD	0700c001dH
	DD	0500bH
xdata	ENDS
;	COMDAT xdata
xdata	SEGMENT
$unwind$??$?0$$T@?$_Tuple_val@PEAUVkPhysicalDeviceGroupProperties@@@std@@QEAA@$$QEA$$T@Z DD 025051801H
	DD	01132318H
	DD	0700c001dH
	DD	0500bH
xdata	ENDS
;	COMDAT xdata
xdata	SEGMENT
$unwind$??$?0$$T@?$_Tuple_val@PEAPEAUVkPhysicalDevice_T@@@std@@QEAA@$$QEA$$T@Z DD 025051801H
	DD	01132318H
	DD	0700c001dH
	DD	0500bH
xdata	ENDS
;	COMDAT xdata
xdata	SEGMENT
$unwind$??$_Pair_get@AEA$$TU?$pair@H$$T@std@@@std@@YAAEA$$TAEAU?$pair@H$$T@0@U?$integral_constant@_K$00@0@@Z DD 025051701H
	DD	01122317H
	DD	0700b001dH
	DD	0500aH
xdata	ENDS
;	COMDAT xdata
xdata	SEGMENT
$unwind$??$_Pair_get@AEAHU?$pair@H$$T@std@@@std@@YAAEAHAEAU?$pair@H$$T@0@U?$integral_constant@_K$0A@@0@@Z DD 025051701H
	DD	01122317H
	DD	0700b001dH
	DD	0500aH
xdata	ENDS
;	COMDAT xdata
xdata	SEGMENT
$unwind$??$?0U_Exact_args_t@std@@$$T$$V$0A@@?$tuple@PEAUVkExtensionProperties@@@std@@QEAA@U_Exact_args_t@1@$$QEA$$T@Z DD 025051c01H
	DD	0117231cH
	DD	070100021H
	DD	0500fH
xdata	ENDS
;	COMDAT xdata
xdata	SEGMENT
$unwind$??$?0U_Exact_args_t@std@@$$T$$V$0A@@?$tuple@PEAUVkPhysicalDeviceGroupProperties@@@std@@QEAA@U_Exact_args_t@1@$$QEA$$T@Z DD 025051c01H
	DD	0117231cH
	DD	070100021H
	DD	0500fH
xdata	ENDS
;	COMDAT xdata
xdata	SEGMENT
$unwind$??$?0H@?$_Tuple_val@I@std@@QEAA@$$QEAH@Z DD 025051801H
	DD	01132318H
	DD	0700c001dH
	DD	0500bH
xdata	ENDS
;	COMDAT xdata
xdata	SEGMENT
$unwind$??$?0U_Exact_args_t@std@@$$T$$V$0A@@?$tuple@PEAPEAUVkPhysicalDevice_T@@@std@@QEAA@U_Exact_args_t@1@$$QEA$$T@Z DD 025051c01H
	DD	0117231cH
	DD	070100021H
	DD	0500fH
xdata	ENDS
;	COMDAT xdata
xdata	SEGMENT
$unwind$??$forward@$$QEA$$T@std@@YA$$QEA$$TAEA$$T@Z DD 025051301H
	DD	010e2313H
	DD	07007001dH
	DD	05006H
xdata	ENDS
;	COMDAT xdata
xdata	SEGMENT
$unwind$??$forward@$$QEAH@std@@YA$$QEAHAEAH@Z DD 025051301H
	DD	010e2313H
	DD	07007001dH
	DD	05006H
xdata	ENDS
;	COMDAT xdata
xdata	SEGMENT
$unwind$??$?0AEAPEAUVkExtensionProperties@@@?$_Tuple_val@PEAUVkExtensionProperties@@@std@@QEAA@AEAPEAUVkExtensionProperties@@@Z DD 025051801H
	DD	01132318H
	DD	0700c001dH
	DD	0500bH
xdata	ENDS
;	COMDAT xdata
xdata	SEGMENT
$unwind$??$?0U_Exact_args_t@std@@H$$T$0A@@?$tuple@IPEAUVkExtensionProperties@@@std@@QEAA@U_Exact_args_t@1@$$QEAH$$QEA$$T@Z DD 025052101H
	DD	011c2321H
	DD	070150025H
	DD	05014H
xdata	ENDS
;	COMDAT xdata
xdata	SEGMENT
$unwind$??$?0AEAPEAUVkPhysicalDeviceGroupProperties@@@?$_Tuple_val@PEAUVkPhysicalDeviceGroupProperties@@@std@@QEAA@AEAPEAUVkPhysicalDeviceGroupProperties@@@Z DD 025051801H
	DD	01132318H
	DD	0700c001dH
	DD	0500bH
xdata	ENDS
;	COMDAT xdata
xdata	SEGMENT
$unwind$??$?0U_Exact_args_t@std@@H$$T$0A@@?$tuple@IPEAUVkPhysicalDeviceGroupProperties@@@std@@QEAA@U_Exact_args_t@1@$$QEAH$$QEA$$T@Z DD 025052101H
	DD	011c2321H
	DD	070150025H
	DD	05014H
xdata	ENDS
;	COMDAT xdata
xdata	SEGMENT
$unwind$??$?0AEAPEAPEAUVkPhysicalDevice_T@@@?$_Tuple_val@PEAPEAUVkPhysicalDevice_T@@@std@@QEAA@AEAPEAPEAUVkPhysicalDevice_T@@@Z DD 025051801H
	DD	01132318H
	DD	0700c001dH
	DD	0500bH
xdata	ENDS
;	COMDAT xdata
xdata	SEGMENT
$unwind$??$?0U_Exact_args_t@std@@$0A@@?$tuple@$$V@std@@QEAA@U_Exact_args_t@1@@Z DD 025051701H
	DD	01122317H
	DD	0700b001dH
	DD	0500aH
xdata	ENDS
;	COMDAT xdata
xdata	SEGMENT
$unwind$??$?0U_Exact_args_t@std@@H$$T$0A@@?$tuple@IPEAPEAUVkPhysicalDevice_T@@@std@@QEAA@U_Exact_args_t@1@$$QEAH$$QEA$$T@Z DD 025052101H
	DD	011c2321H
	DD	070150025H
	DD	05014H
xdata	ENDS
;	COMDAT xdata
xdata	SEGMENT
$unwind$??$get@$00H$$T@std@@YAAEA$$TAEAU?$pair@H$$T@0@@Z DD 025051301H
	DD	010e2313H
	DD	070070021H
	DD	05006H
xdata	ENDS
;	COMDAT xdata
xdata	SEGMENT
$unwind$??$get@$00H$$T@std@@YA$$QEA$$T$$QEAU?$pair@H$$T@0@@Z DD 025051301H
	DD	010e2313H
	DD	07007001dH
	DD	05006H
xdata	ENDS
;	COMDAT xdata
xdata	SEGMENT
$unwind$??$get@$0A@H$$T@std@@YAAEAHAEAU?$pair@H$$T@0@@Z DD 025051301H
	DD	010e2313H
	DD	070070021H
	DD	05006H
xdata	ENDS
;	COMDAT xdata
xdata	SEGMENT
$unwind$??$get@$0A@H$$T@std@@YA$$QEAH$$QEAU?$pair@H$$T@0@@Z DD 025051301H
	DD	010e2313H
	DD	07007001dH
	DD	05006H
xdata	ENDS
;	COMDAT xdata
xdata	SEGMENT
$unwind$??$?0U_Exact_args_t@std@@AEAPEAUVkExtensionProperties@@$$V$0A@@?$tuple@PEAUVkExtensionProperties@@@std@@QEAA@U_Exact_args_t@1@AEAPEAUVkExtensionProperties@@@Z DD 025051c01H
	DD	0117231cH
	DD	070100021H
	DD	0500fH
xdata	ENDS
;	COMDAT xdata
xdata	SEGMENT
$unwind$??$?0U_Unpack_tuple_t@std@@U?$pair@H$$T@1@$0A@$00$0A@@?$tuple@IPEAUVkExtensionProperties@@@std@@QEAA@U_Unpack_tuple_t@1@$$QEAU?$pair@H$$T@1@U?$integer_sequence@_K$0A@$00@1@@Z DD 025052101H
	DD	011c2321H
	DD	07015002bH
	DD	05014H
xdata	ENDS
;	COMDAT xdata
xdata	SEGMENT
$unwind$??$?0U_Exact_args_t@std@@AEAPEAUVkPhysicalDeviceGroupProperties@@$$V$0A@@?$tuple@PEAUVkPhysicalDeviceGroupProperties@@@std@@QEAA@U_Exact_args_t@1@AEAPEAUVkPhysicalDeviceGroupProperties@@@Z DD 025051c01H
	DD	0117231cH
	DD	070100021H
	DD	0500fH
xdata	ENDS
;	COMDAT xdata
xdata	SEGMENT
$unwind$??$?0U_Unpack_tuple_t@std@@U?$pair@H$$T@1@$0A@$00$0A@@?$tuple@IPEAUVkPhysicalDeviceGroupProperties@@@std@@QEAA@U_Unpack_tuple_t@1@$$QEAU?$pair@H$$T@1@U?$integer_sequence@_K$0A@$00@1@@Z DD 025052101H
	DD	011c2321H
	DD	07015002bH
	DD	05014H
xdata	ENDS
;	COMDAT xdata
xdata	SEGMENT
$unwind$??$?0AEAI@?$_Tuple_val@I@std@@QEAA@AEAI@Z DD 025051801H
	DD	01132318H
	DD	0700c001dH
	DD	0500bH
xdata	ENDS
;	COMDAT xdata
xdata	SEGMENT
$unwind$??$?0U_Exact_args_t@std@@AEAPEAPEAUVkPhysicalDevice_T@@$$V$0A@@?$tuple@PEAPEAUVkPhysicalDevice_T@@@std@@QEAA@U_Exact_args_t@1@AEAPEAPEAUVkPhysicalDevice_T@@@Z DD 025051c01H
	DD	0117231cH
	DD	070100021H
	DD	0500fH
xdata	ENDS
;	COMDAT xdata
xdata	SEGMENT
$unwind$??$?0U_Unpack_tuple_t@std@@U?$pair@H$$T@1@$0A@$00$0A@@?$tuple@IPEAPEAUVkPhysicalDevice_T@@@std@@QEAA@U_Unpack_tuple_t@1@$$QEAU?$pair@H$$T@1@U?$integer_sequence@_K$0A@$00@1@@Z DD 025052101H
	DD	011c2321H
	DD	07015002bH
	DD	05014H
xdata	ENDS
;	COMDAT xdata
xdata	SEGMENT
$unwind$??$forward@U?$pair@H$$T@std@@@std@@YA$$QEAU?$pair@H$$T@0@AEAU10@@Z DD 025051301H
	DD	010e2313H
	DD	07007001dH
	DD	05006H
xdata	ENDS
;	COMDAT xdata
xdata	SEGMENT
$unwind$??$?0U_Exact_args_t@std@@AEAIAEAPEAUVkExtensionProperties@@$0A@@?$tuple@IPEAUVkExtensionProperties@@@std@@QEAA@U_Exact_args_t@1@AEAIAEAPEAUVkExtensionProperties@@@Z DD 025052101H
	DD	011c2321H
	DD	070150025H
	DD	05014H
xdata	ENDS
;	COMDAT xdata
xdata	SEGMENT
$unwind$??$forward@AEAPEAUVkExtensionProperties@@@std@@YAAEAPEAUVkExtensionProperties@@AEAPEAU1@@Z DD 025051301H
	DD	010e2313H
	DD	07007001dH
	DD	05006H
xdata	ENDS
;	COMDAT xdata
xdata	SEGMENT
$unwind$??$?0U_Unpack_tuple_t@std@@U?$pair@H$$T@1@$0A@@?$tuple@IPEAUVkExtensionProperties@@@std@@QEAA@U_Unpack_tuple_t@1@$$QEAU?$pair@H$$T@1@@Z DD 025051c01H
	DD	0117231cH
	DD	07010002dH
	DD	0500fH
xdata	ENDS
;	COMDAT xdata
xdata	SEGMENT
$unwind$??$?0U_Exact_args_t@std@@AEAIAEAPEAUVkPhysicalDeviceGroupProperties@@$0A@@?$tuple@IPEAUVkPhysicalDeviceGroupProperties@@@std@@QEAA@U_Exact_args_t@1@AEAIAEAPEAUVkPhysicalDeviceGroupProperties@@@Z DD 025052101H
	DD	011c2321H
	DD	070150025H
	DD	05014H
xdata	ENDS
;	COMDAT xdata
xdata	SEGMENT
$unwind$??$forward@AEAPEAUVkPhysicalDeviceGroupProperties@@@std@@YAAEAPEAUVkPhysicalDeviceGroupProperties@@AEAPEAU1@@Z DD 025051301H
	DD	010e2313H
	DD	07007001dH
	DD	05006H
xdata	ENDS
;	COMDAT xdata
xdata	SEGMENT
$unwind$??$?0U_Unpack_tuple_t@std@@U?$pair@H$$T@1@$0A@@?$tuple@IPEAUVkPhysicalDeviceGroupProperties@@@std@@QEAA@U_Unpack_tuple_t@1@$$QEAU?$pair@H$$T@1@@Z DD 025051c01H
	DD	0117231cH
	DD	07010002dH
	DD	0500fH
xdata	ENDS
;	COMDAT xdata
xdata	SEGMENT
$unwind$??$?0U_Exact_args_t@std@@AEAIAEAPEAPEAUVkPhysicalDevice_T@@$0A@@?$tuple@IPEAPEAUVkPhysicalDevice_T@@@std@@QEAA@U_Exact_args_t@1@AEAIAEAPEAPEAUVkPhysicalDevice_T@@@Z DD 025052101H
	DD	011c2321H
	DD	070150025H
	DD	05014H
xdata	ENDS
;	COMDAT xdata
xdata	SEGMENT
$unwind$??$forward@AEAPEAPEAUVkPhysicalDevice_T@@@std@@YAAEAPEAPEAUVkPhysicalDevice_T@@AEAPEAPEAU1@@Z DD 025051301H
	DD	010e2313H
	DD	07007001dH
	DD	05006H
xdata	ENDS
;	COMDAT xdata
xdata	SEGMENT
$unwind$??$forward@AEAI@std@@YAAEAIAEAI@Z DD 025051301H
	DD	010e2313H
	DD	07007001dH
	DD	05006H
xdata	ENDS
;	COMDAT xdata
xdata	SEGMENT
$unwind$??$?0U_Unpack_tuple_t@std@@U?$pair@H$$T@1@$0A@@?$tuple@IPEAPEAUVkPhysicalDevice_T@@@std@@QEAA@U_Unpack_tuple_t@1@$$QEAU?$pair@H$$T@1@@Z DD 025051c01H
	DD	0117231cH
	DD	07010002dH
	DD	0500fH
xdata	ENDS
;	COMDAT xdata
xdata	SEGMENT
$unwind$??$move@AEAU?$pair@H$$T@std@@@std@@YA$$QEAU?$pair@H$$T@0@AEAU10@@Z DD 025051301H
	DD	010e2313H
	DD	07007001dH
	DD	05006H
xdata	ENDS
;	COMDAT xdata
xdata	SEGMENT
$unwind$??$?0H$$T$0A@@?$pair@H$$T@std@@QEAA@$$QEAH$$QEA$$T@Z DD 025051d01H
	DD	0118231dH
	DD	07011001dH
	DD	05010H
xdata	ENDS
;	COMDAT xdata
xdata	SEGMENT
$unwind$??$forward@$$T@std@@YA$$QEA$$TAEA$$T@Z DD 025051301H
	DD	010e2313H
	DD	07007001dH
	DD	05006H
xdata	ENDS
;	COMDAT xdata
xdata	SEGMENT
$unwind$??$forward@H@std@@YA$$QEAHAEAH@Z DD 025051301H
	DD	010e2313H
	DD	07007001dH
	DD	05006H
xdata	ENDS
;	COMDAT xdata
xdata	SEGMENT
$ip2state$??$?0AEAIAEAPEAUVkExtensionProperties@@$0A@@?$tuple@IPEAUVkExtensionProperties@@@std@@QEAA@AEAIAEAPEAUVkExtensionProperties@@@Z DB 02H
	DB	00H
	DB	00H
xdata	ENDS
;	COMDAT xdata
xdata	SEGMENT
$cppxdata$??$?0AEAIAEAPEAUVkExtensionProperties@@$0A@@?$tuple@IPEAUVkExtensionProperties@@@std@@QEAA@AEAIAEAPEAUVkExtensionProperties@@@Z DB 060H
	DD	imagerel $ip2state$??$?0AEAIAEAPEAUVkExtensionProperties@@$0A@@?$tuple@IPEAUVkExtensionProperties@@@std@@QEAA@AEAIAEAPEAUVkExtensionProperties@@@Z
xdata	ENDS
;	COMDAT xdata
xdata	SEGMENT
$unwind$??$?0AEAIAEAPEAUVkExtensionProperties@@$0A@@?$tuple@IPEAUVkExtensionProperties@@@std@@QEAA@AEAIAEAPEAUVkExtensionProperties@@@Z DD 025051d19H
	DD	0118231dH
	DD	07011002bH
	DD	05010H
	DD	imagerel __CxxFrameHandler4
	DD	imagerel $cppxdata$??$?0AEAIAEAPEAUVkExtensionProperties@@$0A@@?$tuple@IPEAUVkExtensionProperties@@@std@@QEAA@AEAIAEAPEAUVkExtensionProperties@@@Z
xdata	ENDS
;	COMDAT xdata
xdata	SEGMENT
$ip2state$??$?0H$$T$0A@@?$tuple@IPEAUVkExtensionProperties@@@std@@QEAA@$$QEAU?$pair@H$$T@1@@Z DB 02H
	DB	00H
	DB	00H
xdata	ENDS
;	COMDAT xdata
xdata	SEGMENT
$cppxdata$??$?0H$$T$0A@@?$tuple@IPEAUVkExtensionProperties@@@std@@QEAA@$$QEAU?$pair@H$$T@1@@Z DB 060H
	DD	imagerel $ip2state$??$?0H$$T$0A@@?$tuple@IPEAUVkExtensionProperties@@@std@@QEAA@$$QEAU?$pair@H$$T@1@@Z
xdata	ENDS
;	COMDAT xdata
xdata	SEGMENT
$unwind$??$?0H$$T$0A@@?$tuple@IPEAUVkExtensionProperties@@@std@@QEAA@$$QEAU?$pair@H$$T@1@@Z DD 025051819H
	DD	01132318H
	DD	0700c0025H
	DD	0500bH
	DD	imagerel __CxxFrameHandler4
	DD	imagerel $cppxdata$??$?0H$$T$0A@@?$tuple@IPEAUVkExtensionProperties@@@std@@QEAA@$$QEAU?$pair@H$$T@1@@Z
xdata	ENDS
;	COMDAT xdata
xdata	SEGMENT
$ip2state$??$?0AEAIAEAPEAUVkPhysicalDeviceGroupProperties@@$0A@@?$tuple@IPEAUVkPhysicalDeviceGroupProperties@@@std@@QEAA@AEAIAEAPEAUVkPhysicalDeviceGroupProperties@@@Z DB 02H
	DB	00H
	DB	00H
xdata	ENDS
;	COMDAT xdata
xdata	SEGMENT
$cppxdata$??$?0AEAIAEAPEAUVkPhysicalDeviceGroupProperties@@$0A@@?$tuple@IPEAUVkPhysicalDeviceGroupProperties@@@std@@QEAA@AEAIAEAPEAUVkPhysicalDeviceGroupProperties@@@Z DB 060H
	DD	imagerel $ip2state$??$?0AEAIAEAPEAUVkPhysicalDeviceGroupProperties@@$0A@@?$tuple@IPEAUVkPhysicalDeviceGroupProperties@@@std@@QEAA@AEAIAEAPEAUVkPhysicalDeviceGroupProperties@@@Z
xdata	ENDS
;	COMDAT xdata
xdata	SEGMENT
$unwind$??$?0AEAIAEAPEAUVkPhysicalDeviceGroupProperties@@$0A@@?$tuple@IPEAUVkPhysicalDeviceGroupProperties@@@std@@QEAA@AEAIAEAPEAUVkPhysicalDeviceGroupProperties@@@Z DD 025051d19H
	DD	0118231dH
	DD	07011002bH
	DD	05010H
	DD	imagerel __CxxFrameHandler4
	DD	imagerel $cppxdata$??$?0AEAIAEAPEAUVkPhysicalDeviceGroupProperties@@$0A@@?$tuple@IPEAUVkPhysicalDeviceGroupProperties@@@std@@QEAA@AEAIAEAPEAUVkPhysicalDeviceGroupProperties@@@Z
xdata	ENDS
;	COMDAT xdata
xdata	SEGMENT
$ip2state$??$?0H$$T$0A@@?$tuple@IPEAUVkPhysicalDeviceGroupProperties@@@std@@QEAA@$$QEAU?$pair@H$$T@1@@Z DB 02H
	DB	00H
	DB	00H
xdata	ENDS
;	COMDAT xdata
xdata	SEGMENT
$cppxdata$??$?0H$$T$0A@@?$tuple@IPEAUVkPhysicalDeviceGroupProperties@@@std@@QEAA@$$QEAU?$pair@H$$T@1@@Z DB 060H
	DD	imagerel $ip2state$??$?0H$$T$0A@@?$tuple@IPEAUVkPhysicalDeviceGroupProperties@@@std@@QEAA@$$QEAU?$pair@H$$T@1@@Z
xdata	ENDS
;	COMDAT xdata
xdata	SEGMENT
$unwind$??$?0H$$T$0A@@?$tuple@IPEAUVkPhysicalDeviceGroupProperties@@@std@@QEAA@$$QEAU?$pair@H$$T@1@@Z DD 025051819H
	DD	01132318H
	DD	0700c0025H
	DD	0500bH
	DD	imagerel __CxxFrameHandler4
	DD	imagerel $cppxdata$??$?0H$$T$0A@@?$tuple@IPEAUVkPhysicalDeviceGroupProperties@@@std@@QEAA@$$QEAU?$pair@H$$T@1@@Z
xdata	ENDS
;	COMDAT xdata
xdata	SEGMENT
$ip2state$??$?0AEAIAEAPEAPEAUVkPhysicalDevice_T@@$0A@@?$tuple@IPEAPEAUVkPhysicalDevice_T@@@std@@QEAA@AEAIAEAPEAPEAUVkPhysicalDevice_T@@@Z DB 02H
	DB	00H
	DB	00H
xdata	ENDS
;	COMDAT xdata
xdata	SEGMENT
$cppxdata$??$?0AEAIAEAPEAPEAUVkPhysicalDevice_T@@$0A@@?$tuple@IPEAPEAUVkPhysicalDevice_T@@@std@@QEAA@AEAIAEAPEAPEAUVkPhysicalDevice_T@@@Z DB 060H
	DD	imagerel $ip2state$??$?0AEAIAEAPEAPEAUVkPhysicalDevice_T@@$0A@@?$tuple@IPEAPEAUVkPhysicalDevice_T@@@std@@QEAA@AEAIAEAPEAPEAUVkPhysicalDevice_T@@@Z
xdata	ENDS
;	COMDAT xdata
xdata	SEGMENT
$unwind$??$?0AEAIAEAPEAPEAUVkPhysicalDevice_T@@$0A@@?$tuple@IPEAPEAUVkPhysicalDevice_T@@@std@@QEAA@AEAIAEAPEAPEAUVkPhysicalDevice_T@@@Z DD 025051d19H
	DD	0118231dH
	DD	07011002bH
	DD	05010H
	DD	imagerel __CxxFrameHandler4
	DD	imagerel $cppxdata$??$?0AEAIAEAPEAPEAUVkPhysicalDevice_T@@$0A@@?$tuple@IPEAPEAUVkPhysicalDevice_T@@@std@@QEAA@AEAIAEAPEAPEAUVkPhysicalDevice_T@@@Z
xdata	ENDS
;	COMDAT xdata
xdata	SEGMENT
$ip2state$??$?0H$$T$0A@@?$tuple@IPEAPEAUVkPhysicalDevice_T@@@std@@QEAA@$$QEAU?$pair@H$$T@1@@Z DB 02H
	DB	00H
	DB	00H
xdata	ENDS
;	COMDAT xdata
xdata	SEGMENT
$cppxdata$??$?0H$$T$0A@@?$tuple@IPEAPEAUVkPhysicalDevice_T@@@std@@QEAA@$$QEAU?$pair@H$$T@1@@Z DB 060H
	DD	imagerel $ip2state$??$?0H$$T$0A@@?$tuple@IPEAPEAUVkPhysicalDevice_T@@@std@@QEAA@$$QEAU?$pair@H$$T@1@@Z
xdata	ENDS
;	COMDAT xdata
xdata	SEGMENT
$unwind$??$?0H$$T$0A@@?$tuple@IPEAPEAUVkPhysicalDevice_T@@@std@@QEAA@$$QEAU?$pair@H$$T@1@@Z DD 025051819H
	DD	01132318H
	DD	0700c0025H
	DD	0500bH
	DD	imagerel __CxxFrameHandler4
	DD	imagerel $cppxdata$??$?0H$$T$0A@@?$tuple@IPEAPEAUVkPhysicalDevice_T@@@std@@QEAA@$$QEAU?$pair@H$$T@1@@Z
xdata	ENDS
;	COMDAT xdata
xdata	SEGMENT
$unwind$??$make_pair@H$$T@std@@YA?AU?$pair@H$$T@0@$$QEAH$$QEA$$T@Z DD 025051d01H
	DD	0118231dH
	DD	07011001fH
	DD	05010H
xdata	ENDS
;	COMDAT xdata
xdata	SEGMENT
$unwind$?data@?$array@PEBD$00@std@@QEAAPEAPEBDXZ DD 025051301H
	DD	010e2313H
	DD	07007001dH
	DD	05006H
xdata	ENDS
;	COMDAT xdata
xdata	SEGMENT
$unwind$?size@?$array@PEBD$00@std@@QEBA_KXZ DD 025051301H
	DD	010e2313H
	DD	07007001dH
	DD	05006H
xdata	ENDS
;	COMDAT xdata
xdata	SEGMENT
$unwind$??_Gruntime_error@std@@UEAAPEAXI@Z DD 025051701H
	DD	01122317H
	DD	0700b001dH
	DD	0500aH
xdata	ENDS
;	COMDAT xdata
xdata	SEGMENT
$unwind$??0runtime_error@std@@QEAA@AEBV01@@Z DD 025051801H
	DD	01132318H
	DD	0700c001dH
	DD	0500bH
xdata	ENDS
;	COMDAT xdata
xdata	SEGMENT
$unwind$??1runtime_error@std@@UEAA@XZ DD 025051301H
	DD	010e2313H
	DD	07007001dH
	DD	05006H
xdata	ENDS
;	COMDAT xdata
xdata	SEGMENT
$unwind$??0runtime_error@std@@QEAA@PEBD@Z DD 025051801H
	DD	01132318H
	DD	0700c001dH
	DD	0500bH
xdata	ENDS
;	COMDAT xdata
xdata	SEGMENT
$unwind$??_Gexception@std@@UEAAPEAXI@Z DD 025051701H
	DD	01122317H
	DD	0700b001dH
	DD	0500aH
xdata	ENDS
;	COMDAT xdata
xdata	SEGMENT
$unwind$?what@exception@std@@UEBAPEBDXZ DD 025051301H
	DD	010e2313H
	DD	07007001fH
	DD	05006H
xdata	ENDS
;	COMDAT xdata
xdata	SEGMENT
$unwind$??1exception@std@@UEAA@XZ DD 025051301H
	DD	010e2313H
	DD	07007001dH
	DD	05006H
xdata	ENDS
;	COMDAT xdata
xdata	SEGMENT
$unwind$??0exception@std@@QEAA@AEBV01@@Z DD 025051801H
	DD	01132318H
	DD	0700c001dH
	DD	0500bH
xdata	ENDS
;	COMDAT voltbl
voltbl	SEGMENT
_volmd	DB	03bH
	DB	0b9H
voltbl	ENDS
;	COMDAT xdata
xdata	SEGMENT
$unwind$??0exception@std@@QEAA@QEBD@Z DD 025054219H
	DD	01132318H
	DD	0700c0023H
	DD	0500bH
	DD	imagerel __GSHandlerCheck
	DD	0108H
xdata	ENDS
;	COMDAT CONST
CONST	SEGMENT
??0exception@std@@QEAA@QEBD@Z$rtcName$0 DB 05fH		; std::exception::exception
	DB	049H
	DB	06eH
	DB	069H
	DB	074H
	DB	044H
	DB	061H
	DB	074H
	DB	061H
	DB	00H
	ORG $+6
??0exception@std@@QEAA@QEBD@Z$rtcVarDesc DD 028H	; std::exception::exception
	DD	010H
	DQ	FLAT:??0exception@std@@QEAA@QEBD@Z$rtcName$0
	ORG $+48
??0exception@std@@QEAA@QEBD@Z$rtcFrameData DD 01H	; std::exception::exception
	DD	00H
	DQ	FLAT:??0exception@std@@QEAA@QEBD@Z$rtcVarDesc
CONST	ENDS
;	COMDAT voltbl
voltbl	SEGMENT
_volmd	DB	036H
	DB	0f8H
voltbl	ENDS
;	COMDAT xdata
xdata	SEGMENT
$unwind$?enumerateExtensionProperties@Instance@cow@@SA?AV?$tuple@IPEAUVkExtensionProperties@@@std@@XZ DD 025053d19H
	DD	010e2313H
	DD	070070033H
	DD	05006H
	DD	imagerel __GSHandlerCheck
	DD	0188H
xdata	ENDS
;	COMDAT CONST
CONST	SEGMENT
?enumerateExtensionProperties@Instance@cow@@SA?AV?$tuple@IPEAUVkExtensionProperties@@@std@@XZ$rtcName$0 DB 063H ; cow::Instance::enumerateExtensionProperties
	DB	06fH
	DB	075H
	DB	06eH
	DB	074H
	DB	00H
	ORG $+2
?enumerateExtensionProperties@Instance@cow@@SA?AV?$tuple@IPEAUVkExtensionProperties@@@std@@XZ$rtcName$1 DB 070H ; cow::Instance::enumerateExtensionProperties
	DB	050H
	DB	072H
	DB	06fH
	DB	070H
	DB	065H
	DB	072H
	DB	074H
	DB	069H
	DB	065H
	DB	073H
	DB	00H
	ORG $+12
?enumerateExtensionProperties@Instance@cow@@SA?AV?$tuple@IPEAUVkExtensionProperties@@@std@@XZ$rtcVarDesc DD 048H ; cow::Instance::enumerateExtensionProperties
	DD	08H
	DQ	FLAT:?enumerateExtensionProperties@Instance@cow@@SA?AV?$tuple@IPEAUVkExtensionProperties@@@std@@XZ$rtcName$1
	DD	024H
	DD	04H
	DQ	FLAT:?enumerateExtensionProperties@Instance@cow@@SA?AV?$tuple@IPEAUVkExtensionProperties@@@std@@XZ$rtcName$0
	ORG $+96
?enumerateExtensionProperties@Instance@cow@@SA?AV?$tuple@IPEAUVkExtensionProperties@@@std@@XZ$rtcFrameData DD 02H ; cow::Instance::enumerateExtensionProperties
	DD	00H
	DQ	FLAT:?enumerateExtensionProperties@Instance@cow@@SA?AV?$tuple@IPEAUVkExtensionProperties@@@std@@XZ$rtcVarDesc
CONST	ENDS
;	COMDAT voltbl
voltbl	SEGMENT
_volmd	DW	03bH
	DW	010dH
voltbl	ENDS
;	COMDAT xdata
xdata	SEGMENT
$unwind$?enumeratePhysicalDeviceGroups@Instance@cow@@QEBA?AV?$tuple@IPEAUVkPhysicalDeviceGroupProperties@@@std@@XZ DD 025054219H
	DD	01132318H
	DD	0700c0033H
	DD	0500bH
	DD	imagerel __GSHandlerCheck
	DD	0188H
xdata	ENDS
;	COMDAT CONST
CONST	SEGMENT
?enumeratePhysicalDeviceGroups@Instance@cow@@QEBA?AV?$tuple@IPEAUVkPhysicalDeviceGroupProperties@@@std@@XZ$rtcName$0 DB 063H ; cow::Instance::enumeratePhysicalDeviceGroups
	DB	06fH
	DB	075H
	DB	06eH
	DB	074H
	DB	00H
	ORG $+2
?enumeratePhysicalDeviceGroups@Instance@cow@@QEBA?AV?$tuple@IPEAUVkPhysicalDeviceGroupProperties@@@std@@XZ$rtcName$1 DB 070H ; cow::Instance::enumeratePhysicalDeviceGroups
	DB	044H
	DB	065H
	DB	076H
	DB	069H
	DB	063H
	DB	065H
	DB	047H
	DB	072H
	DB	06fH
	DB	075H
	DB	070H
	DB	050H
	DB	072H
	DB	06fH
	DB	070H
	DB	073H
	DB	00H
	ORG $+6
?enumeratePhysicalDeviceGroups@Instance@cow@@QEBA?AV?$tuple@IPEAUVkPhysicalDeviceGroupProperties@@@std@@XZ$rtcVarDesc DD 048H ; cow::Instance::enumeratePhysicalDeviceGroups
	DD	08H
	DQ	FLAT:?enumeratePhysicalDeviceGroups@Instance@cow@@QEBA?AV?$tuple@IPEAUVkPhysicalDeviceGroupProperties@@@std@@XZ$rtcName$1
	DD	024H
	DD	04H
	DQ	FLAT:?enumeratePhysicalDeviceGroups@Instance@cow@@QEBA?AV?$tuple@IPEAUVkPhysicalDeviceGroupProperties@@@std@@XZ$rtcName$0
	ORG $+96
?enumeratePhysicalDeviceGroups@Instance@cow@@QEBA?AV?$tuple@IPEAUVkPhysicalDeviceGroupProperties@@@std@@XZ$rtcFrameData DD 02H ; cow::Instance::enumeratePhysicalDeviceGroups
	DD	00H
	DQ	FLAT:?enumeratePhysicalDeviceGroups@Instance@cow@@QEBA?AV?$tuple@IPEAUVkPhysicalDeviceGroupProperties@@@std@@XZ$rtcVarDesc
CONST	ENDS
;	COMDAT voltbl
voltbl	SEGMENT
_volmd	DW	03bH
	DW	010dH
voltbl	ENDS
;	COMDAT xdata
xdata	SEGMENT
$unwind$?enumeratePhysicalDevices@Instance@cow@@QEBA?AV?$tuple@IPEAPEAUVkPhysicalDevice_T@@@std@@XZ DD 025054219H
	DD	01132318H
	DD	0700c0033H
	DD	0500bH
	DD	imagerel __GSHandlerCheck
	DD	0188H
xdata	ENDS
;	COMDAT CONST
CONST	SEGMENT
?enumeratePhysicalDevices@Instance@cow@@QEBA?AV?$tuple@IPEAPEAUVkPhysicalDevice_T@@@std@@XZ$rtcName$0 DB 063H ; cow::Instance::enumeratePhysicalDevices
	DB	06fH
	DB	075H
	DB	06eH
	DB	074H
	DB	00H
	ORG $+2
?enumeratePhysicalDevices@Instance@cow@@QEBA?AV?$tuple@IPEAPEAUVkPhysicalDevice_T@@@std@@XZ$rtcName$1 DB 070H ; cow::Instance::enumeratePhysicalDevices
	DB	044H
	DB	065H
	DB	076H
	DB	069H
	DB	063H
	DB	065H
	DB	073H
	DB	00H
	ORG $+15
?enumeratePhysicalDevices@Instance@cow@@QEBA?AV?$tuple@IPEAPEAUVkPhysicalDevice_T@@@std@@XZ$rtcVarDesc DD 048H ; cow::Instance::enumeratePhysicalDevices
	DD	08H
	DQ	FLAT:?enumeratePhysicalDevices@Instance@cow@@QEBA?AV?$tuple@IPEAPEAUVkPhysicalDevice_T@@@std@@XZ$rtcName$1
	DD	024H
	DD	04H
	DQ	FLAT:?enumeratePhysicalDevices@Instance@cow@@QEBA?AV?$tuple@IPEAPEAUVkPhysicalDevice_T@@@std@@XZ$rtcName$0
	ORG $+96
?enumeratePhysicalDevices@Instance@cow@@QEBA?AV?$tuple@IPEAPEAUVkPhysicalDevice_T@@@std@@XZ$rtcFrameData DD 02H ; cow::Instance::enumeratePhysicalDevices
	DD	00H
	DQ	FLAT:?enumeratePhysicalDevices@Instance@cow@@QEBA?AV?$tuple@IPEAPEAUVkPhysicalDevice_T@@@std@@XZ$rtcVarDesc
CONST	ENDS
;	COMDAT xdata
xdata	SEGMENT
$unwind$??1Instance@cow@@QEAA@XZ DD 025051301H
	DD	010e2313H
	DD	07007001dH
	DD	05006H
xdata	ENDS
;	COMDAT voltbl
voltbl	SEGMENT
_volmd	DW	036H
	DW	0191H
voltbl	ENDS
;	COMDAT xdata
xdata	SEGMENT
$unwind$??0Instance@cow@@QEAA@XZ DD 025053d19H
	DD	010e2313H
	DD	070070045H
	DD	05006H
	DD	imagerel __GSHandlerCheck
	DD	0218H
xdata	ENDS
;	COMDAT CONST
CONST	SEGMENT
??0Instance@cow@@QEAA@XZ$rtcName$0 DB 076H		; cow::Instance::Instance
	DB	061H
	DB	06cH
	DB	069H
	DB	064H
	DB	061H
	DB	074H
	DB	069H
	DB	06fH
	DB	06eH
	DB	04cH
	DB	061H
	DB	079H
	DB	065H
	DB	072H
	DB	073H
	DB	00H
	ORG $+7
??0Instance@cow@@QEAA@XZ$rtcName$1 DB 061H		; cow::Instance::Instance
	DB	070H
	DB	070H
	DB	049H
	DB	06eH
	DB	066H
	DB	06fH
	DB	00H
??0Instance@cow@@QEAA@XZ$rtcName$2 DB 063H		; cow::Instance::Instance
	DB	072H
	DB	065H
	DB	061H
	DB	074H
	DB	065H
	DB	049H
	DB	06eH
	DB	066H
	DB	06fH
	DB	00H
	ORG $+5
??0Instance@cow@@QEAA@XZ$rtcName$3 DB 067H		; cow::Instance::Instance
	DB	06cH
	DB	066H
	DB	077H
	DB	045H
	DB	078H
	DB	074H
	DB	065H
	DB	06eH
	DB	073H
	DB	069H
	DB	06fH
	DB	06eH
	DB	043H
	DB	06fH
	DB	075H
	DB	06eH
	DB	074H
	DB	00H
	ORG $+13
??0Instance@cow@@QEAA@XZ$rtcVarDesc DD 0f4H		; cow::Instance::Instance
	DD	04H
	DQ	FLAT:??0Instance@cow@@QEAA@XZ$rtcName$3
	DD	0a0H
	DD	040H
	DQ	FLAT:??0Instance@cow@@QEAA@XZ$rtcName$2
	DD	048H
	DD	030H
	DQ	FLAT:??0Instance@cow@@QEAA@XZ$rtcName$1
	DD	028H
	DD	08H
	DQ	FLAT:??0Instance@cow@@QEAA@XZ$rtcName$0
	ORG $+192
??0Instance@cow@@QEAA@XZ$rtcFrameData DD 04H		; cow::Instance::Instance
	DD	00H
	DQ	FLAT:??0Instance@cow@@QEAA@XZ$rtcVarDesc
CONST	ENDS
; Function compile flags: /Odt
;	COMDAT __JustMyCode_Default
_TEXT	SEGMENT
__JustMyCode_Default PROC				; COMDAT
	ret	0
__JustMyCode_Default ENDP
_TEXT	ENDS
; Function compile flags: /Odtp /RTCsu /ZI
;	COMDAT ??$?0$$T@?$_Tuple_val@PEAUVkExtensionProperties@@@std@@QEAA@$$QEA$$T@Z
_TEXT	SEGMENT
this$ = 224
_Arg$ = 232
??$?0$$T@?$_Tuple_val@PEAUVkExtensionProperties@@@std@@QEAA@$$QEA$$T@Z PROC ; std::_Tuple_val<VkExtensionProperties *>::_Tuple_val<VkExtensionProperties *><std::nullptr_t>, COMDAT
; File C:\Program Files\Microsoft Visual Studio\2022\Community\VC\Tools\MSVC\14.32.31326\include\tuple
; Line 158
$LN3:
	mov	QWORD PTR [rsp+16], rdx
	mov	QWORD PTR [rsp+8], rcx
	push	rbp
	push	rdi
	sub	rsp, 232				; 000000e8H
	lea	rbp, QWORD PTR [rsp+32]
	lea	rcx, OFFSET FLAT:__85A6FDFE_tuple
	call	__CheckForDebuggerJustMyCode
	mov	rcx, QWORD PTR _Arg$[rbp]
	call	??$forward@$$T@std@@YA$$QEA$$TAEA$$T@Z	; std::forward<std::nullptr_t>
	mov	rcx, QWORD PTR this$[rbp]
	mov	rax, QWORD PTR [rax]
	mov	QWORD PTR [rcx], rax
	mov	rax, QWORD PTR this$[rbp]
	lea	rsp, QWORD PTR [rbp+200]
	pop	rdi
	pop	rbp
	ret	0
??$?0$$T@?$_Tuple_val@PEAUVkExtensionProperties@@@std@@QEAA@$$QEA$$T@Z ENDP ; std::_Tuple_val<VkExtensionProperties *>::_Tuple_val<VkExtensionProperties *><std::nullptr_t>
_TEXT	ENDS
; Function compile flags: /Odtp /RTCsu /ZI
;	COMDAT ??$?0$$T@?$_Tuple_val@PEAUVkPhysicalDeviceGroupProperties@@@std@@QEAA@$$QEA$$T@Z
_TEXT	SEGMENT
this$ = 224
_Arg$ = 232
??$?0$$T@?$_Tuple_val@PEAUVkPhysicalDeviceGroupProperties@@@std@@QEAA@$$QEA$$T@Z PROC ; std::_Tuple_val<VkPhysicalDeviceGroupProperties *>::_Tuple_val<VkPhysicalDeviceGroupProperties *><std::nullptr_t>, COMDAT
; File C:\Program Files\Microsoft Visual Studio\2022\Community\VC\Tools\MSVC\14.32.31326\include\tuple
; Line 158
$LN3:
	mov	QWORD PTR [rsp+16], rdx
	mov	QWORD PTR [rsp+8], rcx
	push	rbp
	push	rdi
	sub	rsp, 232				; 000000e8H
	lea	rbp, QWORD PTR [rsp+32]
	lea	rcx, OFFSET FLAT:__85A6FDFE_tuple
	call	__CheckForDebuggerJustMyCode
	mov	rcx, QWORD PTR _Arg$[rbp]
	call	??$forward@$$T@std@@YA$$QEA$$TAEA$$T@Z	; std::forward<std::nullptr_t>
	mov	rcx, QWORD PTR this$[rbp]
	mov	rax, QWORD PTR [rax]
	mov	QWORD PTR [rcx], rax
	mov	rax, QWORD PTR this$[rbp]
	lea	rsp, QWORD PTR [rbp+200]
	pop	rdi
	pop	rbp
	ret	0
??$?0$$T@?$_Tuple_val@PEAUVkPhysicalDeviceGroupProperties@@@std@@QEAA@$$QEA$$T@Z ENDP ; std::_Tuple_val<VkPhysicalDeviceGroupProperties *>::_Tuple_val<VkPhysicalDeviceGroupProperties *><std::nullptr_t>
_TEXT	ENDS
; Function compile flags: /Odtp /RTCsu /ZI
;	COMDAT ??$?0$$T@?$_Tuple_val@PEAPEAUVkPhysicalDevice_T@@@std@@QEAA@$$QEA$$T@Z
_TEXT	SEGMENT
this$ = 224
_Arg$ = 232
??$?0$$T@?$_Tuple_val@PEAPEAUVkPhysicalDevice_T@@@std@@QEAA@$$QEA$$T@Z PROC ; std::_Tuple_val<VkPhysicalDevice_T * *>::_Tuple_val<VkPhysicalDevice_T * *><std::nullptr_t>, COMDAT
; File C:\Program Files\Microsoft Visual Studio\2022\Community\VC\Tools\MSVC\14.32.31326\include\tuple
; Line 158
$LN3:
	mov	QWORD PTR [rsp+16], rdx
	mov	QWORD PTR [rsp+8], rcx
	push	rbp
	push	rdi
	sub	rsp, 232				; 000000e8H
	lea	rbp, QWORD PTR [rsp+32]
	lea	rcx, OFFSET FLAT:__85A6FDFE_tuple
	call	__CheckForDebuggerJustMyCode
	mov	rcx, QWORD PTR _Arg$[rbp]
	call	??$forward@$$T@std@@YA$$QEA$$TAEA$$T@Z	; std::forward<std::nullptr_t>
	mov	rcx, QWORD PTR this$[rbp]
	mov	rax, QWORD PTR [rax]
	mov	QWORD PTR [rcx], rax
	mov	rax, QWORD PTR this$[rbp]
	lea	rsp, QWORD PTR [rbp+200]
	pop	rdi
	pop	rbp
	ret	0
??$?0$$T@?$_Tuple_val@PEAPEAUVkPhysicalDevice_T@@@std@@QEAA@$$QEA$$T@Z ENDP ; std::_Tuple_val<VkPhysicalDevice_T * *>::_Tuple_val<VkPhysicalDevice_T * *><std::nullptr_t>
_TEXT	ENDS
; Function compile flags: /Odtp /RTCsu /ZI
;	COMDAT ??$_Pair_get@AEA$$TU?$pair@H$$T@std@@@std@@YAAEA$$TAEAU?$pair@H$$T@0@U?$integral_constant@_K$00@0@@Z
_TEXT	SEGMENT
_Pr$ = 224
__formal$ = 232
??$_Pair_get@AEA$$TU?$pair@H$$T@std@@@std@@YAAEA$$TAEAU?$pair@H$$T@0@U?$integral_constant@_K$00@0@@Z PROC ; std::_Pair_get<std::nullptr_t &,std::pair<int,std::nullptr_t> >, COMDAT
; File C:\Program Files\Microsoft Visual Studio\2022\Community\VC\Tools\MSVC\14.32.31326\include\utility
; Line 527
$LN3:
	mov	BYTE PTR [rsp+16], dl
	mov	QWORD PTR [rsp+8], rcx
	push	rbp
	push	rdi
	sub	rsp, 232				; 000000e8H
	lea	rbp, QWORD PTR [rsp+32]
	lea	rcx, OFFSET FLAT:__227866D8_utility
	call	__CheckForDebuggerJustMyCode
; Line 528
	mov	rax, QWORD PTR _Pr$[rbp]
	add	rax, 8
; Line 529
	lea	rsp, QWORD PTR [rbp+200]
	pop	rdi
	pop	rbp
	ret	0
??$_Pair_get@AEA$$TU?$pair@H$$T@std@@@std@@YAAEA$$TAEAU?$pair@H$$T@0@U?$integral_constant@_K$00@0@@Z ENDP ; std::_Pair_get<std::nullptr_t &,std::pair<int,std::nullptr_t> >
_TEXT	ENDS
; Function compile flags: /Odtp /RTCsu /ZI
;	COMDAT ??$_Pair_get@AEAHU?$pair@H$$T@std@@@std@@YAAEAHAEAU?$pair@H$$T@0@U?$integral_constant@_K$0A@@0@@Z
_TEXT	SEGMENT
_Pr$ = 224
__formal$ = 232
??$_Pair_get@AEAHU?$pair@H$$T@std@@@std@@YAAEAHAEAU?$pair@H$$T@0@U?$integral_constant@_K$0A@@0@@Z PROC ; std::_Pair_get<int &,std::pair<int,std::nullptr_t> >, COMDAT
; File C:\Program Files\Microsoft Visual Studio\2022\Community\VC\Tools\MSVC\14.32.31326\include\utility
; Line 522
$LN3:
	mov	BYTE PTR [rsp+16], dl
	mov	QWORD PTR [rsp+8], rcx
	push	rbp
	push	rdi
	sub	rsp, 232				; 000000e8H
	lea	rbp, QWORD PTR [rsp+32]
	lea	rcx, OFFSET FLAT:__227866D8_utility
	call	__CheckForDebuggerJustMyCode
; Line 523
	mov	rax, QWORD PTR _Pr$[rbp]
; Line 524
	lea	rsp, QWORD PTR [rbp+200]
	pop	rdi
	pop	rbp
	ret	0
??$_Pair_get@AEAHU?$pair@H$$T@std@@@std@@YAAEAHAEAU?$pair@H$$T@0@U?$integral_constant@_K$0A@@0@@Z ENDP ; std::_Pair_get<int &,std::pair<int,std::nullptr_t> >
_TEXT	ENDS
; Function compile flags: /Odtp /RTCsu /ZI
;	COMDAT ??$?0U_Exact_args_t@std@@$$T$$V$0A@@?$tuple@PEAUVkExtensionProperties@@@std@@QEAA@U_Exact_args_t@1@$$QEA$$T@Z
_TEXT	SEGMENT
$T1 = 196
tv77 = 216
this$ = 256
__formal$ = 264
_This_arg$ = 272
??$?0U_Exact_args_t@std@@$$T$$V$0A@@?$tuple@PEAUVkExtensionProperties@@@std@@QEAA@U_Exact_args_t@1@$$QEA$$T@Z PROC ; std::tuple<VkExtensionProperties *>::tuple<VkExtensionProperties *><std::_Exact_args_t,std::nullptr_t,0>, COMDAT
; File C:\Program Files\Microsoft Visual Studio\2022\Community\VC\Tools\MSVC\14.32.31326\include\tuple
; Line 245
$LN3:
	mov	QWORD PTR [rsp+24], r8
	mov	BYTE PTR [rsp+16], dl
	mov	QWORD PTR [rsp+8], rcx
	push	rbp
	push	rdi
	sub	rsp, 264				; 00000108H
	lea	rbp, QWORD PTR [rsp+32]
	lea	rcx, OFFSET FLAT:__85A6FDFE_tuple
	call	__CheckForDebuggerJustMyCode
	movzx	edx, BYTE PTR $T1[rbp]
	mov	rcx, QWORD PTR this$[rbp]
	call	??$?0U_Exact_args_t@std@@$0A@@?$tuple@$$V@std@@QEAA@U_Exact_args_t@1@@Z ; std::tuple<>::tuple<><std::_Exact_args_t,0>
	mov	rax, QWORD PTR this$[rbp]
	mov	QWORD PTR tv77[rbp], rax
	mov	rcx, QWORD PTR _This_arg$[rbp]
	call	??$forward@$$T@std@@YA$$QEA$$TAEA$$T@Z	; std::forward<std::nullptr_t>
	mov	rdx, rax
	mov	rcx, QWORD PTR tv77[rbp]
	call	??$?0$$T@?$_Tuple_val@PEAUVkExtensionProperties@@@std@@QEAA@$$QEA$$T@Z ; std::_Tuple_val<VkExtensionProperties *>::_Tuple_val<VkExtensionProperties *><std::nullptr_t>
	mov	rax, QWORD PTR this$[rbp]
	lea	rsp, QWORD PTR [rbp+232]
	pop	rdi
	pop	rbp
	ret	0
??$?0U_Exact_args_t@std@@$$T$$V$0A@@?$tuple@PEAUVkExtensionProperties@@@std@@QEAA@U_Exact_args_t@1@$$QEA$$T@Z ENDP ; std::tuple<VkExtensionProperties *>::tuple<VkExtensionProperties *><std::_Exact_args_t,std::nullptr_t,0>
_TEXT	ENDS
; Function compile flags: /Odtp /RTCsu /ZI
;	COMDAT ??$?0U_Exact_args_t@std@@$$T$$V$0A@@?$tuple@PEAUVkPhysicalDeviceGroupProperties@@@std@@QEAA@U_Exact_args_t@1@$$QEA$$T@Z
_TEXT	SEGMENT
$T1 = 196
tv77 = 216
this$ = 256
__formal$ = 264
_This_arg$ = 272
??$?0U_Exact_args_t@std@@$$T$$V$0A@@?$tuple@PEAUVkPhysicalDeviceGroupProperties@@@std@@QEAA@U_Exact_args_t@1@$$QEA$$T@Z PROC ; std::tuple<VkPhysicalDeviceGroupProperties *>::tuple<VkPhysicalDeviceGroupProperties *><std::_Exact_args_t,std::nullptr_t,0>, COMDAT
; File C:\Program Files\Microsoft Visual Studio\2022\Community\VC\Tools\MSVC\14.32.31326\include\tuple
; Line 245
$LN3:
	mov	QWORD PTR [rsp+24], r8
	mov	BYTE PTR [rsp+16], dl
	mov	QWORD PTR [rsp+8], rcx
	push	rbp
	push	rdi
	sub	rsp, 264				; 00000108H
	lea	rbp, QWORD PTR [rsp+32]
	lea	rcx, OFFSET FLAT:__85A6FDFE_tuple
	call	__CheckForDebuggerJustMyCode
	movzx	edx, BYTE PTR $T1[rbp]
	mov	rcx, QWORD PTR this$[rbp]
	call	??$?0U_Exact_args_t@std@@$0A@@?$tuple@$$V@std@@QEAA@U_Exact_args_t@1@@Z ; std::tuple<>::tuple<><std::_Exact_args_t,0>
	mov	rax, QWORD PTR this$[rbp]
	mov	QWORD PTR tv77[rbp], rax
	mov	rcx, QWORD PTR _This_arg$[rbp]
	call	??$forward@$$T@std@@YA$$QEA$$TAEA$$T@Z	; std::forward<std::nullptr_t>
	mov	rdx, rax
	mov	rcx, QWORD PTR tv77[rbp]
	call	??$?0$$T@?$_Tuple_val@PEAUVkPhysicalDeviceGroupProperties@@@std@@QEAA@$$QEA$$T@Z ; std::_Tuple_val<VkPhysicalDeviceGroupProperties *>::_Tuple_val<VkPhysicalDeviceGroupProperties *><std::nullptr_t>
	mov	rax, QWORD PTR this$[rbp]
	lea	rsp, QWORD PTR [rbp+232]
	pop	rdi
	pop	rbp
	ret	0
??$?0U_Exact_args_t@std@@$$T$$V$0A@@?$tuple@PEAUVkPhysicalDeviceGroupProperties@@@std@@QEAA@U_Exact_args_t@1@$$QEA$$T@Z ENDP ; std::tuple<VkPhysicalDeviceGroupProperties *>::tuple<VkPhysicalDeviceGroupProperties *><std::_Exact_args_t,std::nullptr_t,0>
_TEXT	ENDS
; Function compile flags: /Odtp /RTCsu /ZI
;	COMDAT ??$?0H@?$_Tuple_val@I@std@@QEAA@$$QEAH@Z
_TEXT	SEGMENT
this$ = 224
_Arg$ = 232
??$?0H@?$_Tuple_val@I@std@@QEAA@$$QEAH@Z PROC		; std::_Tuple_val<unsigned int>::_Tuple_val<unsigned int><int>, COMDAT
; File C:\Program Files\Microsoft Visual Studio\2022\Community\VC\Tools\MSVC\14.32.31326\include\tuple
; Line 158
$LN3:
	mov	QWORD PTR [rsp+16], rdx
	mov	QWORD PTR [rsp+8], rcx
	push	rbp
	push	rdi
	sub	rsp, 232				; 000000e8H
	lea	rbp, QWORD PTR [rsp+32]
	lea	rcx, OFFSET FLAT:__85A6FDFE_tuple
	call	__CheckForDebuggerJustMyCode
	mov	rcx, QWORD PTR _Arg$[rbp]
	call	??$forward@H@std@@YA$$QEAHAEAH@Z	; std::forward<int>
	mov	rcx, QWORD PTR this$[rbp]
	mov	eax, DWORD PTR [rax]
	mov	DWORD PTR [rcx], eax
	mov	rax, QWORD PTR this$[rbp]
	lea	rsp, QWORD PTR [rbp+200]
	pop	rdi
	pop	rbp
	ret	0
??$?0H@?$_Tuple_val@I@std@@QEAA@$$QEAH@Z ENDP		; std::_Tuple_val<unsigned int>::_Tuple_val<unsigned int><int>
_TEXT	ENDS
; Function compile flags: /Odtp /RTCsu /ZI
;	COMDAT ??$?0U_Exact_args_t@std@@$$T$$V$0A@@?$tuple@PEAPEAUVkPhysicalDevice_T@@@std@@QEAA@U_Exact_args_t@1@$$QEA$$T@Z
_TEXT	SEGMENT
$T1 = 196
tv77 = 216
this$ = 256
__formal$ = 264
_This_arg$ = 272
??$?0U_Exact_args_t@std@@$$T$$V$0A@@?$tuple@PEAPEAUVkPhysicalDevice_T@@@std@@QEAA@U_Exact_args_t@1@$$QEA$$T@Z PROC ; std::tuple<VkPhysicalDevice_T * *>::tuple<VkPhysicalDevice_T * *><std::_Exact_args_t,std::nullptr_t,0>, COMDAT
; File C:\Program Files\Microsoft Visual Studio\2022\Community\VC\Tools\MSVC\14.32.31326\include\tuple
; Line 245
$LN3:
	mov	QWORD PTR [rsp+24], r8
	mov	BYTE PTR [rsp+16], dl
	mov	QWORD PTR [rsp+8], rcx
	push	rbp
	push	rdi
	sub	rsp, 264				; 00000108H
	lea	rbp, QWORD PTR [rsp+32]
	lea	rcx, OFFSET FLAT:__85A6FDFE_tuple
	call	__CheckForDebuggerJustMyCode
	movzx	edx, BYTE PTR $T1[rbp]
	mov	rcx, QWORD PTR this$[rbp]
	call	??$?0U_Exact_args_t@std@@$0A@@?$tuple@$$V@std@@QEAA@U_Exact_args_t@1@@Z ; std::tuple<>::tuple<><std::_Exact_args_t,0>
	mov	rax, QWORD PTR this$[rbp]
	mov	QWORD PTR tv77[rbp], rax
	mov	rcx, QWORD PTR _This_arg$[rbp]
	call	??$forward@$$T@std@@YA$$QEA$$TAEA$$T@Z	; std::forward<std::nullptr_t>
	mov	rdx, rax
	mov	rcx, QWORD PTR tv77[rbp]
	call	??$?0$$T@?$_Tuple_val@PEAPEAUVkPhysicalDevice_T@@@std@@QEAA@$$QEA$$T@Z ; std::_Tuple_val<VkPhysicalDevice_T * *>::_Tuple_val<VkPhysicalDevice_T * *><std::nullptr_t>
	mov	rax, QWORD PTR this$[rbp]
	lea	rsp, QWORD PTR [rbp+232]
	pop	rdi
	pop	rbp
	ret	0
??$?0U_Exact_args_t@std@@$$T$$V$0A@@?$tuple@PEAPEAUVkPhysicalDevice_T@@@std@@QEAA@U_Exact_args_t@1@$$QEA$$T@Z ENDP ; std::tuple<VkPhysicalDevice_T * *>::tuple<VkPhysicalDevice_T * *><std::_Exact_args_t,std::nullptr_t,0>
_TEXT	ENDS
; Function compile flags: /Odtp /RTCsu /ZI
;	COMDAT ??$forward@$$QEA$$T@std@@YA$$QEA$$TAEA$$T@Z
_TEXT	SEGMENT
_Arg$ = 224
??$forward@$$QEA$$T@std@@YA$$QEA$$TAEA$$T@Z PROC	; std::forward<std::nullptr_t &&>, COMDAT
; File C:\Program Files\Microsoft Visual Studio\2022\Community\VC\Tools\MSVC\14.32.31326\include\type_traits
; Line 1341
$LN3:
	mov	QWORD PTR [rsp+8], rcx
	push	rbp
	push	rdi
	sub	rsp, 232				; 000000e8H
	lea	rbp, QWORD PTR [rsp+32]
	lea	rcx, OFFSET FLAT:__4CC0724B_type_traits
	call	__CheckForDebuggerJustMyCode
; Line 1342
	mov	rax, QWORD PTR _Arg$[rbp]
; Line 1343
	lea	rsp, QWORD PTR [rbp+200]
	pop	rdi
	pop	rbp
	ret	0
??$forward@$$QEA$$T@std@@YA$$QEA$$TAEA$$T@Z ENDP	; std::forward<std::nullptr_t &&>
_TEXT	ENDS
; Function compile flags: /Odtp /RTCsu /ZI
;	COMDAT ??$forward@$$QEAH@std@@YA$$QEAHAEAH@Z
_TEXT	SEGMENT
_Arg$ = 224
??$forward@$$QEAH@std@@YA$$QEAHAEAH@Z PROC		; std::forward<int &&>, COMDAT
; File C:\Program Files\Microsoft Visual Studio\2022\Community\VC\Tools\MSVC\14.32.31326\include\type_traits
; Line 1341
$LN3:
	mov	QWORD PTR [rsp+8], rcx
	push	rbp
	push	rdi
	sub	rsp, 232				; 000000e8H
	lea	rbp, QWORD PTR [rsp+32]
	lea	rcx, OFFSET FLAT:__4CC0724B_type_traits
	call	__CheckForDebuggerJustMyCode
; Line 1342
	mov	rax, QWORD PTR _Arg$[rbp]
; Line 1343
	lea	rsp, QWORD PTR [rbp+200]
	pop	rdi
	pop	rbp
	ret	0
??$forward@$$QEAH@std@@YA$$QEAHAEAH@Z ENDP		; std::forward<int &&>
_TEXT	ENDS
; Function compile flags: /Odtp /RTCsu /ZI
;	COMDAT ??$?0AEAPEAUVkExtensionProperties@@@?$_Tuple_val@PEAUVkExtensionProperties@@@std@@QEAA@AEAPEAUVkExtensionProperties@@@Z
_TEXT	SEGMENT
this$ = 224
_Arg$ = 232
??$?0AEAPEAUVkExtensionProperties@@@?$_Tuple_val@PEAUVkExtensionProperties@@@std@@QEAA@AEAPEAUVkExtensionProperties@@@Z PROC ; std::_Tuple_val<VkExtensionProperties *>::_Tuple_val<VkExtensionProperties *><VkExtensionProperties * &>, COMDAT
; File C:\Program Files\Microsoft Visual Studio\2022\Community\VC\Tools\MSVC\14.32.31326\include\tuple
; Line 158
$LN3:
	mov	QWORD PTR [rsp+16], rdx
	mov	QWORD PTR [rsp+8], rcx
	push	rbp
	push	rdi
	sub	rsp, 232				; 000000e8H
	lea	rbp, QWORD PTR [rsp+32]
	lea	rcx, OFFSET FLAT:__85A6FDFE_tuple
	call	__CheckForDebuggerJustMyCode
	mov	rcx, QWORD PTR _Arg$[rbp]
	call	??$forward@AEAPEAUVkExtensionProperties@@@std@@YAAEAPEAUVkExtensionProperties@@AEAPEAU1@@Z ; std::forward<VkExtensionProperties * &>
	mov	rcx, QWORD PTR this$[rbp]
	mov	rax, QWORD PTR [rax]
	mov	QWORD PTR [rcx], rax
	mov	rax, QWORD PTR this$[rbp]
	lea	rsp, QWORD PTR [rbp+200]
	pop	rdi
	pop	rbp
	ret	0
??$?0AEAPEAUVkExtensionProperties@@@?$_Tuple_val@PEAUVkExtensionProperties@@@std@@QEAA@AEAPEAUVkExtensionProperties@@@Z ENDP ; std::_Tuple_val<VkExtensionProperties *>::_Tuple_val<VkExtensionProperties *><VkExtensionProperties * &>
_TEXT	ENDS
; Function compile flags: /Odtp /RTCsu /ZI
;	COMDAT ??$?0U_Exact_args_t@std@@H$$T$0A@@?$tuple@IPEAUVkExtensionProperties@@@std@@QEAA@U_Exact_args_t@1@$$QEAH$$QEA$$T@Z
_TEXT	SEGMENT
$T1 = 196
$T2 = 228
tv83 = 248
tv76 = 248
this$ = 288
__formal$ = 296
_This_arg$ = 304
<_Rest_arg_0>$ = 312
??$?0U_Exact_args_t@std@@H$$T$0A@@?$tuple@IPEAUVkExtensionProperties@@@std@@QEAA@U_Exact_args_t@1@$$QEAH$$QEA$$T@Z PROC ; std::tuple<unsigned int,VkExtensionProperties *>::tuple<unsigned int,VkExtensionProperties *><std::_Exact_args_t,int,std::nullptr_t,0>, COMDAT
; File C:\Program Files\Microsoft Visual Studio\2022\Community\VC\Tools\MSVC\14.32.31326\include\tuple
; Line 245
$LN3:
	mov	QWORD PTR [rsp+32], r9
	mov	QWORD PTR [rsp+24], r8
	mov	BYTE PTR [rsp+16], dl
	mov	QWORD PTR [rsp+8], rcx
	push	rbp
	push	rdi
	sub	rsp, 296				; 00000128H
	lea	rbp, QWORD PTR [rsp+32]
	lea	rcx, OFFSET FLAT:__85A6FDFE_tuple
	call	__CheckForDebuggerJustMyCode
	mov	rcx, QWORD PTR <_Rest_arg_0>$[rbp]
	call	??$forward@$$T@std@@YA$$QEA$$TAEA$$T@Z	; std::forward<std::nullptr_t>
	mov	QWORD PTR tv76[rbp], rax
	movzx	eax, BYTE PTR $T1[rbp]
	mov	BYTE PTR $T2[rbp], al
	mov	r8, QWORD PTR tv76[rbp]
	movzx	edx, BYTE PTR $T2[rbp]
	mov	rcx, QWORD PTR this$[rbp]
	call	??$?0U_Exact_args_t@std@@$$T$$V$0A@@?$tuple@PEAUVkExtensionProperties@@@std@@QEAA@U_Exact_args_t@1@$$QEA$$T@Z ; std::tuple<VkExtensionProperties *>::tuple<VkExtensionProperties *><std::_Exact_args_t,std::nullptr_t,0>
	mov	rax, QWORD PTR this$[rbp]
	add	rax, 8
	mov	QWORD PTR tv83[rbp], rax
	mov	rcx, QWORD PTR _This_arg$[rbp]
	call	??$forward@H@std@@YA$$QEAHAEAH@Z	; std::forward<int>
	mov	rdx, rax
	mov	rcx, QWORD PTR tv83[rbp]
	call	??$?0H@?$_Tuple_val@I@std@@QEAA@$$QEAH@Z ; std::_Tuple_val<unsigned int>::_Tuple_val<unsigned int><int>
	mov	rax, QWORD PTR this$[rbp]
	lea	rsp, QWORD PTR [rbp+264]
	pop	rdi
	pop	rbp
	ret	0
??$?0U_Exact_args_t@std@@H$$T$0A@@?$tuple@IPEAUVkExtensionProperties@@@std@@QEAA@U_Exact_args_t@1@$$QEAH$$QEA$$T@Z ENDP ; std::tuple<unsigned int,VkExtensionProperties *>::tuple<unsigned int,VkExtensionProperties *><std::_Exact_args_t,int,std::nullptr_t,0>
_TEXT	ENDS
; Function compile flags: /Odtp /RTCsu /ZI
;	COMDAT ??$?0AEAPEAUVkPhysicalDeviceGroupProperties@@@?$_Tuple_val@PEAUVkPhysicalDeviceGroupProperties@@@std@@QEAA@AEAPEAUVkPhysicalDeviceGroupProperties@@@Z
_TEXT	SEGMENT
this$ = 224
_Arg$ = 232
??$?0AEAPEAUVkPhysicalDeviceGroupProperties@@@?$_Tuple_val@PEAUVkPhysicalDeviceGroupProperties@@@std@@QEAA@AEAPEAUVkPhysicalDeviceGroupProperties@@@Z PROC ; std::_Tuple_val<VkPhysicalDeviceGroupProperties *>::_Tuple_val<VkPhysicalDeviceGroupProperties *><VkPhysicalDeviceGroupProperties * &>, COMDAT
; File C:\Program Files\Microsoft Visual Studio\2022\Community\VC\Tools\MSVC\14.32.31326\include\tuple
; Line 158
$LN3:
	mov	QWORD PTR [rsp+16], rdx
	mov	QWORD PTR [rsp+8], rcx
	push	rbp
	push	rdi
	sub	rsp, 232				; 000000e8H
	lea	rbp, QWORD PTR [rsp+32]
	lea	rcx, OFFSET FLAT:__85A6FDFE_tuple
	call	__CheckForDebuggerJustMyCode
	mov	rcx, QWORD PTR _Arg$[rbp]
	call	??$forward@AEAPEAUVkPhysicalDeviceGroupProperties@@@std@@YAAEAPEAUVkPhysicalDeviceGroupProperties@@AEAPEAU1@@Z ; std::forward<VkPhysicalDeviceGroupProperties * &>
	mov	rcx, QWORD PTR this$[rbp]
	mov	rax, QWORD PTR [rax]
	mov	QWORD PTR [rcx], rax
	mov	rax, QWORD PTR this$[rbp]
	lea	rsp, QWORD PTR [rbp+200]
	pop	rdi
	pop	rbp
	ret	0
??$?0AEAPEAUVkPhysicalDeviceGroupProperties@@@?$_Tuple_val@PEAUVkPhysicalDeviceGroupProperties@@@std@@QEAA@AEAPEAUVkPhysicalDeviceGroupProperties@@@Z ENDP ; std::_Tuple_val<VkPhysicalDeviceGroupProperties *>::_Tuple_val<VkPhysicalDeviceGroupProperties *><VkPhysicalDeviceGroupProperties * &>
_TEXT	ENDS
; Function compile flags: /Odtp /RTCsu /ZI
;	COMDAT ??$?0U_Exact_args_t@std@@H$$T$0A@@?$tuple@IPEAUVkPhysicalDeviceGroupProperties@@@std@@QEAA@U_Exact_args_t@1@$$QEAH$$QEA$$T@Z
_TEXT	SEGMENT
$T1 = 196
$T2 = 228
tv83 = 248
tv76 = 248
this$ = 288
__formal$ = 296
_This_arg$ = 304
<_Rest_arg_0>$ = 312
??$?0U_Exact_args_t@std@@H$$T$0A@@?$tuple@IPEAUVkPhysicalDeviceGroupProperties@@@std@@QEAA@U_Exact_args_t@1@$$QEAH$$QEA$$T@Z PROC ; std::tuple<unsigned int,VkPhysicalDeviceGroupProperties *>::tuple<unsigned int,VkPhysicalDeviceGroupProperties *><std::_Exact_args_t,int,std::nullptr_t,0>, COMDAT
; File C:\Program Files\Microsoft Visual Studio\2022\Community\VC\Tools\MSVC\14.32.31326\include\tuple
; Line 245
$LN3:
	mov	QWORD PTR [rsp+32], r9
	mov	QWORD PTR [rsp+24], r8
	mov	BYTE PTR [rsp+16], dl
	mov	QWORD PTR [rsp+8], rcx
	push	rbp
	push	rdi
	sub	rsp, 296				; 00000128H
	lea	rbp, QWORD PTR [rsp+32]
	lea	rcx, OFFSET FLAT:__85A6FDFE_tuple
	call	__CheckForDebuggerJustMyCode
	mov	rcx, QWORD PTR <_Rest_arg_0>$[rbp]
	call	??$forward@$$T@std@@YA$$QEA$$TAEA$$T@Z	; std::forward<std::nullptr_t>
	mov	QWORD PTR tv76[rbp], rax
	movzx	eax, BYTE PTR $T1[rbp]
	mov	BYTE PTR $T2[rbp], al
	mov	r8, QWORD PTR tv76[rbp]
	movzx	edx, BYTE PTR $T2[rbp]
	mov	rcx, QWORD PTR this$[rbp]
	call	??$?0U_Exact_args_t@std@@$$T$$V$0A@@?$tuple@PEAUVkPhysicalDeviceGroupProperties@@@std@@QEAA@U_Exact_args_t@1@$$QEA$$T@Z ; std::tuple<VkPhysicalDeviceGroupProperties *>::tuple<VkPhysicalDeviceGroupProperties *><std::_Exact_args_t,std::nullptr_t,0>
	mov	rax, QWORD PTR this$[rbp]
	add	rax, 8
	mov	QWORD PTR tv83[rbp], rax
	mov	rcx, QWORD PTR _This_arg$[rbp]
	call	??$forward@H@std@@YA$$QEAHAEAH@Z	; std::forward<int>
	mov	rdx, rax
	mov	rcx, QWORD PTR tv83[rbp]
	call	??$?0H@?$_Tuple_val@I@std@@QEAA@$$QEAH@Z ; std::_Tuple_val<unsigned int>::_Tuple_val<unsigned int><int>
	mov	rax, QWORD PTR this$[rbp]
	lea	rsp, QWORD PTR [rbp+264]
	pop	rdi
	pop	rbp
	ret	0
??$?0U_Exact_args_t@std@@H$$T$0A@@?$tuple@IPEAUVkPhysicalDeviceGroupProperties@@@std@@QEAA@U_Exact_args_t@1@$$QEAH$$QEA$$T@Z ENDP ; std::tuple<unsigned int,VkPhysicalDeviceGroupProperties *>::tuple<unsigned int,VkPhysicalDeviceGroupProperties *><std::_Exact_args_t,int,std::nullptr_t,0>
_TEXT	ENDS
; Function compile flags: /Odtp /RTCsu /ZI
;	COMDAT ??$?0AEAPEAPEAUVkPhysicalDevice_T@@@?$_Tuple_val@PEAPEAUVkPhysicalDevice_T@@@std@@QEAA@AEAPEAPEAUVkPhysicalDevice_T@@@Z
_TEXT	SEGMENT
this$ = 224
_Arg$ = 232
??$?0AEAPEAPEAUVkPhysicalDevice_T@@@?$_Tuple_val@PEAPEAUVkPhysicalDevice_T@@@std@@QEAA@AEAPEAPEAUVkPhysicalDevice_T@@@Z PROC ; std::_Tuple_val<VkPhysicalDevice_T * *>::_Tuple_val<VkPhysicalDevice_T * *><VkPhysicalDevice_T * * &>, COMDAT
; File C:\Program Files\Microsoft Visual Studio\2022\Community\VC\Tools\MSVC\14.32.31326\include\tuple
; Line 158
$LN3:
	mov	QWORD PTR [rsp+16], rdx
	mov	QWORD PTR [rsp+8], rcx
	push	rbp
	push	rdi
	sub	rsp, 232				; 000000e8H
	lea	rbp, QWORD PTR [rsp+32]
	lea	rcx, OFFSET FLAT:__85A6FDFE_tuple
	call	__CheckForDebuggerJustMyCode
	mov	rcx, QWORD PTR _Arg$[rbp]
	call	??$forward@AEAPEAPEAUVkPhysicalDevice_T@@@std@@YAAEAPEAPEAUVkPhysicalDevice_T@@AEAPEAPEAU1@@Z ; std::forward<VkPhysicalDevice_T * * &>
	mov	rcx, QWORD PTR this$[rbp]
	mov	rax, QWORD PTR [rax]
	mov	QWORD PTR [rcx], rax
	mov	rax, QWORD PTR this$[rbp]
	lea	rsp, QWORD PTR [rbp+200]
	pop	rdi
	pop	rbp
	ret	0
??$?0AEAPEAPEAUVkPhysicalDevice_T@@@?$_Tuple_val@PEAPEAUVkPhysicalDevice_T@@@std@@QEAA@AEAPEAPEAUVkPhysicalDevice_T@@@Z ENDP ; std::_Tuple_val<VkPhysicalDevice_T * *>::_Tuple_val<VkPhysicalDevice_T * *><VkPhysicalDevice_T * * &>
_TEXT	ENDS
; Function compile flags: /Odtp /RTCsu /ZI
;	COMDAT ??$?0U_Exact_args_t@std@@$0A@@?$tuple@$$V@std@@QEAA@U_Exact_args_t@1@@Z
_TEXT	SEGMENT
this$ = 224
__formal$ = 232
??$?0U_Exact_args_t@std@@$0A@@?$tuple@$$V@std@@QEAA@U_Exact_args_t@1@@Z PROC ; std::tuple<>::tuple<><std::_Exact_args_t,0>, COMDAT
; File C:\Program Files\Microsoft Visual Studio\2022\Community\VC\Tools\MSVC\14.32.31326\include\tuple
; Line 213
$LN3:
	mov	BYTE PTR [rsp+16], dl
	mov	QWORD PTR [rsp+8], rcx
	push	rbp
	push	rdi
	sub	rsp, 232				; 000000e8H
	lea	rbp, QWORD PTR [rsp+32]
	lea	rcx, OFFSET FLAT:__85A6FDFE_tuple
	call	__CheckForDebuggerJustMyCode
	mov	rax, QWORD PTR this$[rbp]
	lea	rsp, QWORD PTR [rbp+200]
	pop	rdi
	pop	rbp
	ret	0
??$?0U_Exact_args_t@std@@$0A@@?$tuple@$$V@std@@QEAA@U_Exact_args_t@1@@Z ENDP ; std::tuple<>::tuple<><std::_Exact_args_t,0>
_TEXT	ENDS
; Function compile flags: /Odtp /RTCsu /ZI
;	COMDAT ??$?0U_Exact_args_t@std@@H$$T$0A@@?$tuple@IPEAPEAUVkPhysicalDevice_T@@@std@@QEAA@U_Exact_args_t@1@$$QEAH$$QEA$$T@Z
_TEXT	SEGMENT
$T1 = 196
$T2 = 228
tv83 = 248
tv76 = 248
this$ = 288
__formal$ = 296
_This_arg$ = 304
<_Rest_arg_0>$ = 312
??$?0U_Exact_args_t@std@@H$$T$0A@@?$tuple@IPEAPEAUVkPhysicalDevice_T@@@std@@QEAA@U_Exact_args_t@1@$$QEAH$$QEA$$T@Z PROC ; std::tuple<unsigned int,VkPhysicalDevice_T * *>::tuple<unsigned int,VkPhysicalDevice_T * *><std::_Exact_args_t,int,std::nullptr_t,0>, COMDAT
; File C:\Program Files\Microsoft Visual Studio\2022\Community\VC\Tools\MSVC\14.32.31326\include\tuple
; Line 245
$LN3:
	mov	QWORD PTR [rsp+32], r9
	mov	QWORD PTR [rsp+24], r8
	mov	BYTE PTR [rsp+16], dl
	mov	QWORD PTR [rsp+8], rcx
	push	rbp
	push	rdi
	sub	rsp, 296				; 00000128H
	lea	rbp, QWORD PTR [rsp+32]
	lea	rcx, OFFSET FLAT:__85A6FDFE_tuple
	call	__CheckForDebuggerJustMyCode
	mov	rcx, QWORD PTR <_Rest_arg_0>$[rbp]
	call	??$forward@$$T@std@@YA$$QEA$$TAEA$$T@Z	; std::forward<std::nullptr_t>
	mov	QWORD PTR tv76[rbp], rax
	movzx	eax, BYTE PTR $T1[rbp]
	mov	BYTE PTR $T2[rbp], al
	mov	r8, QWORD PTR tv76[rbp]
	movzx	edx, BYTE PTR $T2[rbp]
	mov	rcx, QWORD PTR this$[rbp]
	call	??$?0U_Exact_args_t@std@@$$T$$V$0A@@?$tuple@PEAPEAUVkPhysicalDevice_T@@@std@@QEAA@U_Exact_args_t@1@$$QEA$$T@Z ; std::tuple<VkPhysicalDevice_T * *>::tuple<VkPhysicalDevice_T * *><std::_Exact_args_t,std::nullptr_t,0>
	mov	rax, QWORD PTR this$[rbp]
	add	rax, 8
	mov	QWORD PTR tv83[rbp], rax
	mov	rcx, QWORD PTR _This_arg$[rbp]
	call	??$forward@H@std@@YA$$QEAHAEAH@Z	; std::forward<int>
	mov	rdx, rax
	mov	rcx, QWORD PTR tv83[rbp]
	call	??$?0H@?$_Tuple_val@I@std@@QEAA@$$QEAH@Z ; std::_Tuple_val<unsigned int>::_Tuple_val<unsigned int><int>
	mov	rax, QWORD PTR this$[rbp]
	lea	rsp, QWORD PTR [rbp+264]
	pop	rdi
	pop	rbp
	ret	0
??$?0U_Exact_args_t@std@@H$$T$0A@@?$tuple@IPEAPEAUVkPhysicalDevice_T@@@std@@QEAA@U_Exact_args_t@1@$$QEAH$$QEA$$T@Z ENDP ; std::tuple<unsigned int,VkPhysicalDevice_T * *>::tuple<unsigned int,VkPhysicalDevice_T * *><std::_Exact_args_t,int,std::nullptr_t,0>
_TEXT	ENDS
; Function compile flags: /Odtp /RTCsu /ZI
;	COMDAT ??$get@$00H$$T@std@@YAAEA$$TAEAU?$pair@H$$T@0@@Z
_TEXT	SEGMENT
$T1 = 196
_Pr$ = 256
??$get@$00H$$T@std@@YAAEA$$TAEAU?$pair@H$$T@0@@Z PROC	; std::get<1,int,std::nullptr_t>, COMDAT
; File C:\Program Files\Microsoft Visual Studio\2022\Community\VC\Tools\MSVC\14.32.31326\include\utility
; Line 533
$LN3:
	mov	QWORD PTR [rsp+8], rcx
	push	rbp
	push	rdi
	sub	rsp, 264				; 00000108H
	lea	rbp, QWORD PTR [rsp+32]
	lea	rcx, OFFSET FLAT:__227866D8_utility
	call	__CheckForDebuggerJustMyCode
; Line 535
	lea	rax, QWORD PTR $T1[rbp]
	mov	rdi, rax
	xor	eax, eax
	mov	ecx, 1
	rep stosb
	movzx	edx, BYTE PTR $T1[rbp]
	mov	rcx, QWORD PTR _Pr$[rbp]
	call	??$_Pair_get@AEA$$TU?$pair@H$$T@std@@@std@@YAAEA$$TAEAU?$pair@H$$T@0@U?$integral_constant@_K$00@0@@Z ; std::_Pair_get<std::nullptr_t &,std::pair<int,std::nullptr_t> >
; Line 536
	lea	rsp, QWORD PTR [rbp+232]
	pop	rdi
	pop	rbp
	ret	0
??$get@$00H$$T@std@@YAAEA$$TAEAU?$pair@H$$T@0@@Z ENDP	; std::get<1,int,std::nullptr_t>
_TEXT	ENDS
; Function compile flags: /Odtp /RTCsu /ZI
;	COMDAT ??$get@$00H$$T@std@@YA$$QEA$$T$$QEAU?$pair@H$$T@0@@Z
_TEXT	SEGMENT
_Pr$ = 224
??$get@$00H$$T@std@@YA$$QEA$$T$$QEAU?$pair@H$$T@0@@Z PROC ; std::get<1,int,std::nullptr_t>, COMDAT
; File C:\Program Files\Microsoft Visual Studio\2022\Community\VC\Tools\MSVC\14.32.31326\include\utility
; Line 569
$LN3:
	mov	QWORD PTR [rsp+8], rcx
	push	rbp
	push	rdi
	sub	rsp, 232				; 000000e8H
	lea	rbp, QWORD PTR [rsp+32]
	lea	rcx, OFFSET FLAT:__227866D8_utility
	call	__CheckForDebuggerJustMyCode
; Line 571
	mov	rcx, QWORD PTR _Pr$[rbp]
	call	??$get@$00H$$T@std@@YAAEA$$TAEAU?$pair@H$$T@0@@Z ; std::get<1,int,std::nullptr_t>
	mov	rcx, rax
	call	??$forward@$$QEA$$T@std@@YA$$QEA$$TAEA$$T@Z ; std::forward<std::nullptr_t &&>
; Line 572
	lea	rsp, QWORD PTR [rbp+200]
	pop	rdi
	pop	rbp
	ret	0
??$get@$00H$$T@std@@YA$$QEA$$T$$QEAU?$pair@H$$T@0@@Z ENDP ; std::get<1,int,std::nullptr_t>
_TEXT	ENDS
; Function compile flags: /Odtp /RTCsu /ZI
;	COMDAT ??$get@$0A@H$$T@std@@YAAEAHAEAU?$pair@H$$T@0@@Z
_TEXT	SEGMENT
$T1 = 196
_Pr$ = 256
??$get@$0A@H$$T@std@@YAAEAHAEAU?$pair@H$$T@0@@Z PROC	; std::get<0,int,std::nullptr_t>, COMDAT
; File C:\Program Files\Microsoft Visual Studio\2022\Community\VC\Tools\MSVC\14.32.31326\include\utility
; Line 533
$LN3:
	mov	QWORD PTR [rsp+8], rcx
	push	rbp
	push	rdi
	sub	rsp, 264				; 00000108H
	lea	rbp, QWORD PTR [rsp+32]
	lea	rcx, OFFSET FLAT:__227866D8_utility
	call	__CheckForDebuggerJustMyCode
; Line 535
	lea	rax, QWORD PTR $T1[rbp]
	mov	rdi, rax
	xor	eax, eax
	mov	ecx, 1
	rep stosb
	movzx	edx, BYTE PTR $T1[rbp]
	mov	rcx, QWORD PTR _Pr$[rbp]
	call	??$_Pair_get@AEAHU?$pair@H$$T@std@@@std@@YAAEAHAEAU?$pair@H$$T@0@U?$integral_constant@_K$0A@@0@@Z ; std::_Pair_get<int &,std::pair<int,std::nullptr_t> >
; Line 536
	lea	rsp, QWORD PTR [rbp+232]
	pop	rdi
	pop	rbp
	ret	0
??$get@$0A@H$$T@std@@YAAEAHAEAU?$pair@H$$T@0@@Z ENDP	; std::get<0,int,std::nullptr_t>
_TEXT	ENDS
; Function compile flags: /Odtp /RTCsu /ZI
;	COMDAT ??$get@$0A@H$$T@std@@YA$$QEAH$$QEAU?$pair@H$$T@0@@Z
_TEXT	SEGMENT
_Pr$ = 224
??$get@$0A@H$$T@std@@YA$$QEAH$$QEAU?$pair@H$$T@0@@Z PROC ; std::get<0,int,std::nullptr_t>, COMDAT
; File C:\Program Files\Microsoft Visual Studio\2022\Community\VC\Tools\MSVC\14.32.31326\include\utility
; Line 569
$LN3:
	mov	QWORD PTR [rsp+8], rcx
	push	rbp
	push	rdi
	sub	rsp, 232				; 000000e8H
	lea	rbp, QWORD PTR [rsp+32]
	lea	rcx, OFFSET FLAT:__227866D8_utility
	call	__CheckForDebuggerJustMyCode
; Line 571
	mov	rcx, QWORD PTR _Pr$[rbp]
	call	??$get@$0A@H$$T@std@@YAAEAHAEAU?$pair@H$$T@0@@Z ; std::get<0,int,std::nullptr_t>
	mov	rcx, rax
	call	??$forward@$$QEAH@std@@YA$$QEAHAEAH@Z	; std::forward<int &&>
; Line 572
	lea	rsp, QWORD PTR [rbp+200]
	pop	rdi
	pop	rbp
	ret	0
??$get@$0A@H$$T@std@@YA$$QEAH$$QEAU?$pair@H$$T@0@@Z ENDP ; std::get<0,int,std::nullptr_t>
_TEXT	ENDS
; Function compile flags: /Odtp /RTCsu /ZI
;	COMDAT ??$?0U_Exact_args_t@std@@AEAPEAUVkExtensionProperties@@$$V$0A@@?$tuple@PEAUVkExtensionProperties@@@std@@QEAA@U_Exact_args_t@1@AEAPEAUVkExtensionProperties@@@Z
_TEXT	SEGMENT
$T1 = 196
tv77 = 216
this$ = 256
__formal$ = 264
_This_arg$ = 272
??$?0U_Exact_args_t@std@@AEAPEAUVkExtensionProperties@@$$V$0A@@?$tuple@PEAUVkExtensionProperties@@@std@@QEAA@U_Exact_args_t@1@AEAPEAUVkExtensionProperties@@@Z PROC ; std::tuple<VkExtensionProperties *>::tuple<VkExtensionProperties *><std::_Exact_args_t,VkExtensionProperties * &,0>, COMDAT
; File C:\Program Files\Microsoft Visual Studio\2022\Community\VC\Tools\MSVC\14.32.31326\include\tuple
; Line 245
$LN3:
	mov	QWORD PTR [rsp+24], r8
	mov	BYTE PTR [rsp+16], dl
	mov	QWORD PTR [rsp+8], rcx
	push	rbp
	push	rdi
	sub	rsp, 264				; 00000108H
	lea	rbp, QWORD PTR [rsp+32]
	lea	rcx, OFFSET FLAT:__85A6FDFE_tuple
	call	__CheckForDebuggerJustMyCode
	movzx	edx, BYTE PTR $T1[rbp]
	mov	rcx, QWORD PTR this$[rbp]
	call	??$?0U_Exact_args_t@std@@$0A@@?$tuple@$$V@std@@QEAA@U_Exact_args_t@1@@Z ; std::tuple<>::tuple<><std::_Exact_args_t,0>
	mov	rax, QWORD PTR this$[rbp]
	mov	QWORD PTR tv77[rbp], rax
	mov	rcx, QWORD PTR _This_arg$[rbp]
	call	??$forward@AEAPEAUVkExtensionProperties@@@std@@YAAEAPEAUVkExtensionProperties@@AEAPEAU1@@Z ; std::forward<VkExtensionProperties * &>
	mov	rdx, rax
	mov	rcx, QWORD PTR tv77[rbp]
	call	??$?0AEAPEAUVkExtensionProperties@@@?$_Tuple_val@PEAUVkExtensionProperties@@@std@@QEAA@AEAPEAUVkExtensionProperties@@@Z ; std::_Tuple_val<VkExtensionProperties *>::_Tuple_val<VkExtensionProperties *><VkExtensionProperties * &>
	mov	rax, QWORD PTR this$[rbp]
	lea	rsp, QWORD PTR [rbp+232]
	pop	rdi
	pop	rbp
	ret	0
??$?0U_Exact_args_t@std@@AEAPEAUVkExtensionProperties@@$$V$0A@@?$tuple@PEAUVkExtensionProperties@@@std@@QEAA@U_Exact_args_t@1@AEAPEAUVkExtensionProperties@@@Z ENDP ; std::tuple<VkExtensionProperties *>::tuple<VkExtensionProperties *><std::_Exact_args_t,VkExtensionProperties * &,0>
_TEXT	ENDS
; Function compile flags: /Odtp /RTCsu /ZI
;	COMDAT ??$?0U_Unpack_tuple_t@std@@U?$pair@H$$T@1@$0A@$00$0A@@?$tuple@IPEAUVkExtensionProperties@@@std@@QEAA@U_Unpack_tuple_t@1@$$QEAU?$pair@H$$T@1@U?$integer_sequence@_K$0A@$00@1@@Z
_TEXT	SEGMENT
$T1 = 196
$T2 = 228
$T3 = 260
tv82 = 280
tv79 = 288
this$ = 336
__formal$ = 344
_Right$ = 352
__formal$ = 360
??$?0U_Unpack_tuple_t@std@@U?$pair@H$$T@1@$0A@$00$0A@@?$tuple@IPEAUVkExtensionProperties@@@std@@QEAA@U_Unpack_tuple_t@1@$$QEAU?$pair@H$$T@1@U?$integer_sequence@_K$0A@$00@1@@Z PROC ; std::tuple<unsigned int,VkExtensionProperties *>::tuple<unsigned int,VkExtensionProperties *><std::_Unpack_tuple_t,std::pair<int,std::nullptr_t>,0,1,0>, COMDAT
; File C:\Program Files\Microsoft Visual Studio\2022\Community\VC\Tools\MSVC\14.32.31326\include\tuple
; Line 860
$LN3:
	mov	BYTE PTR [rsp+32], r9b
	mov	QWORD PTR [rsp+24], r8
	mov	BYTE PTR [rsp+16], dl
	mov	QWORD PTR [rsp+8], rcx
	push	rbp
	push	rdi
	sub	rsp, 344				; 00000158H
	lea	rbp, QWORD PTR [rsp+32]
	lea	rcx, OFFSET FLAT:__85A6FDFE_tuple
	call	__CheckForDebuggerJustMyCode
	mov	rcx, QWORD PTR _Right$[rbp]
	call	??$forward@U?$pair@H$$T@std@@@std@@YA$$QEAU?$pair@H$$T@0@AEAU10@@Z ; std::forward<std::pair<int,std::nullptr_t> >
	mov	rcx, rax
	call	??$get@$00H$$T@std@@YA$$QEA$$T$$QEAU?$pair@H$$T@0@@Z ; std::get<1,int,std::nullptr_t>
	mov	QWORD PTR tv82[rbp], rax
	mov	rcx, QWORD PTR _Right$[rbp]
	call	??$forward@U?$pair@H$$T@std@@@std@@YA$$QEAU?$pair@H$$T@0@AEAU10@@Z ; std::forward<std::pair<int,std::nullptr_t> >
	mov	rcx, rax
	call	??$get@$0A@H$$T@std@@YA$$QEAH$$QEAU?$pair@H$$T@0@@Z ; std::get<0,int,std::nullptr_t>
	mov	QWORD PTR tv79[rbp], rax
	movzx	eax, BYTE PTR $T1[rbp]
	mov	BYTE PTR $T2[rbp], al
	movzx	eax, BYTE PTR $T2[rbp]
	mov	BYTE PTR $T3[rbp], al
	mov	r9, QWORD PTR tv82[rbp]
	mov	r8, QWORD PTR tv79[rbp]
	movzx	edx, BYTE PTR $T3[rbp]
	mov	rcx, QWORD PTR this$[rbp]
	call	??$?0U_Exact_args_t@std@@H$$T$0A@@?$tuple@IPEAUVkExtensionProperties@@@std@@QEAA@U_Exact_args_t@1@$$QEAH$$QEA$$T@Z ; std::tuple<unsigned int,VkExtensionProperties *>::tuple<unsigned int,VkExtensionProperties *><std::_Exact_args_t,int,std::nullptr_t,0>
	mov	rax, QWORD PTR this$[rbp]
	lea	rsp, QWORD PTR [rbp+312]
	pop	rdi
	pop	rbp
	ret	0
??$?0U_Unpack_tuple_t@std@@U?$pair@H$$T@1@$0A@$00$0A@@?$tuple@IPEAUVkExtensionProperties@@@std@@QEAA@U_Unpack_tuple_t@1@$$QEAU?$pair@H$$T@1@U?$integer_sequence@_K$0A@$00@1@@Z ENDP ; std::tuple<unsigned int,VkExtensionProperties *>::tuple<unsigned int,VkExtensionProperties *><std::_Unpack_tuple_t,std::pair<int,std::nullptr_t>,0,1,0>
_TEXT	ENDS
; Function compile flags: /Odtp /RTCsu /ZI
;	COMDAT ??$?0U_Exact_args_t@std@@AEAPEAUVkPhysicalDeviceGroupProperties@@$$V$0A@@?$tuple@PEAUVkPhysicalDeviceGroupProperties@@@std@@QEAA@U_Exact_args_t@1@AEAPEAUVkPhysicalDeviceGroupProperties@@@Z
_TEXT	SEGMENT
$T1 = 196
tv77 = 216
this$ = 256
__formal$ = 264
_This_arg$ = 272
??$?0U_Exact_args_t@std@@AEAPEAUVkPhysicalDeviceGroupProperties@@$$V$0A@@?$tuple@PEAUVkPhysicalDeviceGroupProperties@@@std@@QEAA@U_Exact_args_t@1@AEAPEAUVkPhysicalDeviceGroupProperties@@@Z PROC ; std::tuple<VkPhysicalDeviceGroupProperties *>::tuple<VkPhysicalDeviceGroupProperties *><std::_Exact_args_t,VkPhysicalDeviceGroupProperties * &,0>, COMDAT
; File C:\Program Files\Microsoft Visual Studio\2022\Community\VC\Tools\MSVC\14.32.31326\include\tuple
; Line 245
$LN3:
	mov	QWORD PTR [rsp+24], r8
	mov	BYTE PTR [rsp+16], dl
	mov	QWORD PTR [rsp+8], rcx
	push	rbp
	push	rdi
	sub	rsp, 264				; 00000108H
	lea	rbp, QWORD PTR [rsp+32]
	lea	rcx, OFFSET FLAT:__85A6FDFE_tuple
	call	__CheckForDebuggerJustMyCode
	movzx	edx, BYTE PTR $T1[rbp]
	mov	rcx, QWORD PTR this$[rbp]
	call	??$?0U_Exact_args_t@std@@$0A@@?$tuple@$$V@std@@QEAA@U_Exact_args_t@1@@Z ; std::tuple<>::tuple<><std::_Exact_args_t,0>
	mov	rax, QWORD PTR this$[rbp]
	mov	QWORD PTR tv77[rbp], rax
	mov	rcx, QWORD PTR _This_arg$[rbp]
	call	??$forward@AEAPEAUVkPhysicalDeviceGroupProperties@@@std@@YAAEAPEAUVkPhysicalDeviceGroupProperties@@AEAPEAU1@@Z ; std::forward<VkPhysicalDeviceGroupProperties * &>
	mov	rdx, rax
	mov	rcx, QWORD PTR tv77[rbp]
	call	??$?0AEAPEAUVkPhysicalDeviceGroupProperties@@@?$_Tuple_val@PEAUVkPhysicalDeviceGroupProperties@@@std@@QEAA@AEAPEAUVkPhysicalDeviceGroupProperties@@@Z ; std::_Tuple_val<VkPhysicalDeviceGroupProperties *>::_Tuple_val<VkPhysicalDeviceGroupProperties *><VkPhysicalDeviceGroupProperties * &>
	mov	rax, QWORD PTR this$[rbp]
	lea	rsp, QWORD PTR [rbp+232]
	pop	rdi
	pop	rbp
	ret	0
??$?0U_Exact_args_t@std@@AEAPEAUVkPhysicalDeviceGroupProperties@@$$V$0A@@?$tuple@PEAUVkPhysicalDeviceGroupProperties@@@std@@QEAA@U_Exact_args_t@1@AEAPEAUVkPhysicalDeviceGroupProperties@@@Z ENDP ; std::tuple<VkPhysicalDeviceGroupProperties *>::tuple<VkPhysicalDeviceGroupProperties *><std::_Exact_args_t,VkPhysicalDeviceGroupProperties * &,0>
_TEXT	ENDS
; Function compile flags: /Odtp /RTCsu /ZI
;	COMDAT ??$?0U_Unpack_tuple_t@std@@U?$pair@H$$T@1@$0A@$00$0A@@?$tuple@IPEAUVkPhysicalDeviceGroupProperties@@@std@@QEAA@U_Unpack_tuple_t@1@$$QEAU?$pair@H$$T@1@U?$integer_sequence@_K$0A@$00@1@@Z
_TEXT	SEGMENT
$T1 = 196
$T2 = 228
$T3 = 260
tv82 = 280
tv79 = 288
this$ = 336
__formal$ = 344
_Right$ = 352
__formal$ = 360
??$?0U_Unpack_tuple_t@std@@U?$pair@H$$T@1@$0A@$00$0A@@?$tuple@IPEAUVkPhysicalDeviceGroupProperties@@@std@@QEAA@U_Unpack_tuple_t@1@$$QEAU?$pair@H$$T@1@U?$integer_sequence@_K$0A@$00@1@@Z PROC ; std::tuple<unsigned int,VkPhysicalDeviceGroupProperties *>::tuple<unsigned int,VkPhysicalDeviceGroupProperties *><std::_Unpack_tuple_t,std::pair<int,std::nullptr_t>,0,1,0>, COMDAT
; File C:\Program Files\Microsoft Visual Studio\2022\Community\VC\Tools\MSVC\14.32.31326\include\tuple
; Line 860
$LN3:
	mov	BYTE PTR [rsp+32], r9b
	mov	QWORD PTR [rsp+24], r8
	mov	BYTE PTR [rsp+16], dl
	mov	QWORD PTR [rsp+8], rcx
	push	rbp
	push	rdi
	sub	rsp, 344				; 00000158H
	lea	rbp, QWORD PTR [rsp+32]
	lea	rcx, OFFSET FLAT:__85A6FDFE_tuple
	call	__CheckForDebuggerJustMyCode
	mov	rcx, QWORD PTR _Right$[rbp]
	call	??$forward@U?$pair@H$$T@std@@@std@@YA$$QEAU?$pair@H$$T@0@AEAU10@@Z ; std::forward<std::pair<int,std::nullptr_t> >
	mov	rcx, rax
	call	??$get@$00H$$T@std@@YA$$QEA$$T$$QEAU?$pair@H$$T@0@@Z ; std::get<1,int,std::nullptr_t>
	mov	QWORD PTR tv82[rbp], rax
	mov	rcx, QWORD PTR _Right$[rbp]
	call	??$forward@U?$pair@H$$T@std@@@std@@YA$$QEAU?$pair@H$$T@0@AEAU10@@Z ; std::forward<std::pair<int,std::nullptr_t> >
	mov	rcx, rax
	call	??$get@$0A@H$$T@std@@YA$$QEAH$$QEAU?$pair@H$$T@0@@Z ; std::get<0,int,std::nullptr_t>
	mov	QWORD PTR tv79[rbp], rax
	movzx	eax, BYTE PTR $T1[rbp]
	mov	BYTE PTR $T2[rbp], al
	movzx	eax, BYTE PTR $T2[rbp]
	mov	BYTE PTR $T3[rbp], al
	mov	r9, QWORD PTR tv82[rbp]
	mov	r8, QWORD PTR tv79[rbp]
	movzx	edx, BYTE PTR $T3[rbp]
	mov	rcx, QWORD PTR this$[rbp]
	call	??$?0U_Exact_args_t@std@@H$$T$0A@@?$tuple@IPEAUVkPhysicalDeviceGroupProperties@@@std@@QEAA@U_Exact_args_t@1@$$QEAH$$QEA$$T@Z ; std::tuple<unsigned int,VkPhysicalDeviceGroupProperties *>::tuple<unsigned int,VkPhysicalDeviceGroupProperties *><std::_Exact_args_t,int,std::nullptr_t,0>
	mov	rax, QWORD PTR this$[rbp]
	lea	rsp, QWORD PTR [rbp+312]
	pop	rdi
	pop	rbp
	ret	0
??$?0U_Unpack_tuple_t@std@@U?$pair@H$$T@1@$0A@$00$0A@@?$tuple@IPEAUVkPhysicalDeviceGroupProperties@@@std@@QEAA@U_Unpack_tuple_t@1@$$QEAU?$pair@H$$T@1@U?$integer_sequence@_K$0A@$00@1@@Z ENDP ; std::tuple<unsigned int,VkPhysicalDeviceGroupProperties *>::tuple<unsigned int,VkPhysicalDeviceGroupProperties *><std::_Unpack_tuple_t,std::pair<int,std::nullptr_t>,0,1,0>
_TEXT	ENDS
; Function compile flags: /Odtp /RTCsu /ZI
;	COMDAT ??$?0AEAI@?$_Tuple_val@I@std@@QEAA@AEAI@Z
_TEXT	SEGMENT
this$ = 224
_Arg$ = 232
??$?0AEAI@?$_Tuple_val@I@std@@QEAA@AEAI@Z PROC		; std::_Tuple_val<unsigned int>::_Tuple_val<unsigned int><unsigned int &>, COMDAT
; File C:\Program Files\Microsoft Visual Studio\2022\Community\VC\Tools\MSVC\14.32.31326\include\tuple
; Line 158
$LN3:
	mov	QWORD PTR [rsp+16], rdx
	mov	QWORD PTR [rsp+8], rcx
	push	rbp
	push	rdi
	sub	rsp, 232				; 000000e8H
	lea	rbp, QWORD PTR [rsp+32]
	lea	rcx, OFFSET FLAT:__85A6FDFE_tuple
	call	__CheckForDebuggerJustMyCode
	mov	rcx, QWORD PTR _Arg$[rbp]
	call	??$forward@AEAI@std@@YAAEAIAEAI@Z	; std::forward<unsigned int &>
	mov	rcx, QWORD PTR this$[rbp]
	mov	eax, DWORD PTR [rax]
	mov	DWORD PTR [rcx], eax
	mov	rax, QWORD PTR this$[rbp]
	lea	rsp, QWORD PTR [rbp+200]
	pop	rdi
	pop	rbp
	ret	0
??$?0AEAI@?$_Tuple_val@I@std@@QEAA@AEAI@Z ENDP		; std::_Tuple_val<unsigned int>::_Tuple_val<unsigned int><unsigned int &>
_TEXT	ENDS
; Function compile flags: /Odtp /RTCsu /ZI
;	COMDAT ??$?0U_Exact_args_t@std@@AEAPEAPEAUVkPhysicalDevice_T@@$$V$0A@@?$tuple@PEAPEAUVkPhysicalDevice_T@@@std@@QEAA@U_Exact_args_t@1@AEAPEAPEAUVkPhysicalDevice_T@@@Z
_TEXT	SEGMENT
$T1 = 196
tv77 = 216
this$ = 256
__formal$ = 264
_This_arg$ = 272
??$?0U_Exact_args_t@std@@AEAPEAPEAUVkPhysicalDevice_T@@$$V$0A@@?$tuple@PEAPEAUVkPhysicalDevice_T@@@std@@QEAA@U_Exact_args_t@1@AEAPEAPEAUVkPhysicalDevice_T@@@Z PROC ; std::tuple<VkPhysicalDevice_T * *>::tuple<VkPhysicalDevice_T * *><std::_Exact_args_t,VkPhysicalDevice_T * * &,0>, COMDAT
; File C:\Program Files\Microsoft Visual Studio\2022\Community\VC\Tools\MSVC\14.32.31326\include\tuple
; Line 245
$LN3:
	mov	QWORD PTR [rsp+24], r8
	mov	BYTE PTR [rsp+16], dl
	mov	QWORD PTR [rsp+8], rcx
	push	rbp
	push	rdi
	sub	rsp, 264				; 00000108H
	lea	rbp, QWORD PTR [rsp+32]
	lea	rcx, OFFSET FLAT:__85A6FDFE_tuple
	call	__CheckForDebuggerJustMyCode
	movzx	edx, BYTE PTR $T1[rbp]
	mov	rcx, QWORD PTR this$[rbp]
	call	??$?0U_Exact_args_t@std@@$0A@@?$tuple@$$V@std@@QEAA@U_Exact_args_t@1@@Z ; std::tuple<>::tuple<><std::_Exact_args_t,0>
	mov	rax, QWORD PTR this$[rbp]
	mov	QWORD PTR tv77[rbp], rax
	mov	rcx, QWORD PTR _This_arg$[rbp]
	call	??$forward@AEAPEAPEAUVkPhysicalDevice_T@@@std@@YAAEAPEAPEAUVkPhysicalDevice_T@@AEAPEAPEAU1@@Z ; std::forward<VkPhysicalDevice_T * * &>
	mov	rdx, rax
	mov	rcx, QWORD PTR tv77[rbp]
	call	??$?0AEAPEAPEAUVkPhysicalDevice_T@@@?$_Tuple_val@PEAPEAUVkPhysicalDevice_T@@@std@@QEAA@AEAPEAPEAUVkPhysicalDevice_T@@@Z ; std::_Tuple_val<VkPhysicalDevice_T * *>::_Tuple_val<VkPhysicalDevice_T * *><VkPhysicalDevice_T * * &>
	mov	rax, QWORD PTR this$[rbp]
	lea	rsp, QWORD PTR [rbp+232]
	pop	rdi
	pop	rbp
	ret	0
??$?0U_Exact_args_t@std@@AEAPEAPEAUVkPhysicalDevice_T@@$$V$0A@@?$tuple@PEAPEAUVkPhysicalDevice_T@@@std@@QEAA@U_Exact_args_t@1@AEAPEAPEAUVkPhysicalDevice_T@@@Z ENDP ; std::tuple<VkPhysicalDevice_T * *>::tuple<VkPhysicalDevice_T * *><std::_Exact_args_t,VkPhysicalDevice_T * * &,0>
_TEXT	ENDS
; Function compile flags: /Odtp /RTCsu /ZI
;	COMDAT ??$?0U_Unpack_tuple_t@std@@U?$pair@H$$T@1@$0A@$00$0A@@?$tuple@IPEAPEAUVkPhysicalDevice_T@@@std@@QEAA@U_Unpack_tuple_t@1@$$QEAU?$pair@H$$T@1@U?$integer_sequence@_K$0A@$00@1@@Z
_TEXT	SEGMENT
$T1 = 196
$T2 = 228
$T3 = 260
tv82 = 280
tv79 = 288
this$ = 336
__formal$ = 344
_Right$ = 352
__formal$ = 360
??$?0U_Unpack_tuple_t@std@@U?$pair@H$$T@1@$0A@$00$0A@@?$tuple@IPEAPEAUVkPhysicalDevice_T@@@std@@QEAA@U_Unpack_tuple_t@1@$$QEAU?$pair@H$$T@1@U?$integer_sequence@_K$0A@$00@1@@Z PROC ; std::tuple<unsigned int,VkPhysicalDevice_T * *>::tuple<unsigned int,VkPhysicalDevice_T * *><std::_Unpack_tuple_t,std::pair<int,std::nullptr_t>,0,1,0>, COMDAT
; File C:\Program Files\Microsoft Visual Studio\2022\Community\VC\Tools\MSVC\14.32.31326\include\tuple
; Line 860
$LN3:
	mov	BYTE PTR [rsp+32], r9b
	mov	QWORD PTR [rsp+24], r8
	mov	BYTE PTR [rsp+16], dl
	mov	QWORD PTR [rsp+8], rcx
	push	rbp
	push	rdi
	sub	rsp, 344				; 00000158H
	lea	rbp, QWORD PTR [rsp+32]
	lea	rcx, OFFSET FLAT:__85A6FDFE_tuple
	call	__CheckForDebuggerJustMyCode
	mov	rcx, QWORD PTR _Right$[rbp]
	call	??$forward@U?$pair@H$$T@std@@@std@@YA$$QEAU?$pair@H$$T@0@AEAU10@@Z ; std::forward<std::pair<int,std::nullptr_t> >
	mov	rcx, rax
	call	??$get@$00H$$T@std@@YA$$QEA$$T$$QEAU?$pair@H$$T@0@@Z ; std::get<1,int,std::nullptr_t>
	mov	QWORD PTR tv82[rbp], rax
	mov	rcx, QWORD PTR _Right$[rbp]
	call	??$forward@U?$pair@H$$T@std@@@std@@YA$$QEAU?$pair@H$$T@0@AEAU10@@Z ; std::forward<std::pair<int,std::nullptr_t> >
	mov	rcx, rax
	call	??$get@$0A@H$$T@std@@YA$$QEAH$$QEAU?$pair@H$$T@0@@Z ; std::get<0,int,std::nullptr_t>
	mov	QWORD PTR tv79[rbp], rax
	movzx	eax, BYTE PTR $T1[rbp]
	mov	BYTE PTR $T2[rbp], al
	movzx	eax, BYTE PTR $T2[rbp]
	mov	BYTE PTR $T3[rbp], al
	mov	r9, QWORD PTR tv82[rbp]
	mov	r8, QWORD PTR tv79[rbp]
	movzx	edx, BYTE PTR $T3[rbp]
	mov	rcx, QWORD PTR this$[rbp]
	call	??$?0U_Exact_args_t@std@@H$$T$0A@@?$tuple@IPEAPEAUVkPhysicalDevice_T@@@std@@QEAA@U_Exact_args_t@1@$$QEAH$$QEA$$T@Z ; std::tuple<unsigned int,VkPhysicalDevice_T * *>::tuple<unsigned int,VkPhysicalDevice_T * *><std::_Exact_args_t,int,std::nullptr_t,0>
	mov	rax, QWORD PTR this$[rbp]
	lea	rsp, QWORD PTR [rbp+312]
	pop	rdi
	pop	rbp
	ret	0
??$?0U_Unpack_tuple_t@std@@U?$pair@H$$T@1@$0A@$00$0A@@?$tuple@IPEAPEAUVkPhysicalDevice_T@@@std@@QEAA@U_Unpack_tuple_t@1@$$QEAU?$pair@H$$T@1@U?$integer_sequence@_K$0A@$00@1@@Z ENDP ; std::tuple<unsigned int,VkPhysicalDevice_T * *>::tuple<unsigned int,VkPhysicalDevice_T * *><std::_Unpack_tuple_t,std::pair<int,std::nullptr_t>,0,1,0>
_TEXT	ENDS
; Function compile flags: /Odtp /RTCsu /ZI
;	COMDAT ??$forward@U?$pair@H$$T@std@@@std@@YA$$QEAU?$pair@H$$T@0@AEAU10@@Z
_TEXT	SEGMENT
_Arg$ = 224
??$forward@U?$pair@H$$T@std@@@std@@YA$$QEAU?$pair@H$$T@0@AEAU10@@Z PROC ; std::forward<std::pair<int,std::nullptr_t> >, COMDAT
; File C:\Program Files\Microsoft Visual Studio\2022\Community\VC\Tools\MSVC\14.32.31326\include\type_traits
; Line 1341
$LN3:
	mov	QWORD PTR [rsp+8], rcx
	push	rbp
	push	rdi
	sub	rsp, 232				; 000000e8H
	lea	rbp, QWORD PTR [rsp+32]
	lea	rcx, OFFSET FLAT:__4CC0724B_type_traits
	call	__CheckForDebuggerJustMyCode
; Line 1342
	mov	rax, QWORD PTR _Arg$[rbp]
; Line 1343
	lea	rsp, QWORD PTR [rbp+200]
	pop	rdi
	pop	rbp
	ret	0
??$forward@U?$pair@H$$T@std@@@std@@YA$$QEAU?$pair@H$$T@0@AEAU10@@Z ENDP ; std::forward<std::pair<int,std::nullptr_t> >
_TEXT	ENDS
; Function compile flags: /Odtp /RTCsu /ZI
;	COMDAT ??$?0U_Exact_args_t@std@@AEAIAEAPEAUVkExtensionProperties@@$0A@@?$tuple@IPEAUVkExtensionProperties@@@std@@QEAA@U_Exact_args_t@1@AEAIAEAPEAUVkExtensionProperties@@@Z
_TEXT	SEGMENT
$T1 = 196
$T2 = 228
tv83 = 248
tv76 = 248
this$ = 288
__formal$ = 296
_This_arg$ = 304
<_Rest_arg_0>$ = 312
??$?0U_Exact_args_t@std@@AEAIAEAPEAUVkExtensionProperties@@$0A@@?$tuple@IPEAUVkExtensionProperties@@@std@@QEAA@U_Exact_args_t@1@AEAIAEAPEAUVkExtensionProperties@@@Z PROC ; std::tuple<unsigned int,VkExtensionProperties *>::tuple<unsigned int,VkExtensionProperties *><std::_Exact_args_t,unsigned int &,VkExtensionProperties * &,0>, COMDAT
; File C:\Program Files\Microsoft Visual Studio\2022\Community\VC\Tools\MSVC\14.32.31326\include\tuple
; Line 245
$LN3:
	mov	QWORD PTR [rsp+32], r9
	mov	QWORD PTR [rsp+24], r8
	mov	BYTE PTR [rsp+16], dl
	mov	QWORD PTR [rsp+8], rcx
	push	rbp
	push	rdi
	sub	rsp, 296				; 00000128H
	lea	rbp, QWORD PTR [rsp+32]
	lea	rcx, OFFSET FLAT:__85A6FDFE_tuple
	call	__CheckForDebuggerJustMyCode
	mov	rcx, QWORD PTR <_Rest_arg_0>$[rbp]
	call	??$forward@AEAPEAUVkExtensionProperties@@@std@@YAAEAPEAUVkExtensionProperties@@AEAPEAU1@@Z ; std::forward<VkExtensionProperties * &>
	mov	QWORD PTR tv76[rbp], rax
	movzx	eax, BYTE PTR $T1[rbp]
	mov	BYTE PTR $T2[rbp], al
	mov	r8, QWORD PTR tv76[rbp]
	movzx	edx, BYTE PTR $T2[rbp]
	mov	rcx, QWORD PTR this$[rbp]
	call	??$?0U_Exact_args_t@std@@AEAPEAUVkExtensionProperties@@$$V$0A@@?$tuple@PEAUVkExtensionProperties@@@std@@QEAA@U_Exact_args_t@1@AEAPEAUVkExtensionProperties@@@Z ; std::tuple<VkExtensionProperties *>::tuple<VkExtensionProperties *><std::_Exact_args_t,VkExtensionProperties * &,0>
	mov	rax, QWORD PTR this$[rbp]
	add	rax, 8
	mov	QWORD PTR tv83[rbp], rax
	mov	rcx, QWORD PTR _This_arg$[rbp]
	call	??$forward@AEAI@std@@YAAEAIAEAI@Z	; std::forward<unsigned int &>
	mov	rdx, rax
	mov	rcx, QWORD PTR tv83[rbp]
	call	??$?0AEAI@?$_Tuple_val@I@std@@QEAA@AEAI@Z ; std::_Tuple_val<unsigned int>::_Tuple_val<unsigned int><unsigned int &>
	mov	rax, QWORD PTR this$[rbp]
	lea	rsp, QWORD PTR [rbp+264]
	pop	rdi
	pop	rbp
	ret	0
??$?0U_Exact_args_t@std@@AEAIAEAPEAUVkExtensionProperties@@$0A@@?$tuple@IPEAUVkExtensionProperties@@@std@@QEAA@U_Exact_args_t@1@AEAIAEAPEAUVkExtensionProperties@@@Z ENDP ; std::tuple<unsigned int,VkExtensionProperties *>::tuple<unsigned int,VkExtensionProperties *><std::_Exact_args_t,unsigned int &,VkExtensionProperties * &,0>
_TEXT	ENDS
; Function compile flags: /Odtp /RTCsu /ZI
;	COMDAT ??$forward@AEAPEAUVkExtensionProperties@@@std@@YAAEAPEAUVkExtensionProperties@@AEAPEAU1@@Z
_TEXT	SEGMENT
_Arg$ = 224
??$forward@AEAPEAUVkExtensionProperties@@@std@@YAAEAPEAUVkExtensionProperties@@AEAPEAU1@@Z PROC ; std::forward<VkExtensionProperties * &>, COMDAT
; File C:\Program Files\Microsoft Visual Studio\2022\Community\VC\Tools\MSVC\14.32.31326\include\type_traits
; Line 1341
$LN3:
	mov	QWORD PTR [rsp+8], rcx
	push	rbp
	push	rdi
	sub	rsp, 232				; 000000e8H
	lea	rbp, QWORD PTR [rsp+32]
	lea	rcx, OFFSET FLAT:__4CC0724B_type_traits
	call	__CheckForDebuggerJustMyCode
; Line 1342
	mov	rax, QWORD PTR _Arg$[rbp]
; Line 1343
	lea	rsp, QWORD PTR [rbp+200]
	pop	rdi
	pop	rbp
	ret	0
??$forward@AEAPEAUVkExtensionProperties@@@std@@YAAEAPEAUVkExtensionProperties@@AEAPEAU1@@Z ENDP ; std::forward<VkExtensionProperties * &>
_TEXT	ENDS
; Function compile flags: /Odtp /RTCsu /ZI
;	COMDAT ??$?0U_Unpack_tuple_t@std@@U?$pair@H$$T@1@$0A@@?$tuple@IPEAUVkExtensionProperties@@@std@@QEAA@U_Unpack_tuple_t@1@$$QEAU?$pair@H$$T@1@@Z
_TEXT	SEGMENT
$T1 = 196
$T2 = 228
$T3 = 260
$T4 = 292
tv77 = 312
this$ = 352
__formal$ = 360
_Right$ = 368
??$?0U_Unpack_tuple_t@std@@U?$pair@H$$T@1@$0A@@?$tuple@IPEAUVkExtensionProperties@@@std@@QEAA@U_Unpack_tuple_t@1@$$QEAU?$pair@H$$T@1@@Z PROC ; std::tuple<unsigned int,VkExtensionProperties *>::tuple<unsigned int,VkExtensionProperties *><std::_Unpack_tuple_t,std::pair<int,std::nullptr_t>,0>, COMDAT
; File C:\Program Files\Microsoft Visual Studio\2022\Community\VC\Tools\MSVC\14.32.31326\include\tuple
; Line 252
$LN3:
	mov	QWORD PTR [rsp+24], r8
	mov	BYTE PTR [rsp+16], dl
	mov	QWORD PTR [rsp+8], rcx
	push	rbp
	push	rdi
	sub	rsp, 360				; 00000168H
	lea	rbp, QWORD PTR [rsp+32]
	lea	rcx, OFFSET FLAT:__85A6FDFE_tuple
	call	__CheckForDebuggerJustMyCode
	lea	rax, QWORD PTR $T1[rbp]
	mov	rdi, rax
	xor	eax, eax
	mov	ecx, 1
	rep stosb
	movzx	eax, BYTE PTR $T1[rbp]
	mov	BYTE PTR $T4[rbp], al
	mov	rcx, QWORD PTR _Right$[rbp]
	call	??$forward@U?$pair@H$$T@std@@@std@@YA$$QEAU?$pair@H$$T@0@AEAU10@@Z ; std::forward<std::pair<int,std::nullptr_t> >
	mov	QWORD PTR tv77[rbp], rax
	movzx	eax, BYTE PTR $T2[rbp]
	mov	BYTE PTR $T3[rbp], al
	movzx	r9d, BYTE PTR $T4[rbp]
	mov	r8, QWORD PTR tv77[rbp]
	movzx	edx, BYTE PTR $T3[rbp]
	mov	rcx, QWORD PTR this$[rbp]
	call	??$?0U_Unpack_tuple_t@std@@U?$pair@H$$T@1@$0A@$00$0A@@?$tuple@IPEAUVkExtensionProperties@@@std@@QEAA@U_Unpack_tuple_t@1@$$QEAU?$pair@H$$T@1@U?$integer_sequence@_K$0A@$00@1@@Z ; std::tuple<unsigned int,VkExtensionProperties *>::tuple<unsigned int,VkExtensionProperties *><std::_Unpack_tuple_t,std::pair<int,std::nullptr_t>,0,1,0>
; Line 253
	mov	rax, QWORD PTR this$[rbp]
	lea	rsp, QWORD PTR [rbp+328]
	pop	rdi
	pop	rbp
	ret	0
??$?0U_Unpack_tuple_t@std@@U?$pair@H$$T@1@$0A@@?$tuple@IPEAUVkExtensionProperties@@@std@@QEAA@U_Unpack_tuple_t@1@$$QEAU?$pair@H$$T@1@@Z ENDP ; std::tuple<unsigned int,VkExtensionProperties *>::tuple<unsigned int,VkExtensionProperties *><std::_Unpack_tuple_t,std::pair<int,std::nullptr_t>,0>
_TEXT	ENDS
; Function compile flags: /Odtp /RTCsu /ZI
;	COMDAT ??$?0U_Exact_args_t@std@@AEAIAEAPEAUVkPhysicalDeviceGroupProperties@@$0A@@?$tuple@IPEAUVkPhysicalDeviceGroupProperties@@@std@@QEAA@U_Exact_args_t@1@AEAIAEAPEAUVkPhysicalDeviceGroupProperties@@@Z
_TEXT	SEGMENT
$T1 = 196
$T2 = 228
tv83 = 248
tv76 = 248
this$ = 288
__formal$ = 296
_This_arg$ = 304
<_Rest_arg_0>$ = 312
??$?0U_Exact_args_t@std@@AEAIAEAPEAUVkPhysicalDeviceGroupProperties@@$0A@@?$tuple@IPEAUVkPhysicalDeviceGroupProperties@@@std@@QEAA@U_Exact_args_t@1@AEAIAEAPEAUVkPhysicalDeviceGroupProperties@@@Z PROC ; std::tuple<unsigned int,VkPhysicalDeviceGroupProperties *>::tuple<unsigned int,VkPhysicalDeviceGroupProperties *><std::_Exact_args_t,unsigned int &,VkPhysicalDeviceGroupProperties * &,0>, COMDAT
; File C:\Program Files\Microsoft Visual Studio\2022\Community\VC\Tools\MSVC\14.32.31326\include\tuple
; Line 245
$LN3:
	mov	QWORD PTR [rsp+32], r9
	mov	QWORD PTR [rsp+24], r8
	mov	BYTE PTR [rsp+16], dl
	mov	QWORD PTR [rsp+8], rcx
	push	rbp
	push	rdi
	sub	rsp, 296				; 00000128H
	lea	rbp, QWORD PTR [rsp+32]
	lea	rcx, OFFSET FLAT:__85A6FDFE_tuple
	call	__CheckForDebuggerJustMyCode
	mov	rcx, QWORD PTR <_Rest_arg_0>$[rbp]
	call	??$forward@AEAPEAUVkPhysicalDeviceGroupProperties@@@std@@YAAEAPEAUVkPhysicalDeviceGroupProperties@@AEAPEAU1@@Z ; std::forward<VkPhysicalDeviceGroupProperties * &>
	mov	QWORD PTR tv76[rbp], rax
	movzx	eax, BYTE PTR $T1[rbp]
	mov	BYTE PTR $T2[rbp], al
	mov	r8, QWORD PTR tv76[rbp]
	movzx	edx, BYTE PTR $T2[rbp]
	mov	rcx, QWORD PTR this$[rbp]
	call	??$?0U_Exact_args_t@std@@AEAPEAUVkPhysicalDeviceGroupProperties@@$$V$0A@@?$tuple@PEAUVkPhysicalDeviceGroupProperties@@@std@@QEAA@U_Exact_args_t@1@AEAPEAUVkPhysicalDeviceGroupProperties@@@Z ; std::tuple<VkPhysicalDeviceGroupProperties *>::tuple<VkPhysicalDeviceGroupProperties *><std::_Exact_args_t,VkPhysicalDeviceGroupProperties * &,0>
	mov	rax, QWORD PTR this$[rbp]
	add	rax, 8
	mov	QWORD PTR tv83[rbp], rax
	mov	rcx, QWORD PTR _This_arg$[rbp]
	call	??$forward@AEAI@std@@YAAEAIAEAI@Z	; std::forward<unsigned int &>
	mov	rdx, rax
	mov	rcx, QWORD PTR tv83[rbp]
	call	??$?0AEAI@?$_Tuple_val@I@std@@QEAA@AEAI@Z ; std::_Tuple_val<unsigned int>::_Tuple_val<unsigned int><unsigned int &>
	mov	rax, QWORD PTR this$[rbp]
	lea	rsp, QWORD PTR [rbp+264]
	pop	rdi
	pop	rbp
	ret	0
??$?0U_Exact_args_t@std@@AEAIAEAPEAUVkPhysicalDeviceGroupProperties@@$0A@@?$tuple@IPEAUVkPhysicalDeviceGroupProperties@@@std@@QEAA@U_Exact_args_t@1@AEAIAEAPEAUVkPhysicalDeviceGroupProperties@@@Z ENDP ; std::tuple<unsigned int,VkPhysicalDeviceGroupProperties *>::tuple<unsigned int,VkPhysicalDeviceGroupProperties *><std::_Exact_args_t,unsigned int &,VkPhysicalDeviceGroupProperties * &,0>
_TEXT	ENDS
; Function compile flags: /Odtp /RTCsu /ZI
;	COMDAT ??$forward@AEAPEAUVkPhysicalDeviceGroupProperties@@@std@@YAAEAPEAUVkPhysicalDeviceGroupProperties@@AEAPEAU1@@Z
_TEXT	SEGMENT
_Arg$ = 224
??$forward@AEAPEAUVkPhysicalDeviceGroupProperties@@@std@@YAAEAPEAUVkPhysicalDeviceGroupProperties@@AEAPEAU1@@Z PROC ; std::forward<VkPhysicalDeviceGroupProperties * &>, COMDAT
; File C:\Program Files\Microsoft Visual Studio\2022\Community\VC\Tools\MSVC\14.32.31326\include\type_traits
; Line 1341
$LN3:
	mov	QWORD PTR [rsp+8], rcx
	push	rbp
	push	rdi
	sub	rsp, 232				; 000000e8H
	lea	rbp, QWORD PTR [rsp+32]
	lea	rcx, OFFSET FLAT:__4CC0724B_type_traits
	call	__CheckForDebuggerJustMyCode
; Line 1342
	mov	rax, QWORD PTR _Arg$[rbp]
; Line 1343
	lea	rsp, QWORD PTR [rbp+200]
	pop	rdi
	pop	rbp
	ret	0
??$forward@AEAPEAUVkPhysicalDeviceGroupProperties@@@std@@YAAEAPEAUVkPhysicalDeviceGroupProperties@@AEAPEAU1@@Z ENDP ; std::forward<VkPhysicalDeviceGroupProperties * &>
_TEXT	ENDS
; Function compile flags: /Odtp /RTCsu /ZI
;	COMDAT ??$?0U_Unpack_tuple_t@std@@U?$pair@H$$T@1@$0A@@?$tuple@IPEAUVkPhysicalDeviceGroupProperties@@@std@@QEAA@U_Unpack_tuple_t@1@$$QEAU?$pair@H$$T@1@@Z
_TEXT	SEGMENT
$T1 = 196
$T2 = 228
$T3 = 260
$T4 = 292
tv77 = 312
this$ = 352
__formal$ = 360
_Right$ = 368
??$?0U_Unpack_tuple_t@std@@U?$pair@H$$T@1@$0A@@?$tuple@IPEAUVkPhysicalDeviceGroupProperties@@@std@@QEAA@U_Unpack_tuple_t@1@$$QEAU?$pair@H$$T@1@@Z PROC ; std::tuple<unsigned int,VkPhysicalDeviceGroupProperties *>::tuple<unsigned int,VkPhysicalDeviceGroupProperties *><std::_Unpack_tuple_t,std::pair<int,std::nullptr_t>,0>, COMDAT
; File C:\Program Files\Microsoft Visual Studio\2022\Community\VC\Tools\MSVC\14.32.31326\include\tuple
; Line 252
$LN3:
	mov	QWORD PTR [rsp+24], r8
	mov	BYTE PTR [rsp+16], dl
	mov	QWORD PTR [rsp+8], rcx
	push	rbp
	push	rdi
	sub	rsp, 360				; 00000168H
	lea	rbp, QWORD PTR [rsp+32]
	lea	rcx, OFFSET FLAT:__85A6FDFE_tuple
	call	__CheckForDebuggerJustMyCode
	lea	rax, QWORD PTR $T1[rbp]
	mov	rdi, rax
	xor	eax, eax
	mov	ecx, 1
	rep stosb
	movzx	eax, BYTE PTR $T1[rbp]
	mov	BYTE PTR $T4[rbp], al
	mov	rcx, QWORD PTR _Right$[rbp]
	call	??$forward@U?$pair@H$$T@std@@@std@@YA$$QEAU?$pair@H$$T@0@AEAU10@@Z ; std::forward<std::pair<int,std::nullptr_t> >
	mov	QWORD PTR tv77[rbp], rax
	movzx	eax, BYTE PTR $T2[rbp]
	mov	BYTE PTR $T3[rbp], al
	movzx	r9d, BYTE PTR $T4[rbp]
	mov	r8, QWORD PTR tv77[rbp]
	movzx	edx, BYTE PTR $T3[rbp]
	mov	rcx, QWORD PTR this$[rbp]
	call	??$?0U_Unpack_tuple_t@std@@U?$pair@H$$T@1@$0A@$00$0A@@?$tuple@IPEAUVkPhysicalDeviceGroupProperties@@@std@@QEAA@U_Unpack_tuple_t@1@$$QEAU?$pair@H$$T@1@U?$integer_sequence@_K$0A@$00@1@@Z ; std::tuple<unsigned int,VkPhysicalDeviceGroupProperties *>::tuple<unsigned int,VkPhysicalDeviceGroupProperties *><std::_Unpack_tuple_t,std::pair<int,std::nullptr_t>,0,1,0>
; Line 253
	mov	rax, QWORD PTR this$[rbp]
	lea	rsp, QWORD PTR [rbp+328]
	pop	rdi
	pop	rbp
	ret	0
??$?0U_Unpack_tuple_t@std@@U?$pair@H$$T@1@$0A@@?$tuple@IPEAUVkPhysicalDeviceGroupProperties@@@std@@QEAA@U_Unpack_tuple_t@1@$$QEAU?$pair@H$$T@1@@Z ENDP ; std::tuple<unsigned int,VkPhysicalDeviceGroupProperties *>::tuple<unsigned int,VkPhysicalDeviceGroupProperties *><std::_Unpack_tuple_t,std::pair<int,std::nullptr_t>,0>
_TEXT	ENDS
; Function compile flags: /Odtp /RTCsu /ZI
;	COMDAT ??$?0U_Exact_args_t@std@@AEAIAEAPEAPEAUVkPhysicalDevice_T@@$0A@@?$tuple@IPEAPEAUVkPhysicalDevice_T@@@std@@QEAA@U_Exact_args_t@1@AEAIAEAPEAPEAUVkPhysicalDevice_T@@@Z
_TEXT	SEGMENT
$T1 = 196
$T2 = 228
tv83 = 248
tv76 = 248
this$ = 288
__formal$ = 296
_This_arg$ = 304
<_Rest_arg_0>$ = 312
??$?0U_Exact_args_t@std@@AEAIAEAPEAPEAUVkPhysicalDevice_T@@$0A@@?$tuple@IPEAPEAUVkPhysicalDevice_T@@@std@@QEAA@U_Exact_args_t@1@AEAIAEAPEAPEAUVkPhysicalDevice_T@@@Z PROC ; std::tuple<unsigned int,VkPhysicalDevice_T * *>::tuple<unsigned int,VkPhysicalDevice_T * *><std::_Exact_args_t,unsigned int &,VkPhysicalDevice_T * * &,0>, COMDAT
; File C:\Program Files\Microsoft Visual Studio\2022\Community\VC\Tools\MSVC\14.32.31326\include\tuple
; Line 245
$LN3:
	mov	QWORD PTR [rsp+32], r9
	mov	QWORD PTR [rsp+24], r8
	mov	BYTE PTR [rsp+16], dl
	mov	QWORD PTR [rsp+8], rcx
	push	rbp
	push	rdi
	sub	rsp, 296				; 00000128H
	lea	rbp, QWORD PTR [rsp+32]
	lea	rcx, OFFSET FLAT:__85A6FDFE_tuple
	call	__CheckForDebuggerJustMyCode
	mov	rcx, QWORD PTR <_Rest_arg_0>$[rbp]
	call	??$forward@AEAPEAPEAUVkPhysicalDevice_T@@@std@@YAAEAPEAPEAUVkPhysicalDevice_T@@AEAPEAPEAU1@@Z ; std::forward<VkPhysicalDevice_T * * &>
	mov	QWORD PTR tv76[rbp], rax
	movzx	eax, BYTE PTR $T1[rbp]
	mov	BYTE PTR $T2[rbp], al
	mov	r8, QWORD PTR tv76[rbp]
	movzx	edx, BYTE PTR $T2[rbp]
	mov	rcx, QWORD PTR this$[rbp]
	call	??$?0U_Exact_args_t@std@@AEAPEAPEAUVkPhysicalDevice_T@@$$V$0A@@?$tuple@PEAPEAUVkPhysicalDevice_T@@@std@@QEAA@U_Exact_args_t@1@AEAPEAPEAUVkPhysicalDevice_T@@@Z ; std::tuple<VkPhysicalDevice_T * *>::tuple<VkPhysicalDevice_T * *><std::_Exact_args_t,VkPhysicalDevice_T * * &,0>
	mov	rax, QWORD PTR this$[rbp]
	add	rax, 8
	mov	QWORD PTR tv83[rbp], rax
	mov	rcx, QWORD PTR _This_arg$[rbp]
	call	??$forward@AEAI@std@@YAAEAIAEAI@Z	; std::forward<unsigned int &>
	mov	rdx, rax
	mov	rcx, QWORD PTR tv83[rbp]
	call	??$?0AEAI@?$_Tuple_val@I@std@@QEAA@AEAI@Z ; std::_Tuple_val<unsigned int>::_Tuple_val<unsigned int><unsigned int &>
	mov	rax, QWORD PTR this$[rbp]
	lea	rsp, QWORD PTR [rbp+264]
	pop	rdi
	pop	rbp
	ret	0
??$?0U_Exact_args_t@std@@AEAIAEAPEAPEAUVkPhysicalDevice_T@@$0A@@?$tuple@IPEAPEAUVkPhysicalDevice_T@@@std@@QEAA@U_Exact_args_t@1@AEAIAEAPEAPEAUVkPhysicalDevice_T@@@Z ENDP ; std::tuple<unsigned int,VkPhysicalDevice_T * *>::tuple<unsigned int,VkPhysicalDevice_T * *><std::_Exact_args_t,unsigned int &,VkPhysicalDevice_T * * &,0>
_TEXT	ENDS
; Function compile flags: /Odtp /RTCsu /ZI
;	COMDAT ??$forward@AEAPEAPEAUVkPhysicalDevice_T@@@std@@YAAEAPEAPEAUVkPhysicalDevice_T@@AEAPEAPEAU1@@Z
_TEXT	SEGMENT
_Arg$ = 224
??$forward@AEAPEAPEAUVkPhysicalDevice_T@@@std@@YAAEAPEAPEAUVkPhysicalDevice_T@@AEAPEAPEAU1@@Z PROC ; std::forward<VkPhysicalDevice_T * * &>, COMDAT
; File C:\Program Files\Microsoft Visual Studio\2022\Community\VC\Tools\MSVC\14.32.31326\include\type_traits
; Line 1341
$LN3:
	mov	QWORD PTR [rsp+8], rcx
	push	rbp
	push	rdi
	sub	rsp, 232				; 000000e8H
	lea	rbp, QWORD PTR [rsp+32]
	lea	rcx, OFFSET FLAT:__4CC0724B_type_traits
	call	__CheckForDebuggerJustMyCode
; Line 1342
	mov	rax, QWORD PTR _Arg$[rbp]
; Line 1343
	lea	rsp, QWORD PTR [rbp+200]
	pop	rdi
	pop	rbp
	ret	0
??$forward@AEAPEAPEAUVkPhysicalDevice_T@@@std@@YAAEAPEAPEAUVkPhysicalDevice_T@@AEAPEAPEAU1@@Z ENDP ; std::forward<VkPhysicalDevice_T * * &>
_TEXT	ENDS
; Function compile flags: /Odtp /RTCsu /ZI
;	COMDAT ??$forward@AEAI@std@@YAAEAIAEAI@Z
_TEXT	SEGMENT
_Arg$ = 224
??$forward@AEAI@std@@YAAEAIAEAI@Z PROC			; std::forward<unsigned int &>, COMDAT
; File C:\Program Files\Microsoft Visual Studio\2022\Community\VC\Tools\MSVC\14.32.31326\include\type_traits
; Line 1341
$LN3:
	mov	QWORD PTR [rsp+8], rcx
	push	rbp
	push	rdi
	sub	rsp, 232				; 000000e8H
	lea	rbp, QWORD PTR [rsp+32]
	lea	rcx, OFFSET FLAT:__4CC0724B_type_traits
	call	__CheckForDebuggerJustMyCode
; Line 1342
	mov	rax, QWORD PTR _Arg$[rbp]
; Line 1343
	lea	rsp, QWORD PTR [rbp+200]
	pop	rdi
	pop	rbp
	ret	0
??$forward@AEAI@std@@YAAEAIAEAI@Z ENDP			; std::forward<unsigned int &>
_TEXT	ENDS
; Function compile flags: /Odtp /RTCsu /ZI
;	COMDAT ??$?0U_Unpack_tuple_t@std@@U?$pair@H$$T@1@$0A@@?$tuple@IPEAPEAUVkPhysicalDevice_T@@@std@@QEAA@U_Unpack_tuple_t@1@$$QEAU?$pair@H$$T@1@@Z
_TEXT	SEGMENT
$T1 = 196
$T2 = 228
$T3 = 260
$T4 = 292
tv77 = 312
this$ = 352
__formal$ = 360
_Right$ = 368
??$?0U_Unpack_tuple_t@std@@U?$pair@H$$T@1@$0A@@?$tuple@IPEAPEAUVkPhysicalDevice_T@@@std@@QEAA@U_Unpack_tuple_t@1@$$QEAU?$pair@H$$T@1@@Z PROC ; std::tuple<unsigned int,VkPhysicalDevice_T * *>::tuple<unsigned int,VkPhysicalDevice_T * *><std::_Unpack_tuple_t,std::pair<int,std::nullptr_t>,0>, COMDAT
; File C:\Program Files\Microsoft Visual Studio\2022\Community\VC\Tools\MSVC\14.32.31326\include\tuple
; Line 252
$LN3:
	mov	QWORD PTR [rsp+24], r8
	mov	BYTE PTR [rsp+16], dl
	mov	QWORD PTR [rsp+8], rcx
	push	rbp
	push	rdi
	sub	rsp, 360				; 00000168H
	lea	rbp, QWORD PTR [rsp+32]
	lea	rcx, OFFSET FLAT:__85A6FDFE_tuple
	call	__CheckForDebuggerJustMyCode
	lea	rax, QWORD PTR $T1[rbp]
	mov	rdi, rax
	xor	eax, eax
	mov	ecx, 1
	rep stosb
	movzx	eax, BYTE PTR $T1[rbp]
	mov	BYTE PTR $T4[rbp], al
	mov	rcx, QWORD PTR _Right$[rbp]
	call	??$forward@U?$pair@H$$T@std@@@std@@YA$$QEAU?$pair@H$$T@0@AEAU10@@Z ; std::forward<std::pair<int,std::nullptr_t> >
	mov	QWORD PTR tv77[rbp], rax
	movzx	eax, BYTE PTR $T2[rbp]
	mov	BYTE PTR $T3[rbp], al
	movzx	r9d, BYTE PTR $T4[rbp]
	mov	r8, QWORD PTR tv77[rbp]
	movzx	edx, BYTE PTR $T3[rbp]
	mov	rcx, QWORD PTR this$[rbp]
	call	??$?0U_Unpack_tuple_t@std@@U?$pair@H$$T@1@$0A@$00$0A@@?$tuple@IPEAPEAUVkPhysicalDevice_T@@@std@@QEAA@U_Unpack_tuple_t@1@$$QEAU?$pair@H$$T@1@U?$integer_sequence@_K$0A@$00@1@@Z ; std::tuple<unsigned int,VkPhysicalDevice_T * *>::tuple<unsigned int,VkPhysicalDevice_T * *><std::_Unpack_tuple_t,std::pair<int,std::nullptr_t>,0,1,0>
; Line 253
	mov	rax, QWORD PTR this$[rbp]
	lea	rsp, QWORD PTR [rbp+328]
	pop	rdi
	pop	rbp
	ret	0
??$?0U_Unpack_tuple_t@std@@U?$pair@H$$T@1@$0A@@?$tuple@IPEAPEAUVkPhysicalDevice_T@@@std@@QEAA@U_Unpack_tuple_t@1@$$QEAU?$pair@H$$T@1@@Z ENDP ; std::tuple<unsigned int,VkPhysicalDevice_T * *>::tuple<unsigned int,VkPhysicalDevice_T * *><std::_Unpack_tuple_t,std::pair<int,std::nullptr_t>,0>
_TEXT	ENDS
; Function compile flags: /Odtp /RTCsu /ZI
;	COMDAT ??$move@AEAU?$pair@H$$T@std@@@std@@YA$$QEAU?$pair@H$$T@0@AEAU10@@Z
_TEXT	SEGMENT
_Arg$ = 224
??$move@AEAU?$pair@H$$T@std@@@std@@YA$$QEAU?$pair@H$$T@0@AEAU10@@Z PROC ; std::move<std::pair<int,std::nullptr_t> &>, COMDAT
; File C:\Program Files\Microsoft Visual Studio\2022\Community\VC\Tools\MSVC\14.32.31326\include\type_traits
; Line 1352
$LN3:
	mov	QWORD PTR [rsp+8], rcx
	push	rbp
	push	rdi
	sub	rsp, 232				; 000000e8H
	lea	rbp, QWORD PTR [rsp+32]
	lea	rcx, OFFSET FLAT:__4CC0724B_type_traits
	call	__CheckForDebuggerJustMyCode
; Line 1353
	mov	rax, QWORD PTR _Arg$[rbp]
; Line 1354
	lea	rsp, QWORD PTR [rbp+200]
	pop	rdi
	pop	rbp
	ret	0
??$move@AEAU?$pair@H$$T@std@@@std@@YA$$QEAU?$pair@H$$T@0@AEAU10@@Z ENDP ; std::move<std::pair<int,std::nullptr_t> &>
_TEXT	ENDS
; Function compile flags: /Odtp /RTCsu /ZI
;	COMDAT ??$?0H$$T$0A@@?$pair@H$$T@std@@QEAA@$$QEAH$$QEA$$T@Z
_TEXT	SEGMENT
this$ = 224
_Val1$ = 232
_Val2$ = 240
??$?0H$$T$0A@@?$pair@H$$T@std@@QEAA@$$QEAH$$QEA$$T@Z PROC ; std::pair<int,std::nullptr_t>::pair<int,std::nullptr_t><int,std::nullptr_t,0>, COMDAT
; File C:\Program Files\Microsoft Visual Studio\2022\Community\VC\Tools\MSVC\14.32.31326\include\utility
; Line 190
$LN3:
	mov	QWORD PTR [rsp+24], r8
	mov	QWORD PTR [rsp+16], rdx
	mov	QWORD PTR [rsp+8], rcx
	push	rbp
	push	rdi
	sub	rsp, 232				; 000000e8H
	lea	rbp, QWORD PTR [rsp+32]
	lea	rcx, OFFSET FLAT:__227866D8_utility
	call	__CheckForDebuggerJustMyCode
	mov	rcx, QWORD PTR _Val1$[rbp]
	call	??$forward@H@std@@YA$$QEAHAEAH@Z	; std::forward<int>
	mov	rcx, QWORD PTR this$[rbp]
	mov	eax, DWORD PTR [rax]
	mov	DWORD PTR [rcx], eax
	mov	rcx, QWORD PTR _Val2$[rbp]
	call	??$forward@$$T@std@@YA$$QEA$$TAEA$$T@Z	; std::forward<std::nullptr_t>
	mov	rcx, QWORD PTR this$[rbp]
	mov	rax, QWORD PTR [rax]
	mov	QWORD PTR [rcx+8], rax
; Line 191
	mov	rax, QWORD PTR this$[rbp]
	lea	rsp, QWORD PTR [rbp+200]
	pop	rdi
	pop	rbp
	ret	0
??$?0H$$T$0A@@?$pair@H$$T@std@@QEAA@$$QEAH$$QEA$$T@Z ENDP ; std::pair<int,std::nullptr_t>::pair<int,std::nullptr_t><int,std::nullptr_t,0>
_TEXT	ENDS
; Function compile flags: /Odtp /RTCsu /ZI
;	COMDAT ??$forward@$$T@std@@YA$$QEA$$TAEA$$T@Z
_TEXT	SEGMENT
_Arg$ = 224
??$forward@$$T@std@@YA$$QEA$$TAEA$$T@Z PROC		; std::forward<std::nullptr_t>, COMDAT
; File C:\Program Files\Microsoft Visual Studio\2022\Community\VC\Tools\MSVC\14.32.31326\include\type_traits
; Line 1341
$LN3:
	mov	QWORD PTR [rsp+8], rcx
	push	rbp
	push	rdi
	sub	rsp, 232				; 000000e8H
	lea	rbp, QWORD PTR [rsp+32]
	lea	rcx, OFFSET FLAT:__4CC0724B_type_traits
	call	__CheckForDebuggerJustMyCode
; Line 1342
	mov	rax, QWORD PTR _Arg$[rbp]
; Line 1343
	lea	rsp, QWORD PTR [rbp+200]
	pop	rdi
	pop	rbp
	ret	0
??$forward@$$T@std@@YA$$QEA$$TAEA$$T@Z ENDP		; std::forward<std::nullptr_t>
_TEXT	ENDS
; Function compile flags: /Odtp /RTCsu /ZI
;	COMDAT ??$forward@H@std@@YA$$QEAHAEAH@Z
_TEXT	SEGMENT
_Arg$ = 224
??$forward@H@std@@YA$$QEAHAEAH@Z PROC			; std::forward<int>, COMDAT
; File C:\Program Files\Microsoft Visual Studio\2022\Community\VC\Tools\MSVC\14.32.31326\include\type_traits
; Line 1341
$LN3:
	mov	QWORD PTR [rsp+8], rcx
	push	rbp
	push	rdi
	sub	rsp, 232				; 000000e8H
	lea	rbp, QWORD PTR [rsp+32]
	lea	rcx, OFFSET FLAT:__4CC0724B_type_traits
	call	__CheckForDebuggerJustMyCode
; Line 1342
	mov	rax, QWORD PTR _Arg$[rbp]
; Line 1343
	lea	rsp, QWORD PTR [rbp+200]
	pop	rdi
	pop	rbp
	ret	0
??$forward@H@std@@YA$$QEAHAEAH@Z ENDP			; std::forward<int>
_TEXT	ENDS
; Function compile flags: /Odtp /RTCsu /ZI
;	COMDAT ??$?0AEAIAEAPEAUVkExtensionProperties@@$0A@@?$tuple@IPEAUVkExtensionProperties@@@std@@QEAA@AEAIAEAPEAUVkExtensionProperties@@@Z
_TEXT	SEGMENT
$T1 = 196
$T2 = 228
$T3 = 260
tv78 = 280
tv75 = 288
this$ = 336
_This_arg$ = 344
<_Rest_arg_0>$ = 352
??$?0AEAIAEAPEAUVkExtensionProperties@@$0A@@?$tuple@IPEAUVkExtensionProperties@@@std@@QEAA@AEAIAEAPEAUVkExtensionProperties@@@Z PROC ; std::tuple<unsigned int,VkExtensionProperties *>::tuple<unsigned int,VkExtensionProperties *><unsigned int &,VkExtensionProperties * &,0>, COMDAT
; File C:\Program Files\Microsoft Visual Studio\2022\Community\VC\Tools\MSVC\14.32.31326\include\tuple
; Line 327
$LN3:
	mov	QWORD PTR [rsp+24], r8
	mov	QWORD PTR [rsp+16], rdx
	mov	QWORD PTR [rsp+8], rcx
	push	rbp
	push	rdi
	sub	rsp, 344				; 00000158H
	lea	rbp, QWORD PTR [rsp+32]
	lea	rcx, OFFSET FLAT:__85A6FDFE_tuple
	call	__CheckForDebuggerJustMyCode
	mov	rcx, QWORD PTR <_Rest_arg_0>$[rbp]
	call	??$forward@AEAPEAUVkExtensionProperties@@@std@@YAAEAPEAUVkExtensionProperties@@AEAPEAU1@@Z ; std::forward<VkExtensionProperties * &>
	mov	QWORD PTR tv78[rbp], rax
	mov	rcx, QWORD PTR _This_arg$[rbp]
	call	??$forward@AEAI@std@@YAAEAIAEAI@Z	; std::forward<unsigned int &>
	mov	QWORD PTR tv75[rbp], rax
	movzx	eax, BYTE PTR $T1[rbp]
	mov	BYTE PTR $T2[rbp], al
	movzx	eax, BYTE PTR $T2[rbp]
	mov	BYTE PTR $T3[rbp], al
	mov	r9, QWORD PTR tv78[rbp]
	mov	r8, QWORD PTR tv75[rbp]
	movzx	edx, BYTE PTR $T3[rbp]
	mov	rcx, QWORD PTR this$[rbp]
	call	??$?0U_Exact_args_t@std@@AEAIAEAPEAUVkExtensionProperties@@$0A@@?$tuple@IPEAUVkExtensionProperties@@@std@@QEAA@U_Exact_args_t@1@AEAIAEAPEAUVkExtensionProperties@@@Z ; std::tuple<unsigned int,VkExtensionProperties *>::tuple<unsigned int,VkExtensionProperties *><std::_Exact_args_t,unsigned int &,VkExtensionProperties * &,0>
	mov	rax, QWORD PTR this$[rbp]
	lea	rsp, QWORD PTR [rbp+312]
	pop	rdi
	pop	rbp
	ret	0
??$?0AEAIAEAPEAUVkExtensionProperties@@$0A@@?$tuple@IPEAUVkExtensionProperties@@@std@@QEAA@AEAIAEAPEAUVkExtensionProperties@@@Z ENDP ; std::tuple<unsigned int,VkExtensionProperties *>::tuple<unsigned int,VkExtensionProperties *><unsigned int &,VkExtensionProperties * &,0>
_TEXT	ENDS
; Function compile flags: /Odtp /RTCsu /ZI
;	COMDAT ??$?0H$$T$0A@@?$tuple@IPEAUVkExtensionProperties@@@std@@QEAA@$$QEAU?$pair@H$$T@1@@Z
_TEXT	SEGMENT
$T1 = 196
$T2 = 228
tv72 = 248
this$ = 288
_Right$ = 296
??$?0H$$T$0A@@?$tuple@IPEAUVkExtensionProperties@@@std@@QEAA@$$QEAU?$pair@H$$T@1@@Z PROC ; std::tuple<unsigned int,VkExtensionProperties *>::tuple<unsigned int,VkExtensionProperties *><int,std::nullptr_t,0>, COMDAT
; File C:\Program Files\Microsoft Visual Studio\2022\Community\VC\Tools\MSVC\14.32.31326\include\tuple
; Line 421
$LN3:
	mov	QWORD PTR [rsp+16], rdx
	mov	QWORD PTR [rsp+8], rcx
	push	rbp
	push	rdi
	sub	rsp, 296				; 00000128H
	lea	rbp, QWORD PTR [rsp+32]
	lea	rcx, OFFSET FLAT:__85A6FDFE_tuple
	call	__CheckForDebuggerJustMyCode
	mov	rcx, QWORD PTR _Right$[rbp]
	call	??$move@AEAU?$pair@H$$T@std@@@std@@YA$$QEAU?$pair@H$$T@0@AEAU10@@Z ; std::move<std::pair<int,std::nullptr_t> &>
	mov	QWORD PTR tv72[rbp], rax
	movzx	eax, BYTE PTR $T1[rbp]
	mov	BYTE PTR $T2[rbp], al
	mov	r8, QWORD PTR tv72[rbp]
	movzx	edx, BYTE PTR $T2[rbp]
	mov	rcx, QWORD PTR this$[rbp]
	call	??$?0U_Unpack_tuple_t@std@@U?$pair@H$$T@1@$0A@@?$tuple@IPEAUVkExtensionProperties@@@std@@QEAA@U_Unpack_tuple_t@1@$$QEAU?$pair@H$$T@1@@Z ; std::tuple<unsigned int,VkExtensionProperties *>::tuple<unsigned int,VkExtensionProperties *><std::_Unpack_tuple_t,std::pair<int,std::nullptr_t>,0>
	mov	rax, QWORD PTR this$[rbp]
	lea	rsp, QWORD PTR [rbp+264]
	pop	rdi
	pop	rbp
	ret	0
??$?0H$$T$0A@@?$tuple@IPEAUVkExtensionProperties@@@std@@QEAA@$$QEAU?$pair@H$$T@1@@Z ENDP ; std::tuple<unsigned int,VkExtensionProperties *>::tuple<unsigned int,VkExtensionProperties *><int,std::nullptr_t,0>
_TEXT	ENDS
; Function compile flags: /Odtp /RTCsu /ZI
;	COMDAT ??$?0AEAIAEAPEAUVkPhysicalDeviceGroupProperties@@$0A@@?$tuple@IPEAUVkPhysicalDeviceGroupProperties@@@std@@QEAA@AEAIAEAPEAUVkPhysicalDeviceGroupProperties@@@Z
_TEXT	SEGMENT
$T1 = 196
$T2 = 228
$T3 = 260
tv78 = 280
tv75 = 288
this$ = 336
_This_arg$ = 344
<_Rest_arg_0>$ = 352
??$?0AEAIAEAPEAUVkPhysicalDeviceGroupProperties@@$0A@@?$tuple@IPEAUVkPhysicalDeviceGroupProperties@@@std@@QEAA@AEAIAEAPEAUVkPhysicalDeviceGroupProperties@@@Z PROC ; std::tuple<unsigned int,VkPhysicalDeviceGroupProperties *>::tuple<unsigned int,VkPhysicalDeviceGroupProperties *><unsigned int &,VkPhysicalDeviceGroupProperties * &,0>, COMDAT
; File C:\Program Files\Microsoft Visual Studio\2022\Community\VC\Tools\MSVC\14.32.31326\include\tuple
; Line 327
$LN3:
	mov	QWORD PTR [rsp+24], r8
	mov	QWORD PTR [rsp+16], rdx
	mov	QWORD PTR [rsp+8], rcx
	push	rbp
	push	rdi
	sub	rsp, 344				; 00000158H
	lea	rbp, QWORD PTR [rsp+32]
	lea	rcx, OFFSET FLAT:__85A6FDFE_tuple
	call	__CheckForDebuggerJustMyCode
	mov	rcx, QWORD PTR <_Rest_arg_0>$[rbp]
	call	??$forward@AEAPEAUVkPhysicalDeviceGroupProperties@@@std@@YAAEAPEAUVkPhysicalDeviceGroupProperties@@AEAPEAU1@@Z ; std::forward<VkPhysicalDeviceGroupProperties * &>
	mov	QWORD PTR tv78[rbp], rax
	mov	rcx, QWORD PTR _This_arg$[rbp]
	call	??$forward@AEAI@std@@YAAEAIAEAI@Z	; std::forward<unsigned int &>
	mov	QWORD PTR tv75[rbp], rax
	movzx	eax, BYTE PTR $T1[rbp]
	mov	BYTE PTR $T2[rbp], al
	movzx	eax, BYTE PTR $T2[rbp]
	mov	BYTE PTR $T3[rbp], al
	mov	r9, QWORD PTR tv78[rbp]
	mov	r8, QWORD PTR tv75[rbp]
	movzx	edx, BYTE PTR $T3[rbp]
	mov	rcx, QWORD PTR this$[rbp]
	call	??$?0U_Exact_args_t@std@@AEAIAEAPEAUVkPhysicalDeviceGroupProperties@@$0A@@?$tuple@IPEAUVkPhysicalDeviceGroupProperties@@@std@@QEAA@U_Exact_args_t@1@AEAIAEAPEAUVkPhysicalDeviceGroupProperties@@@Z ; std::tuple<unsigned int,VkPhysicalDeviceGroupProperties *>::tuple<unsigned int,VkPhysicalDeviceGroupProperties *><std::_Exact_args_t,unsigned int &,VkPhysicalDeviceGroupProperties * &,0>
	mov	rax, QWORD PTR this$[rbp]
	lea	rsp, QWORD PTR [rbp+312]
	pop	rdi
	pop	rbp
	ret	0
??$?0AEAIAEAPEAUVkPhysicalDeviceGroupProperties@@$0A@@?$tuple@IPEAUVkPhysicalDeviceGroupProperties@@@std@@QEAA@AEAIAEAPEAUVkPhysicalDeviceGroupProperties@@@Z ENDP ; std::tuple<unsigned int,VkPhysicalDeviceGroupProperties *>::tuple<unsigned int,VkPhysicalDeviceGroupProperties *><unsigned int &,VkPhysicalDeviceGroupProperties * &,0>
_TEXT	ENDS
; Function compile flags: /Odtp /RTCsu /ZI
;	COMDAT ??$?0H$$T$0A@@?$tuple@IPEAUVkPhysicalDeviceGroupProperties@@@std@@QEAA@$$QEAU?$pair@H$$T@1@@Z
_TEXT	SEGMENT
$T1 = 196
$T2 = 228
tv72 = 248
this$ = 288
_Right$ = 296
??$?0H$$T$0A@@?$tuple@IPEAUVkPhysicalDeviceGroupProperties@@@std@@QEAA@$$QEAU?$pair@H$$T@1@@Z PROC ; std::tuple<unsigned int,VkPhysicalDeviceGroupProperties *>::tuple<unsigned int,VkPhysicalDeviceGroupProperties *><int,std::nullptr_t,0>, COMDAT
; File C:\Program Files\Microsoft Visual Studio\2022\Community\VC\Tools\MSVC\14.32.31326\include\tuple
; Line 421
$LN3:
	mov	QWORD PTR [rsp+16], rdx
	mov	QWORD PTR [rsp+8], rcx
	push	rbp
	push	rdi
	sub	rsp, 296				; 00000128H
	lea	rbp, QWORD PTR [rsp+32]
	lea	rcx, OFFSET FLAT:__85A6FDFE_tuple
	call	__CheckForDebuggerJustMyCode
	mov	rcx, QWORD PTR _Right$[rbp]
	call	??$move@AEAU?$pair@H$$T@std@@@std@@YA$$QEAU?$pair@H$$T@0@AEAU10@@Z ; std::move<std::pair<int,std::nullptr_t> &>
	mov	QWORD PTR tv72[rbp], rax
	movzx	eax, BYTE PTR $T1[rbp]
	mov	BYTE PTR $T2[rbp], al
	mov	r8, QWORD PTR tv72[rbp]
	movzx	edx, BYTE PTR $T2[rbp]
	mov	rcx, QWORD PTR this$[rbp]
	call	??$?0U_Unpack_tuple_t@std@@U?$pair@H$$T@1@$0A@@?$tuple@IPEAUVkPhysicalDeviceGroupProperties@@@std@@QEAA@U_Unpack_tuple_t@1@$$QEAU?$pair@H$$T@1@@Z ; std::tuple<unsigned int,VkPhysicalDeviceGroupProperties *>::tuple<unsigned int,VkPhysicalDeviceGroupProperties *><std::_Unpack_tuple_t,std::pair<int,std::nullptr_t>,0>
	mov	rax, QWORD PTR this$[rbp]
	lea	rsp, QWORD PTR [rbp+264]
	pop	rdi
	pop	rbp
	ret	0
??$?0H$$T$0A@@?$tuple@IPEAUVkPhysicalDeviceGroupProperties@@@std@@QEAA@$$QEAU?$pair@H$$T@1@@Z ENDP ; std::tuple<unsigned int,VkPhysicalDeviceGroupProperties *>::tuple<unsigned int,VkPhysicalDeviceGroupProperties *><int,std::nullptr_t,0>
_TEXT	ENDS
; Function compile flags: /Odtp /RTCsu /ZI
;	COMDAT ??$?0AEAIAEAPEAPEAUVkPhysicalDevice_T@@$0A@@?$tuple@IPEAPEAUVkPhysicalDevice_T@@@std@@QEAA@AEAIAEAPEAPEAUVkPhysicalDevice_T@@@Z
_TEXT	SEGMENT
$T1 = 196
$T2 = 228
$T3 = 260
tv78 = 280
tv75 = 288
this$ = 336
_This_arg$ = 344
<_Rest_arg_0>$ = 352
??$?0AEAIAEAPEAPEAUVkPhysicalDevice_T@@$0A@@?$tuple@IPEAPEAUVkPhysicalDevice_T@@@std@@QEAA@AEAIAEAPEAPEAUVkPhysicalDevice_T@@@Z PROC ; std::tuple<unsigned int,VkPhysicalDevice_T * *>::tuple<unsigned int,VkPhysicalDevice_T * *><unsigned int &,VkPhysicalDevice_T * * &,0>, COMDAT
; File C:\Program Files\Microsoft Visual Studio\2022\Community\VC\Tools\MSVC\14.32.31326\include\tuple
; Line 327
$LN3:
	mov	QWORD PTR [rsp+24], r8
	mov	QWORD PTR [rsp+16], rdx
	mov	QWORD PTR [rsp+8], rcx
	push	rbp
	push	rdi
	sub	rsp, 344				; 00000158H
	lea	rbp, QWORD PTR [rsp+32]
	lea	rcx, OFFSET FLAT:__85A6FDFE_tuple
	call	__CheckForDebuggerJustMyCode
	mov	rcx, QWORD PTR <_Rest_arg_0>$[rbp]
	call	??$forward@AEAPEAPEAUVkPhysicalDevice_T@@@std@@YAAEAPEAPEAUVkPhysicalDevice_T@@AEAPEAPEAU1@@Z ; std::forward<VkPhysicalDevice_T * * &>
	mov	QWORD PTR tv78[rbp], rax
	mov	rcx, QWORD PTR _This_arg$[rbp]
	call	??$forward@AEAI@std@@YAAEAIAEAI@Z	; std::forward<unsigned int &>
	mov	QWORD PTR tv75[rbp], rax
	movzx	eax, BYTE PTR $T1[rbp]
	mov	BYTE PTR $T2[rbp], al
	movzx	eax, BYTE PTR $T2[rbp]
	mov	BYTE PTR $T3[rbp], al
	mov	r9, QWORD PTR tv78[rbp]
	mov	r8, QWORD PTR tv75[rbp]
	movzx	edx, BYTE PTR $T3[rbp]
	mov	rcx, QWORD PTR this$[rbp]
	call	??$?0U_Exact_args_t@std@@AEAIAEAPEAPEAUVkPhysicalDevice_T@@$0A@@?$tuple@IPEAPEAUVkPhysicalDevice_T@@@std@@QEAA@U_Exact_args_t@1@AEAIAEAPEAPEAUVkPhysicalDevice_T@@@Z ; std::tuple<unsigned int,VkPhysicalDevice_T * *>::tuple<unsigned int,VkPhysicalDevice_T * *><std::_Exact_args_t,unsigned int &,VkPhysicalDevice_T * * &,0>
	mov	rax, QWORD PTR this$[rbp]
	lea	rsp, QWORD PTR [rbp+312]
	pop	rdi
	pop	rbp
	ret	0
??$?0AEAIAEAPEAPEAUVkPhysicalDevice_T@@$0A@@?$tuple@IPEAPEAUVkPhysicalDevice_T@@@std@@QEAA@AEAIAEAPEAPEAUVkPhysicalDevice_T@@@Z ENDP ; std::tuple<unsigned int,VkPhysicalDevice_T * *>::tuple<unsigned int,VkPhysicalDevice_T * *><unsigned int &,VkPhysicalDevice_T * * &,0>
_TEXT	ENDS
; Function compile flags: /Odtp /RTCsu /ZI
;	COMDAT ??$?0H$$T$0A@@?$tuple@IPEAPEAUVkPhysicalDevice_T@@@std@@QEAA@$$QEAU?$pair@H$$T@1@@Z
_TEXT	SEGMENT
$T1 = 196
$T2 = 228
tv72 = 248
this$ = 288
_Right$ = 296
??$?0H$$T$0A@@?$tuple@IPEAPEAUVkPhysicalDevice_T@@@std@@QEAA@$$QEAU?$pair@H$$T@1@@Z PROC ; std::tuple<unsigned int,VkPhysicalDevice_T * *>::tuple<unsigned int,VkPhysicalDevice_T * *><int,std::nullptr_t,0>, COMDAT
; File C:\Program Files\Microsoft Visual Studio\2022\Community\VC\Tools\MSVC\14.32.31326\include\tuple
; Line 421
$LN3:
	mov	QWORD PTR [rsp+16], rdx
	mov	QWORD PTR [rsp+8], rcx
	push	rbp
	push	rdi
	sub	rsp, 296				; 00000128H
	lea	rbp, QWORD PTR [rsp+32]
	lea	rcx, OFFSET FLAT:__85A6FDFE_tuple
	call	__CheckForDebuggerJustMyCode
	mov	rcx, QWORD PTR _Right$[rbp]
	call	??$move@AEAU?$pair@H$$T@std@@@std@@YA$$QEAU?$pair@H$$T@0@AEAU10@@Z ; std::move<std::pair<int,std::nullptr_t> &>
	mov	QWORD PTR tv72[rbp], rax
	movzx	eax, BYTE PTR $T1[rbp]
	mov	BYTE PTR $T2[rbp], al
	mov	r8, QWORD PTR tv72[rbp]
	movzx	edx, BYTE PTR $T2[rbp]
	mov	rcx, QWORD PTR this$[rbp]
	call	??$?0U_Unpack_tuple_t@std@@U?$pair@H$$T@1@$0A@@?$tuple@IPEAPEAUVkPhysicalDevice_T@@@std@@QEAA@U_Unpack_tuple_t@1@$$QEAU?$pair@H$$T@1@@Z ; std::tuple<unsigned int,VkPhysicalDevice_T * *>::tuple<unsigned int,VkPhysicalDevice_T * *><std::_Unpack_tuple_t,std::pair<int,std::nullptr_t>,0>
	mov	rax, QWORD PTR this$[rbp]
	lea	rsp, QWORD PTR [rbp+264]
	pop	rdi
	pop	rbp
	ret	0
??$?0H$$T$0A@@?$tuple@IPEAPEAUVkPhysicalDevice_T@@@std@@QEAA@$$QEAU?$pair@H$$T@1@@Z ENDP ; std::tuple<unsigned int,VkPhysicalDevice_T * *>::tuple<unsigned int,VkPhysicalDevice_T * *><int,std::nullptr_t,0>
_TEXT	ENDS
; Function compile flags: /Odtp /RTCsu /ZI
;	COMDAT ??$make_pair@H$$T@std@@YA?AU?$pair@H$$T@0@$$QEAH$$QEA$$T@Z
_TEXT	SEGMENT
tv75 = 192
tv73 = 200
__$ReturnUdt$ = 240
_Val1$ = 248
_Val2$ = 256
??$make_pair@H$$T@std@@YA?AU?$pair@H$$T@0@$$QEAH$$QEA$$T@Z PROC ; std::make_pair<int,std::nullptr_t>, COMDAT
; File C:\Program Files\Microsoft Visual Studio\2022\Community\VC\Tools\MSVC\14.32.31326\include\utility
; Line 403
$LN3:
	mov	QWORD PTR [rsp+24], r8
	mov	QWORD PTR [rsp+16], rdx
	mov	QWORD PTR [rsp+8], rcx
	push	rbp
	push	rdi
	sub	rsp, 248				; 000000f8H
	lea	rbp, QWORD PTR [rsp+32]
	lea	rcx, OFFSET FLAT:__227866D8_utility
	call	__CheckForDebuggerJustMyCode
; Line 406
	mov	rcx, QWORD PTR _Val2$[rbp]
	call	??$forward@$$T@std@@YA$$QEA$$TAEA$$T@Z	; std::forward<std::nullptr_t>
	mov	QWORD PTR tv75[rbp], rax
	mov	rcx, QWORD PTR _Val1$[rbp]
	call	??$forward@H@std@@YA$$QEAHAEAH@Z	; std::forward<int>
	mov	QWORD PTR tv73[rbp], rax
	mov	r8, QWORD PTR tv75[rbp]
	mov	rdx, QWORD PTR tv73[rbp]
	mov	rcx, QWORD PTR __$ReturnUdt$[rbp]
	call	??$?0H$$T$0A@@?$pair@H$$T@std@@QEAA@$$QEAH$$QEA$$T@Z ; std::pair<int,std::nullptr_t>::pair<int,std::nullptr_t><int,std::nullptr_t,0>
	mov	rax, QWORD PTR __$ReturnUdt$[rbp]
; Line 407
	lea	rsp, QWORD PTR [rbp+216]
	pop	rdi
	pop	rbp
	ret	0
??$make_pair@H$$T@std@@YA?AU?$pair@H$$T@0@$$QEAH$$QEA$$T@Z ENDP ; std::make_pair<int,std::nullptr_t>
_TEXT	ENDS
; Function compile flags: /Odtp /RTCsu /ZI
;	COMDAT ?data@?$array@PEBD$00@std@@QEAAPEAPEBDXZ
_TEXT	SEGMENT
this$ = 224
?data@?$array@PEBD$00@std@@QEAAPEAPEBDXZ PROC		; std::array<char const *,1>::data, COMDAT
; File C:\Program Files\Microsoft Visual Studio\2022\Community\VC\Tools\MSVC\14.32.31326\include\array
; Line 590
$LN3:
	mov	QWORD PTR [rsp+8], rcx
	push	rbp
	push	rdi
	sub	rsp, 232				; 000000e8H
	lea	rbp, QWORD PTR [rsp+32]
	lea	rcx, OFFSET FLAT:__125A2BD9_array
	call	__CheckForDebuggerJustMyCode
; Line 591
	mov	rax, QWORD PTR this$[rbp]
; Line 592
	lea	rsp, QWORD PTR [rbp+200]
	pop	rdi
	pop	rbp
	ret	0
?data@?$array@PEBD$00@std@@QEAAPEAPEBDXZ ENDP		; std::array<char const *,1>::data
_TEXT	ENDS
; Function compile flags: /Odtp /RTCsu /ZI
;	COMDAT ?size@?$array@PEBD$00@std@@QEBA_KXZ
_TEXT	SEGMENT
this$ = 224
?size@?$array@PEBD$00@std@@QEBA_KXZ PROC		; std::array<char const *,1>::size, COMDAT
; File C:\Program Files\Microsoft Visual Studio\2022\Community\VC\Tools\MSVC\14.32.31326\include\array
; Line 529
$LN3:
	mov	QWORD PTR [rsp+8], rcx
	push	rbp
	push	rdi
	sub	rsp, 232				; 000000e8H
	lea	rbp, QWORD PTR [rsp+32]
	lea	rcx, OFFSET FLAT:__125A2BD9_array
	call	__CheckForDebuggerJustMyCode
; Line 530
	mov	eax, 1
; Line 531
	lea	rsp, QWORD PTR [rbp+200]
	pop	rdi
	pop	rbp
	ret	0
?size@?$array@PEBD$00@std@@QEBA_KXZ ENDP		; std::array<char const *,1>::size
_TEXT	ENDS
; Function compile flags: /Odtp /RTCsu /ZI
;	COMDAT ??_Gruntime_error@std@@UEAAPEAXI@Z
_TEXT	SEGMENT
this$ = 224
__flags$ = 232
??_Gruntime_error@std@@UEAAPEAXI@Z PROC			; std::runtime_error::`scalar deleting destructor', COMDAT
$LN4:
	mov	DWORD PTR [rsp+16], edx
	mov	QWORD PTR [rsp+8], rcx
	push	rbp
	push	rdi
	sub	rsp, 232				; 000000e8H
	lea	rbp, QWORD PTR [rsp+32]
	mov	rcx, QWORD PTR this$[rbp]
	call	??1runtime_error@std@@UEAA@XZ
	mov	eax, DWORD PTR __flags$[rbp]
	and	eax, 1
	test	eax, eax
	je	SHORT $LN2@scalar
	mov	edx, 24
	mov	rcx, QWORD PTR this$[rbp]
	call	??3@YAXPEAX_K@Z				; operator delete
$LN2@scalar:
	mov	rax, QWORD PTR this$[rbp]
	lea	rsp, QWORD PTR [rbp+200]
	pop	rdi
	pop	rbp
	ret	0
??_Gruntime_error@std@@UEAAPEAXI@Z ENDP			; std::runtime_error::`scalar deleting destructor'
_TEXT	ENDS
; Function compile flags: /Odtp /RTCsu /ZI
;	COMDAT ??0runtime_error@std@@QEAA@AEBV01@@Z
_TEXT	SEGMENT
this$ = 224
__that$ = 232
??0runtime_error@std@@QEAA@AEBV01@@Z PROC		; std::runtime_error::runtime_error, COMDAT
$LN3:
	mov	QWORD PTR [rsp+16], rdx
	mov	QWORD PTR [rsp+8], rcx
	push	rbp
	push	rdi
	sub	rsp, 232				; 000000e8H
	lea	rbp, QWORD PTR [rsp+32]
	mov	rdx, QWORD PTR __that$[rbp]
	mov	rcx, QWORD PTR this$[rbp]
	call	??0exception@std@@QEAA@AEBV01@@Z	; std::exception::exception
	mov	rax, QWORD PTR this$[rbp]
	lea	rcx, OFFSET FLAT:??_7runtime_error@std@@6B@
	mov	QWORD PTR [rax], rcx
	mov	rax, QWORD PTR this$[rbp]
	lea	rsp, QWORD PTR [rbp+200]
	pop	rdi
	pop	rbp
	ret	0
??0runtime_error@std@@QEAA@AEBV01@@Z ENDP		; std::runtime_error::runtime_error
_TEXT	ENDS
; Function compile flags: /Odtp /RTCsu /ZI
;	COMDAT ??1runtime_error@std@@UEAA@XZ
_TEXT	SEGMENT
this$ = 224
??1runtime_error@std@@UEAA@XZ PROC			; std::runtime_error::~runtime_error, COMDAT
$LN3:
	mov	QWORD PTR [rsp+8], rcx
	push	rbp
	push	rdi
	sub	rsp, 232				; 000000e8H
	lea	rbp, QWORD PTR [rsp+32]
	mov	rcx, QWORD PTR this$[rbp]
	call	??1exception@std@@UEAA@XZ		; std::exception::~exception
	lea	rsp, QWORD PTR [rbp+200]
	pop	rdi
	pop	rbp
	ret	0
??1runtime_error@std@@UEAA@XZ ENDP			; std::runtime_error::~runtime_error
_TEXT	ENDS
; Function compile flags: /Odtp /RTCsu /ZI
;	COMDAT ??0runtime_error@std@@QEAA@PEBD@Z
_TEXT	SEGMENT
this$ = 224
_Message$ = 232
??0runtime_error@std@@QEAA@PEBD@Z PROC			; std::runtime_error::runtime_error, COMDAT
; File C:\Program Files\Microsoft Visual Studio\2022\Community\VC\Tools\MSVC\14.32.31326\include\stdexcept
; Line 107
$LN4:
	mov	QWORD PTR [rsp+16], rdx
	mov	QWORD PTR [rsp+8], rcx
	push	rbp
	push	rdi
	sub	rsp, 232				; 000000e8H
	lea	rbp, QWORD PTR [rsp+32]
	lea	rcx, OFFSET FLAT:__25D7A753_stdexcept
	call	__CheckForDebuggerJustMyCode
	mov	rdx, QWORD PTR _Message$[rbp]
	mov	rcx, QWORD PTR this$[rbp]
	call	??0exception@std@@QEAA@QEBD@Z		; std::exception::exception
	mov	rax, QWORD PTR this$[rbp]
	lea	rcx, OFFSET FLAT:??_7runtime_error@std@@6B@
	mov	QWORD PTR [rax], rcx
	mov	rax, QWORD PTR this$[rbp]
	lea	rsp, QWORD PTR [rbp+200]
	pop	rdi
	pop	rbp
	ret	0
??0runtime_error@std@@QEAA@PEBD@Z ENDP			; std::runtime_error::runtime_error
_TEXT	ENDS
; Function compile flags: /Odtp /RTCsu /ZI
;	COMDAT ??_Gexception@std@@UEAAPEAXI@Z
_TEXT	SEGMENT
this$ = 224
__flags$ = 232
??_Gexception@std@@UEAAPEAXI@Z PROC			; std::exception::`scalar deleting destructor', COMDAT
$LN4:
	mov	DWORD PTR [rsp+16], edx
	mov	QWORD PTR [rsp+8], rcx
	push	rbp
	push	rdi
	sub	rsp, 232				; 000000e8H
	lea	rbp, QWORD PTR [rsp+32]
	mov	rcx, QWORD PTR this$[rbp]
	call	??1exception@std@@UEAA@XZ		; std::exception::~exception
	mov	eax, DWORD PTR __flags$[rbp]
	and	eax, 1
	test	eax, eax
	je	SHORT $LN2@scalar
	mov	edx, 24
	mov	rcx, QWORD PTR this$[rbp]
	call	??3@YAXPEAX_K@Z				; operator delete
$LN2@scalar:
	mov	rax, QWORD PTR this$[rbp]
	lea	rsp, QWORD PTR [rbp+200]
	pop	rdi
	pop	rbp
	ret	0
??_Gexception@std@@UEAAPEAXI@Z ENDP			; std::exception::`scalar deleting destructor'
_TEXT	ENDS
; Function compile flags: /Odtp /RTCsu /ZI
;	COMDAT ?what@exception@std@@UEBAPEBDXZ
_TEXT	SEGMENT
tv69 = 192
this$ = 240
?what@exception@std@@UEBAPEBDXZ PROC			; std::exception::what, COMDAT
; File C:\Program Files\Microsoft Visual Studio\2022\Community\VC\Tools\MSVC\14.32.31326\include\vcruntime_exception.h
; Line 94
$LN5:
	mov	QWORD PTR [rsp+8], rcx
	push	rbp
	push	rdi
	sub	rsp, 248				; 000000f8H
	lea	rbp, QWORD PTR [rsp+32]
	lea	rcx, OFFSET FLAT:__6A8FA247_vcruntime_exception@h
	call	__CheckForDebuggerJustMyCode
; Line 95
	mov	rax, QWORD PTR this$[rbp]
	cmp	QWORD PTR [rax+8], 0
	je	SHORT $LN3@what
	mov	rax, QWORD PTR this$[rbp]
	mov	rax, QWORD PTR [rax+8]
	mov	QWORD PTR tv69[rbp], rax
	jmp	SHORT $LN4@what
$LN3@what:
	lea	rax, OFFSET FLAT:??_C@_0BC@EOODALEL@Unknown?5exception@
	mov	QWORD PTR tv69[rbp], rax
$LN4@what:
	mov	rax, QWORD PTR tv69[rbp]
; Line 96
	lea	rsp, QWORD PTR [rbp+216]
	pop	rdi
	pop	rbp
	ret	0
?what@exception@std@@UEBAPEBDXZ ENDP			; std::exception::what
_TEXT	ENDS
; Function compile flags: /Odtp /RTCsu /ZI
;	COMDAT ??1exception@std@@UEAA@XZ
_TEXT	SEGMENT
this$ = 224
??1exception@std@@UEAA@XZ PROC				; std::exception::~exception, COMDAT
; File C:\Program Files\Microsoft Visual Studio\2022\Community\VC\Tools\MSVC\14.32.31326\include\vcruntime_exception.h
; Line 89
$LN3:
	mov	QWORD PTR [rsp+8], rcx
	push	rbp
	push	rdi
	sub	rsp, 232				; 000000e8H
	lea	rbp, QWORD PTR [rsp+32]
	lea	rcx, OFFSET FLAT:__6A8FA247_vcruntime_exception@h
	call	__CheckForDebuggerJustMyCode
	mov	rax, QWORD PTR this$[rbp]
	lea	rcx, OFFSET FLAT:??_7exception@std@@6B@
	mov	QWORD PTR [rax], rcx
; Line 90
	mov	rax, QWORD PTR this$[rbp]
	add	rax, 8
	mov	rcx, rax
	call	__std_exception_destroy
; Line 91
	lea	rsp, QWORD PTR [rbp+200]
	pop	rdi
	pop	rbp
	ret	0
??1exception@std@@UEAA@XZ ENDP				; std::exception::~exception
_TEXT	ENDS
; Function compile flags: /Odtp /RTCsu /ZI
;	COMDAT ??0exception@std@@QEAA@AEBV01@@Z
_TEXT	SEGMENT
this$ = 224
_Other$ = 232
??0exception@std@@QEAA@AEBV01@@Z PROC			; std::exception::exception, COMDAT
; File C:\Program Files\Microsoft Visual Studio\2022\Community\VC\Tools\MSVC\14.32.31326\include\vcruntime_exception.h
; Line 72
$LN3:
	mov	QWORD PTR [rsp+16], rdx
	mov	QWORD PTR [rsp+8], rcx
	push	rbp
	push	rdi
	sub	rsp, 232				; 000000e8H
	lea	rbp, QWORD PTR [rsp+32]
	lea	rcx, OFFSET FLAT:__6A8FA247_vcruntime_exception@h
	call	__CheckForDebuggerJustMyCode
	mov	rax, QWORD PTR this$[rbp]
	lea	rcx, OFFSET FLAT:??_7exception@std@@6B@
	mov	QWORD PTR [rax], rcx
; Line 71
	mov	rax, QWORD PTR this$[rbp]
	add	rax, 8
	mov	rdi, rax
	xor	eax, eax
	mov	ecx, 16
	rep stosb
; Line 73
	mov	rax, QWORD PTR this$[rbp]
	add	rax, 8
	mov	rcx, QWORD PTR _Other$[rbp]
	add	rcx, 8
	mov	rdx, rax
	call	__std_exception_copy
; Line 74
	mov	rax, QWORD PTR this$[rbp]
	lea	rsp, QWORD PTR [rbp+200]
	pop	rdi
	pop	rbp
	ret	0
??0exception@std@@QEAA@AEBV01@@Z ENDP			; std::exception::exception
_TEXT	ENDS
; Function compile flags: /Odtp /RTCsu /ZI
;	COMDAT ??0exception@std@@QEAA@QEBD@Z
_TEXT	SEGMENT
_InitData$ = 8
__$ArrayPad$ = 232
this$ = 272
_Message$ = 280
??0exception@std@@QEAA@QEBD@Z PROC			; std::exception::exception, COMDAT
; File C:\Program Files\Microsoft Visual Studio\2022\Community\VC\Tools\MSVC\14.32.31326\include\vcruntime_exception.h
; Line 59
$LN3:
	mov	QWORD PTR [rsp+16], rdx
	mov	QWORD PTR [rsp+8], rcx
	push	rbp
	push	rdi
	sub	rsp, 280				; 00000118H
	lea	rbp, QWORD PTR [rsp+32]
	lea	rdi, QWORD PTR [rsp+32]
	mov	ecx, 14
	mov	eax, -858993460				; ccccccccH
	rep stosd
	mov	rcx, QWORD PTR [rsp+312]
	mov	rax, QWORD PTR __security_cookie
	xor	rax, rbp
	mov	QWORD PTR __$ArrayPad$[rbp], rax
	lea	rcx, OFFSET FLAT:__6A8FA247_vcruntime_exception@h
	call	__CheckForDebuggerJustMyCode
	mov	rax, QWORD PTR this$[rbp]
	lea	rcx, OFFSET FLAT:??_7exception@std@@6B@
	mov	QWORD PTR [rax], rcx
; Line 58
	mov	rax, QWORD PTR this$[rbp]
	add	rax, 8
	mov	rdi, rax
	xor	eax, eax
	mov	ecx, 16
	rep stosb
; Line 60
	mov	rax, QWORD PTR _Message$[rbp]
	mov	QWORD PTR _InitData$[rbp], rax
	mov	BYTE PTR _InitData$[rbp+8], 1
; Line 61
	mov	rax, QWORD PTR this$[rbp]
	add	rax, 8
	mov	rdx, rax
	lea	rcx, QWORD PTR _InitData$[rbp]
	call	__std_exception_copy
; Line 62
	mov	rax, QWORD PTR this$[rbp]
	mov	rdi, rax
	lea	rcx, QWORD PTR [rbp-32]
	lea	rdx, OFFSET FLAT:??0exception@std@@QEAA@QEBD@Z$rtcFrameData
	call	_RTC_CheckStackVars
	mov	rax, rdi
	mov	rcx, QWORD PTR __$ArrayPad$[rbp]
	xor	rcx, rbp
	call	__security_check_cookie
	lea	rsp, QWORD PTR [rbp+248]
	pop	rdi
	pop	rbp
	ret	0
??0exception@std@@QEAA@QEBD@Z ENDP			; std::exception::exception
_TEXT	ENDS
; Function compile flags: /Odtp /RTCsu /ZI
;	COMDAT ?enumerateExtensionProperties@Instance@cow@@SA?AV?$tuple@IPEAUVkExtensionProperties@@@std@@XZ
_TEXT	SEGMENT
count$ = 4
pProperties$ = 40
$T5 = 260
$T6 = 292
$T7 = 328
__$ArrayPad$ = 360
__$ReturnUdt$ = 400
?enumerateExtensionProperties@Instance@cow@@SA?AV?$tuple@IPEAUVkExtensionProperties@@@std@@XZ PROC ; cow::Instance::enumerateExtensionProperties, COMDAT
; File C:\Users\anton\source\repos\GPU-VM\GPU-VM\Instance.cpp
; Line 73
$LN4:
	mov	QWORD PTR [rsp+8], rcx
	push	rbp
	push	rdi
	sub	rsp, 408				; 00000198H
	lea	rbp, QWORD PTR [rsp+32]
	lea	rdi, QWORD PTR [rsp+32]
	mov	ecx, 46					; 0000002eH
	mov	eax, -858993460				; ccccccccH
	rep stosd
	mov	rcx, QWORD PTR [rsp+440]
	mov	rax, QWORD PTR __security_cookie
	xor	rax, rbp
	mov	QWORD PTR __$ArrayPad$[rbp], rax
	lea	rcx, OFFSET FLAT:__CB5A7EB7_Instance@cpp
	call	__CheckForDebuggerJustMyCode
; Line 75
	xor	r8d, r8d
	lea	rdx, QWORD PTR count$[rbp]
	xor	ecx, ecx
	call	vkEnumerateInstanceExtensionProperties
; Line 76
	cmp	DWORD PTR count$[rbp], 0
	jne	SHORT $LN2@enumerateE
	mov	QWORD PTR $T5[rbp], 0
	mov	DWORD PTR $T6[rbp], -1
	lea	r8, QWORD PTR $T5[rbp]
	lea	rdx, QWORD PTR $T6[rbp]
	lea	rcx, QWORD PTR $T7[rbp]
	call	??$make_pair@H$$T@std@@YA?AU?$pair@H$$T@0@$$QEAH$$QEA$$T@Z ; std::make_pair<int,std::nullptr_t>
	mov	rdx, rax
	mov	rcx, QWORD PTR __$ReturnUdt$[rbp]
	call	??$?0H$$T$0A@@?$tuple@IPEAUVkExtensionProperties@@@std@@QEAA@$$QEAU?$pair@H$$T@1@@Z ; std::tuple<unsigned int,VkExtensionProperties *>::tuple<unsigned int,VkExtensionProperties *><int,std::nullptr_t,0>
	mov	rax, QWORD PTR __$ReturnUdt$[rbp]
	jmp	SHORT $LN1@enumerateE
$LN2@enumerateE:
; Line 77
	mov	eax, DWORD PTR count$[rbp]
	mov	edx, 260				; 00000104H
	mov	ecx, eax
	call	QWORD PTR __imp_calloc
	mov	QWORD PTR pProperties$[rbp], rax
; Line 79
	mov	r8, QWORD PTR pProperties$[rbp]
	lea	rdx, QWORD PTR count$[rbp]
	xor	ecx, ecx
	call	vkEnumerateInstanceExtensionProperties
; Line 80
	lea	r8, QWORD PTR pProperties$[rbp]
	lea	rdx, QWORD PTR count$[rbp]
	mov	rcx, QWORD PTR __$ReturnUdt$[rbp]
	call	??$?0AEAIAEAPEAUVkExtensionProperties@@$0A@@?$tuple@IPEAUVkExtensionProperties@@@std@@QEAA@AEAIAEAPEAUVkExtensionProperties@@@Z ; std::tuple<unsigned int,VkExtensionProperties *>::tuple<unsigned int,VkExtensionProperties *><unsigned int &,VkExtensionProperties * &,0>
	mov	rax, QWORD PTR __$ReturnUdt$[rbp]
$LN1@enumerateE:
; Line 81
	mov	rdi, rax
	lea	rcx, QWORD PTR [rbp-32]
	lea	rdx, OFFSET FLAT:?enumerateExtensionProperties@Instance@cow@@SA?AV?$tuple@IPEAUVkExtensionProperties@@@std@@XZ$rtcFrameData
	call	_RTC_CheckStackVars
	mov	rax, rdi
	mov	rcx, QWORD PTR __$ArrayPad$[rbp]
	xor	rcx, rbp
	call	__security_check_cookie
	lea	rsp, QWORD PTR [rbp+376]
	pop	rdi
	pop	rbp
	ret	0
?enumerateExtensionProperties@Instance@cow@@SA?AV?$tuple@IPEAUVkExtensionProperties@@@std@@XZ ENDP ; cow::Instance::enumerateExtensionProperties
_TEXT	ENDS
; Function compile flags: /Odtp /RTCsu /ZI
;	COMDAT ?enumeratePhysicalDeviceGroups@Instance@cow@@QEBA?AV?$tuple@IPEAUVkPhysicalDeviceGroupProperties@@@std@@XZ
_TEXT	SEGMENT
count$ = 4
pDeviceGroupProps$ = 40
$T5 = 260
$T6 = 292
$T7 = 328
__$ArrayPad$ = 360
this$ = 400
__$ReturnUdt$ = 408
?enumeratePhysicalDeviceGroups@Instance@cow@@QEBA?AV?$tuple@IPEAUVkPhysicalDeviceGroupProperties@@@std@@XZ PROC ; cow::Instance::enumeratePhysicalDeviceGroups, COMDAT
; File C:\Users\anton\source\repos\GPU-VM\GPU-VM\Instance.cpp
; Line 63
$LN4:
	mov	QWORD PTR [rsp+16], rdx
	mov	QWORD PTR [rsp+8], rcx
	push	rbp
	push	rdi
	sub	rsp, 408				; 00000198H
	lea	rbp, QWORD PTR [rsp+32]
	lea	rdi, QWORD PTR [rsp+32]
	mov	ecx, 46					; 0000002eH
	mov	eax, -858993460				; ccccccccH
	rep stosd
	mov	rcx, QWORD PTR [rsp+440]
	mov	rax, QWORD PTR __security_cookie
	xor	rax, rbp
	mov	QWORD PTR __$ArrayPad$[rbp], rax
	lea	rcx, OFFSET FLAT:__CB5A7EB7_Instance@cpp
	call	__CheckForDebuggerJustMyCode
; Line 65
	xor	r8d, r8d
	lea	rdx, QWORD PTR count$[rbp]
	mov	rax, QWORD PTR this$[rbp]
	mov	rcx, QWORD PTR [rax]
	call	vkEnumeratePhysicalDeviceGroups
; Line 66
	cmp	DWORD PTR count$[rbp], 0
	jne	SHORT $LN2@enumerateP
	mov	QWORD PTR $T5[rbp], 0
	mov	DWORD PTR $T6[rbp], -1
	lea	r8, QWORD PTR $T5[rbp]
	lea	rdx, QWORD PTR $T6[rbp]
	lea	rcx, QWORD PTR $T7[rbp]
	call	??$make_pair@H$$T@std@@YA?AU?$pair@H$$T@0@$$QEAH$$QEA$$T@Z ; std::make_pair<int,std::nullptr_t>
	mov	rdx, rax
	mov	rcx, QWORD PTR __$ReturnUdt$[rbp]
	call	??$?0H$$T$0A@@?$tuple@IPEAUVkPhysicalDeviceGroupProperties@@@std@@QEAA@$$QEAU?$pair@H$$T@1@@Z ; std::tuple<unsigned int,VkPhysicalDeviceGroupProperties *>::tuple<unsigned int,VkPhysicalDeviceGroupProperties *><int,std::nullptr_t,0>
	mov	rax, QWORD PTR __$ReturnUdt$[rbp]
	jmp	SHORT $LN1@enumerateP
$LN2@enumerateP:
; Line 67
	mov	eax, DWORD PTR count$[rbp]
	mov	edx, 288				; 00000120H
	mov	ecx, eax
	call	QWORD PTR __imp_calloc
	mov	QWORD PTR pDeviceGroupProps$[rbp], rax
; Line 69
	mov	r8, QWORD PTR pDeviceGroupProps$[rbp]
	lea	rdx, QWORD PTR count$[rbp]
	mov	rax, QWORD PTR this$[rbp]
	mov	rcx, QWORD PTR [rax]
	call	vkEnumeratePhysicalDeviceGroups
; Line 70
	lea	r8, QWORD PTR pDeviceGroupProps$[rbp]
	lea	rdx, QWORD PTR count$[rbp]
	mov	rcx, QWORD PTR __$ReturnUdt$[rbp]
	call	??$?0AEAIAEAPEAUVkPhysicalDeviceGroupProperties@@$0A@@?$tuple@IPEAUVkPhysicalDeviceGroupProperties@@@std@@QEAA@AEAIAEAPEAUVkPhysicalDeviceGroupProperties@@@Z ; std::tuple<unsigned int,VkPhysicalDeviceGroupProperties *>::tuple<unsigned int,VkPhysicalDeviceGroupProperties *><unsigned int &,VkPhysicalDeviceGroupProperties * &,0>
	mov	rax, QWORD PTR __$ReturnUdt$[rbp]
$LN1@enumerateP:
; Line 71
	mov	rdi, rax
	lea	rcx, QWORD PTR [rbp-32]
	lea	rdx, OFFSET FLAT:?enumeratePhysicalDeviceGroups@Instance@cow@@QEBA?AV?$tuple@IPEAUVkPhysicalDeviceGroupProperties@@@std@@XZ$rtcFrameData
	call	_RTC_CheckStackVars
	mov	rax, rdi
	mov	rcx, QWORD PTR __$ArrayPad$[rbp]
	xor	rcx, rbp
	call	__security_check_cookie
	lea	rsp, QWORD PTR [rbp+376]
	pop	rdi
	pop	rbp
	ret	0
?enumeratePhysicalDeviceGroups@Instance@cow@@QEBA?AV?$tuple@IPEAUVkPhysicalDeviceGroupProperties@@@std@@XZ ENDP ; cow::Instance::enumeratePhysicalDeviceGroups
_TEXT	ENDS
; Function compile flags: /Odtp /RTCsu /ZI
;	COMDAT ?enumeratePhysicalDevices@Instance@cow@@QEBA?AV?$tuple@IPEAPEAUVkPhysicalDevice_T@@@std@@XZ
_TEXT	SEGMENT
count$ = 4
pDevices$ = 40
$T5 = 260
$T6 = 292
$T7 = 328
__$ArrayPad$ = 360
this$ = 400
__$ReturnUdt$ = 408
?enumeratePhysicalDevices@Instance@cow@@QEBA?AV?$tuple@IPEAPEAUVkPhysicalDevice_T@@@std@@XZ PROC ; cow::Instance::enumeratePhysicalDevices, COMDAT
; File C:\Users\anton\source\repos\GPU-VM\GPU-VM\Instance.cpp
; Line 51
$LN4:
	mov	QWORD PTR [rsp+16], rdx
	mov	QWORD PTR [rsp+8], rcx
	push	rbp
	push	rdi
	sub	rsp, 408				; 00000198H
	lea	rbp, QWORD PTR [rsp+32]
	lea	rdi, QWORD PTR [rsp+32]
	mov	ecx, 46					; 0000002eH
	mov	eax, -858993460				; ccccccccH
	rep stosd
	mov	rcx, QWORD PTR [rsp+440]
	mov	rax, QWORD PTR __security_cookie
	xor	rax, rbp
	mov	QWORD PTR __$ArrayPad$[rbp], rax
	lea	rcx, OFFSET FLAT:__CB5A7EB7_Instance@cpp
	call	__CheckForDebuggerJustMyCode
; Line 53
	xor	r8d, r8d
	lea	rdx, QWORD PTR count$[rbp]
	mov	rax, QWORD PTR this$[rbp]
	mov	rcx, QWORD PTR [rax]
	call	vkEnumeratePhysicalDevices
; Line 54
	cmp	DWORD PTR count$[rbp], 0
	jne	SHORT $LN2@enumerateP
	mov	QWORD PTR $T5[rbp], 0
	mov	DWORD PTR $T6[rbp], -1
	lea	r8, QWORD PTR $T5[rbp]
	lea	rdx, QWORD PTR $T6[rbp]
	lea	rcx, QWORD PTR $T7[rbp]
	call	??$make_pair@H$$T@std@@YA?AU?$pair@H$$T@0@$$QEAH$$QEA$$T@Z ; std::make_pair<int,std::nullptr_t>
	mov	rdx, rax
	mov	rcx, QWORD PTR __$ReturnUdt$[rbp]
	call	??$?0H$$T$0A@@?$tuple@IPEAPEAUVkPhysicalDevice_T@@@std@@QEAA@$$QEAU?$pair@H$$T@1@@Z ; std::tuple<unsigned int,VkPhysicalDevice_T * *>::tuple<unsigned int,VkPhysicalDevice_T * *><int,std::nullptr_t,0>
	mov	rax, QWORD PTR __$ReturnUdt$[rbp]
	jmp	SHORT $LN1@enumerateP
$LN2@enumerateP:
; Line 55
	mov	eax, DWORD PTR count$[rbp]
	mov	edx, 8
	mov	ecx, eax
	call	QWORD PTR __imp_calloc
	mov	QWORD PTR pDevices$[rbp], rax
; Line 57
	mov	r8, QWORD PTR pDevices$[rbp]
	lea	rdx, QWORD PTR count$[rbp]
	mov	rax, QWORD PTR this$[rbp]
	mov	rcx, QWORD PTR [rax]
	call	vkEnumeratePhysicalDevices
; Line 58
	lea	r8, QWORD PTR pDevices$[rbp]
	lea	rdx, QWORD PTR count$[rbp]
	mov	rcx, QWORD PTR __$ReturnUdt$[rbp]
	call	??$?0AEAIAEAPEAPEAUVkPhysicalDevice_T@@$0A@@?$tuple@IPEAPEAUVkPhysicalDevice_T@@@std@@QEAA@AEAIAEAPEAPEAUVkPhysicalDevice_T@@@Z ; std::tuple<unsigned int,VkPhysicalDevice_T * *>::tuple<unsigned int,VkPhysicalDevice_T * *><unsigned int &,VkPhysicalDevice_T * * &,0>
	mov	rax, QWORD PTR __$ReturnUdt$[rbp]
$LN1@enumerateP:
; Line 59
	mov	rdi, rax
	lea	rcx, QWORD PTR [rbp-32]
	lea	rdx, OFFSET FLAT:?enumeratePhysicalDevices@Instance@cow@@QEBA?AV?$tuple@IPEAPEAUVkPhysicalDevice_T@@@std@@XZ$rtcFrameData
	call	_RTC_CheckStackVars
	mov	rax, rdi
	mov	rcx, QWORD PTR __$ArrayPad$[rbp]
	xor	rcx, rbp
	call	__security_check_cookie
	lea	rsp, QWORD PTR [rbp+376]
	pop	rdi
	pop	rbp
	ret	0
?enumeratePhysicalDevices@Instance@cow@@QEBA?AV?$tuple@IPEAPEAUVkPhysicalDevice_T@@@std@@XZ ENDP ; cow::Instance::enumeratePhysicalDevices
_TEXT	ENDS
; Function compile flags: /Odtp /RTCsu /ZI
;	COMDAT ??1Instance@cow@@QEAA@XZ
_TEXT	SEGMENT
this$ = 224
??1Instance@cow@@QEAA@XZ PROC				; cow::Instance::~Instance, COMDAT
; File C:\Users\anton\source\repos\GPU-VM\GPU-VM\Instance.cpp
; Line 45
$LN3:
	mov	QWORD PTR [rsp+8], rcx
	push	rbp
	push	rdi
	sub	rsp, 232				; 000000e8H
	lea	rbp, QWORD PTR [rsp+32]
	lea	rcx, OFFSET FLAT:__CB5A7EB7_Instance@cpp
	call	__CheckForDebuggerJustMyCode
; Line 46
	xor	edx, edx
	mov	rax, QWORD PTR this$[rbp]
	mov	rcx, QWORD PTR [rax]
	call	vkDestroyInstance
; Line 47
	lea	rsp, QWORD PTR [rbp+200]
	pop	rdi
	pop	rbp
	ret	0
??1Instance@cow@@QEAA@XZ ENDP				; cow::Instance::~Instance
_TEXT	ENDS
; Function compile flags: /Odtp /RTCsu /ZI
;	COMDAT ??0Instance@cow@@QEAA@XZ
_TEXT	SEGMENT
validationLayers$ = 8
appInfo$ = 40
createInfo$ = 128
glfwExtensionCount$ = 212
glfwExtensions$ = 248
$T7 = 472
__$ArrayPad$ = 504
this$ = 544
??0Instance@cow@@QEAA@XZ PROC				; cow::Instance::Instance, COMDAT
; File C:\Users\anton\source\repos\GPU-VM\GPU-VM\Instance.cpp
; Line 9
$LN6:
	mov	QWORD PTR [rsp+8], rcx
	push	rbp
	push	rdi
	sub	rsp, 552				; 00000228H
	lea	rbp, QWORD PTR [rsp+32]
	lea	rdi, QWORD PTR [rsp+32]
	mov	ecx, 82					; 00000052H
	mov	eax, -858993460				; ccccccccH
	rep stosd
	mov	rcx, QWORD PTR [rsp+584]
	mov	rax, QWORD PTR __security_cookie
	xor	rax, rbp
	mov	QWORD PTR __$ArrayPad$[rbp], rax
	lea	rcx, OFFSET FLAT:__CB5A7EB7_Instance@cpp
	call	__CheckForDebuggerJustMyCode
; Line 10
	lea	rax, OFFSET FLAT:??_C@_0BM@LGHMGEMH@VK_LAYER_KHRONOS_validation@
	mov	QWORD PTR validationLayers$[rbp], rax
; Line 12
	lea	rax, QWORD PTR appInfo$[rbp]
	mov	rdi, rax
	xor	eax, eax
	mov	ecx, 48					; 00000030H
	rep stosb
; Line 13
	mov	DWORD PTR appInfo$[rbp], 0
; Line 14
	mov	DWORD PTR appInfo$[rbp+44], 4206592	; 00403000H
; Line 15
	mov	DWORD PTR appInfo$[rbp+24], 0
; Line 16
	lea	rax, OFFSET FLAT:??_C@_06MNAPODND@vk_app@
	mov	QWORD PTR appInfo$[rbp+16], rax
; Line 17
	mov	DWORD PTR appInfo$[rbp+40], 0
; Line 18
	lea	rax, OFFSET FLAT:??_C@_03HPADHAHE@N?1A@
	mov	QWORD PTR appInfo$[rbp+32], rax
; Line 20
	lea	rax, QWORD PTR createInfo$[rbp]
	mov	rdi, rax
	xor	eax, eax
	mov	ecx, 64					; 00000040H
	rep stosb
; Line 21
	mov	DWORD PTR createInfo$[rbp], 1
; Line 22
	lea	rax, QWORD PTR appInfo$[rbp]
	mov	QWORD PTR createInfo$[rbp+24], rax
; Line 24
	mov	DWORD PTR glfwExtensionCount$[rbp], 0
; Line 25
	lea	rcx, QWORD PTR glfwExtensionCount$[rbp]
	call	glfwGetRequiredInstanceExtensions
	mov	QWORD PTR glfwExtensions$[rbp], rax
; Line 26
	mov	eax, DWORD PTR glfwExtensionCount$[rbp]
	mov	DWORD PTR createInfo$[rbp+48], eax
; Line 27
	mov	rax, QWORD PTR glfwExtensions$[rbp]
	mov	QWORD PTR createInfo$[rbp+56], rax
; Line 29
	xor	eax, eax
	cmp	eax, 1
	je	SHORT $LN2@Instance
; Line 31
	lea	rcx, QWORD PTR validationLayers$[rbp]
	call	?size@?$array@PEBD$00@std@@QEBA_KXZ	; std::array<char const *,1>::size
	mov	DWORD PTR createInfo$[rbp+32], eax
; Line 32
	lea	rcx, QWORD PTR validationLayers$[rbp]
	call	?data@?$array@PEBD$00@std@@QEAAPEAPEBDXZ ; std::array<char const *,1>::data
	mov	QWORD PTR createInfo$[rbp+40], rax
; Line 33
	jmp	SHORT $LN3@Instance
$LN2@Instance:
; Line 36
	mov	DWORD PTR createInfo$[rbp+32], 0
; Line 37
	mov	QWORD PTR createInfo$[rbp+8], 0
$LN3@Instance:
; Line 39
	mov	rax, QWORD PTR this$[rbp]
	mov	r8, rax
	xor	edx, edx
	lea	rcx, QWORD PTR createInfo$[rbp]
	call	vkCreateInstance
	test	eax, eax
	je	SHORT $LN4@Instance
; Line 41
	lea	rdx, OFFSET FLAT:??_C@_0BL@KEOADLBH@couldn?8t?5create?5VkInstance@
	lea	rcx, QWORD PTR $T7[rbp]
	call	??0runtime_error@std@@QEAA@PEBD@Z	; std::runtime_error::runtime_error
	lea	rdx, OFFSET FLAT:_TI2?AVruntime_error@std@@
	lea	rcx, QWORD PTR $T7[rbp]
	call	_CxxThrowException
$LN4@Instance:
; Line 43
	mov	rax, QWORD PTR this$[rbp]
$LN5@Instance:
	mov	rdi, rax
	lea	rcx, QWORD PTR [rbp-32]
	lea	rdx, OFFSET FLAT:??0Instance@cow@@QEAA@XZ$rtcFrameData
	call	_RTC_CheckStackVars
	mov	rax, rdi
	mov	rcx, QWORD PTR __$ArrayPad$[rbp]
	xor	rcx, rbp
	call	__security_check_cookie
	lea	rsp, QWORD PTR [rbp+520]
	pop	rdi
	pop	rbp
	ret	0
??0Instance@cow@@QEAA@XZ ENDP				; cow::Instance::Instance
_TEXT	ENDS
END
