; Listing generated by Microsoft (R) Optimizing Compiler Version 19.32.31332.0 

include listing.inc

INCLUDELIB MSVCRTD
INCLUDELIB OLDNAMES

PUBLIC	??$__DIGIT_TABLE@D@std@@3QBDB			; std::__DIGIT_TABLE<char>
msvcjmc	SEGMENT
__29CF54F3_concurrencysal@h DB 01H
__413FEA08_sal@h DB 01H
__6972C38F_vadefs@h DB 01H
__E6B4F19D_vcruntime@h DB 01H
__0269B480_xkeycheck@h DB 01H
__4A835745_yvals_core@h DB 01H
__AF0983D6_limits@h DB 01H
__919AC1A1_climits DB 01H
__1B0272D9_corecrt@h DB 01H
__68FABE09_vcruntime_new@h DB 01H
__6261A715_vcruntime_new_debug@h DB 01H
__935DC21B_crtdbg@h DB 01H
__64C6F398_crtdefs@h DB 01H
__E2706B0F_use_ansi@h DB 01H
__A33555EC_yvals@h DB 01H
__BB16330F_corecrt_math@h DB 01H
__3BF2A406_math@h DB 01H
__45DED006_corecrt_malloc@h DB 01H
__13F5961F_stddef@h DB 01H
__FD6DBD68_corecrt_search@h DB 01H
__E2E33A61_corecrt_wstdlib@h DB 01H
__6E5ACABA_stdlib@h DB 01H
__1575E353_cstdlib DB 01H
__197E5946_xtr1common DB 01H
__AEFC1A78_intrin0@inl@h DB 01H
__7DEB4A93_intrin0@h DB 01H
__61CC25A1_errno@h DB 01H
__946B6786_vcruntime_string@h DB 01H
__E4C945B4_corecrt_memcpy_s@h DB 01H
__8EAFF484_corecrt_memory@h DB 01H
__6490AEC5_corecrt_wstring@h DB 01H
__E8295E1E_string@h DB 01H
__59E74BB3_cstring DB 01H
__117FADE9_stdint@h DB 01H
__A82B022E_cstdint DB 01H
__B0BE39FE_cstddef DB 01H
__330922C0_initializer_list DB 01H
__D567F1CA_xstddef DB 01H
__4CC0724B_type_traits DB 01H
__F90F3CDE_concepts DB 01H
__47E06DF5_isa_availability@h DB 01H
__B9985323_float@h DB 01H
__489E80C8_cfloat DB 01H
__44420885_corecrt_stdio_config@h DB 01H
__AB601D8D_corecrt_wstdio@h DB 01H
__C1EC35D3_stdio@h DB 01H
__3BDA4B4F_cstdio DB 01H
__EF1F6BBA_corecrt_wconio@h DB 01H
__74484FB3_corecrt_wctype@h DB 01H
__3D1D430C_corecrt_wdirect@h DB 01H
__8ECB7138_corecrt_share@h DB 01H
__DB7FEBA6_corecrt_wio@h DB 01H
__9A9F0068_corecrt_wprocess@h DB 01H
__369A9BC3_corecrt_wtime@h DB 01H
__CE789B9D_types@h DB 01H
__9901C817_stat@h DB 01H
__3FCAD62E_wchar@h DB 01H
__A1519D1C_cwchar DB 01H
__2E78CDAC_limits DB 01H
__3819D017_bit DB 01H
__EC60D9E2_compare DB 01H
__227866D8_utility DB 01H
__7DA7D514_xutility DB 01H
__2385E4BF_cmath DB 01H
__E291182A_iosfwd DB 01H
__6C0B6254_iterator DB 01H
__F7972D0B_share@h DB 01H
__33C38951___msvc_system_error_abi@hpp DB 01H
__A6FB3FB4_cerrno DB 01H
__FA77ED4C_malloc@h DB 01H
__89766DA4_corecrt_terminate@h DB 01H
__1CC3922D_eh@h DB 01H
__6A8FA247_vcruntime_exception@h DB 01H
__AC999D0E_exception DB 01H
__04BF37C5_new DB 01H
__A69511D8_xatomic@h DB 01H
__85A6FDFE_tuple DB 01H
__48ED051B_xmemory DB 01H
__01FC9A31_xpolymorphic_allocator@h DB 01H
__3C3E8387_xstring DB 01H
__25D7A753_stdexcept DB 01H
__091B8915_xcall_once@h DB 01H
__0BA040E3_xerrc@h DB 01H
__13D0C879_xatomic_wait@h DB 01H
__0A9237D2_time@h DB 01H
__E53678B7_ctime DB 01H
__CB633655_xtimec@h DB 01H
__833E5CBC_xthreads@h DB 01H
__454D916E_atomic DB 01H
__B6469B35_system_error DB 01H
__2B8D1AA2_vcruntime_typeinfo@h DB 01H
__0D78260D_typeinfo DB 01H
__92D6C122_memory DB 01H
__BE93962D_xfacet DB 01H
__EEE13F19___msvc_xlocinfo_types@hpp DB 01H
__1EC467ED_ctype@h DB 01H
__3411ACE8_cctype DB 01H
__791C33B7_locale@h DB 01H
__86D93F82_clocale DB 01H
__12F1C5C5_xlocinfo DB 01H
__E300F7B6_xlocale DB 01H
__2B14B2D6_xiosbase DB 01H
__27771FEF_streambuf DB 01H
__7D8791A1_xlocnum DB 01H
__FC720DD3_ios DB 01H
__F0102D72_ostream DB 01H
__93C01848_istream DB 01H
__1FDEAF0B_iostream DB 01H
__6F45C614_vk_platform@h DB 01H
__5FA1F762_vulkan_core@h DB 01H
__AD247E74_vulkan@h DB 01H
__654A365E_cowdef@hpp DB 01H
__C70F9156_Instance@hpp DB 01H
__0ED14FEE_winpackagefamily@h DB 01H
__F92EF742_winapifamily@h DB 01H
__B064E8EE_gl@h DB 01H
__D81DEF64_glfw3@h DB 01H
__E8A7DAC2_Window@hpp DB 01H
__63D5BD4C_vector DB 01H
__1B6E63DA_xsmf_control@h DB 01H
__14737915_optional DB 01H
__61615CFA_Device@hpp DB 01H
__125A2BD9_array DB 01H
__CE2F1DBE_Swapchain@hpp DB 01H
__13D4D4C0_GraphicsCommands@hpp DB 01H
__4ED58781_Buffer@hpp DB 01H
__725AB5AE__fixes@hpp DB 01H
__19139D6C_assert@h DB 01H
__76B6B6B1_cassert DB 01H
__36EFFC89_platform@h DB 01H
__6A641594_setup@hpp DB 01H
__E0C30740_qualifier@hpp DB 01H
__CD810A33_fwd@hpp DB 01H
__61FC8754_compute_vector_relational@hpp DB 01H
__C29399E7_type_vec2@inl DB 01H
__03119040_type_vec2@hpp DB 01H
__A79AB51D_vector_bool2@hpp DB 01H
__164332F4_vector_bool2_precision@hpp DB 01H
__B24E1CF4_vector_float2@hpp DB 01H
__2202EB77_vector_float2_precision@hpp DB 01H
__A2BDA1A7_vector_double2@hpp DB 01H
__DF307E91_vector_double2_precision@hpp DB 01H
__047F6988_vector_int2@hpp DB 01H
__175C47BF_scalar_int_sized@hpp DB 01H
__EF96D9E0_vector_int2_sized@hpp DB 01H
__E0A61860_vector_uint2@hpp DB 01H
__0312B24B_scalar_uint_sized@hpp DB 01H
__2484071F_vector_uint2_sized@hpp DB 01H
__77BD92FE_vec2@hpp DB 01H
__FFF3B057_type_vec3@inl DB 01H
__3E71B9F0_type_vec3@hpp DB 01H
__9AFA9CAD_vector_bool3@hpp DB 01H
__AFB8E91C_vector_bool3_precision@hpp DB 01H
__8F2E3544_vector_float3@hpp DB 01H
__9BF9309F_vector_float3_precision@hpp DB 01H
__9FDD8817_vector_double3@hpp DB 01H
__66CBA579_vector_double3_precision@hpp DB 01H
__391F4038_vector_int3@hpp DB 01H
__2E180620_vector_int3_sized@hpp DB 01H
__DDC631D0_vector_uint3@hpp DB 01H
__E50AD8DF_vector_uint3_sized@hpp DB 01H
__4ADDBB4E_vec3@hpp DB 01H
__4DD36C47_type_vec4@inl DB 01H
__8C5165E0_type_vec4@hpp DB 01H
__28DA40BD_vector_bool4@hpp DB 01H
__34B9E606_vector_bool4_precision@hpp DB 01H
__3D0EE954_vector_float4@hpp DB 01H
__00F83F85_vector_float4_precision@hpp DB 01H
__2DFD5407_vector_double4@hpp DB 01H
__FDCAAA63_vector_double4_precision@hpp DB 01H
__8B3F9C28_vector_int4@hpp DB 01H
__072313A3_vector_int4_sized@hpp DB 01H
__6FE6EDC0_vector_uint4@hpp DB 01H
__CC31CD5C_vector_uint4_sized@hpp DB 01H
__F8FD675E_vec4@hpp DB 01H
__E6E15275_type_mat2x3@inl DB 01H
__27635BD2_type_mat2x3@hpp DB 01H
__F4A54477_matrix_double2x3@hpp DB 01H
__1FDBC36F_matrix_double2x3_precision@hpp DB 01H
__919AA880_matrix_float2x3@hpp DB 01H
__B42A04E3_matrix_float2x3_precision@hpp DB 01H
__B32BCD64_mat2x3@hpp DB 01H
__54C18E65_type_mat2x4@inl DB 01H
__954387C2_type_mat2x4@hpp DB 01H
__46859867_matrix_double2x4@hpp DB 01H
__84DACC75_matrix_double2x4_precision@hpp DB 01H
__23BA7490_matrix_float2x4@hpp DB 01H
__2F2B0BF9_matrix_float2x4_precision@hpp DB 01H
__010B1174_mat2x4@hpp DB 01H
__7DF67071_type_mat3x2@inl DB 01H
__BC7479D6_type_mat3x2@hpp DB 01H
__6FB26673_matrix_double3x2@hpp DB 01H
__2186D3C4_matrix_double3x2_precision@hpp DB 01H
__0A8D8A84_matrix_float3x2@hpp DB 01H
__8A771448_matrix_float3x2_precision@hpp DB 01H
__283CEF60_mat3x2@hpp DB 01H
__409659C1_type_mat3x3@inl DB 01H
__81145066_type_mat3x3@hpp DB 01H
__52D24FC3_matrix_double3x3@hpp DB 01H
__987D082C_matrix_double3x3_precision@hpp DB 01H
__37EDA334_matrix_float3x3@hpp DB 01H
__338CCFA0_matrix_float3x3_precision@hpp DB 01H
__155CC6D0_mat3x3@hpp DB 01H
__F2B685D1_type_mat3x4@inl DB 01H
__33348C76_type_mat3x4@hpp DB 01H
__E0F293D3_matrix_double3x4@hpp DB 01H
__037C0736_matrix_double3x4_precision@hpp DB 01H
__85CD7F24_matrix_float3x4@hpp DB 01H
__A88DC0BA_matrix_float3x4_precision@hpp DB 01H
__A77C1AC0_mat3x4@hpp DB 01H
__B8514EFF_type_mat4x2@inl DB 01H
__79D34758_type_mat4x2@hpp DB 01H
__AA1558FD_matrix_double4x2@hpp DB 01H
__0114AF8F_matrix_double4x2_precision@hpp DB 01H
__CF2AB40A_matrix_float4x2@hpp DB 01H
__AAE56803_matrix_float4x2_precision@hpp DB 01H
__ED9BD1EE_mat4x2@hpp DB 01H
__8531674F_type_mat4x3@inl DB 01H
__44B36EE8_type_mat4x3@hpp DB 01H
__9775714D_matrix_double4x3@hpp DB 01H
__B8EF7467_matrix_double4x3_precision@hpp DB 01H
__F24A9DBA_matrix_float4x3@hpp DB 01H
__131EB3EB_matrix_float4x3_precision@hpp DB 01H
__D0FBF85E_mat4x3@hpp DB 01H
__3711BB5F_type_mat4x4@inl DB 01H
__F693B2F8_type_mat4x4@hpp DB 01H
__2555AD5D_matrix_double4x4@hpp DB 01H
__23EE7B7D_matrix_double4x4_precision@hpp DB 01H
__406A41AA_matrix_float4x4@hpp DB 01H
__881FBCF1_matrix_float4x4_precision@hpp DB 01H
__62DB244E_mat4x4@hpp DB 01H
__8533E337_type_vec1@inl DB 01H
__44B1EA90_type_vec1@hpp DB 01H
__D98155C6_func_vector_relational@inl DB 01H
__3537A1E9_vector_relational@hpp DB 01H
__FA4A9892__vectorize@hpp DB 01H
__9946677D_func_exponential@inl DB 01H
__6EB78A27_exponential@hpp DB 01H
__1522F2D5_compute_common@hpp DB 01H
__3F1E832A_func_common@inl DB 01H
__0D19AC42_common@hpp DB 01H
__0048E598_func_geometric@inl DB 01H
__0535C93A_geometric@hpp DB 01H
__228E2F13_func_matrix@inl DB 01H
__1089007B_matrix@hpp DB 01H
__DB817BC5_type_mat2x2@inl DB 01H
__1A037262_type_mat2x2@hpp DB 01H
__C9C56DC7_matrix_double2x2@hpp DB 01H
__A6201887_matrix_double2x2_precision@hpp DB 01H
__ACFA8130_matrix_float2x2@hpp DB 01H
__0DD1DF0B_matrix_float2x2_precision@hpp DB 01H
__8E4BE4D4_mat2x2@hpp DB 01H
__05BDE45A_func_trigonometric@inl DB 01H
__C24A621F_trigonometric@hpp DB 01H
__63284533_type_half@inl DB 01H
__A2AA4C94_type_half@hpp DB 01H
__BF79A1CB_func_packing@inl DB 01H
__75D3F26B_packing@hpp DB 01H
__811C45EA_setjmp@h DB 01H
__2750C08C_mmintrin@h DB 01H
__66619DC9_xmmintrin@h DB 01H
__03031405_emmintrin@h DB 01H
__DCA27C8C_pmmintrin@h DB 01H
__6C7B0F0E_tmmintrin@h DB 01H
__45401A8D_smmintrin@h DB 01H
__20229341_nmmintrin@h DB 01H
__F599690F_wmmintrin@h DB 01H
__3E0D2408_zmmintrin@h DB 01H
__091986C2_immintrin@h DB 01H
__B3DA6787_ammintrin@h DB 01H
__A72AF99D_intrin@h DB 01H
__D41AAEEE_func_integer@inl DB 01H
__1EB0FD4E_integer@hpp DB 01H
__0FF791AE_glm@hpp DB 01H
__60F9E005_Helper@hpp DB 01H
__32DA32DB_Pipelines@hpp DB 01H
__880AEF67_Model@hpp DB 01H
__A51CC232_EmptyObject@hpp DB 01H
__E4C9D0F0_PushConstant@hpp DB 01H
__B308F58B_CowHeaders@hpp DB 01H
__25A01326_stdarg@h DB 01H
__DA7935A3_stb_image@h DB 01H
__15323767_Texture@hpp DB 01H
__22E515EB_sdkddkver@h DB 01H
__5C016FE4_excpt@h DB 01H
__29F49F40_specstrings_undef@h DB 01H
__D0F42932_specstrings_strict@h DB 01H
__F00405FD_sdv_driverspecs@h DB 01H
__173E09CA_driverspecs@h DB 01H
__9A452361_specstrings@h DB 01H
__98517906_kernelspecs@h DB 01H
__D3497022_basetsd@h DB 01H
__7FCB5136_guiddef@h DB 01H
__FF8A9E11_pshpack4@h DB 01H
__D5438902_poppack@h DB 01H
__FB07E2A3_pshpack2@h DB 01H
__F6906775_pshpack8@h DB 01H
__F9415CFA_pshpack1@h DB 01H
__E58C6F1C_apiset@h DB 01H
__A5C52262_ktmtypes@h DB 01H
__FBBA8F9D_winnt@h DB 01H
__A32D3D2C_minwindef@h DB 01H
__7D798299_windef@h DB 01H
__9AE108E9_apisetcconv@h DB 01H
__9CE53D2C_minwinbase@h DB 01H
__5D0AA210_apiquery2@h DB 01H
__4DD4E726_processenv@h DB 01H
__3575CC96_fileapi@h DB 01H
__8EA220E6_fileapifromapp@h DB 01H
__BF9B31FE_debugapi@h DB 01H
__C3AFE134_utilapiset@h DB 01H
__76F69E51_handleapi@h DB 01H
__7E63D784_errhandlingapi@h DB 01H
__FFA7003C_fibersapi@h DB 01H
__8971CECF_namedpipeapi@h DB 01H
__46C9D8A6_profileapi@h DB 01H
__98D4F0A3_heapapi@h DB 01H
__50EF2A88_ioapiset@h DB 01H
__92EA1464_synchapi@h DB 01H
__A53D8AED_interlockedapi@h DB 01H
__B506CAAF_processthreadsapi@h DB 01H
__FF735694_sysinfoapi@h DB 01H
__29589789_memoryapi@h DB 01H
__E9C7A663_enclaveapi@h DB 01H
__D035F9F7_threadpoollegacyapiset@h DB 01H
__C899130C_threadpoolapiset@h DB 01H
__E0441EE7_jobapi@h DB 01H
__CEF86838_jobapi2@h DB 01H
__35AC6B9A_wow64apiset@h DB 01H
__C8AE41A5_libloaderapi@h DB 01H
__CC9E232D_securitybaseapi@h DB 01H
__C9D0C9B8_namespaceapi@h DB 01H
__30FF9CAD_systemtopologyapi@h DB 01H
__4D358795_processtopologyapi@h DB 01H
__40446D10_securityappcontainer@h DB 01H
__3A952EDF_realtimeapiset@h DB 01H
__F4865F4B_winerror@h DB 01H
__53C1BD93_timezoneapi@h DB 01H
__1FFBEDBF_winbase@h DB 01H
__43D3FA34_wingdi@h DB 01H
__D24A7391_tvout@h DB 01H
__7713A6C8_winuser@h DB 01H
__0B345F71_datetimeapi@h DB 01H
__9AC6960C_winnls@h DB 01H
__973A40A8_stringapiset@h DB 01H
__CC46FEE2_wincontypes@h DB 01H
__97D70BE1_consoleapi@h DB 01H
__27EC5E18_consoleapi2@h DB 01H
__262E342F_consoleapi3@h DB 01H
__641DCD70_wincon@h DB 01H
__5A96C7A7_verrsrc@h DB 01H
__B69C6FF2_winver@h DB 01H
__7AEB8C37_reason@h DB 01H
__59F1A8A9_winreg@h DB 01H
__EE0E2B7F_wnnc@h DB 01H
__DCDB7054_winnetwk@h DB 01H
__EDC72EEB_cderr@h DB 01H
__95F9199D_dde@h DB 01H
__66427627_ddeml@h DB 01H
__957C29A0_dlgs@h DB 01H
__12EA15AF_lzexpand@h DB 01H
__62131F15_mmsyscom@h DB 01H
__47E68D49_mciapi@h DB 01H
__5D7DD356_mmiscapi@h DB 01H
__7223D2EF_mmiscapi2@h DB 01H
__A330DBB3_playsoundapi@h DB 01H
__601B366F_mmeapi@h DB 01H
__1134ADD5_timeapi@h DB 01H
__93F2265A_joystickapi@h DB 01H
__DF6EB4E3_mmsystem@h DB 01H
__BD641FCB_nb30@h DB 01H
__DF8704F0_rpcdcep@h DB 01H
__5C6CA7BB_rpcdce@h DB 01H
__853533C4_rpcnsi@h DB 01H
__2D2406C3_rpcnterr@h DB 01H
__64521D71_rpcasync@h DB 01H
__AADCBA08_rpc@h DB 01H
__19E26CFF_shellapi@h DB 01H
__1E9F31D3_winperf@h DB 01H
__832A4112_inaddr@h DB 01H
__32C6F875_winsock@h DB 01H
__7953A3F8_bcrypt@h DB 01H
__E4169492_ncrypt@h DB 01H
__AF3DDDC3_dpapi@h DB 01H
__D1E23BF2_wincrypt@h DB 01H
__82AB4779_winefs@h DB 01H
__1FE431C9_rpcnsip@h DB 01H
__2B741F2D_rpcsal@h DB 01H
__92623256_rpcndr@h DB 01H
__9C18532E_wtypesbase@h DB 01H
__EA2E1D6D_wtypes@h DB 01H
__7DDD9F45_winioctl@h DB 01H
__E550A843_winsmcrd@h DB 01H
__9809C1BA_winscard@h DB 01H
__EA174FA4_prsht@h DB 01H
__0E1BD114_winspool@h DB 01H
__30B1AFDA_unknwnbase@h DB 01H
__328C1996_objidlbase@h DB 01H
__C4E06B6A_cguid@h DB 01H
__434718C5_combaseapi@h DB 01H
__DE6FDEF1_unknwn@h DB 01H
__CCE0BACC_objidl@h DB 01H
__8C7011E5_oaidl@h DB 01H
__2E0B7863_propidlbase@h DB 01H
__BF4CF2EC_coml2api@h DB 01H
__6D897344_oleidl@h DB 01H
__1129FC2C_servprov@h DB 01H
__757952E4_msxml@h DB 01H
__B1191D53_urlmon@h DB 01H
__404D1A47_propidl@h DB 01H
__A1C63593_objbase@h DB 01H
__C1B0A9CB_oleauto@h DB 01H
__24EAF61F_ole2@h DB 01H
__2B1843DA_commdlg@h DB 01H
__81DDEDE3_stralign@h DB 01H
__2134D1B4_winsvc@h DB 01H
__11C07376_mcx@h DB 01H
__577CE3E7_ime_cmodes@h DB 01H
__1E72C31E_imm@h DB 01H
__63AA7AF5_Windows@h DB 01H
__4F367D11_ratio DB 01H
__D25C9D9C___msvc_tzdb@hpp DB 01H
__4655DFDA_algorithm DB 01H
__8DA0796B_forward_list DB 01H
__E60547BE_string DB 01H
__506EDBC8_sstream DB 01H
__B6EC6CD7_xloctime DB 01H
__36340881_xbit_ops@h DB 01H
__48E5AE5B_xcharconv@h DB 01H
__D17AAC37_xcharconv_ryu_tables@h DB 01H
__72A9C26E_xcharconv_ryu@h DB 01H
__6228BB72_charconv DB 01H
__E34FB14D_xlocbuf DB 01H
__CF0C00CA_xlocmes DB 01H
__56E58499_xlocmon DB 01H
__393B338F_locale DB 01H
__C2216CF8_string_view DB 01H
__DCA5999E_xfilesystem_abi@h DB 01H
__A60187C8_format DB 01H
__6F02DE1A_iomanip DB 01H
__4A95CB26_chrono DB 01H
__BE4B800C_Descriptors@hpp DB 01H
__D63E6CC3_Source@cpp DB 01H
__21483852_predefined C++ types (compiler internal) DB 01H
msvcjmc	ENDS
;	COMDAT ??$__DIGIT_TABLE@D@std@@3QBDB
CONST	SEGMENT
??$__DIGIT_TABLE@D@std@@3QBDB DB 030H			; std::__DIGIT_TABLE<char>
	DB	030H
	DB	030H
	DB	031H
	DB	030H
	DB	032H
	DB	030H
	DB	033H
	DB	030H
	DB	034H
	DB	030H
	DB	035H
	DB	030H
	DB	036H
	DB	030H
	DB	037H
	DB	030H
	DB	038H
	DB	030H
	DB	039H
	DB	031H
	DB	030H
	DB	031H
	DB	031H
	DB	031H
	DB	032H
	DB	031H
	DB	033H
	DB	031H
	DB	034H
	DB	031H
	DB	035H
	DB	031H
	DB	036H
	DB	031H
	DB	037H
	DB	031H
	DB	038H
	DB	031H
	DB	039H
	DB	032H
	DB	030H
	DB	032H
	DB	031H
	DB	032H
	DB	032H
	DB	032H
	DB	033H
	DB	032H
	DB	034H
	DB	032H
	DB	035H
	DB	032H
	DB	036H
	DB	032H
	DB	037H
	DB	032H
	DB	038H
	DB	032H
	DB	039H
	DB	033H
	DB	030H
	DB	033H
	DB	031H
	DB	033H
	DB	032H
	DB	033H
	DB	033H
	DB	033H
	DB	034H
	DB	033H
	DB	035H
	DB	033H
	DB	036H
	DB	033H
	DB	037H
	DB	033H
	DB	038H
	DB	033H
	DB	039H
	DB	034H
	DB	030H
	DB	034H
	DB	031H
	DB	034H
	DB	032H
	DB	034H
	DB	033H
	DB	034H
	DB	034H
	DB	034H
	DB	035H
	DB	034H
	DB	036H
	DB	034H
	DB	037H
	DB	034H
	DB	038H
	DB	034H
	DB	039H
	DB	035H
	DB	030H
	DB	035H
	DB	031H
	DB	035H
	DB	032H
	DB	035H
	DB	033H
	DB	035H
	DB	034H
	DB	035H
	DB	035H
	DB	035H
	DB	036H
	DB	035H
	DB	037H
	DB	035H
	DB	038H
	DB	035H
	DB	039H
	DB	036H
	DB	030H
	DB	036H
	DB	031H
	DB	036H
	DB	032H
	DB	036H
	DB	033H
	DB	036H
	DB	034H
	DB	036H
	DB	035H
	DB	036H
	DB	036H
	DB	036H
	DB	037H
	DB	036H
	DB	038H
	DB	036H
	DB	039H
	DB	037H
	DB	030H
	DB	037H
	DB	031H
	DB	037H
	DB	032H
	DB	037H
	DB	033H
	DB	037H
	DB	034H
	DB	037H
	DB	035H
	DB	037H
	DB	036H
	DB	037H
	DB	037H
	DB	037H
	DB	038H
	DB	037H
	DB	039H
	DB	038H
	DB	030H
	DB	038H
	DB	031H
	DB	038H
	DB	032H
	DB	038H
	DB	033H
	DB	038H
	DB	034H
	DB	038H
	DB	035H
	DB	038H
	DB	036H
	DB	038H
	DB	037H
	DB	038H
	DB	038H
	DB	038H
	DB	039H
	DB	039H
	DB	030H
	DB	039H
	DB	031H
	DB	039H
	DB	032H
	DB	039H
	DB	033H
	DB	039H
	DB	034H
	DB	039H
	DB	035H
	DB	039H
	DB	036H
	DB	039H
	DB	037H
	DB	039H
	DB	038H
	DB	039H
	DB	039H
CONST	ENDS
CONST	SEGMENT
?stbi__bmask@@3QBIB DD 00H				; stbi__bmask
	DD	01H
	DD	03H
	DD	07H
	DD	0fH
	DD	01fH
	DD	03fH
	DD	07fH
	DD	0ffH
	DD	01ffH
	DD	03ffH
	DD	07ffH
	DD	0fffH
	DD	01fffH
	DD	03fffH
	DD	07fffH
	DD	0ffffH
?tag@?CL@??stbi__process_marker@@YAHPEAUstbi__jpeg@@H@Z@4QBEB DB 04aH ; `stbi__process_marker'::`43'::tag
	DB	046H
	DB	049H
	DB	046H
	DB	00H
	ORG $+7
?stbi__jbias@@3QBHB DD 00H				; stbi__jbias
	DD	0ffffffffH
	DD	0fffffffdH
	DD	0fffffff9H
	DD	0fffffff1H
	DD	0ffffffe1H
	DD	0ffffffc1H
	DD	0ffffff81H
	DD	0ffffff01H
	DD	0fffffe01H
	DD	0fffffc01H
	DD	0fffff801H
	DD	0fffff001H
	DD	0ffffe001H
	DD	0ffffc001H
	DD	0ffff8001H
?stbi__jpeg_dezigzag@@3QBEB DB 00H			; stbi__jpeg_dezigzag
	DB	01H
	DB	08H
	DB	010H
	DB	09H
	DB	02H
	DB	03H
	DB	0aH
	DB	011H
	DB	018H
	DB	020H
	DB	019H
	DB	012H
	DB	0bH
	DB	04H
	DB	05H
	DB	0cH
	DB	013H
	DB	01aH
	DB	021H
	DB	028H
	DB	030H
	DB	029H
	DB	022H
	DB	01bH
	DB	014H
	DB	0dH
	DB	06H
	DB	07H
	DB	0eH
	DB	015H
	DB	01cH
	DB	023H
	DB	02aH
	DB	031H
	DB	038H
	DB	039H
	DB	032H
	DB	02bH
	DB	024H
	DB	01dH
	DB	016H
	DB	0fH
	DB	017H
	DB	01eH
	DB	025H
	DB	02cH
	DB	033H
	DB	03aH
	DB	03bH
	DB	034H
	DB	02dH
	DB	026H
	DB	01fH
	DB	027H
	DB	02eH
	DB	035H
	DB	03cH
	DB	03dH
	DB	036H
	DB	02fH
	DB	037H
	DB	03eH
	DB	03fH
	DB	03fH
	DB	03fH
	DB	03fH
	DB	03fH
	DB	03fH
	DB	03fH
	DB	03fH
	DB	03fH
	DB	03fH
	DB	03fH
	DB	03fH
	DB	03fH
	DB	03fH
	DB	03fH
	DB	03fH
	ORG $+1
?tag@?DE@??stbi__process_marker@@YAHPEAUstbi__jpeg@@H@Z@4QBEB DB 041H ; `stbi__process_marker'::`52'::tag
	DB	064H
	DB	06fH
	DB	062H
	DB	065H
	DB	00H
	ORG $+2
?rgb@?BG@??stbi__process_frame_header@@YAHPEAUstbi__jpeg@@H@Z@4QBEB DB 052H ; `stbi__process_frame_header'::`22'::rgb
	DB	047H
	DB	042H
	ORG $+5
?stbi__zlength_base@@3QBHB DD 03H			; stbi__zlength_base
	DD	04H
	DD	05H
	DD	06H
	DD	07H
	DD	08H
	DD	09H
	DD	0aH
	DD	0bH
	DD	0dH
	DD	0fH
	DD	011H
	DD	013H
	DD	017H
	DD	01bH
	DD	01fH
	DD	023H
	DD	02bH
	DD	033H
	DD	03bH
	DD	043H
	DD	053H
	DD	063H
	DD	073H
	DD	083H
	DD	0a3H
	DD	0c3H
	DD	0e3H
	DD	0102H
	DD	00H
	DD	00H
	ORG $+4
?stbi__zlength_extra@@3QBHB DD 00H			; stbi__zlength_extra
	DD	00H
	DD	00H
	DD	00H
	DD	00H
	DD	00H
	DD	00H
	DD	00H
	DD	01H
	DD	01H
	DD	01H
	DD	01H
	DD	02H
	DD	02H
	DD	02H
	DD	02H
	DD	03H
	DD	03H
	DD	03H
	DD	03H
	DD	04H
	DD	04H
	DD	04H
	DD	04H
	DD	05H
	DD	05H
	DD	05H
	DD	05H
	DD	00H
	DD	00H
	DD	00H
	ORG $+4
?stbi__zdist_base@@3QBHB DD 01H				; stbi__zdist_base
	DD	02H
	DD	03H
	DD	04H
	DD	05H
	DD	07H
	DD	09H
	DD	0dH
	DD	011H
	DD	019H
	DD	021H
	DD	031H
	DD	041H
	DD	061H
	DD	081H
	DD	0c1H
	DD	0101H
	DD	0181H
	DD	0201H
	DD	0301H
	DD	0401H
	DD	0601H
	DD	0801H
	DD	0c01H
	DD	01001H
	DD	01801H
	DD	02001H
	DD	03001H
	DD	04001H
	DD	06001H
	DD	00H
	DD	00H
?stbi__zdist_extra@@3QBHB DD 00H			; stbi__zdist_extra
	DD	00H
	DD	00H
	DD	00H
	DD	01H
	DD	01H
	DD	02H
	DD	02H
	DD	03H
	DD	03H
	DD	04H
	DD	04H
	DD	05H
	DD	05H
	DD	06H
	DD	06H
	DD	07H
	DD	07H
	DD	08H
	DD	08H
	DD	09H
	DD	09H
	DD	0aH
	DD	0aH
	DD	0bH
	DD	0bH
	DD	0cH
	DD	0cH
	DD	0dH
	DD	0dH
	ORG $+8
?length_dezigzag@?1??stbi__compute_huffman_codes@@YAHPEAUstbi__zbuf@@@Z@4QBEB DB 010H ; `stbi__compute_huffman_codes'::`2'::length_dezigzag
	DB	011H
	DB	012H
	DB	00H
	DB	08H
	DB	07H
	DB	09H
	DB	06H
	DB	0aH
	DB	05H
	DB	0bH
	DB	04H
	DB	0cH
	DB	03H
	DB	0dH
	DB	02H
	DB	0eH
	DB	01H
	DB	0fH
	ORG $+5
?stbi__zdefault_distance@@3QBEB DB 05H			; stbi__zdefault_distance
	DB	05H
	DB	05H
	DB	05H
	DB	05H
	DB	05H
	DB	05H
	DB	05H
	DB	05H
	DB	05H
	DB	05H
	DB	05H
	DB	05H
	DB	05H
	DB	05H
	DB	05H
	DB	05H
	DB	05H
	DB	05H
	DB	05H
	DB	05H
	DB	05H
	DB	05H
	DB	05H
	DB	05H
	DB	05H
	DB	05H
	DB	05H
	DB	05H
	DB	05H
	DB	05H
	DB	05H
?png_sig@?1??stbi__check_png_header@@YAHPEAUstbi__context@@@Z@4QBEB DB 089H ; `stbi__check_png_header'::`2'::png_sig
	DB	050H
	DB	04eH
	DB	047H
	DB	0dH
	DB	0aH
	DB	01aH
	DB	0aH
?stbi__zdefault_length@@3QBEB DB 08H			; stbi__zdefault_length
	DB	08H
	DB	08H
	DB	08H
	DB	08H
	DB	08H
	DB	08H
	DB	08H
	DB	08H
	DB	08H
	DB	08H
	DB	08H
	DB	08H
	DB	08H
	DB	08H
	DB	08H
	DB	08H
	DB	08H
	DB	08H
	DB	08H
	DB	08H
	DB	08H
	DB	08H
	DB	08H
	DB	08H
	DB	08H
	DB	08H
	DB	08H
	DB	08H
	DB	08H
	DB	08H
	DB	08H
	DB	08H
	DB	08H
	DB	08H
	DB	08H
	DB	08H
	DB	08H
	DB	08H
	DB	08H
	DB	08H
	DB	08H
	DB	08H
	DB	08H
	DB	08H
	DB	08H
	DB	08H
	DB	08H
	DB	08H
	DB	08H
	DB	08H
	DB	08H
	DB	08H
	DB	08H
	DB	08H
	DB	08H
	DB	08H
	DB	08H
	DB	08H
	DB	08H
	DB	08H
	DB	08H
	DB	08H
	DB	08H
	DB	08H
	DB	08H
	DB	08H
	DB	08H
	DB	08H
	DB	08H
	DB	08H
	DB	08H
	DB	08H
	DB	08H
	DB	08H
	DB	08H
	DB	08H
	DB	08H
	DB	08H
	DB	08H
	DB	08H
	DB	08H
	DB	08H
	DB	08H
	DB	08H
	DB	08H
	DB	08H
	DB	08H
	DB	08H
	DB	08H
	DB	08H
	DB	08H
	DB	08H
	DB	08H
	DB	08H
	DB	08H
	DB	08H
	DB	08H
	DB	08H
	DB	08H
	DB	08H
	DB	08H
	DB	08H
	DB	08H
	DB	08H
	DB	08H
	DB	08H
	DB	08H
	DB	08H
	DB	08H
	DB	08H
	DB	08H
	DB	08H
	DB	08H
	DB	08H
	DB	08H
	DB	08H
	DB	08H
	DB	08H
	DB	08H
	DB	08H
	DB	08H
	DB	08H
	DB	08H
	DB	08H
	DB	08H
	DB	08H
	DB	08H
	DB	08H
	DB	08H
	DB	08H
	DB	08H
	DB	08H
	DB	08H
	DB	08H
	DB	08H
	DB	08H
	DB	08H
	DB	08H
	DB	08H
	DB	08H
	DB	08H
	DB	08H
	DB	08H
	DB	09H
	DB	09H
	DB	09H
	DB	09H
	DB	09H
	DB	09H
	DB	09H
	DB	09H
	DB	09H
	DB	09H
	DB	09H
	DB	09H
	DB	09H
	DB	09H
	DB	09H
	DB	09H
	DB	09H
	DB	09H
	DB	09H
	DB	09H
	DB	09H
	DB	09H
	DB	09H
	DB	09H
	DB	09H
	DB	09H
	DB	09H
	DB	09H
	DB	09H
	DB	09H
	DB	09H
	DB	09H
	DB	09H
	DB	09H
	DB	09H
	DB	09H
	DB	09H
	DB	09H
	DB	09H
	DB	09H
	DB	09H
	DB	09H
	DB	09H
	DB	09H
	DB	09H
	DB	09H
	DB	09H
	DB	09H
	DB	09H
	DB	09H
	DB	09H
	DB	09H
	DB	09H
	DB	09H
	DB	09H
	DB	09H
	DB	09H
	DB	09H
	DB	09H
	DB	09H
	DB	09H
	DB	09H
	DB	09H
	DB	09H
	DB	09H
	DB	09H
	DB	09H
	DB	09H
	DB	09H
	DB	09H
	DB	09H
	DB	09H
	DB	09H
	DB	09H
	DB	09H
	DB	09H
	DB	09H
	DB	09H
	DB	09H
	DB	09H
	DB	09H
	DB	09H
	DB	09H
	DB	09H
	DB	09H
	DB	09H
	DB	09H
	DB	09H
	DB	09H
	DB	09H
	DB	09H
	DB	09H
	DB	09H
	DB	09H
	DB	09H
	DB	09H
	DB	09H
	DB	09H
	DB	09H
	DB	09H
	DB	09H
	DB	09H
	DB	09H
	DB	09H
	DB	09H
	DB	09H
	DB	09H
	DB	09H
	DB	09H
	DB	09H
	DB	09H
	DB	09H
	DB	07H
	DB	07H
	DB	07H
	DB	07H
	DB	07H
	DB	07H
	DB	07H
	DB	07H
	DB	07H
	DB	07H
	DB	07H
	DB	07H
	DB	07H
	DB	07H
	DB	07H
	DB	07H
	DB	07H
	DB	07H
	DB	07H
	DB	07H
	DB	07H
	DB	07H
	DB	07H
	DB	07H
	DB	08H
	DB	08H
	DB	08H
	DB	08H
	DB	08H
	DB	08H
	DB	08H
	DB	08H
?stbi__depth_scale_table@@3QBEB DB 00H			; stbi__depth_scale_table
	DB	0ffH
	DB	055H
	DB	00H
	DB	011H
	DB	00H
	DB	00H
	DB	00H
	DB	01H
CONST	ENDS
PUBLIC	?__empty_global_delete@@YAXPEAX@Z		; __empty_global_delete
PUBLIC	?__empty_global_delete@@YAXPEAX_K@Z		; __empty_global_delete
PUBLIC	?__empty_global_delete@@YAXPEAXW4align_val_t@std@@@Z ; __empty_global_delete
PUBLIC	?__empty_global_delete@@YAXPEAX_KW4align_val_t@std@@@Z ; __empty_global_delete
PUBLIC	??2@YAPEAX_KPEAX@Z				; operator new
PUBLIC	ldexpf
PUBLIC	?is_constant_evaluated@std@@YA_NXZ		; std::is_constant_evaluated
PUBLIC	wmemcpy
PUBLIC	?max@?$numeric_limits@_J@std@@SA_JXZ		; std::numeric_limits<__int64>::max
PUBLIC	?ldexp@@YAMMH@Z					; ldexp
PUBLIC	?pow@@YAMMM@Z					; pow
PUBLIC	??0exception@std@@QEAA@QEBD@Z			; std::exception::exception
PUBLIC	??0exception@std@@QEAA@QEBDH@Z			; std::exception::exception
PUBLIC	??0exception@std@@QEAA@AEBV01@@Z		; std::exception::exception
PUBLIC	??1exception@std@@UEAA@XZ			; std::exception::~exception
PUBLIC	?what@exception@std@@UEBAPEBDXZ			; std::exception::what
PUBLIC	??_Gexception@std@@UEAAPEAXI@Z			; std::exception::`scalar deleting destructor'
PUBLIC	??0bad_alloc@std@@AEAA@QEBD@Z			; std::bad_alloc::bad_alloc
PUBLIC	??1bad_alloc@std@@UEAA@XZ			; std::bad_alloc::~bad_alloc
PUBLIC	??0bad_alloc@std@@QEAA@AEBV01@@Z		; std::bad_alloc::bad_alloc
PUBLIC	??_Gbad_alloc@std@@UEAAPEAXI@Z			; std::bad_alloc::`scalar deleting destructor'
PUBLIC	??0bad_array_new_length@std@@QEAA@XZ		; std::bad_array_new_length::bad_array_new_length
PUBLIC	??1bad_array_new_length@std@@UEAA@XZ		; std::bad_array_new_length::~bad_array_new_length
PUBLIC	??0bad_array_new_length@std@@QEAA@AEBV01@@Z	; std::bad_array_new_length::bad_array_new_length
PUBLIC	??_Gbad_array_new_length@std@@UEAAPEAXI@Z	; std::bad_array_new_length::`scalar deleting destructor'
PUBLIC	?_Throw_bad_array_new_length@std@@YAXXZ		; std::_Throw_bad_array_new_length
PUBLIC	?_Allocate@_Default_allocate_traits@std@@SAPEAX_K@Z ; std::_Default_allocate_traits::_Allocate
PUBLIC	?_Adjust_manually_vector_aligned@std@@YAXAEAPEAXAEA_K@Z ; std::_Adjust_manually_vector_aligned
PUBLIC	??0_Container_proxy@std@@QEAA@PEAU_Container_base12@1@@Z ; std::_Container_proxy::_Container_proxy
PUBLIC	??0_Container_base12@std@@QEAA@XZ		; std::_Container_base12::_Container_base12
PUBLIC	?_Orphan_all@_Container_base12@std@@QEAAXXZ	; std::_Container_base12::_Orphan_all
PUBLIC	?_Orphan_all_unlocked_v3@_Container_base12@std@@AEAAXXZ ; std::_Container_base12::_Orphan_all_unlocked_v3
PUBLIC	?_Orphan_all_locked_v3@_Container_base12@std@@AEAAXXZ ; std::_Container_base12::_Orphan_all_locked_v3
PUBLIC	?_Release@_Basic_container_proxy_ptr12@std@@QEAAXXZ ; std::_Basic_container_proxy_ptr12::_Release
PUBLIC	??0_Basic_container_proxy_ptr12@std@@IEAA@XZ	; std::_Basic_container_proxy_ptr12::_Basic_container_proxy_ptr12
PUBLIC	??$addressof@U_Container_base12@std@@@std@@YAPEAU_Container_base12@0@AEAU10@@Z ; std::addressof<std::_Container_base12>
PUBLIC	??$_Construct_in_place@U_Container_proxy@std@@PEAU_Container_base12@2@@std@@YAXAEAU_Container_proxy@0@$$QEAPEAU_Container_base12@0@@Z ; std::_Construct_in_place<std::_Container_proxy,std::_Container_base12 *>
PUBLIC	?length@?$_Narrow_char_traits@DH@std@@SA_KQEBD@Z ; std::_Narrow_char_traits<char,int>::length
PUBLIC	?eq_int_type@?$_Narrow_char_traits@DH@std@@SA_NAEBH0@Z ; std::_Narrow_char_traits<char,int>::eq_int_type
PUBLIC	?eof@?$_Narrow_char_traits@DH@std@@SAHXZ	; std::_Narrow_char_traits<char,int>::eof
PUBLIC	??0logic_error@std@@QEAA@PEBD@Z			; std::logic_error::logic_error
PUBLIC	??1logic_error@std@@UEAA@XZ			; std::logic_error::~logic_error
PUBLIC	??0logic_error@std@@QEAA@AEBV01@@Z		; std::logic_error::logic_error
PUBLIC	??_Glogic_error@std@@UEAAPEAXI@Z		; std::logic_error::`scalar deleting destructor'
PUBLIC	??0invalid_argument@std@@QEAA@PEBD@Z		; std::invalid_argument::invalid_argument
PUBLIC	??1invalid_argument@std@@UEAA@XZ		; std::invalid_argument::~invalid_argument
PUBLIC	??0invalid_argument@std@@QEAA@AEBV01@@Z		; std::invalid_argument::invalid_argument
PUBLIC	??_Ginvalid_argument@std@@UEAAPEAXI@Z		; std::invalid_argument::`scalar deleting destructor'
PUBLIC	??0runtime_error@std@@QEAA@PEBD@Z		; std::runtime_error::runtime_error
PUBLIC	??1runtime_error@std@@UEAA@XZ			; std::runtime_error::~runtime_error
PUBLIC	??0runtime_error@std@@QEAA@AEBV01@@Z		; std::runtime_error::runtime_error
PUBLIC	??_Gruntime_error@std@@UEAAPEAXI@Z		; std::runtime_error::`scalar deleting destructor'
PUBLIC	??$_Maklocstr@_W@std@@YAPEA_WPEBDPEA_WAEBU_Cvtvec@@@Z ; std::_Maklocstr<wchar_t>
PUBLIC	?_Maklocwcs@std@@YAPEA_WPEB_W@Z			; std::_Maklocwcs
PUBLIC	??$_Maklocstr@D@std@@YAPEADPEBDPEADAEBU_Cvtvec@@@Z ; std::_Maklocstr<char>
PUBLIC	?shouldClose@Window@cow@@QEBA_NXZ		; cow::Window::shouldClose
PUBLIC	?__autoclassinit2@Window@cow@@QEAAX_K@Z		; cow::Window::__autoclassinit2
PUBLIC	?getPhysicalDevice@Device@cow@@QEAAPEAUVkPhysicalDevice_T@@XZ ; cow::Device::getPhysicalDevice
PUBLIC	?getDevice@Device@cow@@QEAAPEAUVkDevice_T@@XZ	; cow::Device::getDevice
PUBLIC	?getCommandPool@Device@cow@@QEAAPEAUVkCommandPool_T@@XZ ; cow::Device::getCommandPool
PUBLIC	?getGraphicsQueue@Device@cow@@QEAAPEAUVkQueue_T@@XZ ; cow::Device::getGraphicsQueue
PUBLIC	?bindImageMemory@Device@cow@@QEBA?AW4VkResult@@PEAUVkImage_T@@PEAUVkDeviceMemory_T@@@Z ; cow::Device::bindImageMemory
PUBLIC	?__autoclassinit2@Device@cow@@QEAAX_K@Z		; cow::Device::__autoclassinit2
PUBLIC	?getRenderPass@Swapchain@cow@@QEBAPEAUVkRenderPass_T@@XZ ; cow::Swapchain::getRenderPass
PUBLIC	?getCurrentFrame@Swapchain@cow@@QEBA_KXZ	; cow::Swapchain::getCurrentFrame
PUBLIC	?getCurrentImageIndex@GraphicsCommands@cow@@QEAAIXZ ; cow::GraphicsCommands::getCurrentImageIndex
PUBLIC	??C?$unique_ptr@VSwapchain@cow@@U?$default_delete@VSwapchain@cow@@@std@@@std@@QEBAPEAVSwapchain@cow@@XZ ; std::unique_ptr<cow::Swapchain,std::default_delete<cow::Swapchain> >::operator->
PUBLIC	?__autoclassinit2@GraphicsCommands@cow@@QEAAX_K@Z ; cow::GraphicsCommands::__autoclassinit2
PUBLIC	??0Buffer@cow@@QEAA@AEAVDevice@1@_KII@Z		; cow::Buffer::Buffer
PUBLIC	??1Buffer@cow@@QEAA@XZ				; cow::Buffer::~Buffer
PUBLIC	?map@Buffer@cow@@QEAA?AW4VkResult@@_K0@Z	; cow::Buffer::map
PUBLIC	?unmap@Buffer@cow@@QEAAXXZ			; cow::Buffer::unmap
PUBLIC	?write@Buffer@cow@@QEAAPEAXPEAX_K1@Z		; cow::Buffer::write
PUBLIC	?copy@Buffer@cow@@QEAAXPEAUVkBuffer_T@@_K@Z	; cow::Buffer::copy
PUBLIC	?get@Buffer@cow@@QEAAPEAUVkBuffer_T@@XZ		; cow::Buffer::get
PUBLIC	?createBuffer@Buffer@cow@@AEAAXII@Z		; cow::Buffer::createBuffer
PUBLIC	?__autoclassinit2@Buffer@cow@@QEAAX_K@Z		; cow::Buffer::__autoclassinit2
PUBLIC	??_GBuffer@cow@@QEAAPEAXI@Z			; cow::Buffer::`scalar deleting destructor'
PUBLIC	??0?$allocator@W4VkDynamicState@@@std@@QEAA@XZ	; std::allocator<enum VkDynamicState>::allocator<enum VkDynamicState>
PUBLIC	?deallocate@?$allocator@W4VkDynamicState@@@std@@QEAAXQEAW4VkDynamicState@@_K@Z ; std::allocator<enum VkDynamicState>::deallocate
PUBLIC	??0?$vector@W4VkDynamicState@@V?$allocator@W4VkDynamicState@@@std@@@std@@QEAA@XZ ; std::vector<enum VkDynamicState,std::allocator<enum VkDynamicState> >::vector<enum VkDynamicState,std::allocator<enum VkDynamicState> >
PUBLIC	??1?$vector@W4VkDynamicState@@V?$allocator@W4VkDynamicState@@@std@@@std@@QEAA@XZ ; std::vector<enum VkDynamicState,std::allocator<enum VkDynamicState> >::~vector<enum VkDynamicState,std::allocator<enum VkDynamicState> >
PUBLIC	?_Tidy@?$vector@W4VkDynamicState@@V?$allocator@W4VkDynamicState@@@std@@@std@@AEAAXXZ ; std::vector<enum VkDynamicState,std::allocator<enum VkDynamicState> >::_Tidy
PUBLIC	?_Getal@?$vector@W4VkDynamicState@@V?$allocator@W4VkDynamicState@@@std@@@std@@AEAAAEAV?$allocator@W4VkDynamicState@@@2@XZ ; std::vector<enum VkDynamicState,std::allocator<enum VkDynamicState> >::_Getal
PUBLIC	??0?$_Vector_val@U?$_Simple_types@W4VkDynamicState@@@std@@@std@@QEAA@XZ ; std::_Vector_val<std::_Simple_types<enum VkDynamicState> >::_Vector_val<std::_Simple_types<enum VkDynamicState> >
PUBLIC	?_Get_first@?$_Compressed_pair@V?$allocator@W4VkDynamicState@@@std@@V?$_Vector_val@U?$_Simple_types@W4VkDynamicState@@@std@@@2@$00@std@@QEAAAEAV?$allocator@W4VkDynamicState@@@2@XZ ; std::_Compressed_pair<std::allocator<enum VkDynamicState>,std::_Vector_val<std::_Simple_types<enum VkDynamicState> >,1>::_Get_first
PUBLIC	??1GraphicsPipelineSimpleInfo@cow@@QEAA@XZ	; cow::GraphicsPipelineSimpleInfo::~GraphicsPipelineSimpleInfo
PUBLIC	??R?$default_delete@VBuffer@cow@@@std@@QEBAXPEAVBuffer@cow@@@Z ; std::default_delete<cow::Buffer>::operator()
PUBLIC	??1?$unique_ptr@VBuffer@cow@@U?$default_delete@VBuffer@cow@@@std@@@std@@QEAA@XZ ; std::unique_ptr<cow::Buffer,std::default_delete<cow::Buffer> >::~unique_ptr<cow::Buffer,std::default_delete<cow::Buffer> >
PUBLIC	??C?$unique_ptr@VBuffer@cow@@U?$default_delete@VBuffer@cow@@@std@@@std@@QEBAPEAVBuffer@cow@@XZ ; std::unique_ptr<cow::Buffer,std::default_delete<cow::Buffer> >::operator->
PUBLIC	?release@?$unique_ptr@VBuffer@cow@@U?$default_delete@VBuffer@cow@@@std@@@std@@QEAAPEAVBuffer@cow@@XZ ; std::unique_ptr<cow::Buffer,std::default_delete<cow::Buffer> >::release
PUBLIC	?reset@?$unique_ptr@VBuffer@cow@@U?$default_delete@VBuffer@cow@@@std@@@std@@QEAAXPEAVBuffer@cow@@@Z ; std::unique_ptr<cow::Buffer,std::default_delete<cow::Buffer> >::reset
PUBLIC	?_Get_first@?$_Compressed_pair@U?$default_delete@VBuffer@cow@@@std@@PEAVBuffer@cow@@$00@std@@QEAAAEAU?$default_delete@VBuffer@cow@@@2@XZ ; std::_Compressed_pair<std::default_delete<cow::Buffer>,cow::Buffer *,1>::_Get_first
PUBLIC	?create@EmptyObject@cow@@SA?AV12@XZ		; cow::EmptyObject::create
PUBLIC	??1EmptyObject@cow@@QEAA@XZ			; cow::EmptyObject::~EmptyObject
PUBLIC	??0EmptyObject@cow@@AEAA@I@Z			; cow::EmptyObject::EmptyObject
PUBLIC	stbi_load_from_memory
PUBLIC	stbi_load_from_callbacks
PUBLIC	stbi_load
PUBLIC	stbi_load_from_file
PUBLIC	stbi_load_gif_from_memory
PUBLIC	stbi_load_16_from_memory
PUBLIC	stbi_load_16_from_callbacks
PUBLIC	stbi_load_16
PUBLIC	stbi_load_from_file_16
PUBLIC	stbi_loadf_from_memory
PUBLIC	stbi_loadf_from_callbacks
PUBLIC	stbi_loadf
PUBLIC	stbi_loadf_from_file
PUBLIC	stbi_hdr_to_ldr_gamma
PUBLIC	stbi_hdr_to_ldr_scale
PUBLIC	stbi_ldr_to_hdr_gamma
PUBLIC	stbi_ldr_to_hdr_scale
PUBLIC	stbi_is_hdr_from_callbacks
PUBLIC	stbi_is_hdr_from_memory
PUBLIC	stbi_is_hdr
PUBLIC	stbi_is_hdr_from_file
PUBLIC	stbi_failure_reason
PUBLIC	stbi_image_free
PUBLIC	stbi_info_from_memory
PUBLIC	stbi_info_from_callbacks
PUBLIC	stbi_is_16_bit_from_memory
PUBLIC	stbi_is_16_bit_from_callbacks
PUBLIC	stbi_info
PUBLIC	stbi_info_from_file
PUBLIC	stbi_is_16_bit
PUBLIC	stbi_is_16_bit_from_file
PUBLIC	stbi_set_unpremultiply_on_load
PUBLIC	stbi_convert_iphone_png_to_rgb
PUBLIC	stbi_set_flip_vertically_on_load
PUBLIC	stbi_convert_iphone_png_to_rgb_thread
PUBLIC	stbi_set_flip_vertically_on_load_thread
PUBLIC	stbi_zlib_decode_malloc_guesssize
PUBLIC	stbi_zlib_decode_malloc_guesssize_headerflag
PUBLIC	stbi_zlib_decode_malloc
PUBLIC	stbi_zlib_decode_buffer
PUBLIC	stbi_zlib_decode_noheader_malloc
PUBLIC	stbi_zlib_decode_noheader_buffer
PUBLIC	?stbi__unpremultiply_on_load_thread@@YAXH@Z	; stbi__unpremultiply_on_load_thread
PUBLIC	??0Texture@cow@@QEAA@AEAVDevice@1@PEBD@Z	; cow::Texture::Texture
PUBLIC	??1Texture@cow@@QEAA@XZ				; cow::Texture::~Texture
PUBLIC	?transitionImageLayout@Texture@cow@@QEAAXPEAUVkImage_T@@W4VkFormat@@W4VkImageLayout@@2@Z ; cow::Texture::transitionImageLayout
PUBLIC	?copyBufferToImage@Texture@cow@@QEAAXPEAUVkBuffer_T@@PEAUVkImage_T@@II@Z ; cow::Texture::copyBufferToImage
PUBLIC	?createTextureImageView@Texture@cow@@QEAAXXZ	; cow::Texture::createTextureImageView
PUBLIC	?createTextureSampler@Texture@cow@@QEAAXXZ	; cow::Texture::createTextureSampler
PUBLIC	?__autoclassinit2@Texture@cow@@QEAAX_K@Z	; cow::Texture::__autoclassinit2
PUBLIC	??$_Getvals@_W@?$time_get@DV?$istreambuf_iterator@DU?$char_traits@D@std@@@std@@@std@@IEAAX_WAEBV_Locinfo@1@@Z ; std::time_get<char,std::istreambuf_iterator<char,std::char_traits<char> > >::_Getvals<wchar_t>
PUBLIC	??$_Getvals@_W@?$time_get@_WV?$istreambuf_iterator@_WU?$char_traits@_W@std@@@std@@@std@@IEAAX_WAEBV_Locinfo@1@@Z ; std::time_get<wchar_t,std::istreambuf_iterator<wchar_t,std::char_traits<wchar_t> > >::_Getvals<wchar_t>
PUBLIC	??0?$Model2DComponent@UVertex2DTextured@cow@@@cow@@QEAA@AEAVDevice@1@V?$vector@UVertex2DTextured@cow@@V?$allocator@UVertex2DTextured@cow@@@std@@@std@@@Z ; cow::Model2DComponent<cow::Vertex2DTextured>::Model2DComponent<cow::Vertex2DTextured>
PUBLIC	??1?$Model2DComponent@UVertex2DTextured@cow@@@cow@@QEAA@XZ ; cow::Model2DComponent<cow::Vertex2DTextured>::~Model2DComponent<cow::Vertex2DTextured>
PUBLIC	?bind@?$Model2DComponent@UVertex2DTextured@cow@@@cow@@QEAAXPEAUVkCommandBuffer_T@@@Z ; cow::Model2DComponent<cow::Vertex2DTextured>::bind
PUBLIC	?draw@?$Model2DComponent@UVertex2DTextured@cow@@@cow@@QEAAXPEAUVkCommandBuffer_T@@@Z ; cow::Model2DComponent<cow::Vertex2DTextured>::draw
PUBLIC	??0?$PushConstantComponent@USimplePushConstantData@@@cow@@QEAA@XZ ; cow::PushConstantComponent<SimplePushConstantData>::PushConstantComponent<SimplePushConstantData>
PUBLIC	??1?$PushConstantComponent@USimplePushConstantData@@@cow@@QEAA@XZ ; cow::PushConstantComponent<SimplePushConstantData>::~PushConstantComponent<SimplePushConstantData>
PUBLIC	?pushConstant@?$PushConstantComponent@USimplePushConstantData@@@cow@@QEAAXPEAUVkCommandBuffer_T@@PEAUVkPipelineLayout_T@@I@Z ; cow::PushConstantComponent<SimplePushConstantData>::pushConstant
PUBLIC	??0RenderObject@@QEAA@AEAVDevice@cow@@V?$vector@UVertex2DTextured@cow@@V?$allocator@UVertex2DTextured@cow@@@std@@@std@@@Z ; RenderObject::RenderObject
PUBLIC	??1RenderObject@@QEAA@XZ			; RenderObject::~RenderObject
PUBLIC	?__autoclassinit2@RenderObject@@QEAAX_K@Z	; RenderObject::__autoclassinit2
PUBLIC	??0?$allocator@UVertex2DTextured@cow@@@std@@QEAA@XZ ; std::allocator<cow::Vertex2DTextured>::allocator<cow::Vertex2DTextured>
PUBLIC	?deallocate@?$allocator@UVertex2DTextured@cow@@@std@@QEAAXQEAUVertex2DTextured@cow@@_K@Z ; std::allocator<cow::Vertex2DTextured>::deallocate
PUBLIC	?allocate@?$allocator@UVertex2DTextured@cow@@@std@@QEAAPEAUVertex2DTextured@cow@@_K@Z ; std::allocator<cow::Vertex2DTextured>::allocate
PUBLIC	?max_size@?$_Default_allocator_traits@V?$allocator@UVertex2DTextured@cow@@@std@@@std@@SA_KAEBV?$allocator@UVertex2DTextured@cow@@@2@@Z ; std::_Default_allocator_traits<std::allocator<cow::Vertex2DTextured> >::max_size
PUBLIC	?select_on_container_copy_construction@?$_Default_allocator_traits@V?$allocator@UVertex2DTextured@cow@@@std@@@std@@SA?AV?$allocator@UVertex2DTextured@cow@@@2@AEBV32@@Z ; std::_Default_allocator_traits<std::allocator<cow::Vertex2DTextured> >::select_on_container_copy_construction
PUBLIC	??0?$vector@UVertex2DTextured@cow@@V?$allocator@UVertex2DTextured@cow@@@std@@@std@@QEAA@XZ ; std::vector<cow::Vertex2DTextured,std::allocator<cow::Vertex2DTextured> >::vector<cow::Vertex2DTextured,std::allocator<cow::Vertex2DTextured> >
PUBLIC	??0?$vector@UVertex2DTextured@cow@@V?$allocator@UVertex2DTextured@cow@@@std@@@std@@QEAA@AEBV01@@Z ; std::vector<cow::Vertex2DTextured,std::allocator<cow::Vertex2DTextured> >::vector<cow::Vertex2DTextured,std::allocator<cow::Vertex2DTextured> >
PUBLIC	??1?$vector@UVertex2DTextured@cow@@V?$allocator@UVertex2DTextured@cow@@@std@@@std@@QEAA@XZ ; std::vector<cow::Vertex2DTextured,std::allocator<cow::Vertex2DTextured> >::~vector<cow::Vertex2DTextured,std::allocator<cow::Vertex2DTextured> >
PUBLIC	?push_back@?$vector@UVertex2DTextured@cow@@V?$allocator@UVertex2DTextured@cow@@@std@@@std@@QEAAX$$QEAUVertex2DTextured@cow@@@Z ; std::vector<cow::Vertex2DTextured,std::allocator<cow::Vertex2DTextured> >::push_back
PUBLIC	?data@?$vector@UVertex2DTextured@cow@@V?$allocator@UVertex2DTextured@cow@@@std@@@std@@QEAAPEAUVertex2DTextured@cow@@XZ ; std::vector<cow::Vertex2DTextured,std::allocator<cow::Vertex2DTextured> >::data
PUBLIC	?size@?$vector@UVertex2DTextured@cow@@V?$allocator@UVertex2DTextured@cow@@@std@@@std@@QEBA_KXZ ; std::vector<cow::Vertex2DTextured,std::allocator<cow::Vertex2DTextured> >::size
PUBLIC	?max_size@?$vector@UVertex2DTextured@cow@@V?$allocator@UVertex2DTextured@cow@@@std@@@std@@QEBA_KXZ ; std::vector<cow::Vertex2DTextured,std::allocator<cow::Vertex2DTextured> >::max_size
PUBLIC	?capacity@?$vector@UVertex2DTextured@cow@@V?$allocator@UVertex2DTextured@cow@@@std@@@std@@QEBA_KXZ ; std::vector<cow::Vertex2DTextured,std::allocator<cow::Vertex2DTextured> >::capacity
PUBLIC	?_Calculate_growth@?$vector@UVertex2DTextured@cow@@V?$allocator@UVertex2DTextured@cow@@@std@@@std@@AEBA_K_K@Z ; std::vector<cow::Vertex2DTextured,std::allocator<cow::Vertex2DTextured> >::_Calculate_growth
PUBLIC	?_Buy_raw@?$vector@UVertex2DTextured@cow@@V?$allocator@UVertex2DTextured@cow@@@std@@@std@@AEAAX_K@Z ; std::vector<cow::Vertex2DTextured,std::allocator<cow::Vertex2DTextured> >::_Buy_raw
PUBLIC	?_Buy_nonzero@?$vector@UVertex2DTextured@cow@@V?$allocator@UVertex2DTextured@cow@@@std@@@std@@AEAAX_K@Z ; std::vector<cow::Vertex2DTextured,std::allocator<cow::Vertex2DTextured> >::_Buy_nonzero
PUBLIC	?_Change_array@?$vector@UVertex2DTextured@cow@@V?$allocator@UVertex2DTextured@cow@@@std@@@std@@AEAAXQEAUVertex2DTextured@cow@@_K1@Z ; std::vector<cow::Vertex2DTextured,std::allocator<cow::Vertex2DTextured> >::_Change_array
PUBLIC	?_Tidy@?$vector@UVertex2DTextured@cow@@V?$allocator@UVertex2DTextured@cow@@@std@@@std@@AEAAXXZ ; std::vector<cow::Vertex2DTextured,std::allocator<cow::Vertex2DTextured> >::_Tidy
PUBLIC	?_Xlength@?$vector@UVertex2DTextured@cow@@V?$allocator@UVertex2DTextured@cow@@@std@@@std@@CAXXZ ; std::vector<cow::Vertex2DTextured,std::allocator<cow::Vertex2DTextured> >::_Xlength
PUBLIC	?_Orphan_range_unlocked@?$vector@UVertex2DTextured@cow@@V?$allocator@UVertex2DTextured@cow@@@std@@@std@@AEBAXPEAUVertex2DTextured@cow@@0@Z ; std::vector<cow::Vertex2DTextured,std::allocator<cow::Vertex2DTextured> >::_Orphan_range_unlocked
PUBLIC	?_Orphan_range_locked@?$vector@UVertex2DTextured@cow@@V?$allocator@UVertex2DTextured@cow@@@std@@@std@@AEBAXPEAUVertex2DTextured@cow@@0@Z ; std::vector<cow::Vertex2DTextured,std::allocator<cow::Vertex2DTextured> >::_Orphan_range_locked
PUBLIC	?_Orphan_range@?$vector@UVertex2DTextured@cow@@V?$allocator@UVertex2DTextured@cow@@@std@@@std@@AEBAXPEAUVertex2DTextured@cow@@0@Z ; std::vector<cow::Vertex2DTextured,std::allocator<cow::Vertex2DTextured> >::_Orphan_range
PUBLIC	?_Getal@?$vector@UVertex2DTextured@cow@@V?$allocator@UVertex2DTextured@cow@@@std@@@std@@AEAAAEAV?$allocator@UVertex2DTextured@cow@@@2@XZ ; std::vector<cow::Vertex2DTextured,std::allocator<cow::Vertex2DTextured> >::_Getal
PUBLIC	?_Getal@?$vector@UVertex2DTextured@cow@@V?$allocator@UVertex2DTextured@cow@@@std@@@std@@AEBAAEBV?$allocator@UVertex2DTextured@cow@@@2@XZ ; std::vector<cow::Vertex2DTextured,std::allocator<cow::Vertex2DTextured> >::_Getal
PUBLIC	??0?$_Vector_val@U?$_Simple_types@UVertex2DTextured@cow@@@std@@@std@@QEAA@XZ ; std::_Vector_val<std::_Simple_types<cow::Vertex2DTextured> >::_Vector_val<std::_Simple_types<cow::Vertex2DTextured> >
PUBLIC	?_Get_first@?$_Compressed_pair@V?$allocator@UVertex2DTextured@cow@@@std@@V?$_Vector_val@U?$_Simple_types@UVertex2DTextured@cow@@@std@@@2@$00@std@@QEAAAEAV?$allocator@UVertex2DTextured@cow@@@2@XZ ; std::_Compressed_pair<std::allocator<cow::Vertex2DTextured>,std::_Vector_val<std::_Simple_types<cow::Vertex2DTextured> >,1>::_Get_first
PUBLIC	?_Get_first@?$_Compressed_pair@V?$allocator@UVertex2DTextured@cow@@@std@@V?$_Vector_val@U?$_Simple_types@UVertex2DTextured@cow@@@std@@@2@$00@std@@QEBAAEBV?$allocator@UVertex2DTextured@cow@@@2@XZ ; std::_Compressed_pair<std::allocator<cow::Vertex2DTextured>,std::_Vector_val<std::_Simple_types<cow::Vertex2DTextured> >,1>::_Get_first
PUBLIC	?__autoclassinit2@?$vector@UVertex2DTextured@cow@@V?$allocator@UVertex2DTextured@cow@@@std@@@std@@QEAAX_K@Z ; std::vector<cow::Vertex2DTextured,std::allocator<cow::Vertex2DTextured> >::__autoclassinit2
PUBLIC	main
PUBLIC	??0?$allocator@PEAUVkCommandBuffer_T@@@std@@QEAA@XZ ; std::allocator<VkCommandBuffer_T *>::allocator<VkCommandBuffer_T *>
PUBLIC	?deallocate@?$allocator@PEAUVkCommandBuffer_T@@@std@@QEAAXQEAPEAUVkCommandBuffer_T@@_K@Z ; std::allocator<VkCommandBuffer_T *>::deallocate
PUBLIC	?allocate@?$allocator@PEAUVkCommandBuffer_T@@@std@@QEAAPEAPEAUVkCommandBuffer_T@@_K@Z ; std::allocator<VkCommandBuffer_T *>::allocate
PUBLIC	?max_size@?$_Default_allocator_traits@V?$allocator@PEAUVkCommandBuffer_T@@@std@@@std@@SA_KAEBV?$allocator@PEAUVkCommandBuffer_T@@@2@@Z ; std::_Default_allocator_traits<std::allocator<VkCommandBuffer_T *> >::max_size
PUBLIC	??0?$vector@PEAUVkCommandBuffer_T@@V?$allocator@PEAUVkCommandBuffer_T@@@std@@@std@@QEAA@_KAEBV?$allocator@PEAUVkCommandBuffer_T@@@1@@Z ; std::vector<VkCommandBuffer_T *,std::allocator<VkCommandBuffer_T *> >::vector<VkCommandBuffer_T *,std::allocator<VkCommandBuffer_T *> >
PUBLIC	??1?$vector@PEAUVkCommandBuffer_T@@V?$allocator@PEAUVkCommandBuffer_T@@@std@@@std@@QEAA@XZ ; std::vector<VkCommandBuffer_T *,std::allocator<VkCommandBuffer_T *> >::~vector<VkCommandBuffer_T *,std::allocator<VkCommandBuffer_T *> >
PUBLIC	?data@?$vector@PEAUVkCommandBuffer_T@@V?$allocator@PEAUVkCommandBuffer_T@@@std@@@std@@QEAAPEAPEAUVkCommandBuffer_T@@XZ ; std::vector<VkCommandBuffer_T *,std::allocator<VkCommandBuffer_T *> >::data
PUBLIC	?size@?$vector@PEAUVkCommandBuffer_T@@V?$allocator@PEAUVkCommandBuffer_T@@@std@@@std@@QEBA_KXZ ; std::vector<VkCommandBuffer_T *,std::allocator<VkCommandBuffer_T *> >::size
PUBLIC	?max_size@?$vector@PEAUVkCommandBuffer_T@@V?$allocator@PEAUVkCommandBuffer_T@@@std@@@std@@QEBA_KXZ ; std::vector<VkCommandBuffer_T *,std::allocator<VkCommandBuffer_T *> >::max_size
PUBLIC	?_Buy_raw@?$vector@PEAUVkCommandBuffer_T@@V?$allocator@PEAUVkCommandBuffer_T@@@std@@@std@@AEAAX_K@Z ; std::vector<VkCommandBuffer_T *,std::allocator<VkCommandBuffer_T *> >::_Buy_raw
PUBLIC	?_Buy_nonzero@?$vector@PEAUVkCommandBuffer_T@@V?$allocator@PEAUVkCommandBuffer_T@@@std@@@std@@AEAAX_K@Z ; std::vector<VkCommandBuffer_T *,std::allocator<VkCommandBuffer_T *> >::_Buy_nonzero
PUBLIC	?_Tidy@?$vector@PEAUVkCommandBuffer_T@@V?$allocator@PEAUVkCommandBuffer_T@@@std@@@std@@AEAAXXZ ; std::vector<VkCommandBuffer_T *,std::allocator<VkCommandBuffer_T *> >::_Tidy
PUBLIC	?_Xlength@?$vector@PEAUVkCommandBuffer_T@@V?$allocator@PEAUVkCommandBuffer_T@@@std@@@std@@CAXXZ ; std::vector<VkCommandBuffer_T *,std::allocator<VkCommandBuffer_T *> >::_Xlength
PUBLIC	?_Getal@?$vector@PEAUVkCommandBuffer_T@@V?$allocator@PEAUVkCommandBuffer_T@@@std@@@std@@AEAAAEAV?$allocator@PEAUVkCommandBuffer_T@@@2@XZ ; std::vector<VkCommandBuffer_T *,std::allocator<VkCommandBuffer_T *> >::_Getal
PUBLIC	?_Getal@?$vector@PEAUVkCommandBuffer_T@@V?$allocator@PEAUVkCommandBuffer_T@@@std@@@std@@AEBAAEBV?$allocator@PEAUVkCommandBuffer_T@@@2@XZ ; std::vector<VkCommandBuffer_T *,std::allocator<VkCommandBuffer_T *> >::_Getal
PUBLIC	??0?$_Vector_val@U?$_Simple_types@PEAUVkCommandBuffer_T@@@std@@@std@@QEAA@XZ ; std::_Vector_val<std::_Simple_types<VkCommandBuffer_T *> >::_Vector_val<std::_Simple_types<VkCommandBuffer_T *> >
PUBLIC	?_Get_first@?$_Compressed_pair@V?$allocator@PEAUVkCommandBuffer_T@@@std@@V?$_Vector_val@U?$_Simple_types@PEAUVkCommandBuffer_T@@@std@@@2@$00@std@@QEAAAEAV?$allocator@PEAUVkCommandBuffer_T@@@2@XZ ; std::_Compressed_pair<std::allocator<VkCommandBuffer_T *>,std::_Vector_val<std::_Simple_types<VkCommandBuffer_T *> >,1>::_Get_first
PUBLIC	?_Get_first@?$_Compressed_pair@V?$allocator@PEAUVkCommandBuffer_T@@@std@@V?$_Vector_val@U?$_Simple_types@PEAUVkCommandBuffer_T@@@std@@@2@$00@std@@QEBAAEBV?$allocator@PEAUVkCommandBuffer_T@@@2@XZ ; std::_Compressed_pair<std::allocator<VkCommandBuffer_T *>,std::_Vector_val<std::_Simple_types<VkCommandBuffer_T *> >,1>::_Get_first
PUBLIC	?__autoclassinit2@?$vector@PEAUVkCommandBuffer_T@@V?$allocator@PEAUVkCommandBuffer_T@@@std@@@std@@QEAAX_K@Z ; std::vector<VkCommandBuffer_T *,std::allocator<VkCommandBuffer_T *> >::__autoclassinit2
PUBLIC	??$?6U?$char_traits@D@std@@@std@@YAAEAV?$basic_ostream@DU?$char_traits@D@std@@@0@AEAV10@PEBD@Z ; std::operator<<<std::char_traits<char> >
PUBLIC	?size@?$array@UVkDescriptorSetLayoutBinding@@$01@std@@QEBA_KXZ ; std::array<VkDescriptorSetLayoutBinding,2>::size
PUBLIC	??A?$array@UVkDescriptorSetLayoutBinding@@$01@std@@QEAAAEAUVkDescriptorSetLayoutBinding@@_K@Z ; std::array<VkDescriptorSetLayoutBinding,2>::operator[]
PUBLIC	?data@?$array@UVkDescriptorSetLayoutBinding@@$01@std@@QEBAPEBUVkDescriptorSetLayoutBinding@@XZ ; std::array<VkDescriptorSetLayoutBinding,2>::data
PUBLIC	?size@?$array@UVkDescriptorPoolSize@@$01@std@@QEBA_KXZ ; std::array<VkDescriptorPoolSize,2>::size
PUBLIC	??A?$array@UVkDescriptorPoolSize@@$01@std@@QEAAAEAUVkDescriptorPoolSize@@_K@Z ; std::array<VkDescriptorPoolSize,2>::operator[]
PUBLIC	?data@?$array@UVkDescriptorPoolSize@@$01@std@@QEBAPEBUVkDescriptorPoolSize@@XZ ; std::array<VkDescriptorPoolSize,2>::data
PUBLIC	??0?$Descriptor@$01$01@cow@@QEAA@AEAVDevice@1@V?$array@UVkDescriptorSetLayoutBinding@@$01@std@@V?$array@UVkDescriptorPoolSize@@$01@4@I@Z ; cow::Descriptor<2,2>::Descriptor<2,2>
PUBLIC	??1?$Descriptor@$01$01@cow@@QEAA@XZ		; cow::Descriptor<2,2>::~Descriptor<2,2>
PUBLIC	?getLayout@?$Descriptor@$01$01@cow@@QEAAPEAPEAUVkDescriptorSetLayout_T@@XZ ; cow::Descriptor<2,2>::getLayout
PUBLIC	?getSet@?$Descriptor@$01$01@cow@@QEAAPEAUVkDescriptorSet_T@@I@Z ; cow::Descriptor<2,2>::getSet
PUBLIC	?__autoclassinit2@?$Descriptor@$01$01@cow@@QEAAX_K@Z ; cow::Descriptor<2,2>::__autoclassinit2
PUBLIC	?size@?$array@UVkWriteDescriptorSet@@$01@std@@QEBA_KXZ ; std::array<VkWriteDescriptorSet,2>::size
PUBLIC	??A?$array@UVkWriteDescriptorSet@@$01@std@@QEAAAEAUVkWriteDescriptorSet@@_K@Z ; std::array<VkWriteDescriptorSet,2>::operator[]
PUBLIC	?data@?$array@UVkWriteDescriptorSet@@$01@std@@QEAAPEAUVkWriteDescriptorSet@@XZ ; std::array<VkWriteDescriptorSet,2>::data
PUBLIC	??0?$GraphicsPipeline@UVertex2DTextured@cow@@@cow@@QEAA@AEAVDevice@1@PEAUGraphicsPipelineSimpleInfo@1@@Z ; cow::GraphicsPipeline<cow::Vertex2DTextured>::GraphicsPipeline<cow::Vertex2DTextured>
PUBLIC	??1?$GraphicsPipeline@UVertex2DTextured@cow@@@cow@@QEAA@XZ ; cow::GraphicsPipeline<cow::Vertex2DTextured>::~GraphicsPipeline<cow::Vertex2DTextured>
PUBLIC	?bind@?$GraphicsPipeline@UVertex2DTextured@cow@@@cow@@QEAAXPEAUVkCommandBuffer_T@@@Z ; cow::GraphicsPipeline<cow::Vertex2DTextured>::bind
PUBLIC	?__autoclassinit2@?$GraphicsPipeline@UVertex2DTextured@cow@@@cow@@QEAAX_K@Z ; cow::GraphicsPipeline<cow::Vertex2DTextured>::__autoclassinit2
PUBLIC	??$?0NN@?$vec@$01M$0A@@glm@@QEAA@NN@Z		; glm::vec<2,float,0>::vec<2,float,0><double,double>
PUBLIC	??$?0MN@?$vec@$01M$0A@@glm@@QEAA@MN@Z		; glm::vec<2,float,0>::vec<2,float,0><float,double>
PUBLIC	??0?$allocator@PEAVRenderObject@@@std@@QEAA@XZ	; std::allocator<RenderObject *>::allocator<RenderObject *>
PUBLIC	?deallocate@?$allocator@PEAVRenderObject@@@std@@QEAAXQEAPEAVRenderObject@@_K@Z ; std::allocator<RenderObject *>::deallocate
PUBLIC	?allocate@?$allocator@PEAVRenderObject@@@std@@QEAAPEAPEAVRenderObject@@_K@Z ; std::allocator<RenderObject *>::allocate
PUBLIC	?max_size@?$_Default_allocator_traits@V?$allocator@PEAVRenderObject@@@std@@@std@@SA_KAEBV?$allocator@PEAVRenderObject@@@2@@Z ; std::_Default_allocator_traits<std::allocator<RenderObject *> >::max_size
PUBLIC	??0?$vector@PEAVRenderObject@@V?$allocator@PEAVRenderObject@@@std@@@std@@QEAA@XZ ; std::vector<RenderObject *,std::allocator<RenderObject *> >::vector<RenderObject *,std::allocator<RenderObject *> >
PUBLIC	??1?$vector@PEAVRenderObject@@V?$allocator@PEAVRenderObject@@@std@@@std@@QEAA@XZ ; std::vector<RenderObject *,std::allocator<RenderObject *> >::~vector<RenderObject *,std::allocator<RenderObject *> >
PUBLIC	?push_back@?$vector@PEAVRenderObject@@V?$allocator@PEAVRenderObject@@@std@@@std@@QEAAX$$QEAPEAVRenderObject@@@Z ; std::vector<RenderObject *,std::allocator<RenderObject *> >::push_back
PUBLIC	?data@?$vector@PEAVRenderObject@@V?$allocator@PEAVRenderObject@@@std@@@std@@QEAAPEAPEAVRenderObject@@XZ ; std::vector<RenderObject *,std::allocator<RenderObject *> >::data
PUBLIC	?size@?$vector@PEAVRenderObject@@V?$allocator@PEAVRenderObject@@@std@@@std@@QEBA_KXZ ; std::vector<RenderObject *,std::allocator<RenderObject *> >::size
PUBLIC	?max_size@?$vector@PEAVRenderObject@@V?$allocator@PEAVRenderObject@@@std@@@std@@QEBA_KXZ ; std::vector<RenderObject *,std::allocator<RenderObject *> >::max_size
PUBLIC	?capacity@?$vector@PEAVRenderObject@@V?$allocator@PEAVRenderObject@@@std@@@std@@QEBA_KXZ ; std::vector<RenderObject *,std::allocator<RenderObject *> >::capacity
PUBLIC	?_Calculate_growth@?$vector@PEAVRenderObject@@V?$allocator@PEAVRenderObject@@@std@@@std@@AEBA_K_K@Z ; std::vector<RenderObject *,std::allocator<RenderObject *> >::_Calculate_growth
PUBLIC	?_Change_array@?$vector@PEAVRenderObject@@V?$allocator@PEAVRenderObject@@@std@@@std@@AEAAXQEAPEAVRenderObject@@_K1@Z ; std::vector<RenderObject *,std::allocator<RenderObject *> >::_Change_array
PUBLIC	?_Tidy@?$vector@PEAVRenderObject@@V?$allocator@PEAVRenderObject@@@std@@@std@@AEAAXXZ ; std::vector<RenderObject *,std::allocator<RenderObject *> >::_Tidy
PUBLIC	?_Xlength@?$vector@PEAVRenderObject@@V?$allocator@PEAVRenderObject@@@std@@@std@@CAXXZ ; std::vector<RenderObject *,std::allocator<RenderObject *> >::_Xlength
PUBLIC	?_Orphan_range_unlocked@?$vector@PEAVRenderObject@@V?$allocator@PEAVRenderObject@@@std@@@std@@AEBAXPEAPEAVRenderObject@@0@Z ; std::vector<RenderObject *,std::allocator<RenderObject *> >::_Orphan_range_unlocked
PUBLIC	?_Orphan_range_locked@?$vector@PEAVRenderObject@@V?$allocator@PEAVRenderObject@@@std@@@std@@AEBAXPEAPEAVRenderObject@@0@Z ; std::vector<RenderObject *,std::allocator<RenderObject *> >::_Orphan_range_locked
PUBLIC	?_Orphan_range@?$vector@PEAVRenderObject@@V?$allocator@PEAVRenderObject@@@std@@@std@@AEBAXPEAPEAVRenderObject@@0@Z ; std::vector<RenderObject *,std::allocator<RenderObject *> >::_Orphan_range
PUBLIC	?_Getal@?$vector@PEAVRenderObject@@V?$allocator@PEAVRenderObject@@@std@@@std@@AEAAAEAV?$allocator@PEAVRenderObject@@@2@XZ ; std::vector<RenderObject *,std::allocator<RenderObject *> >::_Getal
PUBLIC	?_Getal@?$vector@PEAVRenderObject@@V?$allocator@PEAVRenderObject@@@std@@@std@@AEBAAEBV?$allocator@PEAVRenderObject@@@2@XZ ; std::vector<RenderObject *,std::allocator<RenderObject *> >::_Getal
PUBLIC	??0?$_Vector_val@U?$_Simple_types@PEAVRenderObject@@@std@@@std@@QEAA@XZ ; std::_Vector_val<std::_Simple_types<RenderObject *> >::_Vector_val<std::_Simple_types<RenderObject *> >
PUBLIC	?_Get_first@?$_Compressed_pair@V?$allocator@PEAVRenderObject@@@std@@V?$_Vector_val@U?$_Simple_types@PEAVRenderObject@@@std@@@2@$00@std@@QEAAAEAV?$allocator@PEAVRenderObject@@@2@XZ ; std::_Compressed_pair<std::allocator<RenderObject *>,std::_Vector_val<std::_Simple_types<RenderObject *> >,1>::_Get_first
PUBLIC	?_Get_first@?$_Compressed_pair@V?$allocator@PEAVRenderObject@@@std@@V?$_Vector_val@U?$_Simple_types@PEAVRenderObject@@@std@@@2@$00@std@@QEBAAEBV?$allocator@PEAVRenderObject@@@2@XZ ; std::_Compressed_pair<std::allocator<RenderObject *>,std::_Vector_val<std::_Simple_types<RenderObject *> >,1>::_Get_first
PUBLIC	?__autoclassinit2@?$vector@PEAVRenderObject@@V?$allocator@PEAVRenderObject@@@std@@@std@@QEAAX_K@Z ; std::vector<RenderObject *,std::allocator<RenderObject *> >::__autoclassinit2
PUBLIC	??$_Unfancy_maybe_null@PEAVRenderObject@@@std@@YAPEAPEAVRenderObject@@PEAPEAV1@@Z ; std::_Unfancy_maybe_null<RenderObject *>
PUBLIC	??$move@AEAPEAVRenderObject@@@std@@YA$$QEAPEAVRenderObject@@AEAPEAV1@@Z ; std::move<RenderObject * &>
PUBLIC	??$emplace_back@PEAVRenderObject@@@?$vector@PEAVRenderObject@@V?$allocator@PEAVRenderObject@@@std@@@std@@QEAA?A_T$$QEAPEAVRenderObject@@@Z ; std::vector<RenderObject *,std::allocator<RenderObject *> >::emplace_back<RenderObject *>
PUBLIC	??$forward@PEAVRenderObject@@@std@@YA$$QEAPEAVRenderObject@@AEAPEAV1@@Z ; std::forward<RenderObject *>
PUBLIC	??$_Emplace_one_at_back@PEAVRenderObject@@@?$vector@PEAVRenderObject@@V?$allocator@PEAVRenderObject@@@std@@@std@@AEAAAEAPEAVRenderObject@@$$QEAPEAV2@@Z ; std::vector<RenderObject *,std::allocator<RenderObject *> >::_Emplace_one_at_back<RenderObject *>
PUBLIC	?deallocate@?$allocator@U_Container_proxy@std@@@std@@QEAAXQEAU_Container_proxy@2@_K@Z ; std::allocator<std::_Container_proxy>::deallocate
PUBLIC	?allocate@?$allocator@U_Container_proxy@std@@@std@@QEAAPEAU_Container_proxy@2@_K@Z ; std::allocator<std::_Container_proxy>::allocate
PUBLIC	??$?0PEAVRenderObject@@@?$allocator@U_Container_proxy@std@@@std@@QEAA@AEBV?$allocator@PEAVRenderObject@@@1@@Z ; std::allocator<std::_Container_proxy>::allocator<std::_Container_proxy><RenderObject *>
PUBLIC	??$exchange@PEAU_Container_proxy@std@@$$T@std@@YAPEAU_Container_proxy@0@AEAPEAU10@$$QEA$$T@Z ; std::exchange<std::_Container_proxy *,std::nullptr_t>
PUBLIC	??$_Delete_plain_internal@V?$allocator@U_Container_proxy@std@@@std@@@std@@YAXAEAV?$allocator@U_Container_proxy@std@@@0@QEAU_Container_proxy@0@@Z ; std::_Delete_plain_internal<std::allocator<std::_Container_proxy> >
PUBLIC	??$?0$$V@?$_Compressed_pair@V?$allocator@PEAVRenderObject@@@std@@V?$_Vector_val@U?$_Simple_types@PEAVRenderObject@@@std@@@2@$00@std@@QEAA@U_Zero_then_variadic_args_t@1@@Z ; std::_Compressed_pair<std::allocator<RenderObject *>,std::_Vector_val<std::_Simple_types<RenderObject *> >,1>::_Compressed_pair<std::allocator<RenderObject *>,std::_Vector_val<std::_Simple_types<RenderObject *> >,1><>
PUBLIC	??$_Alloc_proxy@V?$allocator@U_Container_proxy@std@@@std@@@_Container_base12@std@@QEAAX$$QEAV?$allocator@U_Container_proxy@std@@@1@@Z ; std::_Container_base12::_Alloc_proxy<std::allocator<std::_Container_proxy> >
PUBLIC	?deallocate@?$allocator@UVkVertexInputAttributeDescription@@@std@@QEAAXQEAUVkVertexInputAttributeDescription@@_K@Z ; std::allocator<VkVertexInputAttributeDescription>::deallocate
PUBLIC	??1?$vector@UVkVertexInputAttributeDescription@@V?$allocator@UVkVertexInputAttributeDescription@@@std@@@std@@QEAA@XZ ; std::vector<VkVertexInputAttributeDescription,std::allocator<VkVertexInputAttributeDescription> >::~vector<VkVertexInputAttributeDescription,std::allocator<VkVertexInputAttributeDescription> >
PUBLIC	?data@?$vector@UVkVertexInputAttributeDescription@@V?$allocator@UVkVertexInputAttributeDescription@@@std@@@std@@QEAAPEAUVkVertexInputAttributeDescription@@XZ ; std::vector<VkVertexInputAttributeDescription,std::allocator<VkVertexInputAttributeDescription> >::data
PUBLIC	?size@?$vector@UVkVertexInputAttributeDescription@@V?$allocator@UVkVertexInputAttributeDescription@@@std@@@std@@QEBA_KXZ ; std::vector<VkVertexInputAttributeDescription,std::allocator<VkVertexInputAttributeDescription> >::size
PUBLIC	?_Tidy@?$vector@UVkVertexInputAttributeDescription@@V?$allocator@UVkVertexInputAttributeDescription@@@std@@@std@@AEAAXXZ ; std::vector<VkVertexInputAttributeDescription,std::allocator<VkVertexInputAttributeDescription> >::_Tidy
PUBLIC	?_Getal@?$vector@UVkVertexInputAttributeDescription@@V?$allocator@UVkVertexInputAttributeDescription@@@std@@@std@@AEAAAEAV?$allocator@UVkVertexInputAttributeDescription@@@2@XZ ; std::vector<VkVertexInputAttributeDescription,std::allocator<VkVertexInputAttributeDescription> >::_Getal
PUBLIC	?_Get_first@?$_Compressed_pair@V?$allocator@UVkVertexInputAttributeDescription@@@std@@V?$_Vector_val@U?$_Simple_types@UVkVertexInputAttributeDescription@@@std@@@2@$00@std@@QEAAAEAV?$allocator@UVkVertexInputAttributeDescription@@@2@XZ ; std::_Compressed_pair<std::allocator<VkVertexInputAttributeDescription>,std::_Vector_val<std::_Simple_types<VkVertexInputAttributeDescription> >,1>::_Get_first
PUBLIC	?__autoclassinit2@?$vector@UVkVertexInputAttributeDescription@@V?$allocator@UVkVertexInputAttributeDescription@@@std@@@std@@QEAAX_K@Z ; std::vector<VkVertexInputAttributeDescription,std::allocator<VkVertexInputAttributeDescription> >::__autoclassinit2
PUBLIC	??$_Unfancy_maybe_null@PEAUVkCommandBuffer_T@@@std@@YAPEAPEAUVkCommandBuffer_T@@PEAPEAU1@@Z ; std::_Unfancy_maybe_null<VkCommandBuffer_T *>
PUBLIC	??$?0PEAUVkCommandBuffer_T@@@?$allocator@U_Container_proxy@std@@@std@@QEAA@AEBV?$allocator@PEAUVkCommandBuffer_T@@@1@@Z ; std::allocator<std::_Container_proxy>::allocator<std::_Container_proxy><VkCommandBuffer_T *>
PUBLIC	??$?0AEBV?$allocator@PEAUVkCommandBuffer_T@@@std@@$$V@?$_Compressed_pair@V?$allocator@PEAUVkCommandBuffer_T@@@std@@V?$_Vector_val@U?$_Simple_types@PEAUVkCommandBuffer_T@@@std@@@2@$00@std@@QEAA@U_One_then_variadic_args_t@1@AEBV?$allocator@PEAUVkCommandBuffer_T@@@1@@Z ; std::_Compressed_pair<std::allocator<VkCommandBuffer_T *>,std::_Vector_val<std::_Simple_types<VkCommandBuffer_T *> >,1>::_Compressed_pair<std::allocator<VkCommandBuffer_T *>,std::_Vector_val<std::_Simple_types<VkCommandBuffer_T *> >,1><std::allocator<VkCommandBuffer_T *> const &>
PUBLIC	??$_Construct_n@$$V@?$vector@PEAUVkCommandBuffer_T@@V?$allocator@PEAUVkCommandBuffer_T@@@std@@@std@@AEAAX_K@Z ; std::vector<VkCommandBuffer_T *,std::allocator<VkCommandBuffer_T *> >::_Construct_n<>
PUBLIC	??$move@AEAUVertex2DTextured@cow@@@std@@YA$$QEAUVertex2DTextured@cow@@AEAU12@@Z ; std::move<cow::Vertex2DTextured &>
PUBLIC	??$emplace_back@UVertex2DTextured@cow@@@?$vector@UVertex2DTextured@cow@@V?$allocator@UVertex2DTextured@cow@@@std@@@std@@QEAA?A_T$$QEAUVertex2DTextured@cow@@@Z ; std::vector<cow::Vertex2DTextured,std::allocator<cow::Vertex2DTextured> >::emplace_back<cow::Vertex2DTextured>
PUBLIC	??$forward@UVertex2DTextured@cow@@@std@@YA$$QEAUVertex2DTextured@cow@@AEAU12@@Z ; std::forward<cow::Vertex2DTextured>
PUBLIC	??$_Emplace_one_at_back@UVertex2DTextured@cow@@@?$vector@UVertex2DTextured@cow@@V?$allocator@UVertex2DTextured@cow@@@std@@@std@@AEAAAEAUVertex2DTextured@cow@@$$QEAU23@@Z ; std::vector<cow::Vertex2DTextured,std::allocator<cow::Vertex2DTextured> >::_Emplace_one_at_back<cow::Vertex2DTextured>
PUBLIC	??$?0UVertex2DTextured@cow@@@?$allocator@U_Container_proxy@std@@@std@@QEAA@AEBV?$allocator@UVertex2DTextured@cow@@@1@@Z ; std::allocator<std::_Container_proxy>::allocator<std::_Container_proxy><cow::Vertex2DTextured>
PUBLIC	??$?0V?$allocator@UVertex2DTextured@cow@@@std@@$$V@?$_Compressed_pair@V?$allocator@UVertex2DTextured@cow@@@std@@V?$_Vector_val@U?$_Simple_types@UVertex2DTextured@cow@@@std@@@2@$00@std@@QEAA@U_One_then_variadic_args_t@1@$$QEAV?$allocator@UVertex2DTextured@cow@@@1@@Z ; std::_Compressed_pair<std::allocator<cow::Vertex2DTextured>,std::_Vector_val<std::_Simple_types<cow::Vertex2DTextured> >,1>::_Compressed_pair<std::allocator<cow::Vertex2DTextured>,std::_Vector_val<std::_Simple_types<cow::Vertex2DTextured> >,1><std::allocator<cow::Vertex2DTextured> >
PUBLIC	??$_Construct_n@AEBQEAUVertex2DTextured@cow@@AEBQEAU12@@?$vector@UVertex2DTextured@cow@@V?$allocator@UVertex2DTextured@cow@@@std@@@std@@AEAAX_KAEBQEAUVertex2DTextured@cow@@1@Z ; std::vector<cow::Vertex2DTextured,std::allocator<cow::Vertex2DTextured> >::_Construct_n<cow::Vertex2DTextured * const &,cow::Vertex2DTextured * const &>
PUBLIC	??$?0$$V@?$_Compressed_pair@V?$allocator@UVertex2DTextured@cow@@@std@@V?$_Vector_val@U?$_Simple_types@UVertex2DTextured@cow@@@std@@@2@$00@std@@QEAA@U_Zero_then_variadic_args_t@1@@Z ; std::_Compressed_pair<std::allocator<cow::Vertex2DTextured>,std::_Vector_val<std::_Simple_types<cow::Vertex2DTextured> >,1>::_Compressed_pair<std::allocator<cow::Vertex2DTextured>,std::_Vector_val<std::_Simple_types<cow::Vertex2DTextured> >,1><>
PUBLIC	??$?0U?$default_delete@VBuffer@cow@@@std@@$0A@@?$unique_ptr@VBuffer@cow@@U?$default_delete@VBuffer@cow@@@std@@@std@@QEAA@XZ ; std::unique_ptr<cow::Buffer,std::default_delete<cow::Buffer> >::unique_ptr<cow::Buffer,std::default_delete<cow::Buffer> ><std::default_delete<cow::Buffer>,0>
PUBLIC	??$make_unique@VBuffer@cow@@AEAVDevice@2@AEA_KW4VkBufferUsageFlagBits@@H$0A@@std@@YA?AV?$unique_ptr@VBuffer@cow@@U?$default_delete@VBuffer@cow@@@std@@@0@AEAVDevice@cow@@AEA_K$$QEAW4VkBufferUsageFlagBits@@$$QEAH@Z ; std::make_unique<cow::Buffer,cow::Device &,unsigned __int64 &,enum VkBufferUsageFlagBits,int,0>
PUBLIC	??$?4U?$default_delete@VBuffer@cow@@@std@@$0A@@?$unique_ptr@VBuffer@cow@@U?$default_delete@VBuffer@cow@@@std@@@std@@QEAAAEAV01@$$QEAV01@@Z ; std::unique_ptr<cow::Buffer,std::default_delete<cow::Buffer> >::operator=<std::default_delete<cow::Buffer>,0>
PUBLIC	??$?0W4VkDynamicState@@@?$allocator@U_Container_proxy@std@@@std@@QEAA@AEBV?$allocator@W4VkDynamicState@@@1@@Z ; std::allocator<std::_Container_proxy>::allocator<std::_Container_proxy><enum VkDynamicState>
PUBLIC	??$?0$$V@?$_Compressed_pair@V?$allocator@W4VkDynamicState@@@std@@V?$_Vector_val@U?$_Simple_types@W4VkDynamicState@@@std@@@2@$00@std@@QEAA@U_Zero_then_variadic_args_t@1@@Z ; std::_Compressed_pair<std::allocator<enum VkDynamicState>,std::_Vector_val<std::_Simple_types<enum VkDynamicState> >,1>::_Compressed_pair<std::allocator<enum VkDynamicState>,std::_Vector_val<std::_Simple_types<enum VkDynamicState> >,1><>
PUBLIC	??0_Sentry_base@?$basic_ostream@DU?$char_traits@D@std@@@std@@QEAA@AEAV12@@Z ; std::basic_ostream<char,std::char_traits<char> >::_Sentry_base::_Sentry_base
PUBLIC	??1_Sentry_base@?$basic_ostream@DU?$char_traits@D@std@@@std@@QEAA@XZ ; std::basic_ostream<char,std::char_traits<char> >::_Sentry_base::~_Sentry_base
PUBLIC	??0sentry@?$basic_ostream@DU?$char_traits@D@std@@@std@@QEAA@AEAV12@@Z ; std::basic_ostream<char,std::char_traits<char> >::sentry::sentry
PUBLIC	??1sentry@?$basic_ostream@DU?$char_traits@D@std@@@std@@QEAA@XZ ; std::basic_ostream<char,std::char_traits<char> >::sentry::~sentry
PUBLIC	??Bsentry@?$basic_ostream@DU?$char_traits@D@std@@@std@@QEBA_NXZ ; std::basic_ostream<char,std::char_traits<char> >::sentry::operator bool
PUBLIC	??$min@_K@std@@YAAEB_KAEB_K0@Z			; std::min<unsigned __int64>
PUBLIC	??0?$_Container_proxy_ptr12@V?$allocator@U_Container_proxy@std@@@std@@@std@@QEAA@AEAV?$allocator@U_Container_proxy@std@@@1@AEAU_Container_base12@1@@Z ; std::_Container_proxy_ptr12<std::allocator<std::_Container_proxy> >::_Container_proxy_ptr12<std::allocator<std::_Container_proxy> >
PUBLIC	??1?$_Container_proxy_ptr12@V?$allocator@U_Container_proxy@std@@@std@@@std@@QEAA@XZ ; std::_Container_proxy_ptr12<std::allocator<std::_Container_proxy> >::~_Container_proxy_ptr12<std::allocator<std::_Container_proxy> >
PUBLIC	??$_Unfancy@U_Container_proxy@std@@@std@@YAPEAU_Container_proxy@0@PEAU10@@Z ; std::_Unfancy<std::_Container_proxy>
PUBLIC	??$_Unfancy_maybe_null@UVkVertexInputAttributeDescription@@@std@@YAPEAUVkVertexInputAttributeDescription@@PEAU1@@Z ; std::_Unfancy_maybe_null<VkVertexInputAttributeDescription>
PUBLIC	??$?0UVkVertexInputAttributeDescription@@@?$allocator@U_Container_proxy@std@@@std@@QEAA@AEBV?$allocator@UVkVertexInputAttributeDescription@@@1@@Z ; std::allocator<std::_Container_proxy>::allocator<std::_Container_proxy><VkVertexInputAttributeDescription>
PUBLIC	??$_Destroy_range@V?$allocator@PEAVRenderObject@@@std@@@std@@YAXPEAPEAVRenderObject@@QEAPEAV1@AEAV?$allocator@PEAVRenderObject@@@0@@Z ; std::_Destroy_range<std::allocator<RenderObject *> >
PUBLIC	??$_Destroy_range@V?$allocator@PEAUVkCommandBuffer_T@@@std@@@std@@YAXPEAPEAUVkCommandBuffer_T@@QEAPEAU1@AEAV?$allocator@PEAUVkCommandBuffer_T@@@0@@Z ; std::_Destroy_range<std::allocator<VkCommandBuffer_T *> >
PUBLIC	??$_Destroy_range@V?$allocator@UVertex2DTextured@cow@@@std@@@std@@YAXPEAUVertex2DTextured@cow@@QEAU12@AEAV?$allocator@UVertex2DTextured@cow@@@0@@Z ; std::_Destroy_range<std::allocator<cow::Vertex2DTextured> >
PUBLIC	??$_Unfancy_maybe_null@UVertex2DTextured@cow@@@std@@YAPEAUVertex2DTextured@cow@@PEAU12@@Z ; std::_Unfancy_maybe_null<cow::Vertex2DTextured>
PUBLIC	??$_Destroy_range@V?$allocator@W4VkDynamicState@@@std@@@std@@YAXPEAW4VkDynamicState@@QEAW41@AEAV?$allocator@W4VkDynamicState@@@0@@Z ; std::_Destroy_range<std::allocator<enum VkDynamicState> >
PUBLIC	??$_Allocate@$0BA@U_Default_allocate_traits@std@@$0A@@std@@YAPEAX_K@Z ; std::_Allocate<16,std::_Default_allocate_traits,0>
PUBLIC	??$_Deallocate@$0BA@$0A@@std@@YAXPEAX_K@Z	; std::_Deallocate<16,0>
PUBLIC	??$_Destroy_range@V?$allocator@UVkVertexInputAttributeDescription@@@std@@@std@@YAXPEAUVkVertexInputAttributeDescription@@QEAU1@AEAV?$allocator@UVkVertexInputAttributeDescription@@@0@@Z ; std::_Destroy_range<std::allocator<VkVertexInputAttributeDescription> >
PUBLIC	??$_Get_size_of_n@$0BA@@std@@YA_K_K@Z		; std::_Get_size_of_n<16>
PUBLIC	??$addressof@U_Container_proxy@std@@@std@@YAPEAU_Container_proxy@0@AEAU10@@Z ; std::addressof<std::_Container_proxy>
PUBLIC	??$_Voidify_iter@PEAU_Container_proxy@std@@@std@@YAPEAXPEAU_Container_proxy@0@@Z ; std::_Voidify_iter<std::_Container_proxy *>
PUBLIC	??$forward@PEAU_Container_base12@std@@@std@@YA$$QEAPEAU_Container_base12@0@AEAPEAU10@@Z ; std::forward<std::_Container_base12 *>
PUBLIC	??$construct_at@U_Container_proxy@std@@PEAU_Container_base12@2@X@std@@YAPEAU_Container_proxy@0@QEAU10@$$QEAPEAU_Container_base12@0@@Z ; std::construct_at<std::_Container_proxy,std::_Container_base12 *,void>
PUBLIC	??$forward@H@std@@YA$$QEAHAEAH@Z		; std::forward<int>
PUBLIC	??$_Emplace_back_with_unused_capacity@PEAVRenderObject@@@?$vector@PEAVRenderObject@@V?$allocator@PEAVRenderObject@@@std@@@std@@AEAAAEAPEAVRenderObject@@$$QEAPEAV2@@Z ; std::vector<RenderObject *,std::allocator<RenderObject *> >::_Emplace_back_with_unused_capacity<RenderObject *>
PUBLIC	??$_Emplace_reallocate@PEAVRenderObject@@@?$vector@PEAVRenderObject@@V?$allocator@PEAVRenderObject@@@std@@@std@@AEAAPEAPEAVRenderObject@@QEAPEAV2@$$QEAPEAV2@@Z ; std::vector<RenderObject *,std::allocator<RenderObject *> >::_Emplace_reallocate<RenderObject *>
PUBLIC	??$_Deallocate_plain@V?$allocator@U_Container_proxy@std@@@std@@@std@@YAXAEAV?$allocator@U_Container_proxy@std@@@0@QEAU_Container_proxy@0@@Z ; std::_Deallocate_plain<std::allocator<std::_Container_proxy> >
PUBLIC	??$forward@AEBV?$allocator@PEAUVkCommandBuffer_T@@@std@@@std@@YAAEBV?$allocator@PEAUVkCommandBuffer_T@@@0@AEBV10@@Z ; std::forward<std::allocator<VkCommandBuffer_T *> const &>
PUBLIC	??1?$_Tidy_guard@V?$vector@PEAUVkCommandBuffer_T@@V?$allocator@PEAUVkCommandBuffer_T@@@std@@@std@@@std@@QEAA@XZ ; std::_Tidy_guard<std::vector<VkCommandBuffer_T *,std::allocator<VkCommandBuffer_T *> > >::~_Tidy_guard<std::vector<VkCommandBuffer_T *,std::allocator<VkCommandBuffer_T *> > >
PUBLIC	??$_Uninitialized_value_construct_n@V?$allocator@PEAUVkCommandBuffer_T@@@std@@@std@@YAPEAPEAUVkCommandBuffer_T@@PEAPEAU1@_KAEAV?$allocator@PEAUVkCommandBuffer_T@@@0@@Z ; std::_Uninitialized_value_construct_n<std::allocator<VkCommandBuffer_T *> >
PUBLIC	??$_Emplace_back_with_unused_capacity@UVertex2DTextured@cow@@@?$vector@UVertex2DTextured@cow@@V?$allocator@UVertex2DTextured@cow@@@std@@@std@@AEAAAEAUVertex2DTextured@cow@@$$QEAU23@@Z ; std::vector<cow::Vertex2DTextured,std::allocator<cow::Vertex2DTextured> >::_Emplace_back_with_unused_capacity<cow::Vertex2DTextured>
PUBLIC	??$_Emplace_reallocate@UVertex2DTextured@cow@@@?$vector@UVertex2DTextured@cow@@V?$allocator@UVertex2DTextured@cow@@@std@@@std@@AEAAPEAUVertex2DTextured@cow@@QEAU23@$$QEAU23@@Z ; std::vector<cow::Vertex2DTextured,std::allocator<cow::Vertex2DTextured> >::_Emplace_reallocate<cow::Vertex2DTextured>
PUBLIC	??$forward@V?$allocator@UVertex2DTextured@cow@@@std@@@std@@YA$$QEAV?$allocator@UVertex2DTextured@cow@@@0@AEAV10@@Z ; std::forward<std::allocator<cow::Vertex2DTextured> >
PUBLIC	??1?$_Tidy_guard@V?$vector@UVertex2DTextured@cow@@V?$allocator@UVertex2DTextured@cow@@@std@@@std@@@std@@QEAA@XZ ; std::_Tidy_guard<std::vector<cow::Vertex2DTextured,std::allocator<cow::Vertex2DTextured> > >::~_Tidy_guard<std::vector<cow::Vertex2DTextured,std::allocator<cow::Vertex2DTextured> > >
PUBLIC	??$forward@AEBQEAUVertex2DTextured@cow@@@std@@YAAEBQEAUVertex2DTextured@cow@@AEBQEAU12@@Z ; std::forward<cow::Vertex2DTextured * const &>
PUBLIC	??$_Uninitialized_copy@PEAUVertex2DTextured@cow@@V?$allocator@UVertex2DTextured@cow@@@std@@@std@@YAPEAUVertex2DTextured@cow@@QEAU12@0PEAU12@AEAV?$allocator@UVertex2DTextured@cow@@@0@@Z ; std::_Uninitialized_copy<cow::Vertex2DTextured *,std::allocator<cow::Vertex2DTextured> >
PUBLIC	??$?0$$V@?$_Compressed_pair@U?$default_delete@VBuffer@cow@@@std@@PEAVBuffer@cow@@$00@std@@QEAA@U_Zero_then_variadic_args_t@1@@Z ; std::_Compressed_pair<std::default_delete<cow::Buffer>,cow::Buffer *,1>::_Compressed_pair<std::default_delete<cow::Buffer>,cow::Buffer *,1><>
PUBLIC	??$forward@AEAVDevice@cow@@@std@@YAAEAVDevice@cow@@AEAV12@@Z ; std::forward<cow::Device &>
PUBLIC	??$forward@AEA_K@std@@YAAEA_KAEA_K@Z		; std::forward<unsigned __int64 &>
PUBLIC	??$forward@W4VkBufferUsageFlagBits@@@std@@YA$$QEAW4VkBufferUsageFlagBits@@AEAW41@@Z ; std::forward<enum VkBufferUsageFlagBits>
PUBLIC	??$?0U?$default_delete@VBuffer@cow@@@std@@$0A@@?$unique_ptr@VBuffer@cow@@U?$default_delete@VBuffer@cow@@@std@@@std@@QEAA@PEAVBuffer@cow@@@Z ; std::unique_ptr<cow::Buffer,std::default_delete<cow::Buffer> >::unique_ptr<cow::Buffer,std::default_delete<cow::Buffer> ><std::default_delete<cow::Buffer>,0>
PUBLIC	??$addressof@V?$unique_ptr@VBuffer@cow@@U?$default_delete@VBuffer@cow@@@std@@@std@@@std@@YAPEAV?$unique_ptr@VBuffer@cow@@U?$default_delete@VBuffer@cow@@@std@@@0@AEAV10@@Z ; std::addressof<std::unique_ptr<cow::Buffer,std::default_delete<cow::Buffer> > >
PUBLIC	??$forward@U?$default_delete@VBuffer@cow@@@std@@@std@@YA$$QEAU?$default_delete@VBuffer@cow@@@0@AEAU10@@Z ; std::forward<std::default_delete<cow::Buffer> >
PUBLIC	??$_Allocate_manually_vector_aligned@U_Default_allocate_traits@std@@@std@@YAPEAX_K@Z ; std::_Allocate_manually_vector_aligned<std::_Default_allocate_traits>
PUBLIC	??$exchange@PEAVBuffer@cow@@AEAPEAV12@@std@@YAPEAVBuffer@cow@@AEAPEAV12@0@Z ; std::exchange<cow::Buffer *,cow::Buffer * &>
PUBLIC	??$exchange@PEAVBuffer@cow@@$$T@std@@YAPEAVBuffer@cow@@AEAPEAV12@$$QEA$$T@Z ; std::exchange<cow::Buffer *,std::nullptr_t>
PUBLIC	??$_Get_size_of_n@$07@std@@YA_K_K@Z		; std::_Get_size_of_n<8>
PUBLIC	??$_Construct_in_place@PEAVRenderObject@@PEAV1@@std@@YAXAEAPEAVRenderObject@@$$QEAPEAV1@@Z ; std::_Construct_in_place<RenderObject *,RenderObject *>
PUBLIC	??$_Unfancy@PEAVRenderObject@@@std@@YAPEAPEAVRenderObject@@PEAPEAV1@@Z ; std::_Unfancy<RenderObject *>
PUBLIC	??$construct@PEAVRenderObject@@PEAV1@@?$_Default_allocator_traits@V?$allocator@PEAVRenderObject@@@std@@@std@@SAXAEAV?$allocator@PEAVRenderObject@@@1@QEAPEAVRenderObject@@$$QEAPEAV3@@Z ; std::_Default_allocator_traits<std::allocator<RenderObject *> >::construct<RenderObject *,RenderObject *>
PUBLIC	??$_Uninitialized_move@PEAPEAVRenderObject@@V?$allocator@PEAVRenderObject@@@std@@@std@@YAPEAPEAVRenderObject@@QEAPEAV1@0PEAPEAV1@AEAV?$allocator@PEAVRenderObject@@@0@@Z ; std::_Uninitialized_move<RenderObject * *,std::allocator<RenderObject *> >
PUBLIC	?deallocate@?$_Default_allocator_traits@V?$allocator@U_Container_proxy@std@@@std@@@std@@SAXAEAV?$allocator@U_Container_proxy@std@@@2@QEAU_Container_proxy@2@_K@Z ; std::_Default_allocator_traits<std::allocator<std::_Container_proxy> >::deallocate
PUBLIC	??$_Unfancy@PEAUVkCommandBuffer_T@@@std@@YAPEAPEAUVkCommandBuffer_T@@PEAPEAU1@@Z ; std::_Unfancy<VkCommandBuffer_T *>
PUBLIC	??$_Zero_range@PEAPEAUVkCommandBuffer_T@@@std@@YAPEAPEAUVkCommandBuffer_T@@QEAPEAU1@0@Z ; std::_Zero_range<VkCommandBuffer_T * *>
PUBLIC	??0?$_Uninitialized_backout_al@V?$allocator@PEAUVkCommandBuffer_T@@@std@@@std@@QEAA@PEAPEAUVkCommandBuffer_T@@AEAV?$allocator@PEAUVkCommandBuffer_T@@@1@@Z ; std::_Uninitialized_backout_al<std::allocator<VkCommandBuffer_T *> >::_Uninitialized_backout_al<std::allocator<VkCommandBuffer_T *> >
PUBLIC	??1?$_Uninitialized_backout_al@V?$allocator@PEAUVkCommandBuffer_T@@@std@@@std@@QEAA@XZ ; std::_Uninitialized_backout_al<std::allocator<VkCommandBuffer_T *> >::~_Uninitialized_backout_al<std::allocator<VkCommandBuffer_T *> >
PUBLIC	?_Release@?$_Uninitialized_backout_al@V?$allocator@PEAUVkCommandBuffer_T@@@std@@@std@@QEAAPEAPEAUVkCommandBuffer_T@@XZ ; std::_Uninitialized_backout_al<std::allocator<VkCommandBuffer_T *> >::_Release
PUBLIC	?__autoclassinit2@?$_Uninitialized_backout_al@V?$allocator@PEAUVkCommandBuffer_T@@@std@@@std@@QEAAX_K@Z ; std::_Uninitialized_backout_al<std::allocator<VkCommandBuffer_T *> >::__autoclassinit2
PUBLIC	??$_Emplace_back@$$V@?$_Uninitialized_backout_al@V?$allocator@PEAUVkCommandBuffer_T@@@std@@@std@@QEAAXXZ ; std::_Uninitialized_backout_al<std::allocator<VkCommandBuffer_T *> >::_Emplace_back<>
PUBLIC	??$_Construct_in_place@UVertex2DTextured@cow@@U12@@std@@YAXAEAUVertex2DTextured@cow@@$$QEAU12@@Z ; std::_Construct_in_place<cow::Vertex2DTextured,cow::Vertex2DTextured>
PUBLIC	??$_Unfancy@UVertex2DTextured@cow@@@std@@YAPEAUVertex2DTextured@cow@@PEAU12@@Z ; std::_Unfancy<cow::Vertex2DTextured>
PUBLIC	??$construct@UVertex2DTextured@cow@@U12@@?$_Default_allocator_traits@V?$allocator@UVertex2DTextured@cow@@@std@@@std@@SAXAEAV?$allocator@UVertex2DTextured@cow@@@1@QEAUVertex2DTextured@cow@@$$QEAU34@@Z ; std::_Default_allocator_traits<std::allocator<cow::Vertex2DTextured> >::construct<cow::Vertex2DTextured,cow::Vertex2DTextured>
PUBLIC	??$_Uninitialized_move@PEAUVertex2DTextured@cow@@V?$allocator@UVertex2DTextured@cow@@@std@@@std@@YAPEAUVertex2DTextured@cow@@QEAU12@0PEAU12@AEAV?$allocator@UVertex2DTextured@cow@@@0@@Z ; std::_Uninitialized_move<cow::Vertex2DTextured *,std::allocator<cow::Vertex2DTextured> >
PUBLIC	??$_Get_unwrapped@AEBQEAUVertex2DTextured@cow@@@std@@YA?A_TAEBQEAUVertex2DTextured@cow@@@Z ; std::_Get_unwrapped<cow::Vertex2DTextured * const &>
PUBLIC	??$_Copy_memmove@PEAUVertex2DTextured@cow@@PEAU12@@std@@YAPEAUVertex2DTextured@cow@@PEAU12@00@Z ; std::_Copy_memmove<cow::Vertex2DTextured *,cow::Vertex2DTextured *>
PUBLIC	??0?$_Uninitialized_backout_al@V?$allocator@UVertex2DTextured@cow@@@std@@@std@@QEAA@PEAUVertex2DTextured@cow@@AEAV?$allocator@UVertex2DTextured@cow@@@1@@Z ; std::_Uninitialized_backout_al<std::allocator<cow::Vertex2DTextured> >::_Uninitialized_backout_al<std::allocator<cow::Vertex2DTextured> >
PUBLIC	??1?$_Uninitialized_backout_al@V?$allocator@UVertex2DTextured@cow@@@std@@@std@@QEAA@XZ ; std::_Uninitialized_backout_al<std::allocator<cow::Vertex2DTextured> >::~_Uninitialized_backout_al<std::allocator<cow::Vertex2DTextured> >
PUBLIC	?_Release@?$_Uninitialized_backout_al@V?$allocator@UVertex2DTextured@cow@@@std@@@std@@QEAAPEAUVertex2DTextured@cow@@XZ ; std::_Uninitialized_backout_al<std::allocator<cow::Vertex2DTextured> >::_Release
PUBLIC	?__autoclassinit2@?$_Uninitialized_backout_al@V?$allocator@UVertex2DTextured@cow@@@std@@@std@@QEAAX_K@Z ; std::_Uninitialized_backout_al<std::allocator<cow::Vertex2DTextured> >::__autoclassinit2
PUBLIC	??$_Emplace_back@AEAUVertex2DTextured@cow@@@?$_Uninitialized_backout_al@V?$allocator@UVertex2DTextured@cow@@@std@@@std@@QEAAXAEAUVertex2DTextured@cow@@@Z ; std::_Uninitialized_backout_al<std::allocator<cow::Vertex2DTextured> >::_Emplace_back<cow::Vertex2DTextured &>
PUBLIC	??$?0AEAPEAVBuffer@cow@@@?$_Compressed_pair@U?$default_delete@VBuffer@cow@@@std@@PEAVBuffer@cow@@$00@std@@QEAA@U_Zero_then_variadic_args_t@1@AEAPEAVBuffer@cow@@@Z ; std::_Compressed_pair<std::default_delete<cow::Buffer>,cow::Buffer *,1>::_Compressed_pair<std::default_delete<cow::Buffer>,cow::Buffer *,1><cow::Buffer * &>
PUBLIC	??$addressof@PEAVRenderObject@@@std@@YAPEAPEAVRenderObject@@AEAPEAV1@@Z ; std::addressof<RenderObject *>
PUBLIC	??$construct_at@PEAVRenderObject@@PEAV1@X@std@@YAPEAPEAVRenderObject@@QEAPEAV1@$$QEAPEAV1@@Z ; std::construct_at<RenderObject *,RenderObject *,void>
PUBLIC	??$_Voidify_iter@PEAPEAVRenderObject@@@std@@YAPEAXPEAPEAVRenderObject@@@Z ; std::_Voidify_iter<RenderObject * *>
PUBLIC	??$_Get_unwrapped@AEBQEAPEAVRenderObject@@@std@@YA?A_TAEBQEAPEAVRenderObject@@@Z ; std::_Get_unwrapped<RenderObject * * const &>
PUBLIC	??$_Copy_memmove@PEAPEAVRenderObject@@PEAPEAV1@@std@@YAPEAPEAVRenderObject@@PEAPEAV1@00@Z ; std::_Copy_memmove<RenderObject * *,RenderObject * *>
PUBLIC	??0?$_Uninitialized_backout_al@V?$allocator@PEAVRenderObject@@@std@@@std@@QEAA@PEAPEAVRenderObject@@AEAV?$allocator@PEAVRenderObject@@@1@@Z ; std::_Uninitialized_backout_al<std::allocator<RenderObject *> >::_Uninitialized_backout_al<std::allocator<RenderObject *> >
PUBLIC	??1?$_Uninitialized_backout_al@V?$allocator@PEAVRenderObject@@@std@@@std@@QEAA@XZ ; std::_Uninitialized_backout_al<std::allocator<RenderObject *> >::~_Uninitialized_backout_al<std::allocator<RenderObject *> >
PUBLIC	?_Release@?$_Uninitialized_backout_al@V?$allocator@PEAVRenderObject@@@std@@@std@@QEAAPEAPEAVRenderObject@@XZ ; std::_Uninitialized_backout_al<std::allocator<RenderObject *> >::_Release
PUBLIC	?__autoclassinit2@?$_Uninitialized_backout_al@V?$allocator@PEAVRenderObject@@@std@@@std@@QEAAX_K@Z ; std::_Uninitialized_backout_al<std::allocator<RenderObject *> >::__autoclassinit2
PUBLIC	??$_Emplace_back@PEAVRenderObject@@@?$_Uninitialized_backout_al@V?$allocator@PEAVRenderObject@@@std@@@std@@QEAAX$$QEAPEAVRenderObject@@@Z ; std::_Uninitialized_backout_al<std::allocator<RenderObject *> >::_Emplace_back<RenderObject *>
PUBLIC	??$_To_address@PEAPEAUVkCommandBuffer_T@@@std@@YA?A_PAEBQEAPEAUVkCommandBuffer_T@@@Z ; std::_To_address<VkCommandBuffer_T * *>
PUBLIC	??$to_address@PEAUVkCommandBuffer_T@@@std@@YAPEAPEAUVkCommandBuffer_T@@QEAPEAU1@@Z ; std::to_address<VkCommandBuffer_T *>
PUBLIC	??$construct@PEAUVkCommandBuffer_T@@$$V@?$_Default_allocator_traits@V?$allocator@PEAUVkCommandBuffer_T@@@std@@@std@@SAXAEAV?$allocator@PEAUVkCommandBuffer_T@@@1@QEAPEAUVkCommandBuffer_T@@@Z ; std::_Default_allocator_traits<std::allocator<VkCommandBuffer_T *> >::construct<VkCommandBuffer_T *>
PUBLIC	??$addressof@UVertex2DTextured@cow@@@std@@YAPEAUVertex2DTextured@cow@@AEAU12@@Z ; std::addressof<cow::Vertex2DTextured>
PUBLIC	??$construct_at@UVertex2DTextured@cow@@U12@X@std@@YAPEAUVertex2DTextured@cow@@QEAU12@$$QEAU12@@Z ; std::construct_at<cow::Vertex2DTextured,cow::Vertex2DTextured,void>
PUBLIC	??$_Voidify_iter@PEAUVertex2DTextured@cow@@@std@@YAPEAXPEAUVertex2DTextured@cow@@@Z ; std::_Voidify_iter<cow::Vertex2DTextured *>
PUBLIC	??$_Emplace_back@UVertex2DTextured@cow@@@?$_Uninitialized_backout_al@V?$allocator@UVertex2DTextured@cow@@@std@@@std@@QEAAX$$QEAUVertex2DTextured@cow@@@Z ; std::_Uninitialized_backout_al<std::allocator<cow::Vertex2DTextured> >::_Emplace_back<cow::Vertex2DTextured>
PUBLIC	??$_To_address@PEAUVertex2DTextured@cow@@@std@@YA?A_PAEBQEAUVertex2DTextured@cow@@@Z ; std::_To_address<cow::Vertex2DTextured *>
PUBLIC	??$to_address@UVertex2DTextured@cow@@@std@@YAPEAUVertex2DTextured@cow@@QEAU12@@Z ; std::to_address<cow::Vertex2DTextured>
PUBLIC	??$forward@AEAUVertex2DTextured@cow@@@std@@YAAEAUVertex2DTextured@cow@@AEAU12@@Z ; std::forward<cow::Vertex2DTextured &>
PUBLIC	??$construct@UVertex2DTextured@cow@@AEAU12@@?$_Default_allocator_traits@V?$allocator@UVertex2DTextured@cow@@@std@@@std@@SAXAEAV?$allocator@UVertex2DTextured@cow@@@1@QEAUVertex2DTextured@cow@@AEAU34@@Z ; std::_Default_allocator_traits<std::allocator<cow::Vertex2DTextured> >::construct<cow::Vertex2DTextured,cow::Vertex2DTextured &>
PUBLIC	??$forward@AEAPEAVBuffer@cow@@@std@@YAAEAPEAVBuffer@cow@@AEAPEAV12@@Z ; std::forward<cow::Buffer * &>
PUBLIC	??$_To_address@PEAPEAVRenderObject@@@std@@YA?A_PAEBQEAPEAVRenderObject@@@Z ; std::_To_address<RenderObject * *>
PUBLIC	??$to_address@PEAVRenderObject@@@std@@YAPEAPEAVRenderObject@@QEAPEAV1@@Z ; std::to_address<RenderObject *>
PUBLIC	??$construct_at@PEAUVkCommandBuffer_T@@$$VX@std@@YAPEAPEAUVkCommandBuffer_T@@QEAPEAU1@@Z ; std::construct_at<VkCommandBuffer_T *,void>
PUBLIC	??$_Voidify_iter@PEAPEAUVkCommandBuffer_T@@@std@@YAPEAXPEAPEAUVkCommandBuffer_T@@@Z ; std::_Voidify_iter<VkCommandBuffer_T * *>
PUBLIC	??$construct_at@UVertex2DTextured@cow@@AEAU12@X@std@@YAPEAUVertex2DTextured@cow@@QEAU12@AEAU12@@Z ; std::construct_at<cow::Vertex2DTextured,cow::Vertex2DTextured &,void>
PUBLIC	__JustMyCode_Default
PUBLIC	??_7exception@std@@6B@				; std::exception::`vftable'
PUBLIC	??_C@_0BC@EOODALEL@Unknown?5exception@		; `string'
PUBLIC	??_7bad_alloc@std@@6B@				; std::bad_alloc::`vftable'
PUBLIC	??_7bad_array_new_length@std@@6B@		; std::bad_array_new_length::`vftable'
PUBLIC	??_C@_0BF@KINCDENJ@bad?5array?5new?5length@	; `string'
PUBLIC	_TI3?AVbad_array_new_length@std@@
PUBLIC	_CTA3?AVbad_array_new_length@std@@
PUBLIC	??_R0?AVbad_array_new_length@std@@@8		; std::bad_array_new_length `RTTI Type Descriptor'
PUBLIC	_CT??_R0?AVbad_array_new_length@std@@@8??0bad_array_new_length@std@@QEAA@AEBV01@@Z24
PUBLIC	??_R0?AVbad_alloc@std@@@8			; std::bad_alloc `RTTI Type Descriptor'
PUBLIC	_CT??_R0?AVbad_alloc@std@@@8??0bad_alloc@std@@QEAA@AEBV01@@Z24
PUBLIC	??_R0?AVexception@std@@@8			; std::exception `RTTI Type Descriptor'
PUBLIC	_CT??_R0?AVexception@std@@@8??0exception@std@@QEAA@AEBV01@@Z24
PUBLIC	?__LINE__Var@?0??_Adjust_manually_vector_aligned@std@@YAXAEAPEAXAEA_K@Z@4JA ; `std::_Adjust_manually_vector_aligned'::`1'::__LINE__Var
PUBLIC	??_C@_0BB@FCMFBGOM@invalid?5argument@		; `string'
PUBLIC	??_C@_02DKCKIIND@?$CFs@				; `string'
PUBLIC	??_C@_0GC@DJFHHHKN@C?3?2Program?5Files?2Microsoft?5Visu@ ; `string'
PUBLIC	??_C@_1ME@GEFGDEOM@?$AAC?$AA?3?$AA?2?$AAP?$AAr?$AAo?$AAg?$AAr?$AAa?$AAm?$AA?5?$AAF?$AAi?$AAl?$AAe@ ; `string'
PUBLIC	??_C@_11LOCGONAA@@				; `string'
PUBLIC	??_C@_1CG@JNLFBNGN@?$AA?$CC?$AAi?$AAn?$AAv?$AAa?$AAl?$AAi?$AAd?$AA?5?$AAa?$AAr?$AAg?$AAu?$AAm?$AAe@ ; `string'
PUBLIC	??_7logic_error@std@@6B@			; std::logic_error::`vftable'
PUBLIC	??_7invalid_argument@std@@6B@			; std::invalid_argument::`vftable'
PUBLIC	??_7runtime_error@std@@6B@			; std::runtime_error::`vftable'
PUBLIC	??_R0?AVruntime_error@std@@@8			; std::runtime_error `RTTI Type Descriptor'
PUBLIC	_CT??_R0?AVruntime_error@std@@@8??0runtime_error@std@@QEAA@AEBV01@@Z24
PUBLIC	??_C@_00CNPNBAHC@@				; `string'
PUBLIC	??_C@_0GC@JBJLEFAK@C?3?2Program?5Files?2Microsoft?5Visu@ ; `string'
PUBLIC	?__LINE__Var@?0??_Maklocwcs@std@@YAPEA_WPEB_W@Z@4JA ; `std::_Maklocwcs'::`1'::__LINE__Var
PUBLIC	??_C@_0GC@BCNGEHKL@C?3?2Program?5Files?2Microsoft?5Visu@ ; `string'
PUBLIC	_TI2?AVruntime_error@std@@
PUBLIC	_CTA2?AVruntime_error@std@@
PUBLIC	??_C@_0CA@IGKKDGOC@failed?5to?5create?5vertex?5buffer?$CB@ ; `string'
PUBLIC	??_C@_0CJ@NNDFOAFL@failed?5to?5allocate?5vertex?5buffe@ ; `string'
PUBLIC	?currentId@?1??create@EmptyObject@cow@@SA?AV23@XZ@4IA ; `cow::EmptyObject::create'::`2'::currentId
PUBLIC	??_C@_0BD@CBEDEJPH@unknown?5image?5type@	; `string'
PUBLIC	??_C@_08NOGIMCHF@outofmem@			; `string'
PUBLIC	?__LINE__Var@?0??stbi__load_and_postprocess_8bit@@YAPEAEPEAUstbi__context@@PEAH11H@Z@4JA ; `stbi__load_and_postprocess_8bit'::`1'::__LINE__Var
PUBLIC	??_C@_1IM@FNPNPBCD@?$AAC?$AA?3?$AA?2?$AAU?$AAs?$AAe?$AAr?$AAs?$AA?2?$AAa?$AAn?$AAt?$AAo?$AAn?$AA?2@ ; `string'
PUBLIC	??_C@_1GM@LFNCFCEN@?$AAr?$AAi?$AA?4?$AAb?$AAi?$AAt?$AAs?$AA_?$AAp?$AAe?$AAr?$AA_?$AAc?$AAh?$AAa@ ; `string'
PUBLIC	?__LINE__Var@?0??stbi__load_and_postprocess_16bit@@YAPEAGPEAUstbi__context@@PEAH11H@Z@4JA ; `stbi__load_and_postprocess_16bit'::`1'::__LINE__Var
PUBLIC	??_C@_02JDPG@rb@				; `string'
PUBLIC	??_C@_0M@JPDHFAGK@can?8t?5fopen@		; `string'
PUBLIC	?__LINE__Var@?0??stbi__convert_format@@YAPEAEPEAEHHII@Z@4JA ; `stbi__convert_format'::`1'::__LINE__Var
PUBLIC	??_C@_1DO@MABJBNAJ@?$AAr?$AAe?$AAq?$AA_?$AAc?$AAo?$AAm?$AAp?$AA?5?$AA?$DO?$AA?$DN?$AA?5?$AA1?$AA?5?$AA?$CG@ ; `string'
PUBLIC	??_C@_13COJANIEC@?$AA0@				; `string'
PUBLIC	??_C@_0M@MHDBFHD@unsupported@			; `string'
PUBLIC	?__LINE__Var@?0??stbi__convert_format16@@YAPEAGPEAGHHII@Z@4JA ; `stbi__convert_format16'::`1'::__LINE__Var
PUBLIC	??_C@_0BB@FOKGPEKG@bad?5code?5lengths@		; `string'
PUBLIC	?__LINE__Var@?0??stbi__jpeg_huff_decode@@YAHPEAUstbi__jpeg@@PEAUstbi__huffman@@@Z@4JA ; `stbi__jpeg_huff_decode'::`1'::__LINE__Var
PUBLIC	??_C@_1KE@JGKPJEBO@?$AA?$CI?$AA?$CI?$AA?$CI?$AAj?$AA?9?$AA?$DO?$AAc?$AAo?$AAd?$AAe?$AA_?$AAb?$AAu?$AAf?$AAf@ ; `string'
PUBLIC	??_C@_0BB@IIMLINA@bad?5huffman?5code@		; `string'
PUBLIC	??_C@_0BG@PJBJDAGM@can?8t?5merge?5dc?5and?5ac@	; `string'
PUBLIC	??_C@_0BA@KLNDOKJD@expected?5marker@		; `string'
PUBLIC	??_C@_0M@LPHNODCG@bad?5DRI?5len@		; `string'
PUBLIC	??_C@_0N@BOFJCHAP@bad?5DQT?5type@		; `string'
PUBLIC	??_C@_0O@CNHKKDIM@bad?5DQT?5table@		; `string'
PUBLIC	??_C@_0P@JLGKOCGN@bad?5DHT?5header@		; `string'
PUBLIC	??_C@_0M@CICAFFCH@bad?5COM?5len@		; `string'
PUBLIC	??_C@_0M@EENLKPDI@bad?5APP?5len@		; `string'
PUBLIC	??_C@_0P@NNGPHMMK@unknown?5marker@		; `string'
PUBLIC	??_C@_0BI@DHFJCMBA@bad?5SOS?5component?5count@	; `string'
PUBLIC	??_C@_0M@GNEHAHOH@bad?5SOS?5len@		; `string'
PUBLIC	??_C@_0M@NOCCBFAC@bad?5DC?5huff@		; `string'
PUBLIC	??_C@_0M@JGMCBLGG@bad?5AC?5huff@		; `string'
PUBLIC	??_C@_07EEJOMGGP@bad?5SOS@			; `string'
PUBLIC	??_C@_0M@DOFMJEMP@bad?5SOF?5len@		; `string'
PUBLIC	??_C@_0L@BCINMEBJ@only?58?9bit@			; `string'
PUBLIC	??_C@_0BB@LNEGOMA@no?5header?5height@		; `string'
PUBLIC	??_C@_07BIDACDEF@0?5width@			; `string'
PUBLIC	??_C@_09OJDLMMBJ@too?5large@			; `string'
PUBLIC	??_C@_0BE@DAPHADHL@bad?5component?5count@	; `string'
PUBLIC	??_C@_05BLPKENEJ@bad?5H@			; `string'
PUBLIC	??_C@_05MPLLHCJG@bad?5V@			; `string'
PUBLIC	??_C@_06LJIHDFHI@bad?5TQ@			; `string'
PUBLIC	??_C@_06CLMBLEP@no?5SOI@			; `string'
PUBLIC	??_C@_06IFCEAHIA@no?5SOF@			; `string'
PUBLIC	??_C@_0M@EPMOIECP@bad?5DNL?5len@		; `string'
PUBLIC	??_C@_0P@PNCLKCLJ@bad?5DNL?5height@		; `string'
PUBLIC	??_C@_0N@KBPNPPBJ@bad?5req_comp@		; `string'
PUBLIC	?__LINE__Var@?0??stbi__bit_reverse@@YAHHH@Z@4JA	; `stbi__bit_reverse'::`1'::__LINE__Var
PUBLIC	??_C@_1BG@HKNLHECB@?$AAb?$AAi?$AAt?$AAs?$AA?5?$AA?$DM?$AA?$DN?$AA?5?$AA1?$AA6@ ; `string'
PUBLIC	??_C@_09EOHLEIKL@bad?5sizes@			; `string'
PUBLIC	??_C@_0BA@MDNKOBMC@bad?5codelengths@		; `string'
PUBLIC	??_C@_0BE@IBFIPFO@output?5buffer?5limit@	; `string'
PUBLIC	??_C@_08DIAPIMGJ@bad?5dist@			; `string'
PUBLIC	??_C@_0N@IECDHMDI@zlib?5corrupt@		; `string'
PUBLIC	??_C@_0BB@PIPBCKIA@read?5past?5buffer@		; `string'
PUBLIC	??_C@_0BA@OBKOPAFL@bad?5zlib?5header@		; `string'
PUBLIC	??_C@_0P@DOGMHEBI@no?5preset?5dict@		; `string'
PUBLIC	??_C@_0BA@MCNBDLPD@bad?5compression@		; `string'
PUBLIC	??_C@_0M@DMDNBACF@bad?5png?5sig@		; `string'
PUBLIC	?__LINE__Var@?0??stbi__create_png_image_raw@@YAHPEAUstbi__png@@PEAEIHIIHH@Z@4JA ; `stbi__create_png_image_raw'::`1'::__LINE__Var
PUBLIC	??_C@_1FC@ICDHLHK@?$AAo?$AAu?$AAt?$AA_?$AAn?$AA?5?$AA?$DN?$AA?$DN?$AA?5?$AAs?$AA?9?$AA?$DO?$AAi?$AAm?$AAg@ ; `string'
PUBLIC	??_C@_0BC@BHMPBBMG@not?5enough?5pixels@		; `string'
PUBLIC	??_C@_0P@FBBCPGMN@invalid?5filter@		; `string'
PUBLIC	??_C@_0O@MKGNGALN@invalid?5width@		; `string'
PUBLIC	??_C@_1CC@CPJBBDGC@?$AAi?$AAm?$AAg?$AA_?$AAn?$AA?$CL?$AA1?$AA?5?$AA?$DN?$AA?$DN?$AA?5?$AAo?$AAu?$AAt?$AA_@ ; `string'
PUBLIC	??_C@_1BG@FLOPDKAN@?$AAi?$AAm?$AAg?$AA_?$AAn?$AA?5?$AA?$DN?$AA?$DN?$AA?5?$AA3@ ; `string'
PUBLIC	?__LINE__Var@?0??stbi__compute_transparency@@YAHPEAUstbi__png@@QEAEH@Z@4JA ; `stbi__compute_transparency'::`1'::__LINE__Var
PUBLIC	??_C@_1DC@BMIDKOPK@?$AAo?$AAu?$AAt?$AA_?$AAn?$AA?5?$AA?$DN?$AA?$DN?$AA?5?$AA2?$AA?5?$AA?$HM?$AA?$HM?$AA?5?$AAo@ ; `string'
PUBLIC	?__LINE__Var@?0??stbi__compute_transparency16@@YAHPEAUstbi__png@@QEAGH@Z@4JA ; `stbi__compute_transparency16'::`1'::__LINE__Var
PUBLIC	?__LINE__Var@?0??stbi__de_iphone@@YAXPEAUstbi__png@@@Z@4JA ; `stbi__de_iphone'::`1'::__LINE__Var
PUBLIC	??_C@_1CE@GKIDJEJM@?$AAs?$AA?9?$AA?$DO?$AAi?$AAm?$AAg?$AA_?$AAo?$AAu?$AAt?$AA_?$AAn?$AA?5?$AA?$DN?$AA?$DN@ ; `string'
PUBLIC	??_C@_0O@KBHBNJOK@multiple?5IHDR@		; `string'
PUBLIC	??_C@_0N@POJLKMKK@bad?5IHDR?5len@		; `string'
PUBLIC	??_C@_0BE@EJHIPKNO@1?12?14?18?116?9bit?5only@	; `string'
PUBLIC	??_C@_09MBBNGCKB@bad?5ctype@			; `string'
PUBLIC	??_C@_0BA@MDMBDDFG@bad?5comp?5method@		; `string'
PUBLIC	??_C@_0BC@GHLIKKMD@bad?5filter?5method@		; `string'
PUBLIC	??_C@_0BF@JCGDPBAA@bad?5interlace?5method@	; `string'
PUBLIC	??_C@_0O@FNFBHCOO@0?9pixel?5image@		; `string'
PUBLIC	??_C@_0P@JEAFOMAF@first?5not?5IHDR@		; `string'
PUBLIC	??_C@_0N@JCPAJAKB@invalid?5PLTE@		; `string'
PUBLIC	??_C@_0BA@PCPJHDKJ@tRNS?5after?5IDAT@		; `string'
PUBLIC	??_C@_0BB@CEDNNLBG@tRNS?5before?5PLTE@		; `string'
PUBLIC	??_C@_0N@KDLCCKCH@bad?5tRNS?5len@		; `string'
PUBLIC	??_C@_0BA@ENDPGCHB@tRNS?5with?5alpha@		; `string'
PUBLIC	??_C@_07CKIELOEH@no?5PLTE@			; `string'
PUBLIC	??_C@_09MNNCNKEO@outofdata@			; `string'
PUBLIC	??_C@_07MLPECBNA@no?5IDAT@			; `string'
PUBLIC	??_C@_0BF@NOEEEFMF@bad?5bits_per_channel@	; `string'
PUBLIC	?__LINE__Var@?0??stbi__shiftsigned@@YAHIHH@Z@4JA ; `stbi__shiftsigned'::`1'::__LINE__Var
PUBLIC	??_C@_1BA@EKLGALLJ@?$AAv?$AA?5?$AA?$DM?$AA?5?$AA2?$AA5?$AA6@ ; `string'
PUBLIC	??_C@_1CO@LIFEKNEP@?$AAb?$AAi?$AAt?$AAs?$AA?5?$AA?$DO?$AA?$DN?$AA?5?$AA0?$AA?5?$AA?$CG?$AA?$CG?$AA?5?$AAb?$AAi@ ; `string'
PUBLIC	??_C@_07IANEBNLB@not?5BMP@			; `string'
PUBLIC	??_C@_07IEJCHBDI@bad?5BMP@			; `string'
PUBLIC	??_C@_0M@KHBIBJBG@unknown?5BMP@			; `string'
PUBLIC	??_C@_07IMHMNOIB@BMP?5RLE@			; `string'
PUBLIC	??_C@_0N@ODCBCBFN@BMP?5JPEG?1PNG@		; `string'
PUBLIC	??_C@_0L@JDPIFELH@bad?5offset@			; `string'
PUBLIC	??_C@_07MALOAKCI@invalid@			; `string'
PUBLIC	??_C@_07JNJHIMGH@bad?5bpp@			; `string'
PUBLIC	??_C@_09DAEBACAB@bad?5masks@			; `string'
PUBLIC	?__LINE__Var@?0??stbi__tga_load@@YAPEAXPEAUstbi__context@@PEAH11HPEAUstbi__result_info@@@Z@4JA ; `stbi__tga_load'::`1'::__LINE__Var
PUBLIC	??_C@_0L@DMAPJJO@bad?5format@			; `string'
PUBLIC	??_C@_0M@ILLOCNCO@bad?5palette@			; `string'
PUBLIC	??_C@_1CK@GOOINIO@?$AAt?$AAg?$AAa?$AA_?$AAc?$AAo?$AAm?$AAp?$AA?5?$AA?$DN?$AA?$DN?$AA?5?$AAS?$AAT?$AAB@ ; `string'
PUBLIC	??_C@_07ECNCNLIK@not?5PSD@			; `string'
PUBLIC	??_C@_0O@CHBCDKKC@wrong?5version@		; `string'
PUBLIC	??_C@_0BE@PJBNGDBE@wrong?5channel?5count@	; `string'
PUBLIC	??_C@_0BG@NOLDLPP@unsupported?5bit?5depth@	; `string'
PUBLIC	??_C@_0BD@IOGGBMNK@wrong?5color?5format@	; `string'
PUBLIC	??_C@_07DPPMCAKL@corrupt@			; `string'
PUBLIC	??_C@_04KBFEPHFH@S?$IA?v4@			; `string'
PUBLIC	??_C@_04ELNJHLFH@PICT@				; `string'
PUBLIC	??_C@_08GGMBIFE@bad?5file@			; `string'
PUBLIC	??_C@_07KMJLPAII@not?5GIF@			; `string'
PUBLIC	??_C@_0O@MGDACKOJ@no?5clear?5code@		; `string'
PUBLIC	??_C@_0P@GJNJCPDJ@too?5many?5codes@		; `string'
PUBLIC	??_C@_0BH@LOKBIIOJ@illegal?5code?5in?5raster@	; `string'
PUBLIC	??_C@_0BF@GIAALCNJ@bad?5Image?5Descriptor@	; `string'
PUBLIC	??_C@_0BE@NAMJKDNF@missing?5color?5table@	; `string'
PUBLIC	??_C@_0N@DJABBOOH@unknown?5code@		; `string'
PUBLIC	??_C@_0M@HOIDFNFN@?$CD?$DPRADIANCE?6@		; `string'
PUBLIC	??_C@_07KFDJIKCK@?$CD?$DPRGBE?6@		; `string'
PUBLIC	??_C@_0L@NCPEAJBD@?$CD?$DPRADIANCE@		; `string'
PUBLIC	??_C@_06NDOKKIDJ@?$CD?$DPRGBE@			; `string'
PUBLIC	??_C@_07NCIOKENI@not?5HDR@			; `string'
PUBLIC	??_C@_0BH@JFGBLLKC@FORMAT?$DN32?9bit_rle_rgbe@	; `string'
PUBLIC	??_C@_0BD@NKJFFLKL@unsupported?5format@		; `string'
PUBLIC	??_C@_03HKAKGGJN@?9Y?5@				; `string'
PUBLIC	??_C@_0BI@DCNDPIOH@unsupported?5data?5layout@	; `string'
PUBLIC	??_C@_03FOKDFDHG@?$CLX?5@			; `string'
PUBLIC	??_C@_0CA@JBEOCDFN@invalid?5decoded?5scanline?5length@ ; `string'
PUBLIC	??_C@_0BC@CNFMOKHC@max?5value?5?$DO?565535@	; `string'
PUBLIC	_TI3?AVinvalid_argument@std@@
PUBLIC	_CTA3?AVinvalid_argument@std@@
PUBLIC	??_R0?AVinvalid_argument@std@@@8		; std::invalid_argument `RTTI Type Descriptor'
PUBLIC	_CT??_R0?AVinvalid_argument@std@@@8??0invalid_argument@std@@QEAA@AEBV01@@Z24
PUBLIC	??_R0?AVlogic_error@std@@@8			; std::logic_error `RTTI Type Descriptor'
PUBLIC	_CT??_R0?AVlogic_error@std@@@8??0logic_error@std@@QEAA@AEBV01@@Z24
PUBLIC	??_C@_0BP@GBFHPONC@unsupported?5layout?5transition?$CB@ ; `string'
PUBLIC	??_C@_0CF@NBFKCJOJ@failed?5to?5create?5texture?5image?5@ ; `string'
PUBLIC	??_C@_0CC@ELCOLLBC@failed?5to?5create?5texture?5sample@ ; `string'
PUBLIC	??_C@_0BO@FBGJBNOK@failed?5to?5load?5texture?5image?$CB@ ; `string'
PUBLIC	??_C@_02PHMGELLB@?6?6@				; `string'
PUBLIC	??_C@_04MEMAJGDJ@name@				; `string'
PUBLIC	??_C@_0CL@BLGJKHJK@C?3?2Users?2anton?2Downloads?2pic_go@ ; `string'
PUBLIC	??_C@_0CD@CAAGOMDP@failed?5to?5create?5a?5pipeline?5lay@ ; `string'
PUBLIC	??_C@_04GHJNJNPO@main@				; `string'
PUBLIC	??_C@_0EJ@HKLAAGEK@C?3?2Users?2anton?2source?2repos?2GPU@ ; `string'
PUBLIC	??_C@_0EJ@HDHKIKGP@C?3?2Users?2anton?2source?2repos?2GPU@ ; `string'
PUBLIC	??_C@_0CD@DMDCDDIA@failed?5to?5allocate?5command?5buff@ ; `string'
PUBLIC	??_C@_0BI@KCJMGAAL@failed?5to?5end?5cmdBuffer@	; `string'
PUBLIC	??_C@_0BB@LLDEEIKC@ASFDHFHUFDUHUYIF@		; `string'
PUBLIC	??_C@_0CD@JOEKPGKM@failed?5to?5create?5graphics?5pipel@ ; `string'
PUBLIC	??_C@_0BN@HMIFLIEM@array?5subscript?5out?5of?5range@ ; `string'
PUBLIC	??_C@_0GA@LKBGKKAK@C?3?2Program?5Files?2Microsoft?5Visu@ ; `string'
PUBLIC	??_C@_1MA@HADHJGPP@?$AAC?$AA?3?$AA?2?$AAP?$AAr?$AAo?$AAg?$AAr?$AAa?$AAm?$AA?5?$AAF?$AAi?$AAl?$AAe@ ; `string'
PUBLIC	??_C@_1DO@NCBLADDF@?$AA?$CC?$AAa?$AAr?$AAr?$AAa?$AAy?$AA?5?$AAs?$AAu?$AAb?$AAs?$AAc?$AAr?$AAi?$AAp@ ; `string'
PUBLIC	??_C@_0CI@HPIEGNFK@failed?5to?5create?5descriptor?5set@ ; `string'
PUBLIC	??_C@_0CC@ENOKJEPG@failed?5to?5create?5descriptor?5poo@ ; `string'
PUBLIC	??_C@_0CE@KOBEGADE@failed?5to?5allocate?5descriptor?5s@ ; `string'
PUBLIC	??_C@_0BP@JNGFJPNG@Vertex?5Count?5must?5be?5atleast?53@ ; `string'
PUBLIC	??_C@_1GI@LIMMMBDB@?$AAC?$AA?3?$AA?2?$AAU?$AAs?$AAe?$AAr?$AAs?$AA?2?$AAa?$AAn?$AAt?$AAo?$AAn?$AA?2@ ; `string'
PUBLIC	??_C@_1GK@IDNJBOAD@?$AAv?$AAe?$AAr?$AAt?$AAe?$AAx?$AAC?$AAo?$AAu?$AAn?$AAt?$AA?5?$AA?$DO?$AA?$DN?$AA?5@ ; `string'
PUBLIC	??_C@_0N@LPFKKEBD@?3AM?3am?3PM?3pm@		; `string'
PUBLIC	??_C@_0BA@FOIKENOD@vector?5too?5long@		; `string'
PUBLIC	??_C@_0DG@KGHKKGBC@null?5pointer?5cannot?5point?5to?5a?5@ ; `string'
PUBLIC	??_C@_1HA@FACCKGGH@?$AA?$CC?$AAn?$AAu?$AAl?$AAl?$AA?5?$AAp?$AAo?$AAi?$AAn?$AAt?$AAe?$AAr?$AA?5?$AAc@ ; `string'
PUBLIC	??_C@_1BK@MHIKGOKE@?$AA?3?$AAA?$AAM?$AA?3?$AAa?$AAm?$AA?3?$AAP?$AAM?$AA?3?$AAp?$AAm@ ; `string'
PUBLIC	??_R4exception@std@@6B@				; std::exception::`RTTI Complete Object Locator'
PUBLIC	??_R3exception@std@@8				; std::exception::`RTTI Class Hierarchy Descriptor'
PUBLIC	??_R2exception@std@@8				; std::exception::`RTTI Base Class Array'
PUBLIC	??_R1A@?0A@EA@exception@std@@8			; std::exception::`RTTI Base Class Descriptor at (0,-1,0,64)'
PUBLIC	??_R4bad_alloc@std@@6B@				; std::bad_alloc::`RTTI Complete Object Locator'
PUBLIC	??_R3bad_alloc@std@@8				; std::bad_alloc::`RTTI Class Hierarchy Descriptor'
PUBLIC	??_R2bad_alloc@std@@8				; std::bad_alloc::`RTTI Base Class Array'
PUBLIC	??_R1A@?0A@EA@bad_alloc@std@@8			; std::bad_alloc::`RTTI Base Class Descriptor at (0,-1,0,64)'
PUBLIC	??_R4bad_array_new_length@std@@6B@		; std::bad_array_new_length::`RTTI Complete Object Locator'
PUBLIC	??_R3bad_array_new_length@std@@8		; std::bad_array_new_length::`RTTI Class Hierarchy Descriptor'
PUBLIC	??_R2bad_array_new_length@std@@8		; std::bad_array_new_length::`RTTI Base Class Array'
PUBLIC	??_R1A@?0A@EA@bad_array_new_length@std@@8	; std::bad_array_new_length::`RTTI Base Class Descriptor at (0,-1,0,64)'
PUBLIC	??_R4logic_error@std@@6B@			; std::logic_error::`RTTI Complete Object Locator'
PUBLIC	??_R3logic_error@std@@8				; std::logic_error::`RTTI Class Hierarchy Descriptor'
PUBLIC	??_R2logic_error@std@@8				; std::logic_error::`RTTI Base Class Array'
PUBLIC	??_R1A@?0A@EA@logic_error@std@@8		; std::logic_error::`RTTI Base Class Descriptor at (0,-1,0,64)'
PUBLIC	??_R4invalid_argument@std@@6B@			; std::invalid_argument::`RTTI Complete Object Locator'
PUBLIC	??_R3invalid_argument@std@@8			; std::invalid_argument::`RTTI Class Hierarchy Descriptor'
PUBLIC	??_R2invalid_argument@std@@8			; std::invalid_argument::`RTTI Base Class Array'
PUBLIC	??_R1A@?0A@EA@invalid_argument@std@@8		; std::invalid_argument::`RTTI Base Class Descriptor at (0,-1,0,64)'
PUBLIC	??_R4runtime_error@std@@6B@			; std::runtime_error::`RTTI Complete Object Locator'
PUBLIC	??_R3runtime_error@std@@8			; std::runtime_error::`RTTI Class Hierarchy Descriptor'
PUBLIC	??_R2runtime_error@std@@8			; std::runtime_error::`RTTI Base Class Array'
PUBLIC	??_R1A@?0A@EA@runtime_error@std@@8		; std::runtime_error::`RTTI Base Class Descriptor at (0,-1,0,64)'
PUBLIC	__real@3dcccccd
PUBLIC	__real@3f000000
PUBLIC	__real@3f1a36e2eb1c432d
PUBLIC	__real@3f800000
PUBLIC	__real@3fe0000000000000
PUBLIC	__real@3ff0000000000000
PUBLIC	__real@40400000
PUBLIC	__real@437f0000
PUBLIC	__real@477fff00
PUBLIC	__real@bf800000
PUBLIC	__real@bfdccccccccccccd
PUBLIC	__real@bfe0000000000000
PUBLIC	__real@bff8000000000000
PUBLIC	__xmm@00000200000002000000020000000200
PUBLIC	__xmm@00080008000800080008000800080008
PUBLIC	__xmm@00ff00ff00ff00ff00ff00ff00ff00ff
PUBLIC	__xmm@01010000010100000101000001010000
PUBLIC	__xmm@08a914e808a914e808a914e808a914e8
PUBLIC	__xmm@11c8e09e11c8e09e11c8e09e11c8e09e
PUBLIC	__xmm@11c8f9c311c8f9c311c8f9c311c8f9c3
PUBLIC	__xmm@12d0046b12d0046b12d0046b12d0046b
PUBLIC	__xmm@166f166f166f166f166f166f166f166f
PUBLIC	__xmm@1c5a1c5a1c5a1c5a1c5a1c5a1c5a1c5a
PUBLIC	__xmm@80808080808080808080808080808080
PUBLIC	__xmm@e09ee565e09ee565e09ee565e09ee565
PUBLIC	__xmm@e9cf12d0e9cf12d0e9cf12d0e9cf12d0
PUBLIC	__xmm@eb1a08a9eb1a08a9eb1a08a9eb1a08a9
PUBLIC	__xmm@f493f493f493f493f493f493f493f493
PUBLIC	__xmm@f9c31a9df9c31a9df9c31a9df9c31a9d
PUBLIC	__xmm@fa7efa7efa7efa7efa7efa7efa7efa7e
EXTRN	??_M@YAXPEAX_K1P6AX0@Z@Z:PROC			; `eh vector destructor iterator'
EXTRN	??2@YAPEAX_K@Z:PROC				; operator new
EXTRN	??3@YAXPEAX@Z:PROC				; operator delete
EXTRN	??3@YAXPEAX_K@Z:PROC				; operator delete
EXTRN	__imp__invalid_parameter:PROC
EXTRN	__imp__calloc_dbg:PROC
EXTRN	__imp__CrtDbgReport:PROC
EXTRN	__imp_??0_Lockit@std@@QEAA@H@Z:PROC
EXTRN	__imp_??1_Lockit@std@@QEAA@XZ:PROC
EXTRN	abs:PROC
EXTRN	__imp_ldexp:PROC
EXTRN	__imp_powf:PROC
EXTRN	__imp_calloc:PROC
EXTRN	__imp_free:PROC
EXTRN	__imp_malloc:PROC
EXTRN	__imp_realloc:PROC
EXTRN	_lrotl:PROC
EXTRN	__imp_strtol:PROC
EXTRN	memcpy:PROC
EXTRN	memmove:PROC
EXTRN	memset:PROC
EXTRN	__imp_wcslen:PROC
EXTRN	strcmp:PROC
EXTRN	strlen:PROC
EXTRN	__imp_strncmp:PROC
EXTRN	__imp_fopen_s:PROC
EXTRN	__imp_fclose:PROC
EXTRN	__imp_feof:PROC
EXTRN	__imp_ferror:PROC
EXTRN	__imp_fgetc:PROC
EXTRN	__imp_fread:PROC
EXTRN	__imp_fseek:PROC
EXTRN	__imp_ftell:PROC
EXTRN	__imp_ungetc:PROC
EXTRN	?_Xbad_alloc@std@@YAXXZ:PROC			; std::_Xbad_alloc
EXTRN	?_Xlength_error@std@@YAXPEBD@Z:PROC		; std::_Xlength_error
EXTRN	?uncaught_exceptions@std@@YAHXZ:PROC		; std::uncaught_exceptions
EXTRN	__std_exception_copy:PROC
EXTRN	__std_exception_destroy:PROC
EXTRN	??_Eexception@std@@UEAAPEAXI@Z:PROC		; std::exception::`vector deleting destructor'
EXTRN	??_Ebad_alloc@std@@UEAAPEAXI@Z:PROC		; std::bad_alloc::`vector deleting destructor'
EXTRN	??_Ebad_array_new_length@std@@UEAAPEAXI@Z:PROC	; std::bad_array_new_length::`vector deleting destructor'
EXTRN	??_Elogic_error@std@@UEAAPEAXI@Z:PROC		; std::logic_error::`vector deleting destructor'
EXTRN	??_Einvalid_argument@std@@UEAAPEAXI@Z:PROC	; std::invalid_argument::`vector deleting destructor'
EXTRN	??_Eruntime_error@std@@UEAAPEAXI@Z:PROC		; std::runtime_error::`vector deleting destructor'
EXTRN	_Mbrtowc:PROC
EXTRN	__imp_?_Getcvt@_Locinfo@std@@QEBA?AU_Cvtvec@@XZ:PROC
EXTRN	__imp_?_Getdays@_Locinfo@std@@QEBAPEBDXZ:PROC
EXTRN	__imp_?_Getmonths@_Locinfo@std@@QEBAPEBDXZ:PROC
EXTRN	__imp_?_W_Getdays@_Locinfo@std@@QEBAPEBGXZ:PROC
EXTRN	__imp_?_W_Getmonths@_Locinfo@std@@QEBAPEBGXZ:PROC
EXTRN	__imp_?good@ios_base@std@@QEBA_NXZ:PROC
EXTRN	__imp_?flags@ios_base@std@@QEBAHXZ:PROC
EXTRN	__imp_?width@ios_base@std@@QEBA_JXZ:PROC
EXTRN	__imp_?width@ios_base@std@@QEAA_J_J@Z:PROC
EXTRN	__imp_?sputc@?$basic_streambuf@DU?$char_traits@D@std@@@std@@QEAAHD@Z:PROC
EXTRN	__imp_?sputn@?$basic_streambuf@DU?$char_traits@D@std@@@std@@QEAA_JPEBD_J@Z:PROC
EXTRN	__imp_?setstate@?$basic_ios@DU?$char_traits@D@std@@@std@@QEAAXH_N@Z:PROC
EXTRN	__imp_?tie@?$basic_ios@DU?$char_traits@D@std@@@std@@QEBAPEAV?$basic_ostream@DU?$char_traits@D@std@@@2@XZ:PROC
EXTRN	__imp_?rdbuf@?$basic_ios@DU?$char_traits@D@std@@@std@@QEBAPEAV?$basic_streambuf@DU?$char_traits@D@std@@@2@XZ:PROC
EXTRN	__imp_?fill@?$basic_ios@DU?$char_traits@D@std@@@std@@QEBADXZ:PROC
EXTRN	__imp_?_Osfx@?$basic_ostream@DU?$char_traits@D@std@@@std@@QEAAXXZ:PROC
EXTRN	__imp_??6?$basic_ostream@DU?$char_traits@D@std@@@std@@QEAAAEAV01@_K@Z:PROC
EXTRN	__imp_?flush@?$basic_ostream@DU?$char_traits@D@std@@@std@@QEAAAEAV12@XZ:PROC
EXTRN	vkGetPhysicalDeviceProperties:PROC
EXTRN	vkGetPhysicalDeviceMemoryProperties:PROC
EXTRN	vkQueueSubmit:PROC
EXTRN	vkQueueWaitIdle:PROC
EXTRN	vkDeviceWaitIdle:PROC
EXTRN	vkAllocateMemory:PROC
EXTRN	vkFreeMemory:PROC
EXTRN	vkMapMemory:PROC
EXTRN	vkUnmapMemory:PROC
EXTRN	vkBindBufferMemory:PROC
EXTRN	vkBindImageMemory:PROC
EXTRN	vkGetBufferMemoryRequirements:PROC
EXTRN	vkCreateBuffer:PROC
EXTRN	vkDestroyBuffer:PROC
EXTRN	vkDestroyImage:PROC
EXTRN	vkCreateImageView:PROC
EXTRN	vkDestroyImageView:PROC
EXTRN	vkDestroyShaderModule:PROC
EXTRN	vkCreateGraphicsPipelines:PROC
EXTRN	vkDestroyPipeline:PROC
EXTRN	vkCreatePipelineLayout:PROC
EXTRN	vkDestroyPipelineLayout:PROC
EXTRN	vkCreateSampler:PROC
EXTRN	vkDestroySampler:PROC
EXTRN	vkCreateDescriptorSetLayout:PROC
EXTRN	vkDestroyDescriptorSetLayout:PROC
EXTRN	vkCreateDescriptorPool:PROC
EXTRN	vkDestroyDescriptorPool:PROC
EXTRN	vkAllocateDescriptorSets:PROC
EXTRN	vkUpdateDescriptorSets:PROC
EXTRN	vkAllocateCommandBuffers:PROC
EXTRN	vkFreeCommandBuffers:PROC
EXTRN	vkBeginCommandBuffer:PROC
EXTRN	vkEndCommandBuffer:PROC
EXTRN	vkCmdBindPipeline:PROC
EXTRN	vkCmdBindDescriptorSets:PROC
EXTRN	vkCmdBindVertexBuffers:PROC
EXTRN	vkCmdDraw:PROC
EXTRN	vkCmdCopyBuffer:PROC
EXTRN	vkCmdCopyBufferToImage:PROC
EXTRN	vkCmdPipelineBarrier:PROC
EXTRN	vkCmdPushConstants:PROC
EXTRN	vkCmdEndRenderPass:PROC
EXTRN	glfwWindowShouldClose:PROC
EXTRN	glfwPollEvents:PROC
EXTRN	??0Window@cow@@QEAA@HHPEBD@Z:PROC		; cow::Window::Window
EXTRN	??1Window@cow@@QEAA@XZ:PROC			; cow::Window::~Window
EXTRN	??0Device@cow@@QEAA@AEAVWindow@1@PEAII@Z:PROC	; cow::Device::Device
EXTRN	??1Device@cow@@QEAA@XZ:PROC			; cow::Device::~Device
EXTRN	?beginSingleTimeCommands@Device@cow@@QEAAPEAUVkCommandBuffer_T@@XZ:PROC ; cow::Device::beginSingleTimeCommands
EXTRN	?endSingleTimeCommands@Device@cow@@QEAAXPEAUVkCommandBuffer_T@@@Z:PROC ; cow::Device::endSingleTimeCommands
EXTRN	?createImage2D@Device@cow@@QEAAXIIW4VkFormat@@IW4VkImageTiling@@W4VkImageLayout@@PEAPEAUVkImage_T@@@Z:PROC ; cow::Device::createImage2D
EXTRN	?allocateImageMemory@Device@cow@@QEAAXPEAUVkImage_T@@PEAPEAUVkDeviceMemory_T@@@Z:PROC ; cow::Device::allocateImageMemory
EXTRN	?submit@Swapchain@cow@@QEAA?AW4VkResult@@PEBQEAUVkCommandBuffer_T@@PEAI@Z:PROC ; cow::Swapchain::submit
EXTRN	??0GraphicsCommands@cow@@QEAA@AEAVDevice@1@@Z:PROC ; cow::GraphicsCommands::GraphicsCommands
EXTRN	??1GraphicsCommands@cow@@QEAA@XZ:PROC		; cow::GraphicsCommands::~GraphicsCommands
EXTRN	?begin@GraphicsCommands@cow@@QEAAPEAUVkCommandBuffer_T@@XZ:PROC ; cow::GraphicsCommands::begin
EXTRN	?beginRenderPass@GraphicsCommands@cow@@QEAAXPEAUVkCommandBuffer_T@@TVkClearColorValue@@@Z:PROC ; cow::GraphicsCommands::beginRenderPass
EXTRN	__imp__wassert:PROC
EXTRN	?defaultGraphicsPipeline@GraphicsPipelineSimpleInfo@cow@@SAXAEAU12@@Z:PROC ; cow::GraphicsPipelineSimpleInfo::defaultGraphicsPipeline
EXTRN	?bindingDesc@Vertex2DTextured@cow@@SA?AUVkVertexInputBindingDescription@@XZ:PROC ; cow::Vertex2DTextured::bindingDesc
EXTRN	?attributeDesc@Vertex2DTextured@cow@@SA?AV?$vector@UVkVertexInputAttributeDescription@@V?$allocator@UVkVertexInputAttributeDescription@@@std@@@std@@XZ:PROC ; cow::Vertex2DTextured::attributeDesc
EXTRN	?createShaderModule@cow@@YAPEAUVkShaderModule_T@@PEAUVkDevice_T@@PEBD@Z:PROC ; cow::createShaderModule
EXTRN	_CxxThrowException:PROC
EXTRN	_RTC_CheckStackVars:PROC
EXTRN	_RTC_InitBase:PROC
EXTRN	_RTC_Shutdown:PROC
EXTRN	__CheckForDebuggerJustMyCode:PROC
EXTRN	__CxxFrameHandler4:PROC
EXTRN	__GSHandlerCheck:PROC
EXTRN	__GSHandlerCheck_EH4:PROC
EXTRN	__chkstk:PROC
EXTRN	__security_check_cookie:PROC
EXTRN	??_7type_info@@6B@:BYTE				; type_info::`vftable'
EXTRN	__imp_?cout@std@@3V?$basic_ostream@DU?$char_traits@D@std@@@1@A:BYTE
EXTRN	__ImageBase:BYTE
EXTRN	__security_cookie:QWORD
EXTRN	_fltused:DWORD
EXTRN	_tls_index:DWORD
;	COMDAT ?currentId@?1??create@EmptyObject@cow@@SA?AV23@XZ@4IA
_BSS	SEGMENT
?currentId@?1??create@EmptyObject@cow@@SA?AV23@XZ@4IA DD 01H DUP (?) ; `cow::EmptyObject::create'::`2'::currentId
_BSS	ENDS
_TLS	SEGMENT
?stbi__g_failure_reason@@3PEBDEB DQ 01H DUP (?)		; stbi__g_failure_reason
_TLS	ENDS
_BSS	SEGMENT
?stbi__vertically_flip_on_load_global@@3HA DD 01H DUP (?) ; stbi__vertically_flip_on_load_global
_BSS	ENDS
_TLS	SEGMENT
?stbi__vertically_flip_on_load_local@@3HA DD 01H DUP (?) ; stbi__vertically_flip_on_load_local
?stbi__vertically_flip_on_load_set@@3HA DD 01H DUP (?)	; stbi__vertically_flip_on_load_set
_TLS	ENDS
_BSS	SEGMENT
?stbi__unpremultiply_on_load_global@@3HA DD 01H DUP (?)	; stbi__unpremultiply_on_load_global
?stbi__de_iphone_flag_global@@3HA DD 01H DUP (?)	; stbi__de_iphone_flag_global
_BSS	ENDS
_TLS	SEGMENT
?stbi__unpremultiply_on_load_local@@3HA DD 01H DUP (?)	; stbi__unpremultiply_on_load_local
?stbi__unpremultiply_on_load_set@@3HA DD 01H DUP (?)	; stbi__unpremultiply_on_load_set
?stbi__de_iphone_flag_local@@3HA DD 01H DUP (?)		; stbi__de_iphone_flag_local
?stbi__de_iphone_flag_set@@3HA DD 01H DUP (?)		; stbi__de_iphone_flag_set
_TLS	ENDS
;	COMDAT pdata
pdata	SEGMENT
$pdata$?__empty_global_delete@@YAXPEAX@Z DD imagerel $LN3
	DD	imagerel $LN3+41
	DD	imagerel $unwind$?__empty_global_delete@@YAXPEAX@Z
pdata	ENDS
;	COMDAT pdata
pdata	SEGMENT
$pdata$?__empty_global_delete@@YAXPEAX_K@Z DD imagerel $LN3
	DD	imagerel $LN3+46
	DD	imagerel $unwind$?__empty_global_delete@@YAXPEAX_K@Z
pdata	ENDS
;	COMDAT pdata
pdata	SEGMENT
$pdata$?__empty_global_delete@@YAXPEAXW4align_val_t@std@@@Z DD imagerel $LN3
	DD	imagerel $LN3+46
	DD	imagerel $unwind$?__empty_global_delete@@YAXPEAXW4align_val_t@std@@@Z
pdata	ENDS
;	COMDAT pdata
pdata	SEGMENT
$pdata$?__empty_global_delete@@YAXPEAX_KW4align_val_t@std@@@Z DD imagerel $LN3
	DD	imagerel $LN3+51
	DD	imagerel $unwind$?__empty_global_delete@@YAXPEAX_KW4align_val_t@std@@@Z
pdata	ENDS
;	COMDAT pdata
pdata	SEGMENT
$pdata$??2@YAPEAX_KPEAX@Z DD imagerel $LN3
	DD	imagerel $LN3+53
	DD	imagerel $unwind$??2@YAPEAX_KPEAX@Z
pdata	ENDS
;	COMDAT pdata
pdata	SEGMENT
$pdata$ldexpf DD imagerel $LN3
	DD	imagerel $LN3+70
	DD	imagerel $unwind$ldexpf
pdata	ENDS
;	COMDAT pdata
pdata	SEGMENT
$pdata$?is_constant_evaluated@std@@YA_NXZ DD imagerel $LN3
	DD	imagerel $LN3+39
	DD	imagerel $unwind$?is_constant_evaluated@std@@YA_NXZ
pdata	ENDS
;	COMDAT pdata
pdata	SEGMENT
$pdata$wmemcpy DD imagerel $LN3
	DD	imagerel $LN3+83
	DD	imagerel $unwind$wmemcpy
pdata	ENDS
;	COMDAT pdata
pdata	SEGMENT
$pdata$?max@?$numeric_limits@_J@std@@SA_JXZ DD imagerel $LN3
	DD	imagerel $LN3+47
	DD	imagerel $unwind$?max@?$numeric_limits@_J@std@@SA_JXZ
pdata	ENDS
;	COMDAT pdata
pdata	SEGMENT
$pdata$?ldexp@@YAMMH@Z DD imagerel $LN3
	DD	imagerel $LN3+65
	DD	imagerel $unwind$?ldexp@@YAMMH@Z
pdata	ENDS
;	COMDAT pdata
pdata	SEGMENT
$pdata$?pow@@YAMMM@Z DD imagerel $LN3
	DD	imagerel $LN3+70
	DD	imagerel $unwind$?pow@@YAMMM@Z
pdata	ENDS
;	COMDAT pdata
pdata	SEGMENT
$pdata$??0exception@std@@QEAA@QEBD@Z DD imagerel $LN3
	DD	imagerel $LN3+210
	DD	imagerel $unwind$??0exception@std@@QEAA@QEBD@Z
pdata	ENDS
;	COMDAT pdata
pdata	SEGMENT
$pdata$??0exception@std@@QEAA@QEBDH@Z DD imagerel $LN3
	DD	imagerel $LN3+116
	DD	imagerel $unwind$??0exception@std@@QEAA@QEBDH@Z
pdata	ENDS
;	COMDAT pdata
pdata	SEGMENT
$pdata$??0exception@std@@QEAA@AEBV01@@Z DD imagerel $LN3
	DD	imagerel $LN3+123
	DD	imagerel $unwind$??0exception@std@@QEAA@AEBV01@@Z
pdata	ENDS
;	COMDAT pdata
pdata	SEGMENT
$pdata$??1exception@std@@UEAA@XZ DD imagerel $LN3
	DD	imagerel $LN3+77
	DD	imagerel $unwind$??1exception@std@@UEAA@XZ
pdata	ENDS
;	COMDAT pdata
pdata	SEGMENT
$pdata$?what@exception@std@@UEBAPEBDXZ DD imagerel $LN5
	DD	imagerel $LN5+96
	DD	imagerel $unwind$?what@exception@std@@UEBAPEBDXZ
pdata	ENDS
;	COMDAT pdata
pdata	SEGMENT
$pdata$??_Gexception@std@@UEAAPEAXI@Z DD imagerel $LN4
	DD	imagerel $LN4+82
	DD	imagerel $unwind$??_Gexception@std@@UEAAPEAXI@Z
pdata	ENDS
;	COMDAT pdata
pdata	SEGMENT
$pdata$??0bad_alloc@std@@AEAA@QEBD@Z DD imagerel $LN3
	DD	imagerel $LN3+95
	DD	imagerel $unwind$??0bad_alloc@std@@AEAA@QEBD@Z
pdata	ENDS
;	COMDAT pdata
pdata	SEGMENT
$pdata$??1bad_alloc@std@@UEAA@XZ DD imagerel $LN3
	DD	imagerel $LN3+41
	DD	imagerel $unwind$??1bad_alloc@std@@UEAA@XZ
pdata	ENDS
;	COMDAT pdata
pdata	SEGMENT
$pdata$??0bad_alloc@std@@QEAA@AEBV01@@Z DD imagerel $LN3
	DD	imagerel $LN3+77
	DD	imagerel $unwind$??0bad_alloc@std@@QEAA@AEBV01@@Z
pdata	ENDS
;	COMDAT pdata
pdata	SEGMENT
$pdata$??_Gbad_alloc@std@@UEAAPEAXI@Z DD imagerel $LN4
	DD	imagerel $LN4+82
	DD	imagerel $unwind$??_Gbad_alloc@std@@UEAAPEAXI@Z
pdata	ENDS
;	COMDAT pdata
pdata	SEGMENT
$pdata$??0bad_array_new_length@std@@QEAA@XZ DD imagerel $LN3
	DD	imagerel $LN3+84
	DD	imagerel $unwind$??0bad_array_new_length@std@@QEAA@XZ
pdata	ENDS
;	COMDAT pdata
pdata	SEGMENT
$pdata$??1bad_array_new_length@std@@UEAA@XZ DD imagerel $LN3
	DD	imagerel $LN3+41
	DD	imagerel $unwind$??1bad_array_new_length@std@@UEAA@XZ
pdata	ENDS
;	COMDAT pdata
pdata	SEGMENT
$pdata$??0bad_array_new_length@std@@QEAA@AEBV01@@Z DD imagerel $LN3
	DD	imagerel $LN3+77
	DD	imagerel $unwind$??0bad_array_new_length@std@@QEAA@AEBV01@@Z
pdata	ENDS
;	COMDAT pdata
pdata	SEGMENT
$pdata$??_Gbad_array_new_length@std@@UEAAPEAXI@Z DD imagerel $LN4
	DD	imagerel $LN4+82
	DD	imagerel $unwind$??_Gbad_array_new_length@std@@UEAAPEAXI@Z
pdata	ENDS
;	COMDAT pdata
pdata	SEGMENT
$pdata$?_Throw_bad_array_new_length@std@@YAXXZ DD imagerel $LN3
	DD	imagerel $LN3+68
	DD	imagerel $unwind$?_Throw_bad_array_new_length@std@@YAXXZ
pdata	ENDS
;	COMDAT pdata
pdata	SEGMENT
$pdata$?_Allocate@_Default_allocate_traits@std@@SAPEAX_K@Z DD imagerel $LN3
	DD	imagerel $LN3+53
	DD	imagerel $unwind$?_Allocate@_Default_allocate_traits@std@@SAPEAX_K@Z
pdata	ENDS
;	COMDAT pdata
pdata	SEGMENT
$pdata$?_Adjust_manually_vector_aligned@std@@YAXAEAPEAXAEA_K@Z DD imagerel $LN21
	DD	imagerel $LN21+453
	DD	imagerel $unwind$?_Adjust_manually_vector_aligned@std@@YAXAEAPEAXAEA_K@Z
pdata	ENDS
;	COMDAT pdata
pdata	SEGMENT
$pdata$??0_Container_proxy@std@@QEAA@PEAU_Container_base12@1@@Z DD imagerel $LN3
	DD	imagerel $LN3+85
	DD	imagerel $unwind$??0_Container_proxy@std@@QEAA@PEAU_Container_base12@1@@Z
pdata	ENDS
;	COMDAT pdata
pdata	SEGMENT
$pdata$??0_Container_base12@std@@QEAA@XZ DD imagerel $LN3
	DD	imagerel $LN3+62
	DD	imagerel $unwind$??0_Container_base12@std@@QEAA@XZ
pdata	ENDS
;	COMDAT pdata
pdata	SEGMENT
$pdata$?_Orphan_all@_Container_base12@std@@QEAAXXZ DD imagerel $LN5
	DD	imagerel $LN5+79
	DD	imagerel $unwind$?_Orphan_all@_Container_base12@std@@QEAAXXZ
pdata	ENDS
;	COMDAT pdata
pdata	SEGMENT
$pdata$?_Orphan_all_unlocked_v3@_Container_base12@std@@AEAAXXZ DD imagerel $LN7
	DD	imagerel $LN7+138
	DD	imagerel $unwind$?_Orphan_all_unlocked_v3@_Container_base12@std@@AEAAXXZ
pdata	ENDS
;	COMDAT pdata
pdata	SEGMENT
$pdata$?_Orphan_all_locked_v3@_Container_base12@std@@AEAAXXZ DD imagerel $LN3
	DD	imagerel $LN3+151
	DD	imagerel $unwind$?_Orphan_all_locked_v3@_Container_base12@std@@AEAAXXZ
pdata	ENDS
;	COMDAT pdata
pdata	SEGMENT
$pdata$?_Release@_Basic_container_proxy_ptr12@std@@QEAAXXZ DD imagerel $LN3
	DD	imagerel $LN3+55
	DD	imagerel $unwind$?_Release@_Basic_container_proxy_ptr12@std@@QEAAXXZ
pdata	ENDS
;	COMDAT pdata
pdata	SEGMENT
$pdata$??0_Basic_container_proxy_ptr12@std@@IEAA@XZ DD imagerel $LN3
	DD	imagerel $LN3+62
	DD	imagerel $unwind$??0_Basic_container_proxy_ptr12@std@@IEAA@XZ
pdata	ENDS
;	COMDAT pdata
pdata	SEGMENT
$pdata$??$addressof@U_Container_base12@std@@@std@@YAPEAU_Container_base12@0@AEAU10@@Z DD imagerel $LN3
	DD	imagerel $LN3+48
	DD	imagerel $unwind$??$addressof@U_Container_base12@std@@@std@@YAPEAU_Container_base12@0@AEAU10@@Z
pdata	ENDS
;	COMDAT pdata
pdata	SEGMENT
$pdata$??$_Construct_in_place@U_Container_proxy@std@@PEAU_Container_base12@2@@std@@YAXAEAU_Container_proxy@0@$$QEAPEAU_Container_base12@0@@Z DD imagerel $LN5
	DD	imagerel $LN5+198
	DD	imagerel $unwind$??$_Construct_in_place@U_Container_proxy@std@@PEAU_Container_base12@2@@std@@YAXAEAU_Container_proxy@0@$$QEAPEAU_Container_base12@0@@Z
pdata	ENDS
;	COMDAT pdata
pdata	SEGMENT
$pdata$?length@?$_Narrow_char_traits@DH@std@@SA_KQEBD@Z DD imagerel $LN4
	DD	imagerel $LN4+100
	DD	imagerel $unwind$?length@?$_Narrow_char_traits@DH@std@@SA_KQEBD@Z
pdata	ENDS
;	COMDAT pdata
pdata	SEGMENT
$pdata$?eq_int_type@?$_Narrow_char_traits@DH@std@@SA_NAEBH0@Z DD imagerel $LN5
	DD	imagerel $LN5+95
	DD	imagerel $unwind$?eq_int_type@?$_Narrow_char_traits@DH@std@@SA_NAEBH0@Z
pdata	ENDS
;	COMDAT pdata
pdata	SEGMENT
$pdata$?eof@?$_Narrow_char_traits@DH@std@@SAHXZ DD imagerel $LN3
	DD	imagerel $LN3+42
	DD	imagerel $unwind$?eof@?$_Narrow_char_traits@DH@std@@SAHXZ
pdata	ENDS
;	COMDAT pdata
pdata	SEGMENT
$pdata$??0logic_error@std@@QEAA@PEBD@Z DD imagerel $LN4
	DD	imagerel $LN4+89
	DD	imagerel $unwind$??0logic_error@std@@QEAA@PEBD@Z
pdata	ENDS
;	COMDAT pdata
pdata	SEGMENT
$pdata$??1logic_error@std@@UEAA@XZ DD imagerel $LN3
	DD	imagerel $LN3+41
	DD	imagerel $unwind$??1logic_error@std@@UEAA@XZ
pdata	ENDS
;	COMDAT pdata
pdata	SEGMENT
$pdata$??0logic_error@std@@QEAA@AEBV01@@Z DD imagerel $LN3
	DD	imagerel $LN3+77
	DD	imagerel $unwind$??0logic_error@std@@QEAA@AEBV01@@Z
pdata	ENDS
;	COMDAT pdata
pdata	SEGMENT
$pdata$??_Glogic_error@std@@UEAAPEAXI@Z DD imagerel $LN4
	DD	imagerel $LN4+82
	DD	imagerel $unwind$??_Glogic_error@std@@UEAAPEAXI@Z
pdata	ENDS
;	COMDAT pdata
pdata	SEGMENT
$pdata$??0invalid_argument@std@@QEAA@PEBD@Z DD imagerel $LN4
	DD	imagerel $LN4+89
	DD	imagerel $unwind$??0invalid_argument@std@@QEAA@PEBD@Z
pdata	ENDS
;	COMDAT pdata
pdata	SEGMENT
$pdata$??1invalid_argument@std@@UEAA@XZ DD imagerel $LN3
	DD	imagerel $LN3+41
	DD	imagerel $unwind$??1invalid_argument@std@@UEAA@XZ
pdata	ENDS
;	COMDAT pdata
pdata	SEGMENT
$pdata$??0invalid_argument@std@@QEAA@AEBV01@@Z DD imagerel $LN3
	DD	imagerel $LN3+77
	DD	imagerel $unwind$??0invalid_argument@std@@QEAA@AEBV01@@Z
pdata	ENDS
;	COMDAT pdata
pdata	SEGMENT
$pdata$??_Ginvalid_argument@std@@UEAAPEAXI@Z DD imagerel $LN4
	DD	imagerel $LN4+82
	DD	imagerel $unwind$??_Ginvalid_argument@std@@UEAAPEAXI@Z
pdata	ENDS
;	COMDAT pdata
pdata	SEGMENT
$pdata$??0runtime_error@std@@QEAA@PEBD@Z DD imagerel $LN4
	DD	imagerel $LN4+89
	DD	imagerel $unwind$??0runtime_error@std@@QEAA@PEBD@Z
pdata	ENDS
;	COMDAT pdata
pdata	SEGMENT
$pdata$??1runtime_error@std@@UEAA@XZ DD imagerel $LN3
	DD	imagerel $LN3+41
	DD	imagerel $unwind$??1runtime_error@std@@UEAA@XZ
pdata	ENDS
;	COMDAT pdata
pdata	SEGMENT
$pdata$??0runtime_error@std@@QEAA@AEBV01@@Z DD imagerel $LN3
	DD	imagerel $LN3+77
	DD	imagerel $unwind$??0runtime_error@std@@QEAA@AEBV01@@Z
pdata	ENDS
;	COMDAT pdata
pdata	SEGMENT
$pdata$??_Gruntime_error@std@@UEAAPEAXI@Z DD imagerel $LN4
	DD	imagerel $LN4+82
	DD	imagerel $unwind$??_Gruntime_error@std@@UEAAPEAXI@Z
pdata	ENDS
;	COMDAT pdata
pdata	SEGMENT
$pdata$??$_Maklocstr@_W@std@@YAPEA_WPEBDPEA_WAEBU_Cvtvec@@@Z DD imagerel $LN12
	DD	imagerel $LN12+586
	DD	imagerel $unwind$??$_Maklocstr@_W@std@@YAPEA_WPEBDPEA_WAEBU_Cvtvec@@@Z
pdata	ENDS
;	COMDAT pdata
pdata	SEGMENT
$pdata$?_Maklocwcs@std@@YAPEA_WPEB_W@Z DD imagerel $LN4
	DD	imagerel $LN4+142
	DD	imagerel $unwind$?_Maklocwcs@std@@YAPEA_WPEB_W@Z
pdata	ENDS
;	COMDAT pdata
pdata	SEGMENT
$pdata$??$_Maklocstr@D@std@@YAPEADPEBDPEADAEBU_Cvtvec@@@Z DD imagerel $LN7
	DD	imagerel $LN7+200
	DD	imagerel $unwind$??$_Maklocstr@D@std@@YAPEADPEBDPEADAEBU_Cvtvec@@@Z
pdata	ENDS
;	COMDAT pdata
pdata	SEGMENT
$pdata$?shouldClose@Window@cow@@QEBA_NXZ DD imagerel $LN5
	DD	imagerel $LN5+84
	DD	imagerel $unwind$?shouldClose@Window@cow@@QEBA_NXZ
pdata	ENDS
;	COMDAT pdata
pdata	SEGMENT
$pdata$?__autoclassinit2@Window@cow@@QEAAX_K@Z DD imagerel $LN3
	DD	imagerel $LN3+50
	DD	imagerel $unwind$?__autoclassinit2@Window@cow@@QEAAX_K@Z
pdata	ENDS
;	COMDAT pdata
pdata	SEGMENT
$pdata$?getPhysicalDevice@Device@cow@@QEAAPEAUVkPhysicalDevice_T@@XZ DD imagerel $LN3
	DD	imagerel $LN3+52
	DD	imagerel $unwind$?getPhysicalDevice@Device@cow@@QEAAPEAUVkPhysicalDevice_T@@XZ
pdata	ENDS
;	COMDAT pdata
pdata	SEGMENT
$pdata$?getDevice@Device@cow@@QEAAPEAUVkDevice_T@@XZ DD imagerel $LN3
	DD	imagerel $LN3+52
	DD	imagerel $unwind$?getDevice@Device@cow@@QEAAPEAUVkDevice_T@@XZ
pdata	ENDS
;	COMDAT pdata
pdata	SEGMENT
$pdata$?getCommandPool@Device@cow@@QEAAPEAUVkCommandPool_T@@XZ DD imagerel $LN3
	DD	imagerel $LN3+52
	DD	imagerel $unwind$?getCommandPool@Device@cow@@QEAAPEAUVkCommandPool_T@@XZ
pdata	ENDS
;	COMDAT pdata
pdata	SEGMENT
$pdata$?getGraphicsQueue@Device@cow@@QEAAPEAUVkQueue_T@@XZ DD imagerel $LN3
	DD	imagerel $LN3+52
	DD	imagerel $unwind$?getGraphicsQueue@Device@cow@@QEAAPEAUVkQueue_T@@XZ
pdata	ENDS
;	COMDAT pdata
pdata	SEGMENT
$pdata$?bindImageMemory@Device@cow@@QEBA?AW4VkResult@@PEAUVkImage_T@@PEAUVkDeviceMemory_T@@@Z DD imagerel $LN3
	DD	imagerel $LN3+84
	DD	imagerel $unwind$?bindImageMemory@Device@cow@@QEBA?AW4VkResult@@PEAUVkImage_T@@PEAUVkDeviceMemory_T@@@Z
pdata	ENDS
;	COMDAT pdata
pdata	SEGMENT
$pdata$?__autoclassinit2@Device@cow@@QEAAX_K@Z DD imagerel $LN3
	DD	imagerel $LN3+50
	DD	imagerel $unwind$?__autoclassinit2@Device@cow@@QEAAX_K@Z
pdata	ENDS
;	COMDAT pdata
pdata	SEGMENT
$pdata$?getRenderPass@Swapchain@cow@@QEBAPEAUVkRenderPass_T@@XZ DD imagerel $LN3
	DD	imagerel $LN3+52
	DD	imagerel $unwind$?getRenderPass@Swapchain@cow@@QEBAPEAUVkRenderPass_T@@XZ
pdata	ENDS
;	COMDAT pdata
pdata	SEGMENT
$pdata$?getCurrentFrame@Swapchain@cow@@QEBA_KXZ DD imagerel $LN3
	DD	imagerel $LN3+52
	DD	imagerel $unwind$?getCurrentFrame@Swapchain@cow@@QEBA_KXZ
pdata	ENDS
;	COMDAT pdata
pdata	SEGMENT
$pdata$?getCurrentImageIndex@GraphicsCommands@cow@@QEAAIXZ DD imagerel $LN3
	DD	imagerel $LN3+51
	DD	imagerel $unwind$?getCurrentImageIndex@GraphicsCommands@cow@@QEAAIXZ
pdata	ENDS
;	COMDAT pdata
pdata	SEGMENT
$pdata$??C?$unique_ptr@VSwapchain@cow@@U?$default_delete@VSwapchain@cow@@@std@@@std@@QEBAPEAVSwapchain@cow@@XZ DD imagerel $LN3
	DD	imagerel $LN3+51
	DD	imagerel $unwind$??C?$unique_ptr@VSwapchain@cow@@U?$default_delete@VSwapchain@cow@@@std@@@std@@QEBAPEAVSwapchain@cow@@XZ
pdata	ENDS
;	COMDAT pdata
pdata	SEGMENT
$pdata$?__autoclassinit2@GraphicsCommands@cow@@QEAAX_K@Z DD imagerel $LN3
	DD	imagerel $LN3+50
	DD	imagerel $unwind$?__autoclassinit2@GraphicsCommands@cow@@QEAAX_K@Z
pdata	ENDS
;	COMDAT pdata
pdata	SEGMENT
$pdata$??0Buffer@cow@@QEAA@AEAVDevice@1@_KII@Z DD imagerel $LN3
	DD	imagerel $LN3+123
	DD	imagerel $unwind$??0Buffer@cow@@QEAA@AEAVDevice@1@_KII@Z
pdata	ENDS
;	COMDAT pdata
pdata	SEGMENT
$pdata$??1Buffer@cow@@QEAA@XZ DD imagerel $LN3
	DD	imagerel $LN3+168
	DD	imagerel $unwind$??1Buffer@cow@@QEAA@XZ
pdata	ENDS
;	COMDAT pdata
pdata	SEGMENT
$pdata$?map@Buffer@cow@@QEAA?AW4VkResult@@_K0@Z DD imagerel $LN3
	DD	imagerel $LN3+149
	DD	imagerel $unwind$?map@Buffer@cow@@QEAA?AW4VkResult@@_K0@Z
pdata	ENDS
;	COMDAT pdata
pdata	SEGMENT
$pdata$?unmap@Buffer@cow@@QEAAXXZ DD imagerel $LN4
	DD	imagerel $LN4+130
	DD	imagerel $unwind$?unmap@Buffer@cow@@QEAAXXZ
pdata	ENDS
;	COMDAT pdata
pdata	SEGMENT
$pdata$?write@Buffer@cow@@QEAAPEAXPEAX_K1@Z DD imagerel $LN4
	DD	imagerel $LN4+139
	DD	imagerel $unwind$?write@Buffer@cow@@QEAAPEAXPEAX_K1@Z
pdata	ENDS
;	COMDAT pdata
pdata	SEGMENT
$pdata$?copy@Buffer@cow@@QEAAXPEAUVkBuffer_T@@_K@Z DD imagerel $LN3
	DD	imagerel $LN3+553
	DD	imagerel $unwind$?copy@Buffer@cow@@QEAAXPEAUVkBuffer_T@@_K@Z
pdata	ENDS
;	COMDAT pdata
pdata	SEGMENT
$pdata$?get@Buffer@cow@@QEAAPEAUVkBuffer_T@@XZ DD imagerel $LN3
	DD	imagerel $LN3+52
	DD	imagerel $unwind$?get@Buffer@cow@@QEAAPEAUVkBuffer_T@@XZ
pdata	ENDS
;	COMDAT pdata
pdata	SEGMENT
$pdata$?createBuffer@Buffer@cow@@AEAAXII@Z DD imagerel $LN9
	DD	imagerel $LN9+728
	DD	imagerel $unwind$?createBuffer@Buffer@cow@@AEAAXII@Z
pdata	ENDS
;	COMDAT pdata
pdata	SEGMENT
$pdata$?__autoclassinit2@Buffer@cow@@QEAAX_K@Z DD imagerel $LN3
	DD	imagerel $LN3+50
	DD	imagerel $unwind$?__autoclassinit2@Buffer@cow@@QEAAX_K@Z
pdata	ENDS
;	COMDAT pdata
pdata	SEGMENT
$pdata$??_GBuffer@cow@@QEAAPEAXI@Z DD imagerel $LN4
	DD	imagerel $LN4+82
	DD	imagerel $unwind$??_GBuffer@cow@@QEAAPEAXI@Z
pdata	ENDS
;	COMDAT pdata
pdata	SEGMENT
$pdata$??0?$allocator@W4VkDynamicState@@@std@@QEAA@XZ DD imagerel $LN3
	DD	imagerel $LN3+48
	DD	imagerel $unwind$??0?$allocator@W4VkDynamicState@@@std@@QEAA@XZ
pdata	ENDS
;	COMDAT pdata
pdata	SEGMENT
$pdata$?deallocate@?$allocator@W4VkDynamicState@@@std@@QEAAXQEAW4VkDynamicState@@_K@Z DD imagerel $LN13
	DD	imagerel $LN13+216
	DD	imagerel $unwind$?deallocate@?$allocator@W4VkDynamicState@@@std@@QEAAXQEAW4VkDynamicState@@_K@Z
pdata	ENDS
;	COMDAT pdata
pdata	SEGMENT
$pdata$??0?$vector@W4VkDynamicState@@V?$allocator@W4VkDynamicState@@@std@@@std@@QEAA@XZ DD imagerel $LN3
	DD	imagerel $LN3+137
	DD	imagerel $unwind$??0?$vector@W4VkDynamicState@@V?$allocator@W4VkDynamicState@@@std@@@std@@QEAA@XZ
pdata	ENDS
;	COMDAT pdata
pdata	SEGMENT
$pdata$??1?$vector@W4VkDynamicState@@V?$allocator@W4VkDynamicState@@@std@@@std@@QEAA@XZ DD imagerel $LN3
	DD	imagerel $LN3+203
	DD	imagerel $unwind$??1?$vector@W4VkDynamicState@@V?$allocator@W4VkDynamicState@@@std@@@std@@QEAA@XZ
pdata	ENDS
;	COMDAT pdata
pdata	SEGMENT
$pdata$?_Tidy@?$vector@W4VkDynamicState@@V?$allocator@W4VkDynamicState@@@std@@@std@@AEAAXXZ DD imagerel $LN4
	DD	imagerel $LN4+228
	DD	imagerel $unwind$?_Tidy@?$vector@W4VkDynamicState@@V?$allocator@W4VkDynamicState@@@std@@@std@@AEAAXXZ
pdata	ENDS
;	COMDAT pdata
pdata	SEGMENT
$pdata$?_Getal@?$vector@W4VkDynamicState@@V?$allocator@W4VkDynamicState@@@std@@@std@@AEAAAEAV?$allocator@W4VkDynamicState@@@2@XZ DD imagerel $LN3
	DD	imagerel $LN3+56
	DD	imagerel $unwind$?_Getal@?$vector@W4VkDynamicState@@V?$allocator@W4VkDynamicState@@@std@@@std@@AEAAAEAV?$allocator@W4VkDynamicState@@@2@XZ
pdata	ENDS
;	COMDAT pdata
pdata	SEGMENT
$pdata$??0?$_Vector_val@U?$_Simple_types@W4VkDynamicState@@@std@@@std@@QEAA@XZ DD imagerel $LN3
	DD	imagerel $LN3+105
	DD	imagerel $unwind$??0?$_Vector_val@U?$_Simple_types@W4VkDynamicState@@@std@@@std@@QEAA@XZ
pdata	ENDS
;	COMDAT pdata
pdata	SEGMENT
$pdata$?_Get_first@?$_Compressed_pair@V?$allocator@W4VkDynamicState@@@std@@V?$_Vector_val@U?$_Simple_types@W4VkDynamicState@@@std@@@2@$00@std@@QEAAAEAV?$allocator@W4VkDynamicState@@@2@XZ DD imagerel $LN3
	DD	imagerel $LN3+48
	DD	imagerel $unwind$?_Get_first@?$_Compressed_pair@V?$allocator@W4VkDynamicState@@@std@@V?$_Vector_val@U?$_Simple_types@W4VkDynamicState@@@std@@@2@$00@std@@QEAAAEAV?$allocator@W4VkDynamicState@@@2@XZ
pdata	ENDS
;	COMDAT pdata
pdata	SEGMENT
$pdata$??1GraphicsPipelineSimpleInfo@cow@@QEAA@XZ DD imagerel $LN3
	DD	imagerel $LN3+50
	DD	imagerel $unwind$??1GraphicsPipelineSimpleInfo@cow@@QEAA@XZ
pdata	ENDS
;	COMDAT pdata
pdata	SEGMENT
$pdata$??R?$default_delete@VBuffer@cow@@@std@@QEBAXPEAVBuffer@cow@@@Z DD imagerel $LN5
	DD	imagerel $LN5+107
	DD	imagerel $unwind$??R?$default_delete@VBuffer@cow@@@std@@QEBAXPEAVBuffer@cow@@@Z
pdata	ENDS
;	COMDAT pdata
pdata	SEGMENT
$pdata$??1?$unique_ptr@VBuffer@cow@@U?$default_delete@VBuffer@cow@@@std@@@std@@QEAA@XZ DD imagerel $LN4
	DD	imagerel $LN4+112
	DD	imagerel $unwind$??1?$unique_ptr@VBuffer@cow@@U?$default_delete@VBuffer@cow@@@std@@@std@@QEAA@XZ
pdata	ENDS
;	COMDAT pdata
pdata	SEGMENT
$pdata$??C?$unique_ptr@VBuffer@cow@@U?$default_delete@VBuffer@cow@@@std@@@std@@QEBAPEAVBuffer@cow@@XZ DD imagerel $LN3
	DD	imagerel $LN3+51
	DD	imagerel $unwind$??C?$unique_ptr@VBuffer@cow@@U?$default_delete@VBuffer@cow@@@std@@@std@@QEBAPEAVBuffer@cow@@XZ
pdata	ENDS
;	COMDAT pdata
pdata	SEGMENT
$pdata$?release@?$unique_ptr@VBuffer@cow@@U?$default_delete@VBuffer@cow@@@std@@@std@@QEAAPEAVBuffer@cow@@XZ DD imagerel $LN3
	DD	imagerel $LN3+74
	DD	imagerel $unwind$?release@?$unique_ptr@VBuffer@cow@@U?$default_delete@VBuffer@cow@@@std@@@std@@QEAAPEAVBuffer@cow@@XZ
pdata	ENDS
;	COMDAT pdata
pdata	SEGMENT
$pdata$?reset@?$unique_ptr@VBuffer@cow@@U?$default_delete@VBuffer@cow@@@std@@@std@@QEAAXPEAVBuffer@cow@@@Z DD imagerel $LN4
	DD	imagerel $LN4+117
	DD	imagerel $unwind$?reset@?$unique_ptr@VBuffer@cow@@U?$default_delete@VBuffer@cow@@@std@@@std@@QEAAXPEAVBuffer@cow@@@Z
pdata	ENDS
;	COMDAT pdata
pdata	SEGMENT
$pdata$?_Get_first@?$_Compressed_pair@U?$default_delete@VBuffer@cow@@@std@@PEAVBuffer@cow@@$00@std@@QEAAAEAU?$default_delete@VBuffer@cow@@@2@XZ DD imagerel $LN3
	DD	imagerel $LN3+48
	DD	imagerel $unwind$?_Get_first@?$_Compressed_pair@U?$default_delete@VBuffer@cow@@@std@@PEAVBuffer@cow@@$00@std@@QEAAAEAU?$default_delete@VBuffer@cow@@@2@XZ
pdata	ENDS
;	COMDAT pdata
pdata	SEGMENT
$pdata$?create@EmptyObject@cow@@SA?AV12@XZ DD imagerel $LN5
	DD	imagerel $LN5+117
	DD	imagerel $unwind$?create@EmptyObject@cow@@SA?AV12@XZ
pdata	ENDS
;	COMDAT pdata
pdata	SEGMENT
$pdata$??1EmptyObject@cow@@QEAA@XZ DD imagerel $LN3
	DD	imagerel $LN3+41
	DD	imagerel $unwind$??1EmptyObject@cow@@QEAA@XZ
pdata	ENDS
;	COMDAT pdata
pdata	SEGMENT
$pdata$??0EmptyObject@cow@@AEAA@I@Z DD imagerel $LN3
	DD	imagerel $LN3+67
	DD	imagerel $unwind$??0EmptyObject@cow@@AEAA@I@Z
pdata	ENDS
;	COMDAT pdata
pdata	SEGMENT
$pdata$stbi_load_from_memory DD imagerel $LN3
	DD	imagerel $LN3+197
	DD	imagerel $unwind$stbi_load_from_memory
pdata	ENDS
;	COMDAT pdata
pdata	SEGMENT
$pdata$stbi_load_from_callbacks DD imagerel $LN3
	DD	imagerel $LN3+198
	DD	imagerel $unwind$stbi_load_from_callbacks
pdata	ENDS
;	COMDAT pdata
pdata	SEGMENT
$pdata$stbi_load DD imagerel $LN6
	DD	imagerel $LN6+191
	DD	imagerel $unwind$stbi_load
pdata	ENDS
;	COMDAT pdata
pdata	SEGMENT
$pdata$stbi_load_from_file DD imagerel $LN4
	DD	imagerel $LN4+249
	DD	imagerel $unwind$stbi_load_from_file
pdata	ENDS
;	COMDAT pdata
pdata	SEGMENT
$pdata$stbi_load_gif_from_memory DD imagerel $LN6
	DD	imagerel $LN6+370
	DD	imagerel $unwind$stbi_load_gif_from_memory
pdata	ENDS
;	COMDAT pdata
pdata	SEGMENT
$pdata$stbi_load_16_from_memory DD imagerel $LN3
	DD	imagerel $LN3+197
	DD	imagerel $unwind$stbi_load_16_from_memory
pdata	ENDS
;	COMDAT pdata
pdata	SEGMENT
$pdata$stbi_load_16_from_callbacks DD imagerel $LN3
	DD	imagerel $LN3+198
	DD	imagerel $unwind$stbi_load_16_from_callbacks
pdata	ENDS
;	COMDAT pdata
pdata	SEGMENT
$pdata$stbi_load_16 DD imagerel $LN6
	DD	imagerel $LN6+191
	DD	imagerel $unwind$stbi_load_16
pdata	ENDS
;	COMDAT pdata
pdata	SEGMENT
$pdata$stbi_load_from_file_16 DD imagerel $LN4
	DD	imagerel $LN4+249
	DD	imagerel $unwind$stbi_load_from_file_16
pdata	ENDS
;	COMDAT pdata
pdata	SEGMENT
$pdata$stbi_loadf_from_memory DD imagerel $LN3
	DD	imagerel $LN3+197
	DD	imagerel $unwind$stbi_loadf_from_memory
pdata	ENDS
;	COMDAT pdata
pdata	SEGMENT
$pdata$stbi_loadf_from_callbacks DD imagerel $LN3
	DD	imagerel $LN3+198
	DD	imagerel $unwind$stbi_loadf_from_callbacks
pdata	ENDS
;	COMDAT pdata
pdata	SEGMENT
$pdata$stbi_loadf DD imagerel $LN6
	DD	imagerel $LN6+191
	DD	imagerel $unwind$stbi_loadf
pdata	ENDS
;	COMDAT pdata
pdata	SEGMENT
$pdata$stbi_loadf_from_file DD imagerel $LN3
	DD	imagerel $LN3+191
	DD	imagerel $unwind$stbi_loadf_from_file
pdata	ENDS
;	COMDAT pdata
pdata	SEGMENT
$pdata$stbi_hdr_to_ldr_gamma DD imagerel $LN3
	DD	imagerel $LN3+66
	DD	imagerel $unwind$stbi_hdr_to_ldr_gamma
pdata	ENDS
;	COMDAT pdata
pdata	SEGMENT
$pdata$stbi_hdr_to_ldr_scale DD imagerel $LN3
	DD	imagerel $LN3+66
	DD	imagerel $unwind$stbi_hdr_to_ldr_scale
pdata	ENDS
;	COMDAT pdata
pdata	SEGMENT
$pdata$stbi_ldr_to_hdr_gamma DD imagerel $LN3
	DD	imagerel $LN3+58
	DD	imagerel $unwind$stbi_ldr_to_hdr_gamma
pdata	ENDS
;	COMDAT pdata
pdata	SEGMENT
$pdata$stbi_ldr_to_hdr_scale DD imagerel $LN3
	DD	imagerel $LN3+58
	DD	imagerel $unwind$stbi_ldr_to_hdr_scale
pdata	ENDS
;	COMDAT pdata
pdata	SEGMENT
$pdata$stbi_is_hdr_from_callbacks DD imagerel $LN3
	DD	imagerel $LN3+157
	DD	imagerel $unwind$stbi_is_hdr_from_callbacks
pdata	ENDS
;	COMDAT pdata
pdata	SEGMENT
$pdata$stbi_is_hdr_from_memory DD imagerel $LN3
	DD	imagerel $LN3+156
	DD	imagerel $unwind$stbi_is_hdr_from_memory
pdata	ENDS
;	COMDAT pdata
pdata	SEGMENT
$pdata$stbi_is_hdr DD imagerel $LN4
	DD	imagerel $LN4+103
	DD	imagerel $unwind$stbi_is_hdr
pdata	ENDS
;	COMDAT pdata
pdata	SEGMENT
$pdata$stbi_is_hdr_from_file DD imagerel $LN3
	DD	imagerel $LN3+184
	DD	imagerel $unwind$stbi_is_hdr_from_file
pdata	ENDS
;	COMDAT pdata
pdata	SEGMENT
$pdata$stbi_failure_reason DD imagerel $LN3
	DD	imagerel $LN3+67
	DD	imagerel $unwind$stbi_failure_reason
pdata	ENDS
;	COMDAT pdata
pdata	SEGMENT
$pdata$stbi_image_free DD imagerel $LN3
	DD	imagerel $LN3+54
	DD	imagerel $unwind$stbi_image_free
pdata	ENDS
;	COMDAT pdata
pdata	SEGMENT
$pdata$stbi_info_from_memory DD imagerel $LN3
	DD	imagerel $LN3+187
	DD	imagerel $unwind$stbi_info_from_memory
pdata	ENDS
;	COMDAT pdata
pdata	SEGMENT
$pdata$stbi_info_from_callbacks DD imagerel $LN3
	DD	imagerel $LN3+188
	DD	imagerel $unwind$stbi_info_from_callbacks
pdata	ENDS
;	COMDAT pdata
pdata	SEGMENT
$pdata$stbi_is_16_bit_from_memory DD imagerel $LN3
	DD	imagerel $LN3+156
	DD	imagerel $unwind$stbi_is_16_bit_from_memory
pdata	ENDS
;	COMDAT pdata
pdata	SEGMENT
$pdata$stbi_is_16_bit_from_callbacks DD imagerel $LN3
	DD	imagerel $LN3+157
	DD	imagerel $unwind$stbi_is_16_bit_from_callbacks
pdata	ENDS
;	COMDAT pdata
pdata	SEGMENT
$pdata$stbi_info DD imagerel $LN4
	DD	imagerel $LN4+146
	DD	imagerel $unwind$stbi_info
pdata	ENDS
;	COMDAT pdata
pdata	SEGMENT
$pdata$stbi_info_from_file DD imagerel $LN3
	DD	imagerel $LN3+226
	DD	imagerel $unwind$stbi_info_from_file
pdata	ENDS
;	COMDAT pdata
pdata	SEGMENT
$pdata$stbi_is_16_bit DD imagerel $LN4
	DD	imagerel $LN4+110
	DD	imagerel $unwind$stbi_is_16_bit
pdata	ENDS
;	COMDAT pdata
pdata	SEGMENT
$pdata$stbi_is_16_bit_from_file DD imagerel $LN3
	DD	imagerel $LN3+190
	DD	imagerel $unwind$stbi_is_16_bit_from_file
pdata	ENDS
;	COMDAT pdata
pdata	SEGMENT
$pdata$stbi_set_unpremultiply_on_load DD imagerel $LN3
	DD	imagerel $LN3+52
	DD	imagerel $unwind$stbi_set_unpremultiply_on_load
pdata	ENDS
;	COMDAT pdata
pdata	SEGMENT
$pdata$stbi_convert_iphone_png_to_rgb DD imagerel $LN3
	DD	imagerel $LN3+52
	DD	imagerel $unwind$stbi_convert_iphone_png_to_rgb
pdata	ENDS
;	COMDAT pdata
pdata	SEGMENT
$pdata$stbi_set_flip_vertically_on_load DD imagerel $LN3
	DD	imagerel $LN3+52
	DD	imagerel $unwind$stbi_set_flip_vertically_on_load
pdata	ENDS
;	COMDAT pdata
pdata	SEGMENT
$pdata$stbi_convert_iphone_png_to_rgb_thread DD imagerel $LN3
	DD	imagerel $LN3+108
	DD	imagerel $unwind$stbi_convert_iphone_png_to_rgb_thread
pdata	ENDS
;	COMDAT pdata
pdata	SEGMENT
$pdata$stbi_set_flip_vertically_on_load_thread DD imagerel $LN3
	DD	imagerel $LN3+108
	DD	imagerel $unwind$stbi_set_flip_vertically_on_load_thread
pdata	ENDS
;	COMDAT pdata
pdata	SEGMENT
$pdata$stbi_zlib_decode_malloc_guesssize DD imagerel $LN7
	DD	imagerel $LN7+308
	DD	imagerel $unwind$stbi_zlib_decode_malloc_guesssize
pdata	ENDS
;	COMDAT pdata
pdata	SEGMENT
$pdata$stbi_zlib_decode_malloc_guesssize_headerflag DD imagerel $LN7
	DD	imagerel $LN7+310
	DD	imagerel $unwind$stbi_zlib_decode_malloc_guesssize_headerflag
pdata	ENDS
;	COMDAT pdata
pdata	SEGMENT
$pdata$stbi_zlib_decode_malloc DD imagerel $LN3
	DD	imagerel $LN3+81
	DD	imagerel $unwind$stbi_zlib_decode_malloc
pdata	ENDS
;	COMDAT pdata
pdata	SEGMENT
$pdata$stbi_zlib_decode_buffer DD imagerel $LN5
	DD	imagerel $LN5+236
	DD	imagerel $unwind$stbi_zlib_decode_buffer
pdata	ENDS
;	COMDAT pdata
pdata	SEGMENT
$pdata$stbi_zlib_decode_noheader_malloc DD imagerel $LN7
	DD	imagerel $LN7+297
	DD	imagerel $unwind$stbi_zlib_decode_noheader_malloc
pdata	ENDS
;	COMDAT pdata
pdata	SEGMENT
$pdata$stbi_zlib_decode_noheader_buffer DD imagerel $LN5
	DD	imagerel $LN5+236
	DD	imagerel $unwind$stbi_zlib_decode_noheader_buffer
pdata	ENDS
;	COMDAT pdata
pdata	SEGMENT
$pdata$?stbi__cpuid3@@YAHXZ DD imagerel ?stbi__cpuid3@@YAHXZ
	DD	imagerel ?stbi__cpuid3@@YAHXZ+149
	DD	imagerel $unwind$?stbi__cpuid3@@YAHXZ
pdata	ENDS
;	COMDAT pdata
pdata	SEGMENT
$pdata$?stbi__sse2_available@@YAHXZ DD imagerel ?stbi__sse2_available@@YAHXZ
	DD	imagerel ?stbi__sse2_available@@YAHXZ+86
	DD	imagerel $unwind$?stbi__sse2_available@@YAHXZ
pdata	ENDS
;	COMDAT pdata
pdata	SEGMENT
$pdata$?stbi__refill_buffer@@YAXPEAUstbi__context@@@Z DD imagerel ?stbi__refill_buffer@@YAXPEAUstbi__context@@@Z
	DD	imagerel ?stbi__refill_buffer@@YAXPEAUstbi__context@@@Z+305
	DD	imagerel $unwind$?stbi__refill_buffer@@YAXPEAUstbi__context@@@Z
pdata	ENDS
;	COMDAT pdata
pdata	SEGMENT
$pdata$?stbi__start_mem@@YAXPEAUstbi__context@@PEBEH@Z DD imagerel ?stbi__start_mem@@YAXPEAUstbi__context@@PEBEH@Z
	DD	imagerel ?stbi__start_mem@@YAXPEAUstbi__context@@PEBEH@Z+205
	DD	imagerel $unwind$?stbi__start_mem@@YAXPEAUstbi__context@@PEBEH@Z
pdata	ENDS
;	COMDAT pdata
pdata	SEGMENT
$pdata$?stbi__start_callbacks@@YAXPEAUstbi__context@@PEAUstbi_io_callbacks@@PEAX@Z DD imagerel ?stbi__start_callbacks@@YAXPEAUstbi__context@@PEAUstbi_io_callbacks@@PEAX@Z
	DD	imagerel ?stbi__start_callbacks@@YAXPEAUstbi__context@@PEAUstbi_io_callbacks@@PEAX@Z+241
	DD	imagerel $unwind$?stbi__start_callbacks@@YAXPEAUstbi__context@@PEAUstbi_io_callbacks@@PEAX@Z
pdata	ENDS
;	COMDAT pdata
pdata	SEGMENT
$pdata$?stbi__stdio_read@@YAHPEAXPEADH@Z DD imagerel ?stbi__stdio_read@@YAHPEAXPEADH@Z
	DD	imagerel ?stbi__stdio_read@@YAHPEAXPEADH@Z+86
	DD	imagerel $unwind$?stbi__stdio_read@@YAHPEAXPEADH@Z
pdata	ENDS
;	COMDAT pdata
pdata	SEGMENT
$pdata$?stbi__stdio_skip@@YAXPEAXH@Z DD imagerel ?stbi__stdio_skip@@YAXPEAXH@Z
	DD	imagerel ?stbi__stdio_skip@@YAXPEAXH@Z+108
	DD	imagerel $unwind$?stbi__stdio_skip@@YAXPEAXH@Z
pdata	ENDS
;	COMDAT pdata
pdata	SEGMENT
$pdata$?stbi__stdio_eof@@YAHPEAX@Z DD imagerel ?stbi__stdio_eof@@YAHPEAX@Z
	DD	imagerel ?stbi__stdio_eof@@YAHPEAX@Z+103
	DD	imagerel $unwind$?stbi__stdio_eof@@YAHPEAX@Z
pdata	ENDS
;	COMDAT pdata
pdata	SEGMENT
$pdata$?stbi__start_file@@YAXPEAUstbi__context@@PEAU_iobuf@@@Z DD imagerel ?stbi__start_file@@YAXPEAUstbi__context@@PEAU_iobuf@@@Z
	DD	imagerel ?stbi__start_file@@YAXPEAUstbi__context@@PEAU_iobuf@@@Z+72
	DD	imagerel $unwind$?stbi__start_file@@YAXPEAUstbi__context@@PEAU_iobuf@@@Z
pdata	ENDS
;	COMDAT pdata
pdata	SEGMENT
$pdata$?stbi__rewind@@YAXPEAUstbi__context@@@Z DD imagerel ?stbi__rewind@@YAXPEAUstbi__context@@@Z
	DD	imagerel ?stbi__rewind@@YAXPEAUstbi__context@@@Z+97
	DD	imagerel $unwind$?stbi__rewind@@YAXPEAUstbi__context@@@Z
pdata	ENDS
;	COMDAT pdata
pdata	SEGMENT
$pdata$?stbi__jpeg_test@@YAHPEAUstbi__context@@@Z DD imagerel ?stbi__jpeg_test@@YAHPEAUstbi__context@@@Z
	DD	imagerel ?stbi__jpeg_test@@YAHPEAUstbi__context@@@Z+141
	DD	imagerel $unwind$?stbi__jpeg_test@@YAHPEAUstbi__context@@@Z
pdata	ENDS
;	COMDAT pdata
pdata	SEGMENT
$pdata$?stbi__jpeg_load@@YAPEAXPEAUstbi__context@@PEAH11HPEAUstbi__result_info@@@Z DD imagerel ?stbi__jpeg_load@@YAPEAXPEAUstbi__context@@PEAH11HPEAUstbi__result_info@@@Z
	DD	imagerel ?stbi__jpeg_load@@YAPEAXPEAUstbi__context@@PEAH11HPEAUstbi__result_info@@@Z+205
	DD	imagerel $unwind$?stbi__jpeg_load@@YAPEAXPEAUstbi__context@@PEAH11HPEAUstbi__result_info@@@Z
pdata	ENDS
;	COMDAT pdata
pdata	SEGMENT
$pdata$?stbi__jpeg_info@@YAHPEAUstbi__context@@PEAH11@Z DD imagerel ?stbi__jpeg_info@@YAHPEAUstbi__context@@PEAH11@Z
	DD	imagerel ?stbi__jpeg_info@@YAHPEAUstbi__context@@PEAH11@Z+151
	DD	imagerel $unwind$?stbi__jpeg_info@@YAHPEAUstbi__context@@PEAH11@Z
pdata	ENDS
;	COMDAT pdata
pdata	SEGMENT
$pdata$?stbi__png_test@@YAHPEAUstbi__context@@@Z DD imagerel ?stbi__png_test@@YAHPEAUstbi__context@@@Z
	DD	imagerel ?stbi__png_test@@YAHPEAUstbi__context@@@Z+71
	DD	imagerel $unwind$?stbi__png_test@@YAHPEAUstbi__context@@@Z
pdata	ENDS
;	COMDAT pdata
pdata	SEGMENT
$pdata$?stbi__png_load@@YAPEAXPEAUstbi__context@@PEAH11HPEAUstbi__result_info@@@Z DD imagerel ?stbi__png_load@@YAPEAXPEAUstbi__context@@PEAH11HPEAUstbi__result_info@@@Z
	DD	imagerel ?stbi__png_load@@YAPEAXPEAUstbi__context@@PEAH11HPEAUstbi__result_info@@@Z+198
	DD	imagerel $unwind$?stbi__png_load@@YAPEAXPEAUstbi__context@@PEAH11HPEAUstbi__result_info@@@Z
pdata	ENDS
;	COMDAT pdata
pdata	SEGMENT
$pdata$?stbi__png_info@@YAHPEAUstbi__context@@PEAH11@Z DD imagerel ?stbi__png_info@@YAHPEAUstbi__context@@PEAH11@Z
	DD	imagerel ?stbi__png_info@@YAHPEAUstbi__context@@PEAH11@Z+176
	DD	imagerel $unwind$?stbi__png_info@@YAHPEAUstbi__context@@PEAH11@Z
pdata	ENDS
;	COMDAT pdata
pdata	SEGMENT
$pdata$?stbi__png_is16@@YAHPEAUstbi__context@@@Z DD imagerel ?stbi__png_is16@@YAHPEAUstbi__context@@@Z
	DD	imagerel ?stbi__png_is16@@YAHPEAUstbi__context@@@Z+180
	DD	imagerel $unwind$?stbi__png_is16@@YAHPEAUstbi__context@@@Z
pdata	ENDS
;	COMDAT pdata
pdata	SEGMENT
$pdata$?stbi__bmp_test@@YAHPEAUstbi__context@@@Z DD imagerel ?stbi__bmp_test@@YAHPEAUstbi__context@@@Z
	DD	imagerel ?stbi__bmp_test@@YAHPEAUstbi__context@@@Z+71
	DD	imagerel $unwind$?stbi__bmp_test@@YAHPEAUstbi__context@@@Z
pdata	ENDS
;	COMDAT pdata
pdata	SEGMENT
$pdata$?stbi__bmp_load@@YAPEAXPEAUstbi__context@@PEAH11HPEAUstbi__result_info@@@Z DD imagerel ?stbi__bmp_load@@YAPEAXPEAUstbi__context@@PEAH11HPEAUstbi__result_info@@@Z
	DD	imagerel ?stbi__bmp_load@@YAPEAXPEAUstbi__context@@PEAH11HPEAUstbi__result_info@@@Z+4740
	DD	imagerel $unwind$?stbi__bmp_load@@YAPEAXPEAUstbi__context@@PEAH11HPEAUstbi__result_info@@@Z
pdata	ENDS
;	COMDAT pdata
pdata	SEGMENT
$pdata$?stbi__bmp_info@@YAHPEAUstbi__context@@PEAH11@Z DD imagerel ?stbi__bmp_info@@YAHPEAUstbi__context@@PEAH11@Z
	DD	imagerel ?stbi__bmp_info@@YAHPEAUstbi__context@@PEAH11@Z+333
	DD	imagerel $unwind$?stbi__bmp_info@@YAHPEAUstbi__context@@PEAH11@Z
pdata	ENDS
;	COMDAT pdata
pdata	SEGMENT
$pdata$?stbi__tga_test@@YAHPEAUstbi__context@@@Z DD imagerel ?stbi__tga_test@@YAHPEAUstbi__context@@@Z
	DD	imagerel ?stbi__tga_test@@YAHPEAUstbi__context@@@Z+423
	DD	imagerel $unwind$?stbi__tga_test@@YAHPEAUstbi__context@@@Z
pdata	ENDS
;	COMDAT pdata
pdata	SEGMENT
$pdata$?stbi__tga_load@@YAPEAXPEAUstbi__context@@PEAH11HPEAUstbi__result_info@@@Z DD imagerel ?stbi__tga_load@@YAPEAXPEAUstbi__context@@PEAH11HPEAUstbi__result_info@@@Z
	DD	imagerel ?stbi__tga_load@@YAPEAXPEAUstbi__context@@PEAH11HPEAUstbi__result_info@@@Z+2999
	DD	imagerel $unwind$?stbi__tga_load@@YAPEAXPEAUstbi__context@@PEAH11HPEAUstbi__result_info@@@Z
pdata	ENDS
;	COMDAT pdata
pdata	SEGMENT
$pdata$?stbi__tga_info@@YAHPEAUstbi__context@@PEAH11@Z DD imagerel ?stbi__tga_info@@YAHPEAUstbi__context@@PEAH11@Z
	DD	imagerel ?stbi__tga_info@@YAHPEAUstbi__context@@PEAH11@Z+712
	DD	imagerel $unwind$?stbi__tga_info@@YAHPEAUstbi__context@@PEAH11@Z
pdata	ENDS
;	COMDAT pdata
pdata	SEGMENT
$pdata$?stbi__psd_test@@YAHPEAUstbi__context@@@Z DD imagerel ?stbi__psd_test@@YAHPEAUstbi__context@@@Z
	DD	imagerel ?stbi__psd_test@@YAHPEAUstbi__context@@@Z+106
	DD	imagerel $unwind$?stbi__psd_test@@YAHPEAUstbi__context@@@Z
pdata	ENDS
;	COMDAT pdata
pdata	SEGMENT
$pdata$?stbi__psd_load@@YAPEAXPEAUstbi__context@@PEAH11HPEAUstbi__result_info@@H@Z DD imagerel ?stbi__psd_load@@YAPEAXPEAUstbi__context@@PEAH11HPEAUstbi__result_info@@H@Z
	DD	imagerel ?stbi__psd_load@@YAPEAXPEAUstbi__context@@PEAH11HPEAUstbi__result_info@@H@Z+3098
	DD	imagerel $unwind$?stbi__psd_load@@YAPEAXPEAUstbi__context@@PEAH11HPEAUstbi__result_info@@H@Z
pdata	ENDS
;	COMDAT pdata
pdata	SEGMENT
$pdata$?stbi__psd_info@@YAHPEAUstbi__context@@PEAH11@Z DD imagerel ?stbi__psd_info@@YAHPEAUstbi__context@@PEAH11@Z
	DD	imagerel ?stbi__psd_info@@YAHPEAUstbi__context@@PEAH11@Z+471
	DD	imagerel $unwind$?stbi__psd_info@@YAHPEAUstbi__context@@PEAH11@Z
pdata	ENDS
;	COMDAT pdata
pdata	SEGMENT
$pdata$?stbi__psd_is16@@YAHPEAUstbi__context@@@Z DD imagerel ?stbi__psd_is16@@YAHPEAUstbi__context@@@Z
	DD	imagerel ?stbi__psd_is16@@YAHPEAUstbi__context@@@Z+238
	DD	imagerel $unwind$?stbi__psd_is16@@YAHPEAUstbi__context@@@Z
pdata	ENDS
;	COMDAT pdata
pdata	SEGMENT
$pdata$?stbi__hdr_test@@YAHPEAUstbi__context@@@Z DD imagerel ?stbi__hdr_test@@YAHPEAUstbi__context@@@Z
	DD	imagerel ?stbi__hdr_test@@YAHPEAUstbi__context@@@Z+118
	DD	imagerel $unwind$?stbi__hdr_test@@YAHPEAUstbi__context@@@Z
pdata	ENDS
;	COMDAT pdata
pdata	SEGMENT
$pdata$?stbi__hdr_load@@YAPEAMPEAUstbi__context@@PEAH11HPEAUstbi__result_info@@@Z DD imagerel ?stbi__hdr_load@@YAPEAMPEAUstbi__context@@PEAH11HPEAUstbi__result_info@@@Z
	DD	imagerel ?stbi__hdr_load@@YAPEAMPEAUstbi__context@@PEAH11HPEAUstbi__result_info@@@Z+2594
	DD	imagerel $unwind$?stbi__hdr_load@@YAPEAMPEAUstbi__context@@PEAH11HPEAUstbi__result_info@@@Z
pdata	ENDS
;	COMDAT pdata
pdata	SEGMENT
$pdata$?stbi__hdr_info@@YAHPEAUstbi__context@@PEAH11@Z DD imagerel ?stbi__hdr_info@@YAHPEAUstbi__context@@PEAH11@Z
	DD	imagerel ?stbi__hdr_info@@YAHPEAUstbi__context@@PEAH11@Z+635
	DD	imagerel $unwind$?stbi__hdr_info@@YAHPEAUstbi__context@@PEAH11@Z
pdata	ENDS
;	COMDAT pdata
pdata	SEGMENT
$pdata$?stbi__pic_test@@YAHPEAUstbi__context@@@Z DD imagerel ?stbi__pic_test@@YAHPEAUstbi__context@@@Z
	DD	imagerel ?stbi__pic_test@@YAHPEAUstbi__context@@@Z+71
	DD	imagerel $unwind$?stbi__pic_test@@YAHPEAUstbi__context@@@Z
pdata	ENDS
;	COMDAT pdata
pdata	SEGMENT
$pdata$?stbi__pic_load@@YAPEAXPEAUstbi__context@@PEAH11HPEAUstbi__result_info@@@Z DD imagerel ?stbi__pic_load@@YAPEAXPEAUstbi__context@@PEAH11HPEAUstbi__result_info@@@Z
	DD	imagerel ?stbi__pic_load@@YAPEAXPEAUstbi__context@@PEAH11HPEAUstbi__result_info@@@Z+776
	DD	imagerel $unwind$?stbi__pic_load@@YAPEAXPEAUstbi__context@@PEAH11HPEAUstbi__result_info@@@Z
pdata	ENDS
;	COMDAT pdata
pdata	SEGMENT
$pdata$?stbi__pic_info@@YAHPEAUstbi__context@@PEAH11@Z DD imagerel ?stbi__pic_info@@YAHPEAUstbi__context@@PEAH11@Z
	DD	imagerel ?stbi__pic_info@@YAHPEAUstbi__context@@PEAH11@Z+713
	DD	imagerel $unwind$?stbi__pic_info@@YAHPEAUstbi__context@@PEAH11@Z
pdata	ENDS
;	COMDAT pdata
pdata	SEGMENT
$pdata$?stbi__gif_test@@YAHPEAUstbi__context@@@Z DD imagerel ?stbi__gif_test@@YAHPEAUstbi__context@@@Z
	DD	imagerel ?stbi__gif_test@@YAHPEAUstbi__context@@@Z+71
	DD	imagerel $unwind$?stbi__gif_test@@YAHPEAUstbi__context@@@Z
pdata	ENDS
;	COMDAT pdata
pdata	SEGMENT
$pdata$?stbi__gif_load@@YAPEAXPEAUstbi__context@@PEAH11HPEAUstbi__result_info@@@Z DD imagerel ?stbi__gif_load@@YAPEAXPEAUstbi__context@@PEAH11HPEAUstbi__result_info@@@Z
	DD	imagerel ?stbi__gif_load@@YAPEAXPEAUstbi__context@@PEAH11HPEAUstbi__result_info@@@Z+358
	DD	imagerel $unwind$?stbi__gif_load@@YAPEAXPEAUstbi__context@@PEAH11HPEAUstbi__result_info@@@Z
pdata	ENDS
;	COMDAT pdata
pdata	SEGMENT
$pdata$?stbi__load_gif_main@@YAPEAXPEAUstbi__context@@PEAPEAHPEAH222H@Z DD imagerel ?stbi__load_gif_main@@YAPEAXPEAUstbi__context@@PEAPEAHPEAH222H@Z
	DD	imagerel ?stbi__load_gif_main@@YAPEAXPEAUstbi__context@@PEAPEAHPEAH222H@Z+1122
	DD	imagerel $unwind$?stbi__load_gif_main@@YAPEAXPEAUstbi__context@@PEAPEAHPEAH222H@Z
pdata	ENDS
;	COMDAT pdata
pdata	SEGMENT
$pdata$?stbi__gif_info@@YAHPEAUstbi__context@@PEAH11@Z DD imagerel ?stbi__gif_info@@YAHPEAUstbi__context@@PEAH11@Z
	DD	imagerel ?stbi__gif_info@@YAHPEAUstbi__context@@PEAH11@Z+89
	DD	imagerel $unwind$?stbi__gif_info@@YAHPEAUstbi__context@@PEAH11@Z
pdata	ENDS
;	COMDAT pdata
pdata	SEGMENT
$pdata$?stbi__pnm_test@@YAHPEAUstbi__context@@@Z DD imagerel ?stbi__pnm_test@@YAHPEAUstbi__context@@@Z
	DD	imagerel ?stbi__pnm_test@@YAHPEAUstbi__context@@@Z+119
	DD	imagerel $unwind$?stbi__pnm_test@@YAHPEAUstbi__context@@@Z
pdata	ENDS
;	COMDAT pdata
pdata	SEGMENT
$pdata$?stbi__pnm_load@@YAPEAXPEAUstbi__context@@PEAH11HPEAUstbi__result_info@@@Z DD imagerel ?stbi__pnm_load@@YAPEAXPEAUstbi__context@@PEAH11HPEAUstbi__result_info@@@Z
	DD	imagerel ?stbi__pnm_load@@YAPEAXPEAUstbi__context@@PEAH11HPEAUstbi__result_info@@@Z+754
	DD	imagerel $unwind$?stbi__pnm_load@@YAPEAXPEAUstbi__context@@PEAH11HPEAUstbi__result_info@@@Z
pdata	ENDS
;	COMDAT pdata
pdata	SEGMENT
$pdata$?stbi__pnm_info@@YAHPEAUstbi__context@@PEAH11@Z DD imagerel ?stbi__pnm_info@@YAHPEAUstbi__context@@PEAH11@Z
	DD	imagerel ?stbi__pnm_info@@YAHPEAUstbi__context@@PEAH11@Z+524
	DD	imagerel $unwind$?stbi__pnm_info@@YAHPEAUstbi__context@@PEAH11@Z
pdata	ENDS
;	COMDAT pdata
pdata	SEGMENT
$pdata$?stbi__pnm_is16@@YAHPEAUstbi__context@@@Z DD imagerel ?stbi__pnm_is16@@YAHPEAUstbi__context@@@Z
	DD	imagerel ?stbi__pnm_is16@@YAHPEAUstbi__context@@@Z+75
	DD	imagerel $unwind$?stbi__pnm_is16@@YAHPEAUstbi__context@@@Z
pdata	ENDS
;	COMDAT pdata
pdata	SEGMENT
$pdata$?stbi__err@@YAHPEBD@Z DD imagerel ?stbi__err@@YAHPEBD@Z
	DD	imagerel ?stbi__err@@YAHPEBD@Z+80
	DD	imagerel $unwind$?stbi__err@@YAHPEBD@Z
pdata	ENDS
;	COMDAT pdata
pdata	SEGMENT
$pdata$?stbi__malloc@@YAPEAX_K@Z DD imagerel ?stbi__malloc@@YAPEAX_K@Z
	DD	imagerel ?stbi__malloc@@YAPEAX_K@Z+54
	DD	imagerel $unwind$?stbi__malloc@@YAPEAX_K@Z
pdata	ENDS
;	COMDAT pdata
pdata	SEGMENT
$pdata$?stbi__addsizes_valid@@YAHHH@Z DD imagerel ?stbi__addsizes_valid@@YAHHH@Z
	DD	imagerel ?stbi__addsizes_valid@@YAHHH@Z+104
	DD	imagerel $unwind$?stbi__addsizes_valid@@YAHHH@Z
pdata	ENDS
;	COMDAT pdata
pdata	SEGMENT
$pdata$?stbi__mul2sizes_valid@@YAHHH@Z DD imagerel ?stbi__mul2sizes_valid@@YAHHH@Z
	DD	imagerel ?stbi__mul2sizes_valid@@YAHHH@Z+130
	DD	imagerel $unwind$?stbi__mul2sizes_valid@@YAHHH@Z
pdata	ENDS
;	COMDAT pdata
pdata	SEGMENT
$pdata$?stbi__mad2sizes_valid@@YAHHHH@Z DD imagerel ?stbi__mad2sizes_valid@@YAHHHH@Z
	DD	imagerel ?stbi__mad2sizes_valid@@YAHHHH@Z+128
	DD	imagerel $unwind$?stbi__mad2sizes_valid@@YAHHHH@Z
pdata	ENDS
;	COMDAT pdata
pdata	SEGMENT
$pdata$?stbi__mad3sizes_valid@@YAHHHHH@Z DD imagerel ?stbi__mad3sizes_valid@@YAHHHHH@Z
	DD	imagerel ?stbi__mad3sizes_valid@@YAHHHHH@Z+170
	DD	imagerel $unwind$?stbi__mad3sizes_valid@@YAHHHHH@Z
pdata	ENDS
;	COMDAT pdata
pdata	SEGMENT
$pdata$?stbi__mad4sizes_valid@@YAHHHHHH@Z DD imagerel ?stbi__mad4sizes_valid@@YAHHHHHH@Z
	DD	imagerel ?stbi__mad4sizes_valid@@YAHHHHHH@Z+214
	DD	imagerel $unwind$?stbi__mad4sizes_valid@@YAHHHHHH@Z
pdata	ENDS
;	COMDAT pdata
pdata	SEGMENT
$pdata$?stbi__malloc_mad2@@YAPEAXHHH@Z DD imagerel ?stbi__malloc_mad2@@YAPEAXHHH@Z
	DD	imagerel ?stbi__malloc_mad2@@YAPEAXHHH@Z+110
	DD	imagerel $unwind$?stbi__malloc_mad2@@YAPEAXHHH@Z
pdata	ENDS
;	COMDAT pdata
pdata	SEGMENT
$pdata$?stbi__malloc_mad3@@YAPEAXHHHH@Z DD imagerel ?stbi__malloc_mad3@@YAPEAXHHHH@Z
	DD	imagerel ?stbi__malloc_mad3@@YAPEAXHHHH@Z+129
	DD	imagerel $unwind$?stbi__malloc_mad3@@YAPEAXHHHH@Z
pdata	ENDS
;	COMDAT pdata
pdata	SEGMENT
$pdata$?stbi__malloc_mad4@@YAPEAXHHHHH@Z DD imagerel ?stbi__malloc_mad4@@YAPEAXHHHHH@Z
	DD	imagerel ?stbi__malloc_mad4@@YAPEAXHHHHH@Z+146
	DD	imagerel $unwind$?stbi__malloc_mad4@@YAPEAXHHHHH@Z
pdata	ENDS
;	COMDAT pdata
pdata	SEGMENT
$pdata$?stbi__ldr_to_hdr@@YAPEAMPEAEHHH@Z DD imagerel ?stbi__ldr_to_hdr@@YAPEAMPEAEHHH@Z
	DD	imagerel ?stbi__ldr_to_hdr@@YAPEAMPEAEHHH@Z+496
	DD	imagerel $unwind$?stbi__ldr_to_hdr@@YAPEAMPEAEHHH@Z
pdata	ENDS
;	COMDAT pdata
pdata	SEGMENT
$pdata$?stbi__hdr_to_ldr@@YAPEAEPEAMHHH@Z DD imagerel ?stbi__hdr_to_ldr@@YAPEAEPEAMHHH@Z
	DD	imagerel ?stbi__hdr_to_ldr@@YAPEAEPEAMHHH@Z+615
	DD	imagerel $unwind$?stbi__hdr_to_ldr@@YAPEAEPEAMHHH@Z
pdata	ENDS
;	COMDAT pdata
pdata	SEGMENT
$pdata$?stbi__load_main@@YAPEAXPEAUstbi__context@@PEAH11HPEAUstbi__result_info@@H@Z DD imagerel ?stbi__load_main@@YAPEAXPEAUstbi__context@@PEAH11HPEAUstbi__result_info@@H@Z
	DD	imagerel ?stbi__load_main@@YAPEAXPEAUstbi__context@@PEAH11HPEAUstbi__result_info@@H@Z+931
	DD	imagerel $unwind$?stbi__load_main@@YAPEAXPEAUstbi__context@@PEAH11HPEAUstbi__result_info@@H@Z
pdata	ENDS
;	COMDAT pdata
pdata	SEGMENT
$pdata$?stbi__convert_16_to_8@@YAPEAEPEAGHHH@Z DD imagerel ?stbi__convert_16_to_8@@YAPEAEPEAGHHH@Z
	DD	imagerel ?stbi__convert_16_to_8@@YAPEAEPEAGHHH@Z+226
	DD	imagerel $unwind$?stbi__convert_16_to_8@@YAPEAEPEAGHHH@Z
pdata	ENDS
;	COMDAT pdata
pdata	SEGMENT
$pdata$?stbi__convert_8_to_16@@YAPEAGPEAEHHH@Z DD imagerel ?stbi__convert_8_to_16@@YAPEAGPEAEHHH@Z
	DD	imagerel ?stbi__convert_8_to_16@@YAPEAGPEAEHHH@Z+242
	DD	imagerel $unwind$?stbi__convert_8_to_16@@YAPEAGPEAEHHH@Z
pdata	ENDS
;	COMDAT pdata
pdata	SEGMENT
$pdata$?stbi__vertical_flip@@YAXPEAXHHH@Z DD imagerel ?stbi__vertical_flip@@YAXPEAXHHH@Z
	DD	imagerel ?stbi__vertical_flip@@YAXPEAXHHH@Z+511
	DD	imagerel $unwind$?stbi__vertical_flip@@YAXPEAXHHH@Z
pdata	ENDS
;	COMDAT pdata
pdata	SEGMENT
$pdata$?stbi__vertical_flip_slices@@YAXPEAXHHHH@Z DD imagerel ?stbi__vertical_flip_slices@@YAXPEAXHHHH@Z
	DD	imagerel ?stbi__vertical_flip_slices@@YAXPEAXHHHH@Z+166
	DD	imagerel $unwind$?stbi__vertical_flip_slices@@YAXPEAXHHHH@Z
pdata	ENDS
;	COMDAT pdata
pdata	SEGMENT
$pdata$?stbi__load_and_postprocess_8bit@@YAPEAEPEAUstbi__context@@PEAH11H@Z DD imagerel ?stbi__load_and_postprocess_8bit@@YAPEAEPEAUstbi__context@@PEAH11H@Z
	DD	imagerel ?stbi__load_and_postprocess_8bit@@YAPEAEPEAUstbi__context@@PEAH11H@Z+522
	DD	imagerel $unwind$?stbi__load_and_postprocess_8bit@@YAPEAEPEAUstbi__context@@PEAH11H@Z
pdata	ENDS
;	COMDAT pdata
pdata	SEGMENT
$pdata$?stbi__load_and_postprocess_16bit@@YAPEAGPEAUstbi__context@@PEAH11H@Z DD imagerel ?stbi__load_and_postprocess_16bit@@YAPEAGPEAUstbi__context@@PEAH11H@Z
	DD	imagerel ?stbi__load_and_postprocess_16bit@@YAPEAGPEAUstbi__context@@PEAH11H@Z+528
	DD	imagerel $unwind$?stbi__load_and_postprocess_16bit@@YAPEAGPEAUstbi__context@@PEAH11H@Z
pdata	ENDS
;	COMDAT pdata
pdata	SEGMENT
$pdata$?stbi__float_postprocess@@YAXPEAMPEAH11H@Z DD imagerel ?stbi__float_postprocess@@YAXPEAMPEAH11H@Z
	DD	imagerel ?stbi__float_postprocess@@YAXPEAMPEAH11H@Z+245
	DD	imagerel $unwind$?stbi__float_postprocess@@YAXPEAMPEAH11H@Z
pdata	ENDS
;	COMDAT pdata
pdata	SEGMENT
$pdata$?stbi__fopen@@YAPEAU_iobuf@@PEBD0@Z DD imagerel ?stbi__fopen@@YAPEAU_iobuf@@PEBD0@Z
	DD	imagerel ?stbi__fopen@@YAPEAU_iobuf@@PEBD0@Z+165
	DD	imagerel $unwind$?stbi__fopen@@YAPEAU_iobuf@@PEBD0@Z
pdata	ENDS
;	COMDAT pdata
pdata	SEGMENT
$pdata$?stbi__loadf_main@@YAPEAMPEAUstbi__context@@PEAH11H@Z DD imagerel ?stbi__loadf_main@@YAPEAMPEAUstbi__context@@PEAH11H@Z
	DD	imagerel ?stbi__loadf_main@@YAPEAMPEAUstbi__context@@PEAH11H@Z+437
	DD	imagerel $unwind$?stbi__loadf_main@@YAPEAMPEAUstbi__context@@PEAH11H@Z
pdata	ENDS
;	COMDAT pdata
pdata	SEGMENT
$pdata$?stbi__get8@@YAEPEAUstbi__context@@@Z DD imagerel ?stbi__get8@@YAEPEAUstbi__context@@@Z
	DD	imagerel ?stbi__get8@@YAEPEAUstbi__context@@@Z+224
	DD	imagerel $unwind$?stbi__get8@@YAEPEAUstbi__context@@@Z
pdata	ENDS
;	COMDAT pdata
pdata	SEGMENT
$pdata$?stbi__at_eof@@YAHPEAUstbi__context@@@Z DD imagerel ?stbi__at_eof@@YAHPEAUstbi__context@@@Z
	DD	imagerel ?stbi__at_eof@@YAHPEAUstbi__context@@@Z+176
	DD	imagerel $unwind$?stbi__at_eof@@YAHPEAUstbi__context@@@Z
pdata	ENDS
;	COMDAT pdata
pdata	SEGMENT
$pdata$?stbi__skip@@YAXPEAUstbi__context@@H@Z DD imagerel ?stbi__skip@@YAXPEAUstbi__context@@H@Z
	DD	imagerel ?stbi__skip@@YAXPEAUstbi__context@@H@Z+275
	DD	imagerel $unwind$?stbi__skip@@YAXPEAUstbi__context@@H@Z
pdata	ENDS
;	COMDAT pdata
pdata	SEGMENT
$pdata$?stbi__getn@@YAHPEAUstbi__context@@PEAEH@Z DD imagerel ?stbi__getn@@YAHPEAUstbi__context@@PEAEH@Z
	DD	imagerel ?stbi__getn@@YAHPEAUstbi__context@@PEAEH@Z+426
	DD	imagerel $unwind$?stbi__getn@@YAHPEAUstbi__context@@PEAEH@Z
pdata	ENDS
;	COMDAT pdata
pdata	SEGMENT
$pdata$?stbi__get16be@@YAHPEAUstbi__context@@@Z DD imagerel ?stbi__get16be@@YAHPEAUstbi__context@@@Z
	DD	imagerel ?stbi__get16be@@YAHPEAUstbi__context@@@Z+96
	DD	imagerel $unwind$?stbi__get16be@@YAHPEAUstbi__context@@@Z
pdata	ENDS
;	COMDAT pdata
pdata	SEGMENT
$pdata$?stbi__get32be@@YAIPEAUstbi__context@@@Z DD imagerel ?stbi__get32be@@YAIPEAUstbi__context@@@Z
	DD	imagerel ?stbi__get32be@@YAIPEAUstbi__context@@@Z+90
	DD	imagerel $unwind$?stbi__get32be@@YAIPEAUstbi__context@@@Z
pdata	ENDS
;	COMDAT pdata
pdata	SEGMENT
$pdata$?stbi__get16le@@YAHPEAUstbi__context@@@Z DD imagerel ?stbi__get16le@@YAHPEAUstbi__context@@@Z
	DD	imagerel ?stbi__get16le@@YAHPEAUstbi__context@@@Z+84
	DD	imagerel $unwind$?stbi__get16le@@YAHPEAUstbi__context@@@Z
pdata	ENDS
;	COMDAT pdata
pdata	SEGMENT
$pdata$?stbi__get32le@@YAIPEAUstbi__context@@@Z DD imagerel ?stbi__get32le@@YAIPEAUstbi__context@@@Z
	DD	imagerel ?stbi__get32le@@YAIPEAUstbi__context@@@Z+84
	DD	imagerel $unwind$?stbi__get32le@@YAIPEAUstbi__context@@@Z
pdata	ENDS
;	COMDAT pdata
pdata	SEGMENT
$pdata$?stbi__compute_y@@YAEHHH@Z DD imagerel ?stbi__compute_y@@YAEHHH@Z
	DD	imagerel ?stbi__compute_y@@YAEHHH@Z+80
	DD	imagerel $unwind$?stbi__compute_y@@YAEHHH@Z
pdata	ENDS
;	COMDAT pdata
pdata	SEGMENT
$pdata$?stbi__convert_format@@YAPEAEPEAEHHII@Z DD imagerel ?stbi__convert_format@@YAPEAEPEAEHHII@Z
	DD	imagerel ?stbi__convert_format@@YAPEAEPEAEHHII@Z+2752
	DD	imagerel $unwind$?stbi__convert_format@@YAPEAEPEAEHHII@Z
pdata	ENDS
;	COMDAT pdata
pdata	SEGMENT
$pdata$?stbi__compute_y_16@@YAGHHH@Z DD imagerel ?stbi__compute_y_16@@YAGHHH@Z
	DD	imagerel ?stbi__compute_y_16@@YAGHHH@Z+80
	DD	imagerel $unwind$?stbi__compute_y_16@@YAGHHH@Z
pdata	ENDS
;	COMDAT pdata
pdata	SEGMENT
$pdata$?stbi__convert_format16@@YAPEAGPEAGHHII@Z DD imagerel ?stbi__convert_format16@@YAPEAGPEAGHHII@Z
	DD	imagerel ?stbi__convert_format16@@YAPEAGPEAGHHII@Z+2804
	DD	imagerel $unwind$?stbi__convert_format16@@YAPEAGPEAGHHII@Z
pdata	ENDS
;	COMDAT pdata
pdata	SEGMENT
$pdata$?stbi__build_huffman@@YAHPEAUstbi__huffman@@PEAH@Z DD imagerel ?stbi__build_huffman@@YAHPEAUstbi__huffman@@PEAH@Z
	DD	imagerel ?stbi__build_huffman@@YAHPEAUstbi__huffman@@PEAH@Z+684
	DD	imagerel $unwind$?stbi__build_huffman@@YAHPEAUstbi__huffman@@PEAH@Z
pdata	ENDS
;	COMDAT pdata
pdata	SEGMENT
$pdata$?stbi__build_fast_ac@@YAXPEAFPEAUstbi__huffman@@@Z DD imagerel ?stbi__build_fast_ac@@YAXPEAFPEAUstbi__huffman@@@Z
	DD	imagerel ?stbi__build_fast_ac@@YAXPEAFPEAUstbi__huffman@@@Z+439
	DD	imagerel $unwind$?stbi__build_fast_ac@@YAXPEAFPEAUstbi__huffman@@@Z
pdata	ENDS
;	COMDAT pdata
pdata	SEGMENT
$pdata$?stbi__grow_buffer_unsafe@@YAXPEAUstbi__jpeg@@@Z DD imagerel ?stbi__grow_buffer_unsafe@@YAXPEAUstbi__jpeg@@@Z
	DD	imagerel ?stbi__grow_buffer_unsafe@@YAXPEAUstbi__jpeg@@@Z+313
	DD	imagerel $unwind$?stbi__grow_buffer_unsafe@@YAXPEAUstbi__jpeg@@@Z
pdata	ENDS
;	COMDAT pdata
pdata	SEGMENT
$pdata$?stbi__jpeg_huff_decode@@YAHPEAUstbi__jpeg@@PEAUstbi__huffman@@@Z DD imagerel ?stbi__jpeg_huff_decode@@YAHPEAUstbi__jpeg@@PEAUstbi__huffman@@@Z
	DD	imagerel ?stbi__jpeg_huff_decode@@YAHPEAUstbi__jpeg@@PEAUstbi__huffman@@@Z+737
	DD	imagerel $unwind$?stbi__jpeg_huff_decode@@YAHPEAUstbi__jpeg@@PEAUstbi__huffman@@@Z
pdata	ENDS
;	COMDAT pdata
pdata	SEGMENT
$pdata$?stbi__extend_receive@@YAHPEAUstbi__jpeg@@H@Z DD imagerel ?stbi__extend_receive@@YAHPEAUstbi__jpeg@@H@Z
	DD	imagerel ?stbi__extend_receive@@YAHPEAUstbi__jpeg@@H@Z+255
	DD	imagerel $unwind$?stbi__extend_receive@@YAHPEAUstbi__jpeg@@H@Z
pdata	ENDS
;	COMDAT pdata
pdata	SEGMENT
$pdata$?stbi__jpeg_get_bits@@YAHPEAUstbi__jpeg@@H@Z DD imagerel ?stbi__jpeg_get_bits@@YAHPEAUstbi__jpeg@@H@Z
	DD	imagerel ?stbi__jpeg_get_bits@@YAHPEAUstbi__jpeg@@H@Z+208
	DD	imagerel $unwind$?stbi__jpeg_get_bits@@YAHPEAUstbi__jpeg@@H@Z
pdata	ENDS
;	COMDAT pdata
pdata	SEGMENT
$pdata$?stbi__jpeg_get_bit@@YAHPEAUstbi__jpeg@@@Z DD imagerel ?stbi__jpeg_get_bit@@YAHPEAUstbi__jpeg@@@Z
	DD	imagerel ?stbi__jpeg_get_bit@@YAHPEAUstbi__jpeg@@@Z+149
	DD	imagerel $unwind$?stbi__jpeg_get_bit@@YAHPEAUstbi__jpeg@@@Z
pdata	ENDS
;	COMDAT pdata
pdata	SEGMENT
$pdata$?stbi__jpeg_decode_block@@YAHPEAUstbi__jpeg@@QEAFPEAUstbi__huffman@@2PEAFHPEAG@Z DD imagerel ?stbi__jpeg_decode_block@@YAHPEAUstbi__jpeg@@QEAFPEAUstbi__huffman@@2PEAFHPEAG@Z
	DD	imagerel ?stbi__jpeg_decode_block@@YAHPEAUstbi__jpeg@@QEAFPEAUstbi__huffman@@2PEAFHPEAG@Z+868
	DD	imagerel $unwind$?stbi__jpeg_decode_block@@YAHPEAUstbi__jpeg@@QEAFPEAUstbi__huffman@@2PEAFHPEAG@Z
pdata	ENDS
;	COMDAT pdata
pdata	SEGMENT
$pdata$?stbi__jpeg_decode_block_prog_dc@@YAHPEAUstbi__jpeg@@QEAFPEAUstbi__huffman@@H@Z DD imagerel ?stbi__jpeg_decode_block_prog_dc@@YAHPEAUstbi__jpeg@@QEAFPEAUstbi__huffman@@H@Z
	DD	imagerel ?stbi__jpeg_decode_block_prog_dc@@YAHPEAUstbi__jpeg@@QEAFPEAUstbi__huffman@@H@Z+481
	DD	imagerel $unwind$?stbi__jpeg_decode_block_prog_dc@@YAHPEAUstbi__jpeg@@QEAFPEAUstbi__huffman@@H@Z
pdata	ENDS
;	COMDAT pdata
pdata	SEGMENT
$pdata$?stbi__jpeg_decode_block_prog_ac@@YAHPEAUstbi__jpeg@@QEAFPEAUstbi__huffman@@PEAF@Z DD imagerel ?stbi__jpeg_decode_block_prog_ac@@YAHPEAUstbi__jpeg@@QEAFPEAUstbi__huffman@@PEAF@Z
	DD	imagerel ?stbi__jpeg_decode_block_prog_ac@@YAHPEAUstbi__jpeg@@QEAFPEAUstbi__huffman@@PEAF@Z+1812
	DD	imagerel $unwind$?stbi__jpeg_decode_block_prog_ac@@YAHPEAUstbi__jpeg@@QEAFPEAUstbi__huffman@@PEAF@Z
pdata	ENDS
;	COMDAT pdata
pdata	SEGMENT
$pdata$?stbi__clamp@@YAEH@Z DD imagerel ?stbi__clamp@@YAEH@Z
	DD	imagerel ?stbi__clamp@@YAEH@Z+88
	DD	imagerel $unwind$?stbi__clamp@@YAEH@Z
pdata	ENDS
;	COMDAT pdata
pdata	SEGMENT
$pdata$?stbi__idct_block@@YAXPEAEHQEAF@Z DD imagerel ?stbi__idct_block@@YAXPEAEHQEAF@Z
	DD	imagerel ?stbi__idct_block@@YAXPEAEHQEAF@Z+3188
	DD	imagerel $unwind$?stbi__idct_block@@YAXPEAEHQEAF@Z
pdata	ENDS
;	COMDAT pdata
pdata	SEGMENT
$pdata$?stbi__idct_simd@@YAXPEAEHQEAF@Z DD imagerel ?stbi__idct_simd@@YAXPEAEHQEAF@Z
	DD	imagerel ?stbi__idct_simd@@YAXPEAEHQEAF@Z+10174
	DD	imagerel $unwind$?stbi__idct_simd@@YAXPEAEHQEAF@Z
pdata	ENDS
;	COMDAT pdata
pdata	SEGMENT
$pdata$?stbi__get_marker@@YAEPEAUstbi__jpeg@@@Z DD imagerel ?stbi__get_marker@@YAEPEAUstbi__jpeg@@@Z
	DD	imagerel ?stbi__get_marker@@YAEPEAUstbi__jpeg@@@Z+167
	DD	imagerel $unwind$?stbi__get_marker@@YAEPEAUstbi__jpeg@@@Z
pdata	ENDS
;	COMDAT pdata
pdata	SEGMENT
$pdata$?stbi__jpeg_reset@@YAXPEAUstbi__jpeg@@@Z DD imagerel ?stbi__jpeg_reset@@YAXPEAUstbi__jpeg@@@Z
	DD	imagerel ?stbi__jpeg_reset@@YAXPEAUstbi__jpeg@@@Z+297
	DD	imagerel $unwind$?stbi__jpeg_reset@@YAXPEAUstbi__jpeg@@@Z
pdata	ENDS
;	COMDAT pdata
pdata	SEGMENT
$pdata$?stbi__parse_entropy_coded_data@@YAHPEAUstbi__jpeg@@@Z DD imagerel ?stbi__parse_entropy_coded_data@@YAHPEAUstbi__jpeg@@@Z
	DD	imagerel ?stbi__parse_entropy_coded_data@@YAHPEAUstbi__jpeg@@@Z+3260
	DD	imagerel $unwind$?stbi__parse_entropy_coded_data@@YAHPEAUstbi__jpeg@@@Z
pdata	ENDS
;	COMDAT pdata
pdata	SEGMENT
$pdata$?stbi__jpeg_dequantize@@YAXPEAFPEAG@Z DD imagerel ?stbi__jpeg_dequantize@@YAXPEAFPEAG@Z
	DD	imagerel ?stbi__jpeg_dequantize@@YAXPEAFPEAG@Z+121
	DD	imagerel $unwind$?stbi__jpeg_dequantize@@YAXPEAFPEAG@Z
pdata	ENDS
;	COMDAT pdata
pdata	SEGMENT
$pdata$?stbi__jpeg_finish@@YAXPEAUstbi__jpeg@@@Z DD imagerel ?stbi__jpeg_finish@@YAXPEAUstbi__jpeg@@@Z
	DD	imagerel ?stbi__jpeg_finish@@YAXPEAUstbi__jpeg@@@Z+506
	DD	imagerel $unwind$?stbi__jpeg_finish@@YAXPEAUstbi__jpeg@@@Z
pdata	ENDS
;	COMDAT pdata
pdata	SEGMENT
$pdata$?stbi__process_marker@@YAHPEAUstbi__jpeg@@H@Z DD imagerel ?stbi__process_marker@@YAHPEAUstbi__jpeg@@H@Z
	DD	imagerel ?stbi__process_marker@@YAHPEAUstbi__jpeg@@H@Z+1873
	DD	imagerel $unwind$?stbi__process_marker@@YAHPEAUstbi__jpeg@@H@Z
pdata	ENDS
;	COMDAT pdata
pdata	SEGMENT
$pdata$?stbi__process_scan_header@@YAHPEAUstbi__jpeg@@@Z DD imagerel ?stbi__process_scan_header@@YAHPEAUstbi__jpeg@@@Z
	DD	imagerel ?stbi__process_scan_header@@YAHPEAUstbi__jpeg@@@Z+905
	DD	imagerel $unwind$?stbi__process_scan_header@@YAHPEAUstbi__jpeg@@@Z
pdata	ENDS
;	COMDAT pdata
pdata	SEGMENT
$pdata$?stbi__free_jpeg_components@@YAHPEAUstbi__jpeg@@HH@Z DD imagerel ?stbi__free_jpeg_components@@YAHPEAUstbi__jpeg@@HH@Z
	DD	imagerel ?stbi__free_jpeg_components@@YAHPEAUstbi__jpeg@@HH@Z+393
	DD	imagerel $unwind$?stbi__free_jpeg_components@@YAHPEAUstbi__jpeg@@HH@Z
pdata	ENDS
;	COMDAT pdata
pdata	SEGMENT
$pdata$?stbi__process_frame_header@@YAHPEAUstbi__jpeg@@H@Z DD imagerel ?stbi__process_frame_header@@YAHPEAUstbi__jpeg@@H@Z
	DD	imagerel ?stbi__process_frame_header@@YAHPEAUstbi__jpeg@@H@Z+2435
	DD	imagerel $unwind$?stbi__process_frame_header@@YAHPEAUstbi__jpeg@@H@Z
pdata	ENDS
;	COMDAT pdata
pdata	SEGMENT
$pdata$?stbi__decode_jpeg_header@@YAHPEAUstbi__jpeg@@H@Z DD imagerel ?stbi__decode_jpeg_header@@YAHPEAUstbi__jpeg@@H@Z
	DD	imagerel ?stbi__decode_jpeg_header@@YAHPEAUstbi__jpeg@@H@Z+397
	DD	imagerel $unwind$?stbi__decode_jpeg_header@@YAHPEAUstbi__jpeg@@H@Z
pdata	ENDS
;	COMDAT pdata
pdata	SEGMENT
$pdata$?stbi__decode_jpeg_image@@YAHPEAUstbi__jpeg@@@Z DD imagerel ?stbi__decode_jpeg_image@@YAHPEAUstbi__jpeg@@@Z
	DD	imagerel ?stbi__decode_jpeg_image@@YAHPEAUstbi__jpeg@@@Z+534
	DD	imagerel $unwind$?stbi__decode_jpeg_image@@YAHPEAUstbi__jpeg@@@Z
pdata	ENDS
;	COMDAT pdata
pdata	SEGMENT
$pdata$?resample_row_1@@YAPEAEPEAE00HH@Z DD imagerel ?resample_row_1@@YAPEAEPEAE00HH@Z
	DD	imagerel ?resample_row_1@@YAPEAEPEAE00HH@Z+63
	DD	imagerel $unwind$?resample_row_1@@YAPEAEPEAE00HH@Z
pdata	ENDS
;	COMDAT pdata
pdata	SEGMENT
$pdata$?stbi__resample_row_v_2@@YAPEAEPEAE00HH@Z DD imagerel ?stbi__resample_row_v_2@@YAPEAEPEAE00HH@Z
	DD	imagerel ?stbi__resample_row_v_2@@YAPEAEPEAE00HH@Z+147
	DD	imagerel $unwind$?stbi__resample_row_v_2@@YAPEAEPEAE00HH@Z
pdata	ENDS
;	COMDAT pdata
pdata	SEGMENT
$pdata$?stbi__resample_row_h_2@@YAPEAEPEAE00HH@Z DD imagerel ?stbi__resample_row_h_2@@YAPEAEPEAE00HH@Z
	DD	imagerel ?stbi__resample_row_h_2@@YAPEAEPEAE00HH@Z+521
	DD	imagerel $unwind$?stbi__resample_row_h_2@@YAPEAEPEAE00HH@Z
pdata	ENDS
;	COMDAT pdata
pdata	SEGMENT
$pdata$?stbi__resample_row_hv_2@@YAPEAEPEAE00HH@Z DD imagerel ?stbi__resample_row_hv_2@@YAPEAEPEAE00HH@Z
	DD	imagerel ?stbi__resample_row_hv_2@@YAPEAEPEAE00HH@Z+443
	DD	imagerel $unwind$?stbi__resample_row_hv_2@@YAPEAEPEAE00HH@Z
pdata	ENDS
;	COMDAT pdata
pdata	SEGMENT
$pdata$?stbi__resample_row_hv_2_simd@@YAPEAEPEAE00HH@Z DD imagerel ?stbi__resample_row_hv_2_simd@@YAPEAEPEAE00HH@Z
	DD	imagerel ?stbi__resample_row_hv_2_simd@@YAPEAEPEAE00HH@Z+1576
	DD	imagerel $unwind$?stbi__resample_row_hv_2_simd@@YAPEAEPEAE00HH@Z
pdata	ENDS
;	COMDAT pdata
pdata	SEGMENT
$pdata$?stbi__resample_row_generic@@YAPEAEPEAE00HH@Z DD imagerel ?stbi__resample_row_generic@@YAPEAEPEAE00HH@Z
	DD	imagerel ?stbi__resample_row_generic@@YAPEAEPEAE00HH@Z+165
	DD	imagerel $unwind$?stbi__resample_row_generic@@YAPEAEPEAE00HH@Z
pdata	ENDS
;	COMDAT pdata
pdata	SEGMENT
$pdata$?stbi__YCbCr_to_RGB_row@@YAXPEAEPEBE11HH@Z DD imagerel ?stbi__YCbCr_to_RGB_row@@YAXPEAEPEBE11HH@Z
	DD	imagerel ?stbi__YCbCr_to_RGB_row@@YAXPEAEPEBE11HH@Z+509
	DD	imagerel $unwind$?stbi__YCbCr_to_RGB_row@@YAXPEAEPEBE11HH@Z
pdata	ENDS
;	COMDAT pdata
pdata	SEGMENT
$pdata$?stbi__YCbCr_to_RGB_simd@@YAXPEAEPEBE11HH@Z DD imagerel ?stbi__YCbCr_to_RGB_simd@@YAXPEAEPEBE11HH@Z
	DD	imagerel ?stbi__YCbCr_to_RGB_simd@@YAXPEAEPEBE11HH@Z+1958
	DD	imagerel $unwind$?stbi__YCbCr_to_RGB_simd@@YAXPEAEPEBE11HH@Z
pdata	ENDS
;	COMDAT pdata
pdata	SEGMENT
$pdata$?stbi__setup_jpeg@@YAXPEAUstbi__jpeg@@@Z DD imagerel ?stbi__setup_jpeg@@YAXPEAUstbi__jpeg@@@Z
	DD	imagerel ?stbi__setup_jpeg@@YAXPEAUstbi__jpeg@@@Z+176
	DD	imagerel $unwind$?stbi__setup_jpeg@@YAXPEAUstbi__jpeg@@@Z
pdata	ENDS
;	COMDAT pdata
pdata	SEGMENT
$pdata$?stbi__cleanup_jpeg@@YAXPEAUstbi__jpeg@@@Z DD imagerel ?stbi__cleanup_jpeg@@YAXPEAUstbi__jpeg@@@Z
	DD	imagerel ?stbi__cleanup_jpeg@@YAXPEAUstbi__jpeg@@@Z+69
	DD	imagerel $unwind$?stbi__cleanup_jpeg@@YAXPEAUstbi__jpeg@@@Z
pdata	ENDS
;	COMDAT pdata
pdata	SEGMENT
$pdata$?stbi__blinn_8x8@@YAEEE@Z DD imagerel ?stbi__blinn_8x8@@YAEEE@Z
	DD	imagerel ?stbi__blinn_8x8@@YAEEE@Z+85
	DD	imagerel $unwind$?stbi__blinn_8x8@@YAEEE@Z
pdata	ENDS
;	COMDAT pdata
pdata	SEGMENT
$pdata$?load_jpeg_image@@YAPEAEPEAUstbi__jpeg@@PEAH11H@Z DD imagerel ?load_jpeg_image@@YAPEAEPEAUstbi__jpeg@@PEAH11H@Z
	DD	imagerel ?load_jpeg_image@@YAPEAEPEAUstbi__jpeg@@PEAH11H@Z+4890
	DD	imagerel $unwind$?load_jpeg_image@@YAPEAEPEAUstbi__jpeg@@PEAH11H@Z
pdata	ENDS
;	COMDAT pdata
pdata	SEGMENT
$pdata$?stbi__jpeg_info_raw@@YAHPEAUstbi__jpeg@@PEAH11@Z DD imagerel ?stbi__jpeg_info_raw@@YAHPEAUstbi__jpeg@@PEAH11@Z
	DD	imagerel ?stbi__jpeg_info_raw@@YAHPEAUstbi__jpeg@@PEAH11@Z+230
	DD	imagerel $unwind$?stbi__jpeg_info_raw@@YAHPEAUstbi__jpeg@@PEAH11@Z
pdata	ENDS
;	COMDAT pdata
pdata	SEGMENT
$pdata$?stbi__bitreverse16@@YAHH@Z DD imagerel ?stbi__bitreverse16@@YAHH@Z
	DD	imagerel ?stbi__bitreverse16@@YAHH@Z+192
	DD	imagerel $unwind$?stbi__bitreverse16@@YAHH@Z
pdata	ENDS
;	COMDAT pdata
pdata	SEGMENT
$pdata$?stbi__bit_reverse@@YAHHH@Z DD imagerel ?stbi__bit_reverse@@YAHHH@Z
	DD	imagerel ?stbi__bit_reverse@@YAHHH@Z+110
	DD	imagerel $unwind$?stbi__bit_reverse@@YAHHH@Z
pdata	ENDS
;	COMDAT pdata
pdata	SEGMENT
$pdata$?stbi__zbuild_huffman@@YAHPEAUstbi__zhuffman@@PEBEH@Z DD imagerel ?stbi__zbuild_huffman@@YAHPEAUstbi__zhuffman@@PEBEH@Z
	DD	imagerel ?stbi__zbuild_huffman@@YAHPEAUstbi__zhuffman@@PEBEH@Z+960
	DD	imagerel $unwind$?stbi__zbuild_huffman@@YAHPEAUstbi__zhuffman@@PEBEH@Z
pdata	ENDS
;	COMDAT pdata
pdata	SEGMENT
$pdata$?stbi__zeof@@YAHPEAUstbi__zbuf@@@Z DD imagerel ?stbi__zeof@@YAHPEAUstbi__zbuf@@@Z
	DD	imagerel ?stbi__zeof@@YAHPEAUstbi__zbuf@@@Z+92
	DD	imagerel $unwind$?stbi__zeof@@YAHPEAUstbi__zbuf@@@Z
pdata	ENDS
;	COMDAT pdata
pdata	SEGMENT
$pdata$?stbi__zget8@@YAEPEAUstbi__zbuf@@@Z DD imagerel ?stbi__zget8@@YAEPEAUstbi__zbuf@@@Z
	DD	imagerel ?stbi__zget8@@YAEPEAUstbi__zbuf@@@Z+118
	DD	imagerel $unwind$?stbi__zget8@@YAEPEAUstbi__zbuf@@@Z
pdata	ENDS
;	COMDAT pdata
pdata	SEGMENT
$pdata$?stbi__fill_bits@@YAXPEAUstbi__zbuf@@@Z DD imagerel ?stbi__fill_bits@@YAXPEAUstbi__zbuf@@@Z
	DD	imagerel ?stbi__fill_bits@@YAXPEAUstbi__zbuf@@@Z+253
	DD	imagerel $unwind$?stbi__fill_bits@@YAXPEAUstbi__zbuf@@@Z
pdata	ENDS
;	COMDAT pdata
pdata	SEGMENT
$pdata$?stbi__zreceive@@YAIPEAUstbi__zbuf@@H@Z DD imagerel ?stbi__zreceive@@YAIPEAUstbi__zbuf@@H@Z
	DD	imagerel ?stbi__zreceive@@YAIPEAUstbi__zbuf@@H@Z+198
	DD	imagerel $unwind$?stbi__zreceive@@YAIPEAUstbi__zbuf@@H@Z
pdata	ENDS
;	COMDAT pdata
pdata	SEGMENT
$pdata$?stbi__zhuffman_decode_slowpath@@YAHPEAUstbi__zbuf@@PEAUstbi__zhuffman@@@Z DD imagerel ?stbi__zhuffman_decode_slowpath@@YAHPEAUstbi__zbuf@@PEAUstbi__zhuffman@@@Z
	DD	imagerel ?stbi__zhuffman_decode_slowpath@@YAHPEAUstbi__zbuf@@PEAUstbi__zhuffman@@@Z+323
	DD	imagerel $unwind$?stbi__zhuffman_decode_slowpath@@YAHPEAUstbi__zbuf@@PEAUstbi__zhuffman@@@Z
pdata	ENDS
;	COMDAT pdata
pdata	SEGMENT
$pdata$?stbi__zhuffman_decode@@YAHPEAUstbi__zbuf@@PEAUstbi__zhuffman@@@Z DD imagerel ?stbi__zhuffman_decode@@YAHPEAUstbi__zbuf@@PEAUstbi__zhuffman@@@Z
	DD	imagerel ?stbi__zhuffman_decode@@YAHPEAUstbi__zbuf@@PEAUstbi__zhuffman@@@Z+239
	DD	imagerel $unwind$?stbi__zhuffman_decode@@YAHPEAUstbi__zbuf@@PEAUstbi__zhuffman@@@Z
pdata	ENDS
;	COMDAT pdata
pdata	SEGMENT
$pdata$?stbi__zexpand@@YAHPEAUstbi__zbuf@@PEADH@Z DD imagerel ?stbi__zexpand@@YAHPEAUstbi__zbuf@@PEADH@Z
	DD	imagerel ?stbi__zexpand@@YAHPEAUstbi__zbuf@@PEADH@Z+360
	DD	imagerel $unwind$?stbi__zexpand@@YAHPEAUstbi__zbuf@@PEADH@Z
pdata	ENDS
;	COMDAT pdata
pdata	SEGMENT
$pdata$?stbi__parse_huffman_block@@YAHPEAUstbi__zbuf@@@Z DD imagerel ?stbi__parse_huffman_block@@YAHPEAUstbi__zbuf@@@Z
	DD	imagerel ?stbi__parse_huffman_block@@YAHPEAUstbi__zbuf@@@Z+741
	DD	imagerel $unwind$?stbi__parse_huffman_block@@YAHPEAUstbi__zbuf@@@Z
pdata	ENDS
;	COMDAT pdata
pdata	SEGMENT
$pdata$?stbi__compute_huffman_codes@@YAHPEAUstbi__zbuf@@@Z DD imagerel ?stbi__compute_huffman_codes@@YAHPEAUstbi__zbuf@@@Z
	DD	imagerel ?stbi__compute_huffman_codes@@YAHPEAUstbi__zbuf@@@Z+946
	DD	imagerel $unwind$?stbi__compute_huffman_codes@@YAHPEAUstbi__zbuf@@@Z
pdata	ENDS
;	COMDAT pdata
pdata	SEGMENT
$pdata$?stbi__parse_uncompressed_block@@YAHPEAUstbi__zbuf@@@Z DD imagerel ?stbi__parse_uncompressed_block@@YAHPEAUstbi__zbuf@@@Z
	DD	imagerel ?stbi__parse_uncompressed_block@@YAHPEAUstbi__zbuf@@@Z+600
	DD	imagerel $unwind$?stbi__parse_uncompressed_block@@YAHPEAUstbi__zbuf@@@Z
pdata	ENDS
;	COMDAT pdata
pdata	SEGMENT
$pdata$?stbi__parse_zlib_header@@YAHPEAUstbi__zbuf@@@Z DD imagerel ?stbi__parse_zlib_header@@YAHPEAUstbi__zbuf@@@Z
	DD	imagerel ?stbi__parse_zlib_header@@YAHPEAUstbi__zbuf@@@Z+203
	DD	imagerel $unwind$?stbi__parse_zlib_header@@YAHPEAUstbi__zbuf@@@Z
pdata	ENDS
;	COMDAT pdata
pdata	SEGMENT
$pdata$?stbi__parse_zlib@@YAHPEAUstbi__zbuf@@H@Z DD imagerel ?stbi__parse_zlib@@YAHPEAUstbi__zbuf@@H@Z
	DD	imagerel ?stbi__parse_zlib@@YAHPEAUstbi__zbuf@@H@Z+342
	DD	imagerel $unwind$?stbi__parse_zlib@@YAHPEAUstbi__zbuf@@H@Z
pdata	ENDS
;	COMDAT pdata
pdata	SEGMENT
$pdata$?stbi__do_zlib@@YAHPEAUstbi__zbuf@@PEADHHH@Z DD imagerel ?stbi__do_zlib@@YAHPEAUstbi__zbuf@@PEADHHH@Z
	DD	imagerel ?stbi__do_zlib@@YAHPEAUstbi__zbuf@@PEADHHH@Z+157
	DD	imagerel $unwind$?stbi__do_zlib@@YAHPEAUstbi__zbuf@@PEADHHH@Z
pdata	ENDS
;	COMDAT pdata
pdata	SEGMENT
$pdata$?stbi__get_chunk_header@@YA?AUstbi__pngchunk@@PEAUstbi__context@@@Z DD imagerel ?stbi__get_chunk_header@@YA?AUstbi__pngchunk@@PEAUstbi__context@@@Z
	DD	imagerel ?stbi__get_chunk_header@@YA?AUstbi__pngchunk@@PEAUstbi__context@@@Z+122
	DD	imagerel $unwind$?stbi__get_chunk_header@@YA?AUstbi__pngchunk@@PEAUstbi__context@@@Z
pdata	ENDS
;	COMDAT pdata
pdata	SEGMENT
$pdata$?stbi__check_png_header@@YAHPEAUstbi__context@@@Z DD imagerel ?stbi__check_png_header@@YAHPEAUstbi__context@@@Z
	DD	imagerel ?stbi__check_png_header@@YAHPEAUstbi__context@@@Z+119
	DD	imagerel $unwind$?stbi__check_png_header@@YAHPEAUstbi__context@@@Z
pdata	ENDS
;	COMDAT pdata
pdata	SEGMENT
$pdata$?stbi__paeth@@YAHHHH@Z DD imagerel ?stbi__paeth@@YAHHHH@Z
	DD	imagerel ?stbi__paeth@@YAHHHH@Z+189
	DD	imagerel $unwind$?stbi__paeth@@YAHHHH@Z
pdata	ENDS
;	COMDAT pdata
pdata	SEGMENT
$pdata$?stbi__create_png_image_raw@@YAHPEAUstbi__png@@PEAEIHIIHH@Z DD imagerel ?stbi__create_png_image_raw@@YAHPEAUstbi__png@@PEAEIHIIHH@Z
	DD	imagerel ?stbi__create_png_image_raw@@YAHPEAUstbi__png@@PEAEIHIIHH@Z+7176
	DD	imagerel $unwind$?stbi__create_png_image_raw@@YAHPEAUstbi__png@@PEAEIHIIHH@Z
pdata	ENDS
;	COMDAT pdata
pdata	SEGMENT
$pdata$?stbi__create_png_image@@YAHPEAUstbi__png@@PEAEIHHHH@Z DD imagerel ?stbi__create_png_image@@YAHPEAUstbi__png@@PEAEIHHHH@Z
	DD	imagerel ?stbi__create_png_image@@YAHPEAUstbi__png@@PEAEIHHHH@Z+1304
	DD	imagerel $unwind$?stbi__create_png_image@@YAHPEAUstbi__png@@PEAEIHHHH@Z
pdata	ENDS
;	COMDAT pdata
pdata	SEGMENT
$pdata$?stbi__compute_transparency@@YAHPEAUstbi__png@@QEAEH@Z DD imagerel ?stbi__compute_transparency@@YAHPEAUstbi__png@@QEAEH@Z
	DD	imagerel ?stbi__compute_transparency@@YAHPEAUstbi__png@@QEAEH@Z+483
	DD	imagerel $unwind$?stbi__compute_transparency@@YAHPEAUstbi__png@@QEAEH@Z
pdata	ENDS
;	COMDAT pdata
pdata	SEGMENT
$pdata$?stbi__compute_transparency16@@YAHPEAUstbi__png@@QEAGH@Z DD imagerel ?stbi__compute_transparency16@@YAHPEAUstbi__png@@QEAGH@Z
	DD	imagerel ?stbi__compute_transparency16@@YAHPEAUstbi__png@@QEAGH@Z+486
	DD	imagerel $unwind$?stbi__compute_transparency16@@YAHPEAUstbi__png@@QEAGH@Z
pdata	ENDS
;	COMDAT pdata
pdata	SEGMENT
$pdata$?stbi__expand_png_palette@@YAHPEAUstbi__png@@PEAEHH@Z DD imagerel ?stbi__expand_png_palette@@YAHPEAUstbi__png@@PEAEHH@Z
	DD	imagerel ?stbi__expand_png_palette@@YAHPEAUstbi__png@@PEAEHH@Z+612
	DD	imagerel $unwind$?stbi__expand_png_palette@@YAHPEAUstbi__png@@PEAEHH@Z
pdata	ENDS
;	COMDAT pdata
pdata	SEGMENT
$pdata$?stbi__unpremultiply_on_load_thread@@YAXH@Z DD imagerel $LN3
	DD	imagerel $LN3+108
	DD	imagerel $unwind$?stbi__unpremultiply_on_load_thread@@YAXH@Z
pdata	ENDS
;	COMDAT pdata
pdata	SEGMENT
$pdata$?stbi__de_iphone@@YAXPEAUstbi__png@@@Z DD imagerel ?stbi__de_iphone@@YAXPEAUstbi__png@@@Z
	DD	imagerel ?stbi__de_iphone@@YAXPEAUstbi__png@@@Z+828
	DD	imagerel $unwind$?stbi__de_iphone@@YAXPEAUstbi__png@@@Z
pdata	ENDS
;	COMDAT pdata
pdata	SEGMENT
$pdata$?stbi__parse_png_file@@YAHPEAUstbi__png@@HH@Z DD imagerel ?stbi__parse_png_file@@YAHPEAUstbi__png@@HH@Z
	DD	imagerel ?stbi__parse_png_file@@YAHPEAUstbi__png@@HH@Z+3728
	DD	imagerel $unwind$?stbi__parse_png_file@@YAHPEAUstbi__png@@HH@Z
pdata	ENDS
;	COMDAT pdata
pdata	SEGMENT
$pdata$?stbi__do_png@@YAPEAXPEAUstbi__png@@PEAH11HPEAUstbi__result_info@@@Z DD imagerel ?stbi__do_png@@YAPEAXPEAUstbi__png@@PEAH11HPEAUstbi__result_info@@@Z
	DD	imagerel ?stbi__do_png@@YAPEAXPEAUstbi__png@@PEAH11HPEAUstbi__result_info@@@Z+685
	DD	imagerel $unwind$?stbi__do_png@@YAPEAXPEAUstbi__png@@PEAH11HPEAUstbi__result_info@@@Z
pdata	ENDS
;	COMDAT pdata
pdata	SEGMENT
$pdata$?stbi__png_info_raw@@YAHPEAUstbi__png@@PEAH11@Z DD imagerel ?stbi__png_info_raw@@YAHPEAUstbi__png@@PEAH11@Z
	DD	imagerel ?stbi__png_info_raw@@YAHPEAUstbi__png@@PEAH11@Z+199
	DD	imagerel $unwind$?stbi__png_info_raw@@YAHPEAUstbi__png@@PEAH11@Z
pdata	ENDS
;	COMDAT pdata
pdata	SEGMENT
$pdata$?stbi__bmp_test_raw@@YAHPEAUstbi__context@@@Z DD imagerel ?stbi__bmp_test_raw@@YAHPEAUstbi__context@@@Z
	DD	imagerel ?stbi__bmp_test_raw@@YAHPEAUstbi__context@@@Z+219
	DD	imagerel $unwind$?stbi__bmp_test_raw@@YAHPEAUstbi__context@@@Z
pdata	ENDS
;	COMDAT pdata
pdata	SEGMENT
$pdata$?stbi__high_bit@@YAHI@Z DD imagerel ?stbi__high_bit@@YAHI@Z
	DD	imagerel ?stbi__high_bit@@YAHI@Z+224
	DD	imagerel $unwind$?stbi__high_bit@@YAHI@Z
pdata	ENDS
;	COMDAT pdata
pdata	SEGMENT
$pdata$?stbi__bitcount@@YAHI@Z DD imagerel ?stbi__bitcount@@YAHI@Z
	DD	imagerel ?stbi__bitcount@@YAHI@Z+198
	DD	imagerel $unwind$?stbi__bitcount@@YAHI@Z
pdata	ENDS
;	COMDAT pdata
pdata	SEGMENT
$pdata$?stbi__shiftsigned@@YAHIHH@Z DD imagerel ?stbi__shiftsigned@@YAHIHH@Z
	DD	imagerel ?stbi__shiftsigned@@YAHIHH@Z+279
	DD	imagerel $unwind$?stbi__shiftsigned@@YAHIHH@Z
pdata	ENDS
;	COMDAT pdata
pdata	SEGMENT
$pdata$?stbi__bmp_set_mask_defaults@@YAHPEAUstbi__bmp_data@@H@Z DD imagerel ?stbi__bmp_set_mask_defaults@@YAHPEAUstbi__bmp_data@@H@Z
	DD	imagerel ?stbi__bmp_set_mask_defaults@@YAHPEAUstbi__bmp_data@@H@Z+285
	DD	imagerel $unwind$?stbi__bmp_set_mask_defaults@@YAHPEAUstbi__bmp_data@@H@Z
pdata	ENDS
;	COMDAT pdata
pdata	SEGMENT
$pdata$?stbi__bmp_parse_header@@YAPEAXPEAUstbi__context@@PEAUstbi__bmp_data@@@Z DD imagerel ?stbi__bmp_parse_header@@YAPEAXPEAUstbi__context@@PEAUstbi__bmp_data@@@Z
	DD	imagerel ?stbi__bmp_parse_header@@YAPEAXPEAUstbi__context@@PEAUstbi__bmp_data@@@Z+1553
	DD	imagerel $unwind$?stbi__bmp_parse_header@@YAPEAXPEAUstbi__context@@PEAUstbi__bmp_data@@@Z
pdata	ENDS
;	COMDAT pdata
pdata	SEGMENT
$pdata$?stbi__tga_get_comp@@YAHHHPEAH@Z DD imagerel ?stbi__tga_get_comp@@YAHHHPEAH@Z
	DD	imagerel ?stbi__tga_get_comp@@YAHHHPEAH@Z+203
	DD	imagerel $unwind$?stbi__tga_get_comp@@YAHHHPEAH@Z
pdata	ENDS
;	COMDAT pdata
pdata	SEGMENT
$pdata$?stbi__tga_read_rgb16@@YAXPEAUstbi__context@@PEAE@Z DD imagerel ?stbi__tga_read_rgb16@@YAXPEAUstbi__context@@PEAE@Z
	DD	imagerel ?stbi__tga_read_rgb16@@YAXPEAUstbi__context@@PEAE@Z+224
	DD	imagerel $unwind$?stbi__tga_read_rgb16@@YAXPEAUstbi__context@@PEAE@Z
pdata	ENDS
;	COMDAT pdata
pdata	SEGMENT
$pdata$?stbi__psd_decode_rle@@YAHPEAUstbi__context@@PEAEH@Z DD imagerel ?stbi__psd_decode_rle@@YAHPEAUstbi__context@@PEAEH@Z
	DD	imagerel ?stbi__psd_decode_rle@@YAHPEAUstbi__context@@PEAEH@Z+335
	DD	imagerel $unwind$?stbi__psd_decode_rle@@YAHPEAUstbi__context@@PEAEH@Z
pdata	ENDS
;	COMDAT pdata
pdata	SEGMENT
$pdata$?stbi__pic_is4@@YAHPEAUstbi__context@@PEBD@Z DD imagerel ?stbi__pic_is4@@YAHPEAUstbi__context@@PEBD@Z
	DD	imagerel ?stbi__pic_is4@@YAHPEAUstbi__context@@PEBD@Z+114
	DD	imagerel $unwind$?stbi__pic_is4@@YAHPEAUstbi__context@@PEBD@Z
pdata	ENDS
;	COMDAT pdata
pdata	SEGMENT
$pdata$?stbi__pic_test_core@@YAHPEAUstbi__context@@@Z DD imagerel ?stbi__pic_test_core@@YAHPEAUstbi__context@@@Z
	DD	imagerel ?stbi__pic_test_core@@YAHPEAUstbi__context@@@Z+137
	DD	imagerel $unwind$?stbi__pic_test_core@@YAHPEAUstbi__context@@@Z
pdata	ENDS
;	COMDAT pdata
pdata	SEGMENT
$pdata$?stbi__readval@@YAPEAEPEAUstbi__context@@HPEAE@Z DD imagerel ?stbi__readval@@YAPEAEPEAUstbi__context@@HPEAE@Z
	DD	imagerel ?stbi__readval@@YAPEAEPEAUstbi__context@@HPEAE@Z+206
	DD	imagerel $unwind$?stbi__readval@@YAPEAEPEAUstbi__context@@HPEAE@Z
pdata	ENDS
;	COMDAT pdata
pdata	SEGMENT
$pdata$?stbi__copyval@@YAXHPEAEPEBE@Z DD imagerel ?stbi__copyval@@YAXHPEAEPEBE@Z
	DD	imagerel ?stbi__copyval@@YAXHPEAEPEBE@Z+137
	DD	imagerel $unwind$?stbi__copyval@@YAXHPEAEPEBE@Z
pdata	ENDS
;	COMDAT pdata
pdata	SEGMENT
$pdata$?stbi__pic_load_core@@YAPEAEPEAUstbi__context@@HHPEAHPEAE@Z DD imagerel ?stbi__pic_load_core@@YAPEAEPEAUstbi__context@@HHPEAHPEAE@Z
	DD	imagerel ?stbi__pic_load_core@@YAPEAEPEAUstbi__context@@HHPEAHPEAE@Z+1800
	DD	imagerel $unwind$?stbi__pic_load_core@@YAPEAEPEAUstbi__context@@HHPEAHPEAE@Z
pdata	ENDS
;	COMDAT pdata
pdata	SEGMENT
$pdata$?stbi__gif_test_raw@@YAHPEAUstbi__context@@@Z DD imagerel ?stbi__gif_test_raw@@YAHPEAUstbi__context@@@Z
	DD	imagerel ?stbi__gif_test_raw@@YAHPEAUstbi__context@@@Z+188
	DD	imagerel $unwind$?stbi__gif_test_raw@@YAHPEAUstbi__context@@@Z
pdata	ENDS
;	COMDAT pdata
pdata	SEGMENT
$pdata$?stbi__gif_parse_colortable@@YAXPEAUstbi__context@@QEAY03EHH@Z DD imagerel ?stbi__gif_parse_colortable@@YAXPEAUstbi__context@@QEAY03EHH@Z
	DD	imagerel ?stbi__gif_parse_colortable@@YAXPEAUstbi__context@@QEAY03EHH@Z+277
	DD	imagerel $unwind$?stbi__gif_parse_colortable@@YAXPEAUstbi__context@@QEAY03EHH@Z
pdata	ENDS
;	COMDAT pdata
pdata	SEGMENT
$pdata$?stbi__gif_header@@YAHPEAUstbi__context@@PEAUstbi__gif@@PEAHH@Z DD imagerel ?stbi__gif_header@@YAHPEAUstbi__context@@PEAUstbi__gif@@PEAHH@Z
	DD	imagerel ?stbi__gif_header@@YAHPEAUstbi__context@@PEAUstbi__gif@@PEAHH@Z+607
	DD	imagerel $unwind$?stbi__gif_header@@YAHPEAUstbi__context@@PEAUstbi__gif@@PEAHH@Z
pdata	ENDS
;	COMDAT pdata
pdata	SEGMENT
$pdata$?stbi__gif_info_raw@@YAHPEAUstbi__context@@PEAH11@Z DD imagerel ?stbi__gif_info_raw@@YAHPEAUstbi__context@@PEAH11@Z
	DD	imagerel ?stbi__gif_info_raw@@YAHPEAUstbi__context@@PEAH11@Z+216
	DD	imagerel $unwind$?stbi__gif_info_raw@@YAHPEAUstbi__context@@PEAH11@Z
pdata	ENDS
;	COMDAT pdata
pdata	SEGMENT
$pdata$?stbi__out_gif_code@@YAXPEAUstbi__gif@@G@Z DD imagerel ?stbi__out_gif_code@@YAXPEAUstbi__gif@@G@Z
	DD	imagerel ?stbi__out_gif_code@@YAXPEAUstbi__gif@@G@Z+751
	DD	imagerel $unwind$?stbi__out_gif_code@@YAXPEAUstbi__gif@@G@Z
pdata	ENDS
;	COMDAT pdata
pdata	SEGMENT
$pdata$?stbi__process_gif_raster@@YAPEAEPEAUstbi__context@@PEAUstbi__gif@@@Z DD imagerel ?stbi__process_gif_raster@@YAPEAEPEAUstbi__context@@PEAUstbi__gif@@@Z
	DD	imagerel ?stbi__process_gif_raster@@YAPEAEPEAUstbi__context@@PEAUstbi__gif@@@Z+1266
	DD	imagerel $unwind$?stbi__process_gif_raster@@YAPEAEPEAUstbi__context@@PEAUstbi__gif@@@Z
pdata	ENDS
;	COMDAT pdata
pdata	SEGMENT
$pdata$?stbi__gif_load_next@@YAPEAEPEAUstbi__context@@PEAUstbi__gif@@PEAHHPEAE@Z DD imagerel ?stbi__gif_load_next@@YAPEAEPEAUstbi__context@@PEAUstbi__gif@@PEAHHPEAE@Z
	DD	imagerel ?stbi__gif_load_next@@YAPEAEPEAUstbi__context@@PEAUstbi__gif@@PEAHHPEAE@Z+2501
	DD	imagerel $unwind$?stbi__gif_load_next@@YAPEAEPEAUstbi__context@@PEAUstbi__gif@@PEAHHPEAE@Z
pdata	ENDS
;	COMDAT pdata
pdata	SEGMENT
$pdata$?stbi__load_gif_main_outofmem@@YAPEAXPEAUstbi__gif@@PEAEPEAPEAH@Z DD imagerel ?stbi__load_gif_main_outofmem@@YAPEAXPEAUstbi__gif@@PEAEPEAPEAH@Z
	DD	imagerel ?stbi__load_gif_main_outofmem@@YAPEAXPEAUstbi__gif@@PEAEPEAPEAH@Z+209
	DD	imagerel $unwind$?stbi__load_gif_main_outofmem@@YAPEAXPEAUstbi__gif@@PEAEPEAPEAH@Z
pdata	ENDS
;	COMDAT pdata
pdata	SEGMENT
$pdata$?stbi__hdr_test_core@@YAHPEAUstbi__context@@PEBD@Z DD imagerel ?stbi__hdr_test_core@@YAHPEAUstbi__context@@PEBD@Z
	DD	imagerel ?stbi__hdr_test_core@@YAHPEAUstbi__context@@PEBD@Z+139
	DD	imagerel $unwind$?stbi__hdr_test_core@@YAHPEAUstbi__context@@PEBD@Z
pdata	ENDS
;	COMDAT pdata
pdata	SEGMENT
$pdata$?stbi__hdr_gettoken@@YAPEADPEAUstbi__context@@PEAD@Z DD imagerel ?stbi__hdr_gettoken@@YAPEADPEAUstbi__context@@PEAD@Z
	DD	imagerel ?stbi__hdr_gettoken@@YAPEADPEAUstbi__context@@PEAD@Z+211
	DD	imagerel $unwind$?stbi__hdr_gettoken@@YAPEADPEAUstbi__context@@PEAD@Z
pdata	ENDS
;	COMDAT pdata
pdata	SEGMENT
$pdata$?stbi__hdr_convert@@YAXPEAMPEAEH@Z DD imagerel ?stbi__hdr_convert@@YAXPEAMPEAEH@Z
	DD	imagerel ?stbi__hdr_convert@@YAXPEAMPEAEH@Z+684
	DD	imagerel $unwind$?stbi__hdr_convert@@YAXPEAMPEAEH@Z
pdata	ENDS
;	COMDAT pdata
pdata	SEGMENT
$pdata$?stbi__pnm_isspace@@YAHD@Z DD imagerel ?stbi__pnm_isspace@@YAHD@Z
	DD	imagerel ?stbi__pnm_isspace@@YAHD@Z+140
	DD	imagerel $unwind$?stbi__pnm_isspace@@YAHD@Z
pdata	ENDS
;	COMDAT pdata
pdata	SEGMENT
$pdata$?stbi__pnm_skip_whitespace@@YAXPEAUstbi__context@@PEAD@Z DD imagerel ?stbi__pnm_skip_whitespace@@YAXPEAUstbi__context@@PEAD@Z
	DD	imagerel ?stbi__pnm_skip_whitespace@@YAXPEAUstbi__context@@PEAD@Z+211
	DD	imagerel $unwind$?stbi__pnm_skip_whitespace@@YAXPEAUstbi__context@@PEAD@Z
pdata	ENDS
;	COMDAT pdata
pdata	SEGMENT
$pdata$?stbi__pnm_isdigit@@YAHD@Z DD imagerel ?stbi__pnm_isdigit@@YAHD@Z
	DD	imagerel ?stbi__pnm_isdigit@@YAHD@Z+92
	DD	imagerel $unwind$?stbi__pnm_isdigit@@YAHD@Z
pdata	ENDS
;	COMDAT pdata
pdata	SEGMENT
$pdata$?stbi__pnm_getinteger@@YAHPEAUstbi__context@@PEAD@Z DD imagerel ?stbi__pnm_getinteger@@YAHPEAUstbi__context@@PEAD@Z
	DD	imagerel ?stbi__pnm_getinteger@@YAHPEAUstbi__context@@PEAD@Z+135
	DD	imagerel $unwind$?stbi__pnm_getinteger@@YAHPEAUstbi__context@@PEAD@Z
pdata	ENDS
;	COMDAT pdata
pdata	SEGMENT
$pdata$?stbi__info_main@@YAHPEAUstbi__context@@PEAH11@Z DD imagerel ?stbi__info_main@@YAHPEAUstbi__context@@PEAH11@Z
	DD	imagerel ?stbi__info_main@@YAHPEAUstbi__context@@PEAH11@Z+482
	DD	imagerel $unwind$?stbi__info_main@@YAHPEAUstbi__context@@PEAH11@Z
pdata	ENDS
;	COMDAT pdata
pdata	SEGMENT
$pdata$?stbi__is_16_main@@YAHPEAUstbi__context@@@Z DD imagerel ?stbi__is_16_main@@YAHPEAUstbi__context@@@Z
	DD	imagerel ?stbi__is_16_main@@YAHPEAUstbi__context@@@Z+112
	DD	imagerel $unwind$?stbi__is_16_main@@YAHPEAUstbi__context@@@Z
pdata	ENDS
;	COMDAT pdata
pdata	SEGMENT
$pdata$??0Texture@cow@@QEAA@AEAVDevice@1@PEBD@Z DD imagerel $LN6
	DD	imagerel $LN6+703
	DD	imagerel $unwind$??0Texture@cow@@QEAA@AEAVDevice@1@PEBD@Z
pdata	ENDS
;	COMDAT pdata
pdata	SEGMENT
$pdata$?dtor$0@?0???0Texture@cow@@QEAA@AEAVDevice@1@PEBD@Z@4HA DD imagerel ?dtor$0@?0???0Texture@cow@@QEAA@AEAVDevice@1@PEBD@Z@4HA
	DD	imagerel ?dtor$0@?0???0Texture@cow@@QEAA@AEAVDevice@1@PEBD@Z@4HA+39
	DD	imagerel $unwind$?dtor$0@?0???0Texture@cow@@QEAA@AEAVDevice@1@PEBD@Z@4HA
pdata	ENDS
;	COMDAT pdata
pdata	SEGMENT
$pdata$??1Texture@cow@@QEAA@XZ DD imagerel $LN3
	DD	imagerel $LN3+293
	DD	imagerel $unwind$??1Texture@cow@@QEAA@XZ
pdata	ENDS
;	COMDAT pdata
pdata	SEGMENT
$pdata$?transitionImageLayout@Texture@cow@@QEAAXPEAUVkImage_T@@W4VkFormat@@W4VkImageLayout@@2@Z DD imagerel $LN7
	DD	imagerel $LN7+520
	DD	imagerel $unwind$?transitionImageLayout@Texture@cow@@QEAAXPEAUVkImage_T@@W4VkFormat@@W4VkImageLayout@@2@Z
pdata	ENDS
;	COMDAT pdata
pdata	SEGMENT
$pdata$?copyBufferToImage@Texture@cow@@QEAAXPEAUVkBuffer_T@@PEAUVkImage_T@@II@Z DD imagerel $LN3
	DD	imagerel $LN3+409
	DD	imagerel $unwind$?copyBufferToImage@Texture@cow@@QEAAXPEAUVkBuffer_T@@PEAUVkImage_T@@II@Z
pdata	ENDS
;	COMDAT pdata
pdata	SEGMENT
$pdata$?createTextureImageView@Texture@cow@@QEAAXXZ DD imagerel $LN4
	DD	imagerel $LN4+301
	DD	imagerel $unwind$?createTextureImageView@Texture@cow@@QEAAXXZ
pdata	ENDS
;	COMDAT pdata
pdata	SEGMENT
$pdata$?createTextureSampler@Texture@cow@@QEAAXXZ DD imagerel $LN4
	DD	imagerel $LN4+422
	DD	imagerel $unwind$?createTextureSampler@Texture@cow@@QEAAXXZ
pdata	ENDS
;	COMDAT pdata
pdata	SEGMENT
$pdata$?__autoclassinit2@Texture@cow@@QEAAX_K@Z DD imagerel $LN3
	DD	imagerel $LN3+50
	DD	imagerel $unwind$?__autoclassinit2@Texture@cow@@QEAAX_K@Z
pdata	ENDS
;	COMDAT pdata
pdata	SEGMENT
$pdata$??$_Getvals@_W@?$time_get@DV?$istreambuf_iterator@DU?$char_traits@D@std@@@std@@@std@@IEAAX_WAEBV_Locinfo@1@@Z DD imagerel $LN5
	DD	imagerel $LN5+356
	DD	imagerel $unwind$??$_Getvals@_W@?$time_get@DV?$istreambuf_iterator@DU?$char_traits@D@std@@@std@@@std@@IEAAX_WAEBV_Locinfo@1@@Z
pdata	ENDS
;	COMDAT pdata
pdata	SEGMENT
$pdata$??$_Getvals@_W@?$time_get@_WV?$istreambuf_iterator@_WU?$char_traits@_W@std@@@std@@@std@@IEAAX_WAEBV_Locinfo@1@@Z DD imagerel $LN5
	DD	imagerel $LN5+356
	DD	imagerel $unwind$??$_Getvals@_W@?$time_get@_WV?$istreambuf_iterator@_WU?$char_traits@_W@std@@@std@@@std@@IEAAX_WAEBV_Locinfo@1@@Z
pdata	ENDS
;	COMDAT pdata
pdata	SEGMENT
$pdata$??0?$Model2DComponent@UVertex2DTextured@cow@@@cow@@QEAA@AEAVDevice@1@V?$vector@UVertex2DTextured@cow@@V?$allocator@UVertex2DTextured@cow@@@std@@@std@@@Z DD imagerel $LN8
	DD	imagerel $LN8+547
	DD	imagerel $unwind$??0?$Model2DComponent@UVertex2DTextured@cow@@@cow@@QEAA@AEAVDevice@1@V?$vector@UVertex2DTextured@cow@@V?$allocator@UVertex2DTextured@cow@@@std@@@std@@@Z
pdata	ENDS
;	COMDAT pdata
pdata	SEGMENT
$pdata$?dtor$0@?0???0?$Model2DComponent@UVertex2DTextured@cow@@@cow@@QEAA@AEAVDevice@1@V?$vector@UVertex2DTextured@cow@@V?$allocator@UVertex2DTextured@cow@@@std@@@std@@@Z@4HA DD imagerel ?dtor$0@?0???0?$Model2DComponent@UVertex2DTextured@cow@@@cow@@QEAA@AEAVDevice@1@V?$vector@UVertex2DTextured@cow@@V?$allocator@UVertex2DTextured@cow@@@std@@@std@@@Z@4HA
	DD	imagerel ?dtor$0@?0???0?$Model2DComponent@UVertex2DTextured@cow@@@cow@@QEAA@AEAVDevice@1@V?$vector@UVertex2DTextured@cow@@V?$allocator@UVertex2DTextured@cow@@@std@@@std@@@Z@4HA+39
	DD	imagerel $unwind$?dtor$0@?0???0?$Model2DComponent@UVertex2DTextured@cow@@@cow@@QEAA@AEAVDevice@1@V?$vector@UVertex2DTextured@cow@@V?$allocator@UVertex2DTextured@cow@@@std@@@std@@@Z@4HA
pdata	ENDS
;	COMDAT pdata
pdata	SEGMENT
$pdata$?dtor$1@?0???0?$Model2DComponent@UVertex2DTextured@cow@@@cow@@QEAA@AEAVDevice@1@V?$vector@UVertex2DTextured@cow@@V?$allocator@UVertex2DTextured@cow@@@std@@@std@@@Z@4HA DD imagerel ?dtor$1@?0???0?$Model2DComponent@UVertex2DTextured@cow@@@cow@@QEAA@AEAVDevice@1@V?$vector@UVertex2DTextured@cow@@V?$allocator@UVertex2DTextured@cow@@@std@@@std@@@Z@4HA
	DD	imagerel ?dtor$1@?0???0?$Model2DComponent@UVertex2DTextured@cow@@@cow@@QEAA@AEAVDevice@1@V?$vector@UVertex2DTextured@cow@@V?$allocator@UVertex2DTextured@cow@@@std@@@std@@@Z@4HA+43
	DD	imagerel $unwind$?dtor$1@?0???0?$Model2DComponent@UVertex2DTextured@cow@@@cow@@QEAA@AEAVDevice@1@V?$vector@UVertex2DTextured@cow@@V?$allocator@UVertex2DTextured@cow@@@std@@@std@@@Z@4HA
pdata	ENDS
;	COMDAT pdata
pdata	SEGMENT
$pdata$??1?$Model2DComponent@UVertex2DTextured@cow@@@cow@@QEAA@XZ DD imagerel $LN3
	DD	imagerel $LN3+60
	DD	imagerel $unwind$??1?$Model2DComponent@UVertex2DTextured@cow@@@cow@@QEAA@XZ
pdata	ENDS
;	COMDAT pdata
pdata	SEGMENT
$pdata$?bind@?$Model2DComponent@UVertex2DTextured@cow@@@cow@@QEAAXPEAUVkCommandBuffer_T@@@Z DD imagerel $LN3
	DD	imagerel $LN3+191
	DD	imagerel $unwind$?bind@?$Model2DComponent@UVertex2DTextured@cow@@@cow@@QEAAXPEAUVkCommandBuffer_T@@@Z
pdata	ENDS
;	COMDAT pdata
pdata	SEGMENT
$pdata$?draw@?$Model2DComponent@UVertex2DTextured@cow@@@cow@@QEAAXPEAUVkCommandBuffer_T@@@Z DD imagerel $LN3
	DD	imagerel $LN3+85
	DD	imagerel $unwind$?draw@?$Model2DComponent@UVertex2DTextured@cow@@@cow@@QEAAXPEAUVkCommandBuffer_T@@@Z
pdata	ENDS
;	COMDAT pdata
pdata	SEGMENT
$pdata$??0?$PushConstantComponent@USimplePushConstantData@@@cow@@QEAA@XZ DD imagerel $LN3
	DD	imagerel $LN3+48
	DD	imagerel $unwind$??0?$PushConstantComponent@USimplePushConstantData@@@cow@@QEAA@XZ
pdata	ENDS
;	COMDAT pdata
pdata	SEGMENT
$pdata$??1?$PushConstantComponent@USimplePushConstantData@@@cow@@QEAA@XZ DD imagerel $LN3
	DD	imagerel $LN3+41
	DD	imagerel $unwind$??1?$PushConstantComponent@USimplePushConstantData@@@cow@@QEAA@XZ
pdata	ENDS
;	COMDAT pdata
pdata	SEGMENT
$pdata$?pushConstant@?$PushConstantComponent@USimplePushConstantData@@@cow@@QEAAXPEAUVkCommandBuffer_T@@PEAUVkPipelineLayout_T@@I@Z DD imagerel $LN3
	DD	imagerel $LN3+105
	DD	imagerel $unwind$?pushConstant@?$PushConstantComponent@USimplePushConstantData@@@cow@@QEAAXPEAUVkCommandBuffer_T@@PEAUVkPipelineLayout_T@@I@Z
pdata	ENDS
;	COMDAT pdata
pdata	SEGMENT
$pdata$??0RenderObject@@QEAA@AEAVDevice@cow@@V?$vector@UVertex2DTextured@cow@@V?$allocator@UVertex2DTextured@cow@@@std@@@std@@@Z DD imagerel $LN8
	DD	imagerel $LN8+188
	DD	imagerel $unwind$??0RenderObject@@QEAA@AEAVDevice@cow@@V?$vector@UVertex2DTextured@cow@@V?$allocator@UVertex2DTextured@cow@@@std@@@std@@@Z
pdata	ENDS
;	COMDAT pdata
pdata	SEGMENT
$pdata$?dtor$0@?0???0RenderObject@@QEAA@AEAVDevice@cow@@V?$vector@UVertex2DTextured@cow@@V?$allocator@UVertex2DTextured@cow@@@std@@@std@@@Z@4HA DD imagerel ?dtor$0@?0???0RenderObject@@QEAA@AEAVDevice@cow@@V?$vector@UVertex2DTextured@cow@@V?$allocator@UVertex2DTextured@cow@@@std@@@std@@@Z@4HA
	DD	imagerel ?dtor$0@?0???0RenderObject@@QEAA@AEAVDevice@cow@@V?$vector@UVertex2DTextured@cow@@V?$allocator@UVertex2DTextured@cow@@@std@@@std@@@Z@4HA+39
	DD	imagerel $unwind$?dtor$0@?0???0RenderObject@@QEAA@AEAVDevice@cow@@V?$vector@UVertex2DTextured@cow@@V?$allocator@UVertex2DTextured@cow@@@std@@@std@@@Z@4HA
pdata	ENDS
;	COMDAT pdata
pdata	SEGMENT
$pdata$?dtor$1@?0???0RenderObject@@QEAA@AEAVDevice@cow@@V?$vector@UVertex2DTextured@cow@@V?$allocator@UVertex2DTextured@cow@@@std@@@std@@@Z@4HA DD imagerel ?dtor$1@?0???0RenderObject@@QEAA@AEAVDevice@cow@@V?$vector@UVertex2DTextured@cow@@V?$allocator@UVertex2DTextured@cow@@@std@@@std@@@Z@4HA
	DD	imagerel ?dtor$1@?0???0RenderObject@@QEAA@AEAVDevice@cow@@V?$vector@UVertex2DTextured@cow@@V?$allocator@UVertex2DTextured@cow@@@std@@@std@@@Z@4HA+39
	DD	imagerel $unwind$?dtor$1@?0???0RenderObject@@QEAA@AEAVDevice@cow@@V?$vector@UVertex2DTextured@cow@@V?$allocator@UVertex2DTextured@cow@@@std@@@std@@@Z@4HA
pdata	ENDS
;	COMDAT pdata
pdata	SEGMENT
$pdata$?dtor$3@?0???0RenderObject@@QEAA@AEAVDevice@cow@@V?$vector@UVertex2DTextured@cow@@V?$allocator@UVertex2DTextured@cow@@@std@@@std@@@Z@4HA DD imagerel ?dtor$3@?0???0RenderObject@@QEAA@AEAVDevice@cow@@V?$vector@UVertex2DTextured@cow@@V?$allocator@UVertex2DTextured@cow@@@std@@@std@@@Z@4HA
	DD	imagerel ?dtor$3@?0???0RenderObject@@QEAA@AEAVDevice@cow@@V?$vector@UVertex2DTextured@cow@@V?$allocator@UVertex2DTextured@cow@@@std@@@std@@@Z@4HA+43
	DD	imagerel $unwind$?dtor$3@?0???0RenderObject@@QEAA@AEAVDevice@cow@@V?$vector@UVertex2DTextured@cow@@V?$allocator@UVertex2DTextured@cow@@@std@@@std@@@Z@4HA
pdata	ENDS
;	COMDAT pdata
pdata	SEGMENT
$pdata$??1RenderObject@@QEAA@XZ DD imagerel $LN3
	DD	imagerel $LN3+91
	DD	imagerel $unwind$??1RenderObject@@QEAA@XZ
pdata	ENDS
;	COMDAT pdata
pdata	SEGMENT
$pdata$?__autoclassinit2@RenderObject@@QEAAX_K@Z DD imagerel $LN3
	DD	imagerel $LN3+50
	DD	imagerel $unwind$?__autoclassinit2@RenderObject@@QEAAX_K@Z
pdata	ENDS
;	COMDAT pdata
pdata	SEGMENT
$pdata$??0?$allocator@UVertex2DTextured@cow@@@std@@QEAA@XZ DD imagerel $LN3
	DD	imagerel $LN3+48
	DD	imagerel $unwind$??0?$allocator@UVertex2DTextured@cow@@@std@@QEAA@XZ
pdata	ENDS
;	COMDAT pdata
pdata	SEGMENT
$pdata$?deallocate@?$allocator@UVertex2DTextured@cow@@@std@@QEAAXQEAUVertex2DTextured@cow@@_K@Z DD imagerel $LN13
	DD	imagerel $LN13+213
	DD	imagerel $unwind$?deallocate@?$allocator@UVertex2DTextured@cow@@@std@@QEAAXQEAUVertex2DTextured@cow@@_K@Z
pdata	ENDS
;	COMDAT pdata
pdata	SEGMENT
$pdata$?allocate@?$allocator@UVertex2DTextured@cow@@@std@@QEAAPEAUVertex2DTextured@cow@@_K@Z DD imagerel $LN3
	DD	imagerel $LN3+66
	DD	imagerel $unwind$?allocate@?$allocator@UVertex2DTextured@cow@@@std@@QEAAPEAUVertex2DTextured@cow@@_K@Z
pdata	ENDS
;	COMDAT pdata
pdata	SEGMENT
$pdata$?max_size@?$_Default_allocator_traits@V?$allocator@UVertex2DTextured@cow@@@std@@@std@@SA_KAEBV?$allocator@UVertex2DTextured@cow@@@2@@Z DD imagerel $LN3
	DD	imagerel $LN3+51
	DD	imagerel $unwind$?max_size@?$_Default_allocator_traits@V?$allocator@UVertex2DTextured@cow@@@std@@@std@@SA_KAEBV?$allocator@UVertex2DTextured@cow@@@2@@Z
pdata	ENDS
;	COMDAT pdata
pdata	SEGMENT
$pdata$?select_on_container_copy_construction@?$_Default_allocator_traits@V?$allocator@UVertex2DTextured@cow@@@std@@@std@@SA?AV?$allocator@UVertex2DTextured@cow@@@2@AEBV32@@Z DD imagerel $LN3
	DD	imagerel $LN3+53
	DD	imagerel $unwind$?select_on_container_copy_construction@?$_Default_allocator_traits@V?$allocator@UVertex2DTextured@cow@@@std@@@std@@SA?AV?$allocator@UVertex2DTextured@cow@@@2@AEBV32@@Z
pdata	ENDS
;	COMDAT pdata
pdata	SEGMENT
$pdata$??0?$vector@UVertex2DTextured@cow@@V?$allocator@UVertex2DTextured@cow@@@std@@@std@@QEAA@XZ DD imagerel $LN3
	DD	imagerel $LN3+137
	DD	imagerel $unwind$??0?$vector@UVertex2DTextured@cow@@V?$allocator@UVertex2DTextured@cow@@@std@@@std@@QEAA@XZ
pdata	ENDS
;	COMDAT pdata
pdata	SEGMENT
$pdata$??0?$vector@UVertex2DTextured@cow@@V?$allocator@UVertex2DTextured@cow@@@std@@@std@@QEAA@AEBV01@@Z DD imagerel $LN3
	DD	imagerel $LN3+216
	DD	imagerel $unwind$??0?$vector@UVertex2DTextured@cow@@V?$allocator@UVertex2DTextured@cow@@@std@@@std@@QEAA@AEBV01@@Z
pdata	ENDS
;	COMDAT pdata
pdata	SEGMENT
$pdata$??1?$vector@UVertex2DTextured@cow@@V?$allocator@UVertex2DTextured@cow@@@std@@@std@@QEAA@XZ DD imagerel $LN3
	DD	imagerel $LN3+203
	DD	imagerel $unwind$??1?$vector@UVertex2DTextured@cow@@V?$allocator@UVertex2DTextured@cow@@@std@@@std@@QEAA@XZ
pdata	ENDS
;	COMDAT pdata
pdata	SEGMENT
$pdata$?push_back@?$vector@UVertex2DTextured@cow@@V?$allocator@UVertex2DTextured@cow@@@std@@@std@@QEAAX$$QEAUVertex2DTextured@cow@@@Z DD imagerel $LN3
	DD	imagerel $LN3+73
	DD	imagerel $unwind$?push_back@?$vector@UVertex2DTextured@cow@@V?$allocator@UVertex2DTextured@cow@@@std@@@std@@QEAAX$$QEAUVertex2DTextured@cow@@@Z
pdata	ENDS
;	COMDAT pdata
pdata	SEGMENT
$pdata$?data@?$vector@UVertex2DTextured@cow@@V?$allocator@UVertex2DTextured@cow@@@std@@@std@@QEAAPEAUVertex2DTextured@cow@@XZ DD imagerel $LN3
	DD	imagerel $LN3+57
	DD	imagerel $unwind$?data@?$vector@UVertex2DTextured@cow@@V?$allocator@UVertex2DTextured@cow@@@std@@@std@@QEAAPEAUVertex2DTextured@cow@@XZ
pdata	ENDS
;	COMDAT pdata
pdata	SEGMENT
$pdata$?size@?$vector@UVertex2DTextured@cow@@V?$allocator@UVertex2DTextured@cow@@@std@@@std@@QEBA_KXZ DD imagerel $LN3
	DD	imagerel $LN3+75
	DD	imagerel $unwind$?size@?$vector@UVertex2DTextured@cow@@V?$allocator@UVertex2DTextured@cow@@@std@@@std@@QEBA_KXZ
pdata	ENDS
;	COMDAT pdata
pdata	SEGMENT
$pdata$?max_size@?$vector@UVertex2DTextured@cow@@V?$allocator@UVertex2DTextured@cow@@@std@@@std@@QEBA_KXZ DD imagerel $LN3
	DD	imagerel $LN3+102
	DD	imagerel $unwind$?max_size@?$vector@UVertex2DTextured@cow@@V?$allocator@UVertex2DTextured@cow@@@std@@@std@@QEBA_KXZ
pdata	ENDS
;	COMDAT pdata
pdata	SEGMENT
$pdata$?capacity@?$vector@UVertex2DTextured@cow@@V?$allocator@UVertex2DTextured@cow@@@std@@@std@@QEBA_KXZ DD imagerel $LN3
	DD	imagerel $LN3+75
	DD	imagerel $unwind$?capacity@?$vector@UVertex2DTextured@cow@@V?$allocator@UVertex2DTextured@cow@@@std@@@std@@QEBA_KXZ
pdata	ENDS
;	COMDAT pdata
pdata	SEGMENT
$pdata$?_Calculate_growth@?$vector@UVertex2DTextured@cow@@V?$allocator@UVertex2DTextured@cow@@@std@@@std@@AEBA_K_K@Z DD imagerel $LN5
	DD	imagerel $LN5+168
	DD	imagerel $unwind$?_Calculate_growth@?$vector@UVertex2DTextured@cow@@V?$allocator@UVertex2DTextured@cow@@@std@@@std@@AEBA_K_K@Z
pdata	ENDS
;	COMDAT pdata
pdata	SEGMENT
$pdata$?_Buy_raw@?$vector@UVertex2DTextured@cow@@V?$allocator@UVertex2DTextured@cow@@@std@@@std@@AEAAX_K@Z DD imagerel $LN3
	DD	imagerel $LN3+194
	DD	imagerel $unwind$?_Buy_raw@?$vector@UVertex2DTextured@cow@@V?$allocator@UVertex2DTextured@cow@@@std@@@std@@AEAAX_K@Z
pdata	ENDS
;	COMDAT pdata
pdata	SEGMENT
$pdata$?_Buy_nonzero@?$vector@UVertex2DTextured@cow@@V?$allocator@UVertex2DTextured@cow@@@std@@@std@@AEAAX_K@Z DD imagerel $LN4
	DD	imagerel $LN4+91
	DD	imagerel $unwind$?_Buy_nonzero@?$vector@UVertex2DTextured@cow@@V?$allocator@UVertex2DTextured@cow@@@std@@@std@@AEAAX_K@Z
pdata	ENDS
;	COMDAT pdata
pdata	SEGMENT
$pdata$?_Change_array@?$vector@UVertex2DTextured@cow@@V?$allocator@UVertex2DTextured@cow@@@std@@@std@@AEAAXQEAUVertex2DTextured@cow@@_K1@Z DD imagerel $LN4
	DD	imagerel $LN4+280
	DD	imagerel $unwind$?_Change_array@?$vector@UVertex2DTextured@cow@@V?$allocator@UVertex2DTextured@cow@@@std@@@std@@AEAAXQEAUVertex2DTextured@cow@@_K1@Z
pdata	ENDS
;	COMDAT pdata
pdata	SEGMENT
$pdata$?_Tidy@?$vector@UVertex2DTextured@cow@@V?$allocator@UVertex2DTextured@cow@@@std@@@std@@AEAAXXZ DD imagerel $LN4
	DD	imagerel $LN4+228
	DD	imagerel $unwind$?_Tidy@?$vector@UVertex2DTextured@cow@@V?$allocator@UVertex2DTextured@cow@@@std@@@std@@AEAAXXZ
pdata	ENDS
;	COMDAT pdata
pdata	SEGMENT
$pdata$?_Xlength@?$vector@UVertex2DTextured@cow@@V?$allocator@UVertex2DTextured@cow@@@std@@@std@@CAXXZ DD imagerel $LN3
	DD	imagerel $LN3+49
	DD	imagerel $unwind$?_Xlength@?$vector@UVertex2DTextured@cow@@V?$allocator@UVertex2DTextured@cow@@@std@@@std@@CAXXZ
pdata	ENDS
;	COMDAT pdata
pdata	SEGMENT
$pdata$?_Orphan_range_unlocked@?$vector@UVertex2DTextured@cow@@V?$allocator@UVertex2DTextured@cow@@@std@@@std@@AEBAXPEAUVertex2DTextured@cow@@0@Z DD imagerel $LN8
	DD	imagerel $LN8+184
	DD	imagerel $unwind$?_Orphan_range_unlocked@?$vector@UVertex2DTextured@cow@@V?$allocator@UVertex2DTextured@cow@@@std@@@std@@AEBAXPEAUVertex2DTextured@cow@@0@Z
pdata	ENDS
;	COMDAT pdata
pdata	SEGMENT
$pdata$?_Orphan_range_locked@?$vector@UVertex2DTextured@cow@@V?$allocator@UVertex2DTextured@cow@@@std@@@std@@AEBAXPEAUVertex2DTextured@cow@@0@Z DD imagerel $LN4
	DD	imagerel $LN4+177
	DD	imagerel $unwind$?_Orphan_range_locked@?$vector@UVertex2DTextured@cow@@V?$allocator@UVertex2DTextured@cow@@@std@@@std@@AEBAXPEAUVertex2DTextured@cow@@0@Z
pdata	ENDS
;	COMDAT pdata
pdata	SEGMENT
$pdata$?dtor$0@?0??_Orphan_range_locked@?$vector@UVertex2DTextured@cow@@V?$allocator@UVertex2DTextured@cow@@@std@@@std@@AEBAXPEAUVertex2DTextured@cow@@0@Z@4HA DD imagerel ?dtor$0@?0??_Orphan_range_locked@?$vector@UVertex2DTextured@cow@@V?$allocator@UVertex2DTextured@cow@@@std@@@std@@AEBAXPEAUVertex2DTextured@cow@@0@Z@4HA
	DD	imagerel ?dtor$0@?0??_Orphan_range_locked@?$vector@UVertex2DTextured@cow@@V?$allocator@UVertex2DTextured@cow@@@std@@@std@@AEBAXPEAUVertex2DTextured@cow@@0@Z@4HA+37
	DD	imagerel $unwind$?dtor$0@?0??_Orphan_range_locked@?$vector@UVertex2DTextured@cow@@V?$allocator@UVertex2DTextured@cow@@@std@@@std@@AEBAXPEAUVertex2DTextured@cow@@0@Z@4HA
pdata	ENDS
;	COMDAT pdata
pdata	SEGMENT
$pdata$?_Orphan_range@?$vector@UVertex2DTextured@cow@@V?$allocator@UVertex2DTextured@cow@@@std@@@std@@AEBAXPEAUVertex2DTextured@cow@@0@Z DD imagerel $LN5
	DD	imagerel $LN5+117
	DD	imagerel $unwind$?_Orphan_range@?$vector@UVertex2DTextured@cow@@V?$allocator@UVertex2DTextured@cow@@@std@@@std@@AEBAXPEAUVertex2DTextured@cow@@0@Z
pdata	ENDS
;	COMDAT pdata
pdata	SEGMENT
$pdata$?_Getal@?$vector@UVertex2DTextured@cow@@V?$allocator@UVertex2DTextured@cow@@@std@@@std@@AEAAAEAV?$allocator@UVertex2DTextured@cow@@@2@XZ DD imagerel $LN3
	DD	imagerel $LN3+56
	DD	imagerel $unwind$?_Getal@?$vector@UVertex2DTextured@cow@@V?$allocator@UVertex2DTextured@cow@@@std@@@std@@AEAAAEAV?$allocator@UVertex2DTextured@cow@@@2@XZ
pdata	ENDS
;	COMDAT pdata
pdata	SEGMENT
$pdata$?_Getal@?$vector@UVertex2DTextured@cow@@V?$allocator@UVertex2DTextured@cow@@@std@@@std@@AEBAAEBV?$allocator@UVertex2DTextured@cow@@@2@XZ DD imagerel $LN3
	DD	imagerel $LN3+56
	DD	imagerel $unwind$?_Getal@?$vector@UVertex2DTextured@cow@@V?$allocator@UVertex2DTextured@cow@@@std@@@std@@AEBAAEBV?$allocator@UVertex2DTextured@cow@@@2@XZ
pdata	ENDS
;	COMDAT pdata
pdata	SEGMENT
$pdata$??0?$_Vector_val@U?$_Simple_types@UVertex2DTextured@cow@@@std@@@std@@QEAA@XZ DD imagerel $LN3
	DD	imagerel $LN3+105
	DD	imagerel $unwind$??0?$_Vector_val@U?$_Simple_types@UVertex2DTextured@cow@@@std@@@std@@QEAA@XZ
pdata	ENDS
;	COMDAT pdata
pdata	SEGMENT
$pdata$?_Get_first@?$_Compressed_pair@V?$allocator@UVertex2DTextured@cow@@@std@@V?$_Vector_val@U?$_Simple_types@UVertex2DTextured@cow@@@std@@@2@$00@std@@QEAAAEAV?$allocator@UVertex2DTextured@cow@@@2@XZ DD imagerel $LN3
	DD	imagerel $LN3+48
	DD	imagerel $unwind$?_Get_first@?$_Compressed_pair@V?$allocator@UVertex2DTextured@cow@@@std@@V?$_Vector_val@U?$_Simple_types@UVertex2DTextured@cow@@@std@@@2@$00@std@@QEAAAEAV?$allocator@UVertex2DTextured@cow@@@2@XZ
pdata	ENDS
;	COMDAT pdata
pdata	SEGMENT
$pdata$?_Get_first@?$_Compressed_pair@V?$allocator@UVertex2DTextured@cow@@@std@@V?$_Vector_val@U?$_Simple_types@UVertex2DTextured@cow@@@std@@@2@$00@std@@QEBAAEBV?$allocator@UVertex2DTextured@cow@@@2@XZ DD imagerel $LN3
	DD	imagerel $LN3+48
	DD	imagerel $unwind$?_Get_first@?$_Compressed_pair@V?$allocator@UVertex2DTextured@cow@@@std@@V?$_Vector_val@U?$_Simple_types@UVertex2DTextured@cow@@@std@@@2@$00@std@@QEBAAEBV?$allocator@UVertex2DTextured@cow@@@2@XZ
pdata	ENDS
;	COMDAT pdata
pdata	SEGMENT
$pdata$?__autoclassinit2@?$vector@UVertex2DTextured@cow@@V?$allocator@UVertex2DTextured@cow@@@std@@@std@@QEAAX_K@Z DD imagerel $LN3
	DD	imagerel $LN3+50
	DD	imagerel $unwind$?__autoclassinit2@?$vector@UVertex2DTextured@cow@@V?$allocator@UVertex2DTextured@cow@@@std@@@std@@QEAAX_K@Z
pdata	ENDS
;	COMDAT pdata
pdata	SEGMENT
$pdata$main DD	imagerel $LN37
	DD	imagerel $LN37+4550
	DD	imagerel $unwind$main
pdata	ENDS
;	COMDAT pdata
pdata	SEGMENT
$pdata$main$dtor$0 DD imagerel main$dtor$0
	DD	imagerel main$dtor$0+36
	DD	imagerel $unwind$main$dtor$0
pdata	ENDS
;	COMDAT pdata
pdata	SEGMENT
$pdata$main$dtor$1 DD imagerel main$dtor$1
	DD	imagerel main$dtor$1+36
	DD	imagerel $unwind$main$dtor$1
pdata	ENDS
;	COMDAT pdata
pdata	SEGMENT
$pdata$main$dtor$2 DD imagerel main$dtor$2
	DD	imagerel main$dtor$2+39
	DD	imagerel $unwind$main$dtor$2
pdata	ENDS
;	COMDAT pdata
pdata	SEGMENT
$pdata$main$dtor$3 DD imagerel main$dtor$3
	DD	imagerel main$dtor$3+39
	DD	imagerel $unwind$main$dtor$3
pdata	ENDS
;	COMDAT pdata
pdata	SEGMENT
$pdata$main$dtor$4 DD imagerel main$dtor$4
	DD	imagerel main$dtor$4+39
	DD	imagerel $unwind$main$dtor$4
pdata	ENDS
;	COMDAT pdata
pdata	SEGMENT
$pdata$main$dtor$5 DD imagerel main$dtor$5
	DD	imagerel main$dtor$5+39
	DD	imagerel $unwind$main$dtor$5
pdata	ENDS
;	COMDAT pdata
pdata	SEGMENT
$pdata$main$dtor$7 DD imagerel main$dtor$7
	DD	imagerel main$dtor$7+57
	DD	imagerel $unwind$main$dtor$7
pdata	ENDS
;	COMDAT pdata
pdata	SEGMENT
$pdata$main$dtor$8 DD imagerel main$dtor$8
	DD	imagerel main$dtor$8+39
	DD	imagerel $unwind$main$dtor$8
pdata	ENDS
;	COMDAT pdata
pdata	SEGMENT
$pdata$main$dtor$10 DD imagerel main$dtor$10
	DD	imagerel main$dtor$10+39
	DD	imagerel $unwind$main$dtor$10
pdata	ENDS
;	COMDAT pdata
pdata	SEGMENT
$pdata$main$dtor$11 DD imagerel main$dtor$11
	DD	imagerel main$dtor$11+39
	DD	imagerel $unwind$main$dtor$11
pdata	ENDS
;	COMDAT pdata
pdata	SEGMENT
$pdata$main$dtor$12 DD imagerel main$dtor$12
	DD	imagerel main$dtor$12+39
	DD	imagerel $unwind$main$dtor$12
pdata	ENDS
;	COMDAT pdata
pdata	SEGMENT
$pdata$main$dtor$13 DD imagerel main$dtor$13
	DD	imagerel main$dtor$13+39
	DD	imagerel $unwind$main$dtor$13
pdata	ENDS
;	COMDAT pdata
pdata	SEGMENT
$pdata$main$dtor$15 DD imagerel main$dtor$15
	DD	imagerel main$dtor$15+39
	DD	imagerel $unwind$main$dtor$15
pdata	ENDS
;	COMDAT pdata
pdata	SEGMENT
$pdata$main$dtor$17 DD imagerel main$dtor$17
	DD	imagerel main$dtor$17+39
	DD	imagerel $unwind$main$dtor$17
pdata	ENDS
;	COMDAT pdata
pdata	SEGMENT
$pdata$main$dtor$18 DD imagerel main$dtor$18
	DD	imagerel main$dtor$18+39
	DD	imagerel $unwind$main$dtor$18
pdata	ENDS
;	COMDAT pdata
pdata	SEGMENT
$pdata$??0?$allocator@PEAUVkCommandBuffer_T@@@std@@QEAA@XZ DD imagerel $LN3
	DD	imagerel $LN3+48
	DD	imagerel $unwind$??0?$allocator@PEAUVkCommandBuffer_T@@@std@@QEAA@XZ
pdata	ENDS
;	COMDAT pdata
pdata	SEGMENT
$pdata$?deallocate@?$allocator@PEAUVkCommandBuffer_T@@@std@@QEAAXQEAPEAUVkCommandBuffer_T@@_K@Z DD imagerel $LN13
	DD	imagerel $LN13+216
	DD	imagerel $unwind$?deallocate@?$allocator@PEAUVkCommandBuffer_T@@@std@@QEAAXQEAPEAUVkCommandBuffer_T@@_K@Z
pdata	ENDS
;	COMDAT pdata
pdata	SEGMENT
$pdata$?allocate@?$allocator@PEAUVkCommandBuffer_T@@@std@@QEAAPEAPEAUVkCommandBuffer_T@@_K@Z DD imagerel $LN3
	DD	imagerel $LN3+66
	DD	imagerel $unwind$?allocate@?$allocator@PEAUVkCommandBuffer_T@@@std@@QEAAPEAPEAUVkCommandBuffer_T@@_K@Z
pdata	ENDS
;	COMDAT pdata
pdata	SEGMENT
$pdata$?max_size@?$_Default_allocator_traits@V?$allocator@PEAUVkCommandBuffer_T@@@std@@@std@@SA_KAEBV?$allocator@PEAUVkCommandBuffer_T@@@2@@Z DD imagerel $LN3
	DD	imagerel $LN3+51
	DD	imagerel $unwind$?max_size@?$_Default_allocator_traits@V?$allocator@PEAUVkCommandBuffer_T@@@std@@@std@@SA_KAEBV?$allocator@PEAUVkCommandBuffer_T@@@2@@Z
pdata	ENDS
;	COMDAT pdata
pdata	SEGMENT
$pdata$??0?$vector@PEAUVkCommandBuffer_T@@V?$allocator@PEAUVkCommandBuffer_T@@@std@@@std@@QEAA@_KAEBV?$allocator@PEAUVkCommandBuffer_T@@@1@@Z DD imagerel $LN3
	DD	imagerel $LN3+117
	DD	imagerel $unwind$??0?$vector@PEAUVkCommandBuffer_T@@V?$allocator@PEAUVkCommandBuffer_T@@@std@@@std@@QEAA@_KAEBV?$allocator@PEAUVkCommandBuffer_T@@@1@@Z
pdata	ENDS
;	COMDAT pdata
pdata	SEGMENT
$pdata$??1?$vector@PEAUVkCommandBuffer_T@@V?$allocator@PEAUVkCommandBuffer_T@@@std@@@std@@QEAA@XZ DD imagerel $LN3
	DD	imagerel $LN3+203
	DD	imagerel $unwind$??1?$vector@PEAUVkCommandBuffer_T@@V?$allocator@PEAUVkCommandBuffer_T@@@std@@@std@@QEAA@XZ
pdata	ENDS
;	COMDAT pdata
pdata	SEGMENT
$pdata$?data@?$vector@PEAUVkCommandBuffer_T@@V?$allocator@PEAUVkCommandBuffer_T@@@std@@@std@@QEAAPEAPEAUVkCommandBuffer_T@@XZ DD imagerel $LN3
	DD	imagerel $LN3+57
	DD	imagerel $unwind$?data@?$vector@PEAUVkCommandBuffer_T@@V?$allocator@PEAUVkCommandBuffer_T@@@std@@@std@@QEAAPEAPEAUVkCommandBuffer_T@@XZ
pdata	ENDS
;	COMDAT pdata
pdata	SEGMENT
$pdata$?size@?$vector@PEAUVkCommandBuffer_T@@V?$allocator@PEAUVkCommandBuffer_T@@@std@@@std@@QEBA_KXZ DD imagerel $LN3
	DD	imagerel $LN3+75
	DD	imagerel $unwind$?size@?$vector@PEAUVkCommandBuffer_T@@V?$allocator@PEAUVkCommandBuffer_T@@@std@@@std@@QEBA_KXZ
pdata	ENDS
;	COMDAT pdata
pdata	SEGMENT
$pdata$?max_size@?$vector@PEAUVkCommandBuffer_T@@V?$allocator@PEAUVkCommandBuffer_T@@@std@@@std@@QEBA_KXZ DD imagerel $LN3
	DD	imagerel $LN3+102
	DD	imagerel $unwind$?max_size@?$vector@PEAUVkCommandBuffer_T@@V?$allocator@PEAUVkCommandBuffer_T@@@std@@@std@@QEBA_KXZ
pdata	ENDS
;	COMDAT pdata
pdata	SEGMENT
$pdata$?_Buy_raw@?$vector@PEAUVkCommandBuffer_T@@V?$allocator@PEAUVkCommandBuffer_T@@@std@@@std@@AEAAX_K@Z DD imagerel $LN3
	DD	imagerel $LN3+191
	DD	imagerel $unwind$?_Buy_raw@?$vector@PEAUVkCommandBuffer_T@@V?$allocator@PEAUVkCommandBuffer_T@@@std@@@std@@AEAAX_K@Z
pdata	ENDS
;	COMDAT pdata
pdata	SEGMENT
$pdata$?_Buy_nonzero@?$vector@PEAUVkCommandBuffer_T@@V?$allocator@PEAUVkCommandBuffer_T@@@std@@@std@@AEAAX_K@Z DD imagerel $LN4
	DD	imagerel $LN4+91
	DD	imagerel $unwind$?_Buy_nonzero@?$vector@PEAUVkCommandBuffer_T@@V?$allocator@PEAUVkCommandBuffer_T@@@std@@@std@@AEAAX_K@Z
pdata	ENDS
;	COMDAT pdata
pdata	SEGMENT
$pdata$?_Tidy@?$vector@PEAUVkCommandBuffer_T@@V?$allocator@PEAUVkCommandBuffer_T@@@std@@@std@@AEAAXXZ DD imagerel $LN4
	DD	imagerel $LN4+228
	DD	imagerel $unwind$?_Tidy@?$vector@PEAUVkCommandBuffer_T@@V?$allocator@PEAUVkCommandBuffer_T@@@std@@@std@@AEAAXXZ
pdata	ENDS
;	COMDAT pdata
pdata	SEGMENT
$pdata$?_Xlength@?$vector@PEAUVkCommandBuffer_T@@V?$allocator@PEAUVkCommandBuffer_T@@@std@@@std@@CAXXZ DD imagerel $LN3
	DD	imagerel $LN3+49
	DD	imagerel $unwind$?_Xlength@?$vector@PEAUVkCommandBuffer_T@@V?$allocator@PEAUVkCommandBuffer_T@@@std@@@std@@CAXXZ
pdata	ENDS
;	COMDAT pdata
pdata	SEGMENT
$pdata$?_Getal@?$vector@PEAUVkCommandBuffer_T@@V?$allocator@PEAUVkCommandBuffer_T@@@std@@@std@@AEAAAEAV?$allocator@PEAUVkCommandBuffer_T@@@2@XZ DD imagerel $LN3
	DD	imagerel $LN3+56
	DD	imagerel $unwind$?_Getal@?$vector@PEAUVkCommandBuffer_T@@V?$allocator@PEAUVkCommandBuffer_T@@@std@@@std@@AEAAAEAV?$allocator@PEAUVkCommandBuffer_T@@@2@XZ
pdata	ENDS
;	COMDAT pdata
pdata	SEGMENT
$pdata$?_Getal@?$vector@PEAUVkCommandBuffer_T@@V?$allocator@PEAUVkCommandBuffer_T@@@std@@@std@@AEBAAEBV?$allocator@PEAUVkCommandBuffer_T@@@2@XZ DD imagerel $LN3
	DD	imagerel $LN3+56
	DD	imagerel $unwind$?_Getal@?$vector@PEAUVkCommandBuffer_T@@V?$allocator@PEAUVkCommandBuffer_T@@@std@@@std@@AEBAAEBV?$allocator@PEAUVkCommandBuffer_T@@@2@XZ
pdata	ENDS
;	COMDAT pdata
pdata	SEGMENT
$pdata$??0?$_Vector_val@U?$_Simple_types@PEAUVkCommandBuffer_T@@@std@@@std@@QEAA@XZ DD imagerel $LN3
	DD	imagerel $LN3+105
	DD	imagerel $unwind$??0?$_Vector_val@U?$_Simple_types@PEAUVkCommandBuffer_T@@@std@@@std@@QEAA@XZ
pdata	ENDS
;	COMDAT pdata
pdata	SEGMENT
$pdata$?_Get_first@?$_Compressed_pair@V?$allocator@PEAUVkCommandBuffer_T@@@std@@V?$_Vector_val@U?$_Simple_types@PEAUVkCommandBuffer_T@@@std@@@2@$00@std@@QEAAAEAV?$allocator@PEAUVkCommandBuffer_T@@@2@XZ DD imagerel $LN3
	DD	imagerel $LN3+48
	DD	imagerel $unwind$?_Get_first@?$_Compressed_pair@V?$allocator@PEAUVkCommandBuffer_T@@@std@@V?$_Vector_val@U?$_Simple_types@PEAUVkCommandBuffer_T@@@std@@@2@$00@std@@QEAAAEAV?$allocator@PEAUVkCommandBuffer_T@@@2@XZ
pdata	ENDS
;	COMDAT pdata
pdata	SEGMENT
$pdata$?_Get_first@?$_Compressed_pair@V?$allocator@PEAUVkCommandBuffer_T@@@std@@V?$_Vector_val@U?$_Simple_types@PEAUVkCommandBuffer_T@@@std@@@2@$00@std@@QEBAAEBV?$allocator@PEAUVkCommandBuffer_T@@@2@XZ DD imagerel $LN3
	DD	imagerel $LN3+48
	DD	imagerel $unwind$?_Get_first@?$_Compressed_pair@V?$allocator@PEAUVkCommandBuffer_T@@@std@@V?$_Vector_val@U?$_Simple_types@PEAUVkCommandBuffer_T@@@std@@@2@$00@std@@QEBAAEBV?$allocator@PEAUVkCommandBuffer_T@@@2@XZ
pdata	ENDS
;	COMDAT pdata
pdata	SEGMENT
$pdata$?__autoclassinit2@?$vector@PEAUVkCommandBuffer_T@@V?$allocator@PEAUVkCommandBuffer_T@@@std@@@std@@QEAAX_K@Z DD imagerel $LN3
	DD	imagerel $LN3+50
	DD	imagerel $unwind$?__autoclassinit2@?$vector@PEAUVkCommandBuffer_T@@V?$allocator@PEAUVkCommandBuffer_T@@@std@@@std@@QEAAX_K@Z
pdata	ENDS
;	COMDAT pdata
pdata	SEGMENT
$pdata$??$?6U?$char_traits@D@std@@@std@@YAAEAV?$basic_ostream@DU?$char_traits@D@std@@@0@AEAV10@PEBD@Z DD imagerel $LN25
	DD	imagerel $LN25+1126
	DD	imagerel $unwind$??$?6U?$char_traits@D@std@@@std@@YAAEAV?$basic_ostream@DU?$char_traits@D@std@@@0@AEAV10@PEBD@Z
pdata	ENDS
;	COMDAT pdata
pdata	SEGMENT
$pdata$?dtor$0@?0???$?6U?$char_traits@D@std@@@std@@YAAEAV?$basic_ostream@DU?$char_traits@D@std@@@0@AEAV10@PEBD@Z@4HA DD imagerel ?dtor$0@?0???$?6U?$char_traits@D@std@@@std@@YAAEAV?$basic_ostream@DU?$char_traits@D@std@@@0@AEAV10@PEBD@Z@4HA
	DD	imagerel ?dtor$0@?0???$?6U?$char_traits@D@std@@@std@@YAAEAV?$basic_ostream@DU?$char_traits@D@std@@@0@AEAV10@PEBD@Z@4HA+36
	DD	imagerel $unwind$?dtor$0@?0???$?6U?$char_traits@D@std@@@std@@YAAEAV?$basic_ostream@DU?$char_traits@D@std@@@0@AEAV10@PEBD@Z@4HA
pdata	ENDS
;	COMDAT pdata
pdata	SEGMENT
$pdata$?catch$1@?0???$?6U?$char_traits@D@std@@@std@@YAAEAV?$basic_ostream@DU?$char_traits@D@std@@@0@AEAV10@PEBD@Z@4HA DD imagerel ?catch$1@?0???$?6U?$char_traits@D@std@@@std@@YAAEAV?$basic_ostream@DU?$char_traits@D@std@@@0@AEAV10@PEBD@Z@4HA
	DD	imagerel ?catch$1@?0???$?6U?$char_traits@D@std@@@std@@YAAEAV?$basic_ostream@DU?$char_traits@D@std@@@0@AEAV10@PEBD@Z@4HA+91
	DD	imagerel $unwind$?catch$1@?0???$?6U?$char_traits@D@std@@@std@@YAAEAV?$basic_ostream@DU?$char_traits@D@std@@@0@AEAV10@PEBD@Z@4HA
pdata	ENDS
;	COMDAT pdata
pdata	SEGMENT
$pdata$?size@?$array@UVkDescriptorSetLayoutBinding@@$01@std@@QEBA_KXZ DD imagerel $LN3
	DD	imagerel $LN3+46
	DD	imagerel $unwind$?size@?$array@UVkDescriptorSetLayoutBinding@@$01@std@@QEBA_KXZ
pdata	ENDS
;	COMDAT pdata
pdata	SEGMENT
$pdata$??A?$array@UVkDescriptorSetLayoutBinding@@$01@std@@QEAAAEAUVkDescriptorSetLayoutBinding@@_K@Z DD imagerel $LN12
	DD	imagerel $LN12+192
	DD	imagerel $unwind$??A?$array@UVkDescriptorSetLayoutBinding@@$01@std@@QEAAAEAUVkDescriptorSetLayoutBinding@@_K@Z
pdata	ENDS
;	COMDAT pdata
pdata	SEGMENT
$pdata$?data@?$array@UVkDescriptorSetLayoutBinding@@$01@std@@QEBAPEBUVkDescriptorSetLayoutBinding@@XZ DD imagerel $LN3
	DD	imagerel $LN3+48
	DD	imagerel $unwind$?data@?$array@UVkDescriptorSetLayoutBinding@@$01@std@@QEBAPEBUVkDescriptorSetLayoutBinding@@XZ
pdata	ENDS
;	COMDAT pdata
pdata	SEGMENT
$pdata$?size@?$array@UVkDescriptorPoolSize@@$01@std@@QEBA_KXZ DD imagerel $LN3
	DD	imagerel $LN3+46
	DD	imagerel $unwind$?size@?$array@UVkDescriptorPoolSize@@$01@std@@QEBA_KXZ
pdata	ENDS
;	COMDAT pdata
pdata	SEGMENT
$pdata$??A?$array@UVkDescriptorPoolSize@@$01@std@@QEAAAEAUVkDescriptorPoolSize@@_K@Z DD imagerel $LN12
	DD	imagerel $LN12+189
	DD	imagerel $unwind$??A?$array@UVkDescriptorPoolSize@@$01@std@@QEAAAEAUVkDescriptorPoolSize@@_K@Z
pdata	ENDS
;	COMDAT pdata
pdata	SEGMENT
$pdata$?data@?$array@UVkDescriptorPoolSize@@$01@std@@QEBAPEBUVkDescriptorPoolSize@@XZ DD imagerel $LN3
	DD	imagerel $LN3+48
	DD	imagerel $unwind$?data@?$array@UVkDescriptorPoolSize@@$01@std@@QEBAPEBUVkDescriptorPoolSize@@XZ
pdata	ENDS
;	COMDAT pdata
pdata	SEGMENT
$pdata$??0?$Descriptor@$01$01@cow@@QEAA@AEAVDevice@1@V?$array@UVkDescriptorSetLayoutBinding@@$01@std@@V?$array@UVkDescriptorPoolSize@@$01@4@I@Z DD imagerel $LN10
	DD	imagerel $LN10+818
	DD	imagerel $unwind$??0?$Descriptor@$01$01@cow@@QEAA@AEAVDevice@1@V?$array@UVkDescriptorSetLayoutBinding@@$01@std@@V?$array@UVkDescriptorPoolSize@@$01@4@I@Z
pdata	ENDS
;	COMDAT pdata
pdata	SEGMENT
$pdata$??1?$Descriptor@$01$01@cow@@QEAA@XZ DD imagerel $LN3
	DD	imagerel $LN3+168
	DD	imagerel $unwind$??1?$Descriptor@$01$01@cow@@QEAA@XZ
pdata	ENDS
;	COMDAT pdata
pdata	SEGMENT
$pdata$?getLayout@?$Descriptor@$01$01@cow@@QEAAPEAPEAUVkDescriptorSetLayout_T@@XZ DD imagerel $LN3
	DD	imagerel $LN3+52
	DD	imagerel $unwind$?getLayout@?$Descriptor@$01$01@cow@@QEAAPEAPEAUVkDescriptorSetLayout_T@@XZ
pdata	ENDS
;	COMDAT pdata
pdata	SEGMENT
$pdata$?getSet@?$Descriptor@$01$01@cow@@QEAAPEAUVkDescriptorSet_T@@I@Z DD imagerel $LN3
	DD	imagerel $LN3+65
	DD	imagerel $unwind$?getSet@?$Descriptor@$01$01@cow@@QEAAPEAUVkDescriptorSet_T@@I@Z
pdata	ENDS
;	COMDAT pdata
pdata	SEGMENT
$pdata$?__autoclassinit2@?$Descriptor@$01$01@cow@@QEAAX_K@Z DD imagerel $LN3
	DD	imagerel $LN3+50
	DD	imagerel $unwind$?__autoclassinit2@?$Descriptor@$01$01@cow@@QEAAX_K@Z
pdata	ENDS
;	COMDAT pdata
pdata	SEGMENT
$pdata$?size@?$array@UVkWriteDescriptorSet@@$01@std@@QEBA_KXZ DD imagerel $LN3
	DD	imagerel $LN3+46
	DD	imagerel $unwind$?size@?$array@UVkWriteDescriptorSet@@$01@std@@QEBA_KXZ
pdata	ENDS
;	COMDAT pdata
pdata	SEGMENT
$pdata$??A?$array@UVkWriteDescriptorSet@@$01@std@@QEAAAEAUVkWriteDescriptorSet@@_K@Z DD imagerel $LN12
	DD	imagerel $LN12+192
	DD	imagerel $unwind$??A?$array@UVkWriteDescriptorSet@@$01@std@@QEAAAEAUVkWriteDescriptorSet@@_K@Z
pdata	ENDS
;	COMDAT pdata
pdata	SEGMENT
$pdata$?data@?$array@UVkWriteDescriptorSet@@$01@std@@QEAAPEAUVkWriteDescriptorSet@@XZ DD imagerel $LN3
	DD	imagerel $LN3+48
	DD	imagerel $unwind$?data@?$array@UVkWriteDescriptorSet@@$01@std@@QEAAPEAUVkWriteDescriptorSet@@XZ
pdata	ENDS
;	COMDAT pdata
pdata	SEGMENT
$pdata$??0?$GraphicsPipeline@UVertex2DTextured@cow@@@cow@@QEAA@AEAVDevice@1@PEAUGraphicsPipelineSimpleInfo@1@@Z DD imagerel $LN6
	DD	imagerel $LN6+1438
	DD	imagerel $unwind$??0?$GraphicsPipeline@UVertex2DTextured@cow@@@cow@@QEAA@AEAVDevice@1@PEAUGraphicsPipelineSimpleInfo@1@@Z
pdata	ENDS
;	COMDAT pdata
pdata	SEGMENT
$pdata$?dtor$0@?0???0?$GraphicsPipeline@UVertex2DTextured@cow@@@cow@@QEAA@AEAVDevice@1@PEAUGraphicsPipelineSimpleInfo@1@@Z@4HA DD imagerel ?dtor$0@?0???0?$GraphicsPipeline@UVertex2DTextured@cow@@@cow@@QEAA@AEAVDevice@1@PEAUGraphicsPipelineSimpleInfo@1@@Z@4HA
	DD	imagerel ?dtor$0@?0???0?$GraphicsPipeline@UVertex2DTextured@cow@@@cow@@QEAA@AEAVDevice@1@PEAUGraphicsPipelineSimpleInfo@1@@Z@4HA+39
	DD	imagerel $unwind$?dtor$0@?0???0?$GraphicsPipeline@UVertex2DTextured@cow@@@cow@@QEAA@AEAVDevice@1@PEAUGraphicsPipelineSimpleInfo@1@@Z@4HA
pdata	ENDS
;	COMDAT pdata
pdata	SEGMENT
$pdata$??1?$GraphicsPipeline@UVertex2DTextured@cow@@@cow@@QEAA@XZ DD imagerel $LN3
	DD	imagerel $LN3+230
	DD	imagerel $unwind$??1?$GraphicsPipeline@UVertex2DTextured@cow@@@cow@@QEAA@XZ
pdata	ENDS
;	COMDAT pdata
pdata	SEGMENT
$pdata$?bind@?$GraphicsPipeline@UVertex2DTextured@cow@@@cow@@QEAAXPEAUVkCommandBuffer_T@@@Z DD imagerel $LN3
	DD	imagerel $LN3+71
	DD	imagerel $unwind$?bind@?$GraphicsPipeline@UVertex2DTextured@cow@@@cow@@QEAAXPEAUVkCommandBuffer_T@@@Z
pdata	ENDS
;	COMDAT pdata
pdata	SEGMENT
$pdata$?__autoclassinit2@?$GraphicsPipeline@UVertex2DTextured@cow@@@cow@@QEAAX_K@Z DD imagerel $LN3
	DD	imagerel $LN3+50
	DD	imagerel $unwind$?__autoclassinit2@?$GraphicsPipeline@UVertex2DTextured@cow@@@cow@@QEAAX_K@Z
pdata	ENDS
;	COMDAT pdata
pdata	SEGMENT
$pdata$??$?0NN@?$vec@$01M$0A@@glm@@QEAA@NN@Z DD imagerel $LN3
	DD	imagerel $LN3+99
	DD	imagerel $unwind$??$?0NN@?$vec@$01M$0A@@glm@@QEAA@NN@Z
pdata	ENDS
;	COMDAT pdata
pdata	SEGMENT
$pdata$??$?0MN@?$vec@$01M$0A@@glm@@QEAA@MN@Z DD imagerel $LN3
	DD	imagerel $LN3+99
	DD	imagerel $unwind$??$?0MN@?$vec@$01M$0A@@glm@@QEAA@MN@Z
pdata	ENDS
;	COMDAT pdata
pdata	SEGMENT
$pdata$??0?$allocator@PEAVRenderObject@@@std@@QEAA@XZ DD imagerel $LN3
	DD	imagerel $LN3+48
	DD	imagerel $unwind$??0?$allocator@PEAVRenderObject@@@std@@QEAA@XZ
pdata	ENDS
;	COMDAT pdata
pdata	SEGMENT
$pdata$?deallocate@?$allocator@PEAVRenderObject@@@std@@QEAAXQEAPEAVRenderObject@@_K@Z DD imagerel $LN13
	DD	imagerel $LN13+216
	DD	imagerel $unwind$?deallocate@?$allocator@PEAVRenderObject@@@std@@QEAAXQEAPEAVRenderObject@@_K@Z
pdata	ENDS
;	COMDAT pdata
pdata	SEGMENT
$pdata$?allocate@?$allocator@PEAVRenderObject@@@std@@QEAAPEAPEAVRenderObject@@_K@Z DD imagerel $LN3
	DD	imagerel $LN3+66
	DD	imagerel $unwind$?allocate@?$allocator@PEAVRenderObject@@@std@@QEAAPEAPEAVRenderObject@@_K@Z
pdata	ENDS
;	COMDAT pdata
pdata	SEGMENT
$pdata$?max_size@?$_Default_allocator_traits@V?$allocator@PEAVRenderObject@@@std@@@std@@SA_KAEBV?$allocator@PEAVRenderObject@@@2@@Z DD imagerel $LN3
	DD	imagerel $LN3+51
	DD	imagerel $unwind$?max_size@?$_Default_allocator_traits@V?$allocator@PEAVRenderObject@@@std@@@std@@SA_KAEBV?$allocator@PEAVRenderObject@@@2@@Z
pdata	ENDS
;	COMDAT pdata
pdata	SEGMENT
$pdata$??0?$vector@PEAVRenderObject@@V?$allocator@PEAVRenderObject@@@std@@@std@@QEAA@XZ DD imagerel $LN3
	DD	imagerel $LN3+137
	DD	imagerel $unwind$??0?$vector@PEAVRenderObject@@V?$allocator@PEAVRenderObject@@@std@@@std@@QEAA@XZ
pdata	ENDS
;	COMDAT pdata
pdata	SEGMENT
$pdata$??1?$vector@PEAVRenderObject@@V?$allocator@PEAVRenderObject@@@std@@@std@@QEAA@XZ DD imagerel $LN3
	DD	imagerel $LN3+203
	DD	imagerel $unwind$??1?$vector@PEAVRenderObject@@V?$allocator@PEAVRenderObject@@@std@@@std@@QEAA@XZ
pdata	ENDS
;	COMDAT pdata
pdata	SEGMENT
$pdata$?push_back@?$vector@PEAVRenderObject@@V?$allocator@PEAVRenderObject@@@std@@@std@@QEAAX$$QEAPEAVRenderObject@@@Z DD imagerel $LN3
	DD	imagerel $LN3+73
	DD	imagerel $unwind$?push_back@?$vector@PEAVRenderObject@@V?$allocator@PEAVRenderObject@@@std@@@std@@QEAAX$$QEAPEAVRenderObject@@@Z
pdata	ENDS
;	COMDAT pdata
pdata	SEGMENT
$pdata$?data@?$vector@PEAVRenderObject@@V?$allocator@PEAVRenderObject@@@std@@@std@@QEAAPEAPEAVRenderObject@@XZ DD imagerel $LN3
	DD	imagerel $LN3+57
	DD	imagerel $unwind$?data@?$vector@PEAVRenderObject@@V?$allocator@PEAVRenderObject@@@std@@@std@@QEAAPEAPEAVRenderObject@@XZ
pdata	ENDS
;	COMDAT pdata
pdata	SEGMENT
$pdata$?size@?$vector@PEAVRenderObject@@V?$allocator@PEAVRenderObject@@@std@@@std@@QEBA_KXZ DD imagerel $LN3
	DD	imagerel $LN3+75
	DD	imagerel $unwind$?size@?$vector@PEAVRenderObject@@V?$allocator@PEAVRenderObject@@@std@@@std@@QEBA_KXZ
pdata	ENDS
;	COMDAT pdata
pdata	SEGMENT
$pdata$?max_size@?$vector@PEAVRenderObject@@V?$allocator@PEAVRenderObject@@@std@@@std@@QEBA_KXZ DD imagerel $LN3
	DD	imagerel $LN3+102
	DD	imagerel $unwind$?max_size@?$vector@PEAVRenderObject@@V?$allocator@PEAVRenderObject@@@std@@@std@@QEBA_KXZ
pdata	ENDS
;	COMDAT pdata
pdata	SEGMENT
$pdata$?capacity@?$vector@PEAVRenderObject@@V?$allocator@PEAVRenderObject@@@std@@@std@@QEBA_KXZ DD imagerel $LN3
	DD	imagerel $LN3+75
	DD	imagerel $unwind$?capacity@?$vector@PEAVRenderObject@@V?$allocator@PEAVRenderObject@@@std@@@std@@QEBA_KXZ
pdata	ENDS
;	COMDAT pdata
pdata	SEGMENT
$pdata$?_Calculate_growth@?$vector@PEAVRenderObject@@V?$allocator@PEAVRenderObject@@@std@@@std@@AEBA_K_K@Z DD imagerel $LN5
	DD	imagerel $LN5+168
	DD	imagerel $unwind$?_Calculate_growth@?$vector@PEAVRenderObject@@V?$allocator@PEAVRenderObject@@@std@@@std@@AEBA_K_K@Z
pdata	ENDS
;	COMDAT pdata
pdata	SEGMENT
$pdata$?_Change_array@?$vector@PEAVRenderObject@@V?$allocator@PEAVRenderObject@@@std@@@std@@AEAAXQEAPEAVRenderObject@@_K1@Z DD imagerel $LN4
	DD	imagerel $LN4+274
	DD	imagerel $unwind$?_Change_array@?$vector@PEAVRenderObject@@V?$allocator@PEAVRenderObject@@@std@@@std@@AEAAXQEAPEAVRenderObject@@_K1@Z
pdata	ENDS
;	COMDAT pdata
pdata	SEGMENT
$pdata$?_Tidy@?$vector@PEAVRenderObject@@V?$allocator@PEAVRenderObject@@@std@@@std@@AEAAXXZ DD imagerel $LN4
	DD	imagerel $LN4+228
	DD	imagerel $unwind$?_Tidy@?$vector@PEAVRenderObject@@V?$allocator@PEAVRenderObject@@@std@@@std@@AEAAXXZ
pdata	ENDS
;	COMDAT pdata
pdata	SEGMENT
$pdata$?_Xlength@?$vector@PEAVRenderObject@@V?$allocator@PEAVRenderObject@@@std@@@std@@CAXXZ DD imagerel $LN3
	DD	imagerel $LN3+49
	DD	imagerel $unwind$?_Xlength@?$vector@PEAVRenderObject@@V?$allocator@PEAVRenderObject@@@std@@@std@@CAXXZ
pdata	ENDS
;	COMDAT pdata
pdata	SEGMENT
$pdata$?_Orphan_range_unlocked@?$vector@PEAVRenderObject@@V?$allocator@PEAVRenderObject@@@std@@@std@@AEBAXPEAPEAVRenderObject@@0@Z DD imagerel $LN8
	DD	imagerel $LN8+184
	DD	imagerel $unwind$?_Orphan_range_unlocked@?$vector@PEAVRenderObject@@V?$allocator@PEAVRenderObject@@@std@@@std@@AEBAXPEAPEAVRenderObject@@0@Z
pdata	ENDS
;	COMDAT pdata
pdata	SEGMENT
$pdata$?_Orphan_range_locked@?$vector@PEAVRenderObject@@V?$allocator@PEAVRenderObject@@@std@@@std@@AEBAXPEAPEAVRenderObject@@0@Z DD imagerel $LN4
	DD	imagerel $LN4+177
	DD	imagerel $unwind$?_Orphan_range_locked@?$vector@PEAVRenderObject@@V?$allocator@PEAVRenderObject@@@std@@@std@@AEBAXPEAPEAVRenderObject@@0@Z
pdata	ENDS
;	COMDAT pdata
pdata	SEGMENT
$pdata$?dtor$0@?0??_Orphan_range_locked@?$vector@PEAVRenderObject@@V?$allocator@PEAVRenderObject@@@std@@@std@@AEBAXPEAPEAVRenderObject@@0@Z@4HA DD imagerel ?dtor$0@?0??_Orphan_range_locked@?$vector@PEAVRenderObject@@V?$allocator@PEAVRenderObject@@@std@@@std@@AEBAXPEAPEAVRenderObject@@0@Z@4HA
	DD	imagerel ?dtor$0@?0??_Orphan_range_locked@?$vector@PEAVRenderObject@@V?$allocator@PEAVRenderObject@@@std@@@std@@AEBAXPEAPEAVRenderObject@@0@Z@4HA+37
	DD	imagerel $unwind$?dtor$0@?0??_Orphan_range_locked@?$vector@PEAVRenderObject@@V?$allocator@PEAVRenderObject@@@std@@@std@@AEBAXPEAPEAVRenderObject@@0@Z@4HA
pdata	ENDS
;	COMDAT pdata
pdata	SEGMENT
$pdata$?_Orphan_range@?$vector@PEAVRenderObject@@V?$allocator@PEAVRenderObject@@@std@@@std@@AEBAXPEAPEAVRenderObject@@0@Z DD imagerel $LN5
	DD	imagerel $LN5+117
	DD	imagerel $unwind$?_Orphan_range@?$vector@PEAVRenderObject@@V?$allocator@PEAVRenderObject@@@std@@@std@@AEBAXPEAPEAVRenderObject@@0@Z
pdata	ENDS
;	COMDAT pdata
pdata	SEGMENT
$pdata$?_Getal@?$vector@PEAVRenderObject@@V?$allocator@PEAVRenderObject@@@std@@@std@@AEAAAEAV?$allocator@PEAVRenderObject@@@2@XZ DD imagerel $LN3
	DD	imagerel $LN3+56
	DD	imagerel $unwind$?_Getal@?$vector@PEAVRenderObject@@V?$allocator@PEAVRenderObject@@@std@@@std@@AEAAAEAV?$allocator@PEAVRenderObject@@@2@XZ
pdata	ENDS
;	COMDAT pdata
pdata	SEGMENT
$pdata$?_Getal@?$vector@PEAVRenderObject@@V?$allocator@PEAVRenderObject@@@std@@@std@@AEBAAEBV?$allocator@PEAVRenderObject@@@2@XZ DD imagerel $LN3
	DD	imagerel $LN3+56
	DD	imagerel $unwind$?_Getal@?$vector@PEAVRenderObject@@V?$allocator@PEAVRenderObject@@@std@@@std@@AEBAAEBV?$allocator@PEAVRenderObject@@@2@XZ
pdata	ENDS
;	COMDAT pdata
pdata	SEGMENT
$pdata$??0?$_Vector_val@U?$_Simple_types@PEAVRenderObject@@@std@@@std@@QEAA@XZ DD imagerel $LN3
	DD	imagerel $LN3+105
	DD	imagerel $unwind$??0?$_Vector_val@U?$_Simple_types@PEAVRenderObject@@@std@@@std@@QEAA@XZ
pdata	ENDS
;	COMDAT pdata
pdata	SEGMENT
$pdata$?_Get_first@?$_Compressed_pair@V?$allocator@PEAVRenderObject@@@std@@V?$_Vector_val@U?$_Simple_types@PEAVRenderObject@@@std@@@2@$00@std@@QEAAAEAV?$allocator@PEAVRenderObject@@@2@XZ DD imagerel $LN3
	DD	imagerel $LN3+48
	DD	imagerel $unwind$?_Get_first@?$_Compressed_pair@V?$allocator@PEAVRenderObject@@@std@@V?$_Vector_val@U?$_Simple_types@PEAVRenderObject@@@std@@@2@$00@std@@QEAAAEAV?$allocator@PEAVRenderObject@@@2@XZ
pdata	ENDS
;	COMDAT pdata
pdata	SEGMENT
$pdata$?_Get_first@?$_Compressed_pair@V?$allocator@PEAVRenderObject@@@std@@V?$_Vector_val@U?$_Simple_types@PEAVRenderObject@@@std@@@2@$00@std@@QEBAAEBV?$allocator@PEAVRenderObject@@@2@XZ DD imagerel $LN3
	DD	imagerel $LN3+48
	DD	imagerel $unwind$?_Get_first@?$_Compressed_pair@V?$allocator@PEAVRenderObject@@@std@@V?$_Vector_val@U?$_Simple_types@PEAVRenderObject@@@std@@@2@$00@std@@QEBAAEBV?$allocator@PEAVRenderObject@@@2@XZ
pdata	ENDS
;	COMDAT pdata
pdata	SEGMENT
$pdata$?__autoclassinit2@?$vector@PEAVRenderObject@@V?$allocator@PEAVRenderObject@@@std@@@std@@QEAAX_K@Z DD imagerel $LN3
	DD	imagerel $LN3+50
	DD	imagerel $unwind$?__autoclassinit2@?$vector@PEAVRenderObject@@V?$allocator@PEAVRenderObject@@@std@@@std@@QEAAX_K@Z
pdata	ENDS
;	COMDAT pdata
pdata	SEGMENT
$pdata$??$_Unfancy_maybe_null@PEAVRenderObject@@@std@@YAPEAPEAVRenderObject@@PEAPEAV1@@Z DD imagerel $LN3
	DD	imagerel $LN3+48
	DD	imagerel $unwind$??$_Unfancy_maybe_null@PEAVRenderObject@@@std@@YAPEAPEAVRenderObject@@PEAPEAV1@@Z
pdata	ENDS
;	COMDAT pdata
pdata	SEGMENT
$pdata$??$move@AEAPEAVRenderObject@@@std@@YA$$QEAPEAVRenderObject@@AEAPEAV1@@Z DD imagerel $LN3
	DD	imagerel $LN3+48
	DD	imagerel $unwind$??$move@AEAPEAVRenderObject@@@std@@YA$$QEAPEAVRenderObject@@AEAPEAV1@@Z
pdata	ENDS
;	COMDAT pdata
pdata	SEGMENT
$pdata$??$emplace_back@PEAVRenderObject@@@?$vector@PEAVRenderObject@@V?$allocator@PEAVRenderObject@@@std@@@std@@QEAA?A_T$$QEAPEAVRenderObject@@@Z DD imagerel $LN3
	DD	imagerel $LN3+81
	DD	imagerel $unwind$??$emplace_back@PEAVRenderObject@@@?$vector@PEAVRenderObject@@V?$allocator@PEAVRenderObject@@@std@@@std@@QEAA?A_T$$QEAPEAVRenderObject@@@Z
pdata	ENDS
;	COMDAT pdata
pdata	SEGMENT
$pdata$??$forward@PEAVRenderObject@@@std@@YA$$QEAPEAVRenderObject@@AEAPEAV1@@Z DD imagerel $LN3
	DD	imagerel $LN3+48
	DD	imagerel $unwind$??$forward@PEAVRenderObject@@@std@@YA$$QEAPEAVRenderObject@@AEAPEAV1@@Z
pdata	ENDS
;	COMDAT pdata
pdata	SEGMENT
$pdata$??$_Emplace_one_at_back@PEAVRenderObject@@@?$vector@PEAVRenderObject@@V?$allocator@PEAVRenderObject@@@std@@@std@@AEAAAEAPEAVRenderObject@@$$QEAPEAV2@@Z DD imagerel $LN4
	DD	imagerel $LN4+174
	DD	imagerel $unwind$??$_Emplace_one_at_back@PEAVRenderObject@@@?$vector@PEAVRenderObject@@V?$allocator@PEAVRenderObject@@@std@@@std@@AEAAAEAPEAVRenderObject@@$$QEAPEAV2@@Z
pdata	ENDS
;	COMDAT pdata
pdata	SEGMENT
$pdata$?deallocate@?$allocator@U_Container_proxy@std@@@std@@QEAAXQEAU_Container_proxy@2@_K@Z DD imagerel $LN13
	DD	imagerel $LN13+213
	DD	imagerel $unwind$?deallocate@?$allocator@U_Container_proxy@std@@@std@@QEAAXQEAU_Container_proxy@2@_K@Z
pdata	ENDS
;	COMDAT pdata
pdata	SEGMENT
$pdata$?allocate@?$allocator@U_Container_proxy@std@@@std@@QEAAPEAU_Container_proxy@2@_K@Z DD imagerel $LN3
	DD	imagerel $LN3+66
	DD	imagerel $unwind$?allocate@?$allocator@U_Container_proxy@std@@@std@@QEAAPEAU_Container_proxy@2@_K@Z
pdata	ENDS
;	COMDAT pdata
pdata	SEGMENT
$pdata$??$?0PEAVRenderObject@@@?$allocator@U_Container_proxy@std@@@std@@QEAA@AEBV?$allocator@PEAVRenderObject@@@1@@Z DD imagerel $LN3
	DD	imagerel $LN3+53
	DD	imagerel $unwind$??$?0PEAVRenderObject@@@?$allocator@U_Container_proxy@std@@@std@@QEAA@AEBV?$allocator@PEAVRenderObject@@@1@@Z
pdata	ENDS
;	COMDAT pdata
pdata	SEGMENT
$pdata$??$exchange@PEAU_Container_proxy@std@@$$T@std@@YAPEAU_Container_proxy@0@AEAPEAU10@$$QEA$$T@Z DD imagerel $LN3
	DD	imagerel $LN3+84
	DD	imagerel $unwind$??$exchange@PEAU_Container_proxy@std@@$$T@std@@YAPEAU_Container_proxy@0@AEAPEAU10@$$QEA$$T@Z
pdata	ENDS
;	COMDAT pdata
pdata	SEGMENT
$pdata$??$_Delete_plain_internal@V?$allocator@U_Container_proxy@std@@@std@@@std@@YAXAEAV?$allocator@U_Container_proxy@std@@@0@QEAU_Container_proxy@0@@Z DD imagerel $LN3
	DD	imagerel $LN3+65
	DD	imagerel $unwind$??$_Delete_plain_internal@V?$allocator@U_Container_proxy@std@@@std@@@std@@YAXAEAV?$allocator@U_Container_proxy@std@@@0@QEAU_Container_proxy@0@@Z
pdata	ENDS
;	COMDAT pdata
pdata	SEGMENT
$pdata$??$?0$$V@?$_Compressed_pair@V?$allocator@PEAVRenderObject@@@std@@V?$_Vector_val@U?$_Simple_types@PEAVRenderObject@@@std@@@2@$00@std@@QEAA@U_Zero_then_variadic_args_t@1@@Z DD imagerel $LN3
	DD	imagerel $LN3+79
	DD	imagerel $unwind$??$?0$$V@?$_Compressed_pair@V?$allocator@PEAVRenderObject@@@std@@V?$_Vector_val@U?$_Simple_types@PEAVRenderObject@@@std@@@2@$00@std@@QEAA@U_Zero_then_variadic_args_t@1@@Z
pdata	ENDS
;	COMDAT pdata
pdata	SEGMENT
$pdata$??$_Alloc_proxy@V?$allocator@U_Container_proxy@std@@@std@@@_Container_base12@std@@QEAAX$$QEAV?$allocator@U_Container_proxy@std@@@1@@Z DD imagerel $LN3
	DD	imagerel $LN3+133
	DD	imagerel $unwind$??$_Alloc_proxy@V?$allocator@U_Container_proxy@std@@@std@@@_Container_base12@std@@QEAAX$$QEAV?$allocator@U_Container_proxy@std@@@1@@Z
pdata	ENDS
;	COMDAT pdata
pdata	SEGMENT
$pdata$?deallocate@?$allocator@UVkVertexInputAttributeDescription@@@std@@QEAAXQEAUVkVertexInputAttributeDescription@@_K@Z DD imagerel $LN13
	DD	imagerel $LN13+213
	DD	imagerel $unwind$?deallocate@?$allocator@UVkVertexInputAttributeDescription@@@std@@QEAAXQEAUVkVertexInputAttributeDescription@@_K@Z
pdata	ENDS
;	COMDAT pdata
pdata	SEGMENT
$pdata$??1?$vector@UVkVertexInputAttributeDescription@@V?$allocator@UVkVertexInputAttributeDescription@@@std@@@std@@QEAA@XZ DD imagerel $LN3
	DD	imagerel $LN3+203
	DD	imagerel $unwind$??1?$vector@UVkVertexInputAttributeDescription@@V?$allocator@UVkVertexInputAttributeDescription@@@std@@@std@@QEAA@XZ
pdata	ENDS
;	COMDAT pdata
pdata	SEGMENT
$pdata$?data@?$vector@UVkVertexInputAttributeDescription@@V?$allocator@UVkVertexInputAttributeDescription@@@std@@@std@@QEAAPEAUVkVertexInputAttributeDescription@@XZ DD imagerel $LN3
	DD	imagerel $LN3+57
	DD	imagerel $unwind$?data@?$vector@UVkVertexInputAttributeDescription@@V?$allocator@UVkVertexInputAttributeDescription@@@std@@@std@@QEAAPEAUVkVertexInputAttributeDescription@@XZ
pdata	ENDS
;	COMDAT pdata
pdata	SEGMENT
$pdata$?size@?$vector@UVkVertexInputAttributeDescription@@V?$allocator@UVkVertexInputAttributeDescription@@@std@@@std@@QEBA_KXZ DD imagerel $LN3
	DD	imagerel $LN3+75
	DD	imagerel $unwind$?size@?$vector@UVkVertexInputAttributeDescription@@V?$allocator@UVkVertexInputAttributeDescription@@@std@@@std@@QEBA_KXZ
pdata	ENDS
;	COMDAT pdata
pdata	SEGMENT
$pdata$?_Tidy@?$vector@UVkVertexInputAttributeDescription@@V?$allocator@UVkVertexInputAttributeDescription@@@std@@@std@@AEAAXXZ DD imagerel $LN4
	DD	imagerel $LN4+228
	DD	imagerel $unwind$?_Tidy@?$vector@UVkVertexInputAttributeDescription@@V?$allocator@UVkVertexInputAttributeDescription@@@std@@@std@@AEAAXXZ
pdata	ENDS
;	COMDAT pdata
pdata	SEGMENT
$pdata$?_Getal@?$vector@UVkVertexInputAttributeDescription@@V?$allocator@UVkVertexInputAttributeDescription@@@std@@@std@@AEAAAEAV?$allocator@UVkVertexInputAttributeDescription@@@2@XZ DD imagerel $LN3
	DD	imagerel $LN3+56
	DD	imagerel $unwind$?_Getal@?$vector@UVkVertexInputAttributeDescription@@V?$allocator@UVkVertexInputAttributeDescription@@@std@@@std@@AEAAAEAV?$allocator@UVkVertexInputAttributeDescription@@@2@XZ
pdata	ENDS
;	COMDAT pdata
pdata	SEGMENT
$pdata$?_Get_first@?$_Compressed_pair@V?$allocator@UVkVertexInputAttributeDescription@@@std@@V?$_Vector_val@U?$_Simple_types@UVkVertexInputAttributeDescription@@@std@@@2@$00@std@@QEAAAEAV?$allocator@UVkVertexInputAttributeDescription@@@2@XZ DD imagerel $LN3
	DD	imagerel $LN3+48
	DD	imagerel $unwind$?_Get_first@?$_Compressed_pair@V?$allocator@UVkVertexInputAttributeDescription@@@std@@V?$_Vector_val@U?$_Simple_types@UVkVertexInputAttributeDescription@@@std@@@2@$00@std@@QEAAAEAV?$allocator@UVkVertexInputAttributeDescription@@@2@XZ
pdata	ENDS
;	COMDAT pdata
pdata	SEGMENT
$pdata$?__autoclassinit2@?$vector@UVkVertexInputAttributeDescription@@V?$allocator@UVkVertexInputAttributeDescription@@@std@@@std@@QEAAX_K@Z DD imagerel $LN3
	DD	imagerel $LN3+50
	DD	imagerel $unwind$?__autoclassinit2@?$vector@UVkVertexInputAttributeDescription@@V?$allocator@UVkVertexInputAttributeDescription@@@std@@@std@@QEAAX_K@Z
pdata	ENDS
;	COMDAT pdata
pdata	SEGMENT
$pdata$??$_Unfancy_maybe_null@PEAUVkCommandBuffer_T@@@std@@YAPEAPEAUVkCommandBuffer_T@@PEAPEAU1@@Z DD imagerel $LN3
	DD	imagerel $LN3+48
	DD	imagerel $unwind$??$_Unfancy_maybe_null@PEAUVkCommandBuffer_T@@@std@@YAPEAPEAUVkCommandBuffer_T@@PEAPEAU1@@Z
pdata	ENDS
;	COMDAT pdata
pdata	SEGMENT
$pdata$??$?0PEAUVkCommandBuffer_T@@@?$allocator@U_Container_proxy@std@@@std@@QEAA@AEBV?$allocator@PEAUVkCommandBuffer_T@@@1@@Z DD imagerel $LN3
	DD	imagerel $LN3+53
	DD	imagerel $unwind$??$?0PEAUVkCommandBuffer_T@@@?$allocator@U_Container_proxy@std@@@std@@QEAA@AEBV?$allocator@PEAUVkCommandBuffer_T@@@1@@Z
pdata	ENDS
;	COMDAT pdata
pdata	SEGMENT
$pdata$??$?0AEBV?$allocator@PEAUVkCommandBuffer_T@@@std@@$$V@?$_Compressed_pair@V?$allocator@PEAUVkCommandBuffer_T@@@std@@V?$_Vector_val@U?$_Simple_types@PEAUVkCommandBuffer_T@@@std@@@2@$00@std@@QEAA@U_One_then_variadic_args_t@1@AEBV?$allocator@PEAUVkCommandBuffer_T@@@1@@Z DD imagerel $LN3
	DD	imagerel $LN3+84
	DD	imagerel $unwind$??$?0AEBV?$allocator@PEAUVkCommandBuffer_T@@@std@@$$V@?$_Compressed_pair@V?$allocator@PEAUVkCommandBuffer_T@@@std@@V?$_Vector_val@U?$_Simple_types@PEAUVkCommandBuffer_T@@@std@@@2@$00@std@@QEAA@U_One_then_variadic_args_t@1@AEBV?$allocator@PEAUVkCommandBuffer_T@@@1@@Z
pdata	ENDS
;	COMDAT pdata
pdata	SEGMENT
$pdata$??$_Construct_n@$$V@?$vector@PEAUVkCommandBuffer_T@@V?$allocator@PEAUVkCommandBuffer_T@@@std@@@std@@AEAAX_K@Z DD imagerel $LN6
	DD	imagerel $LN6+311
	DD	imagerel $unwind$??$_Construct_n@$$V@?$vector@PEAUVkCommandBuffer_T@@V?$allocator@PEAUVkCommandBuffer_T@@@std@@@std@@AEAAX_K@Z
pdata	ENDS
;	COMDAT pdata
pdata	SEGMENT
$pdata$?dtor$0@?0???$_Construct_n@$$V@?$vector@PEAUVkCommandBuffer_T@@V?$allocator@PEAUVkCommandBuffer_T@@@std@@@std@@AEAAX_K@Z@4HA DD imagerel ?dtor$0@?0???$_Construct_n@$$V@?$vector@PEAUVkCommandBuffer_T@@V?$allocator@PEAUVkCommandBuffer_T@@@std@@@std@@AEAAX_K@Z@4HA
	DD	imagerel ?dtor$0@?0???$_Construct_n@$$V@?$vector@PEAUVkCommandBuffer_T@@V?$allocator@PEAUVkCommandBuffer_T@@@std@@@std@@AEAAX_K@Z@4HA+39
	DD	imagerel $unwind$?dtor$0@?0???$_Construct_n@$$V@?$vector@PEAUVkCommandBuffer_T@@V?$allocator@PEAUVkCommandBuffer_T@@@std@@@std@@AEAAX_K@Z@4HA
pdata	ENDS
;	COMDAT pdata
pdata	SEGMENT
$pdata$?dtor$1@?0???$_Construct_n@$$V@?$vector@PEAUVkCommandBuffer_T@@V?$allocator@PEAUVkCommandBuffer_T@@@std@@@std@@AEAAX_K@Z@4HA DD imagerel ?dtor$1@?0???$_Construct_n@$$V@?$vector@PEAUVkCommandBuffer_T@@V?$allocator@PEAUVkCommandBuffer_T@@@std@@@std@@AEAAX_K@Z@4HA
	DD	imagerel ?dtor$1@?0???$_Construct_n@$$V@?$vector@PEAUVkCommandBuffer_T@@V?$allocator@PEAUVkCommandBuffer_T@@@std@@@std@@AEAAX_K@Z@4HA+39
	DD	imagerel $unwind$?dtor$1@?0???$_Construct_n@$$V@?$vector@PEAUVkCommandBuffer_T@@V?$allocator@PEAUVkCommandBuffer_T@@@std@@@std@@AEAAX_K@Z@4HA
pdata	ENDS
;	COMDAT pdata
pdata	SEGMENT
$pdata$??$move@AEAUVertex2DTextured@cow@@@std@@YA$$QEAUVertex2DTextured@cow@@AEAU12@@Z DD imagerel $LN3
	DD	imagerel $LN3+48
	DD	imagerel $unwind$??$move@AEAUVertex2DTextured@cow@@@std@@YA$$QEAUVertex2DTextured@cow@@AEAU12@@Z
pdata	ENDS
;	COMDAT pdata
pdata	SEGMENT
$pdata$??$emplace_back@UVertex2DTextured@cow@@@?$vector@UVertex2DTextured@cow@@V?$allocator@UVertex2DTextured@cow@@@std@@@std@@QEAA?A_T$$QEAUVertex2DTextured@cow@@@Z DD imagerel $LN3
	DD	imagerel $LN3+81
	DD	imagerel $unwind$??$emplace_back@UVertex2DTextured@cow@@@?$vector@UVertex2DTextured@cow@@V?$allocator@UVertex2DTextured@cow@@@std@@@std@@QEAA?A_T$$QEAUVertex2DTextured@cow@@@Z
pdata	ENDS
;	COMDAT pdata
pdata	SEGMENT
$pdata$??$forward@UVertex2DTextured@cow@@@std@@YA$$QEAUVertex2DTextured@cow@@AEAU12@@Z DD imagerel $LN3
	DD	imagerel $LN3+48
	DD	imagerel $unwind$??$forward@UVertex2DTextured@cow@@@std@@YA$$QEAUVertex2DTextured@cow@@AEAU12@@Z
pdata	ENDS
;	COMDAT pdata
pdata	SEGMENT
$pdata$??$_Emplace_one_at_back@UVertex2DTextured@cow@@@?$vector@UVertex2DTextured@cow@@V?$allocator@UVertex2DTextured@cow@@@std@@@std@@AEAAAEAUVertex2DTextured@cow@@$$QEAU23@@Z DD imagerel $LN4
	DD	imagerel $LN4+174
	DD	imagerel $unwind$??$_Emplace_one_at_back@UVertex2DTextured@cow@@@?$vector@UVertex2DTextured@cow@@V?$allocator@UVertex2DTextured@cow@@@std@@@std@@AEAAAEAUVertex2DTextured@cow@@$$QEAU23@@Z
pdata	ENDS
;	COMDAT pdata
pdata	SEGMENT
$pdata$??$?0UVertex2DTextured@cow@@@?$allocator@U_Container_proxy@std@@@std@@QEAA@AEBV?$allocator@UVertex2DTextured@cow@@@1@@Z DD imagerel $LN3
	DD	imagerel $LN3+53
	DD	imagerel $unwind$??$?0UVertex2DTextured@cow@@@?$allocator@U_Container_proxy@std@@@std@@QEAA@AEBV?$allocator@UVertex2DTextured@cow@@@1@@Z
pdata	ENDS
;	COMDAT pdata
pdata	SEGMENT
$pdata$??$?0V?$allocator@UVertex2DTextured@cow@@@std@@$$V@?$_Compressed_pair@V?$allocator@UVertex2DTextured@cow@@@std@@V?$_Vector_val@U?$_Simple_types@UVertex2DTextured@cow@@@std@@@2@$00@std@@QEAA@U_One_then_variadic_args_t@1@$$QEAV?$allocator@UVertex2DTextured@cow@@@1@@Z DD imagerel $LN3
	DD	imagerel $LN3+84
	DD	imagerel $unwind$??$?0V?$allocator@UVertex2DTextured@cow@@@std@@$$V@?$_Compressed_pair@V?$allocator@UVertex2DTextured@cow@@@std@@V?$_Vector_val@U?$_Simple_types@UVertex2DTextured@cow@@@std@@@2@$00@std@@QEAA@U_One_then_variadic_args_t@1@$$QEAV?$allocator@UVertex2DTextured@cow@@@1@@Z
pdata	ENDS
;	COMDAT pdata
pdata	SEGMENT
$pdata$??$_Construct_n@AEBQEAUVertex2DTextured@cow@@AEBQEAU12@@?$vector@UVertex2DTextured@cow@@V?$allocator@UVertex2DTextured@cow@@@std@@@std@@AEAAX_KAEBQEAUVertex2DTextured@cow@@1@Z DD imagerel $LN6
	DD	imagerel $LN6+390
	DD	imagerel $unwind$??$_Construct_n@AEBQEAUVertex2DTextured@cow@@AEBQEAU12@@?$vector@UVertex2DTextured@cow@@V?$allocator@UVertex2DTextured@cow@@@std@@@std@@AEAAX_KAEBQEAUVertex2DTextured@cow@@1@Z
pdata	ENDS
;	COMDAT pdata
pdata	SEGMENT
$pdata$?dtor$0@?0???$_Construct_n@AEBQEAUVertex2DTextured@cow@@AEBQEAU12@@?$vector@UVertex2DTextured@cow@@V?$allocator@UVertex2DTextured@cow@@@std@@@std@@AEAAX_KAEBQEAUVertex2DTextured@cow@@1@Z@4HA DD imagerel ?dtor$0@?0???$_Construct_n@AEBQEAUVertex2DTextured@cow@@AEBQEAU12@@?$vector@UVertex2DTextured@cow@@V?$allocator@UVertex2DTextured@cow@@@std@@@std@@AEAAX_KAEBQEAUVertex2DTextured@cow@@1@Z@4HA
	DD	imagerel ?dtor$0@?0???$_Construct_n@AEBQEAUVertex2DTextured@cow@@AEBQEAU12@@?$vector@UVertex2DTextured@cow@@V?$allocator@UVertex2DTextured@cow@@@std@@@std@@AEAAX_KAEBQEAUVertex2DTextured@cow@@1@Z@4HA+39
	DD	imagerel $unwind$?dtor$0@?0???$_Construct_n@AEBQEAUVertex2DTextured@cow@@AEBQEAU12@@?$vector@UVertex2DTextured@cow@@V?$allocator@UVertex2DTextured@cow@@@std@@@std@@AEAAX_KAEBQEAUVertex2DTextured@cow@@1@Z@4HA
pdata	ENDS
;	COMDAT pdata
pdata	SEGMENT
$pdata$?dtor$1@?0???$_Construct_n@AEBQEAUVertex2DTextured@cow@@AEBQEAU12@@?$vector@UVertex2DTextured@cow@@V?$allocator@UVertex2DTextured@cow@@@std@@@std@@AEAAX_KAEBQEAUVertex2DTextured@cow@@1@Z@4HA DD imagerel ?dtor$1@?0???$_Construct_n@AEBQEAUVertex2DTextured@cow@@AEBQEAU12@@?$vector@UVertex2DTextured@cow@@V?$allocator@UVertex2DTextured@cow@@@std@@@std@@AEAAX_KAEBQEAUVertex2DTextured@cow@@1@Z@4HA
	DD	imagerel ?dtor$1@?0???$_Construct_n@AEBQEAUVertex2DTextured@cow@@AEBQEAU12@@?$vector@UVertex2DTextured@cow@@V?$allocator@UVertex2DTextured@cow@@@std@@@std@@AEAAX_KAEBQEAUVertex2DTextured@cow@@1@Z@4HA+39
	DD	imagerel $unwind$?dtor$1@?0???$_Construct_n@AEBQEAUVertex2DTextured@cow@@AEBQEAU12@@?$vector@UVertex2DTextured@cow@@V?$allocator@UVertex2DTextured@cow@@@std@@@std@@AEAAX_KAEBQEAUVertex2DTextured@cow@@1@Z@4HA
pdata	ENDS
;	COMDAT pdata
pdata	SEGMENT
$pdata$??$?0$$V@?$_Compressed_pair@V?$allocator@UVertex2DTextured@cow@@@std@@V?$_Vector_val@U?$_Simple_types@UVertex2DTextured@cow@@@std@@@2@$00@std@@QEAA@U_Zero_then_variadic_args_t@1@@Z DD imagerel $LN3
	DD	imagerel $LN3+79
	DD	imagerel $unwind$??$?0$$V@?$_Compressed_pair@V?$allocator@UVertex2DTextured@cow@@@std@@V?$_Vector_val@U?$_Simple_types@UVertex2DTextured@cow@@@std@@@2@$00@std@@QEAA@U_Zero_then_variadic_args_t@1@@Z
pdata	ENDS
;	COMDAT pdata
pdata	SEGMENT
$pdata$??$?0U?$default_delete@VBuffer@cow@@@std@@$0A@@?$unique_ptr@VBuffer@cow@@U?$default_delete@VBuffer@cow@@@std@@@std@@QEAA@XZ DD imagerel $LN3
	DD	imagerel $LN3+81
	DD	imagerel $unwind$??$?0U?$default_delete@VBuffer@cow@@@std@@$0A@@?$unique_ptr@VBuffer@cow@@U?$default_delete@VBuffer@cow@@@std@@@std@@QEAA@XZ
pdata	ENDS
;	COMDAT pdata
pdata	SEGMENT
$pdata$??$make_unique@VBuffer@cow@@AEAVDevice@2@AEA_KW4VkBufferUsageFlagBits@@H$0A@@std@@YA?AV?$unique_ptr@VBuffer@cow@@U?$default_delete@VBuffer@cow@@@std@@@0@AEAVDevice@cow@@AEA_K$$QEAW4VkBufferUsageFlagBits@@$$QEAH@Z DD imagerel $LN8
	DD	imagerel $LN8+313
	DD	imagerel $unwind$??$make_unique@VBuffer@cow@@AEAVDevice@2@AEA_KW4VkBufferUsageFlagBits@@H$0A@@std@@YA?AV?$unique_ptr@VBuffer@cow@@U?$default_delete@VBuffer@cow@@@std@@@0@AEAVDevice@cow@@AEA_K$$QEAW4VkBufferUsageFlagBits@@$$QEAH@Z
pdata	ENDS
;	COMDAT pdata
pdata	SEGMENT
$pdata$?dtor$0@?0???$make_unique@VBuffer@cow@@AEAVDevice@2@AEA_KW4VkBufferUsageFlagBits@@H$0A@@std@@YA?AV?$unique_ptr@VBuffer@cow@@U?$default_delete@VBuffer@cow@@@std@@@0@AEAVDevice@cow@@AEA_K$$QEAW4VkBufferUsageFlagBits@@$$QEAH@Z@4HA DD imagerel ?dtor$0@?0???$make_unique@VBuffer@cow@@AEAVDevice@2@AEA_KW4VkBufferUsageFlagBits@@H$0A@@std@@YA?AV?$unique_ptr@VBuffer@cow@@U?$default_delete@VBuffer@cow@@@std@@@0@AEAVDevice@cow@@AEA_K$$QEAW4VkBufferUsageFlagBits@@$$QEAH@Z@4HA
	DD	imagerel ?dtor$0@?0???$make_unique@VBuffer@cow@@AEAVDevice@2@AEA_KW4VkBufferUsageFlagBits@@H$0A@@std@@YA?AV?$unique_ptr@VBuffer@cow@@U?$default_delete@VBuffer@cow@@@std@@@0@AEAVDevice@cow@@AEA_K$$QEAW4VkBufferUsageFlagBits@@$$QEAH@Z@4HA+44
	DD	imagerel $unwind$?dtor$0@?0???$make_unique@VBuffer@cow@@AEAVDevice@2@AEA_KW4VkBufferUsageFlagBits@@H$0A@@std@@YA?AV?$unique_ptr@VBuffer@cow@@U?$default_delete@VBuffer@cow@@@std@@@0@AEAVDevice@cow@@AEA_K$$QEAW4VkBufferUsageFlagBits@@$$QEAH@Z@4HA
pdata	ENDS
;	COMDAT pdata
pdata	SEGMENT
$pdata$??$?4U?$default_delete@VBuffer@cow@@@std@@$0A@@?$unique_ptr@VBuffer@cow@@U?$default_delete@VBuffer@cow@@@std@@@std@@QEAAAEAV01@$$QEAV01@@Z DD imagerel $LN4
	DD	imagerel $LN4+139
	DD	imagerel $unwind$??$?4U?$default_delete@VBuffer@cow@@@std@@$0A@@?$unique_ptr@VBuffer@cow@@U?$default_delete@VBuffer@cow@@@std@@@std@@QEAAAEAV01@$$QEAV01@@Z
pdata	ENDS
;	COMDAT pdata
pdata	SEGMENT
$pdata$??$?0W4VkDynamicState@@@?$allocator@U_Container_proxy@std@@@std@@QEAA@AEBV?$allocator@W4VkDynamicState@@@1@@Z DD imagerel $LN3
	DD	imagerel $LN3+53
	DD	imagerel $unwind$??$?0W4VkDynamicState@@@?$allocator@U_Container_proxy@std@@@std@@QEAA@AEBV?$allocator@W4VkDynamicState@@@1@@Z
pdata	ENDS
;	COMDAT pdata
pdata	SEGMENT
$pdata$??$?0$$V@?$_Compressed_pair@V?$allocator@W4VkDynamicState@@@std@@V?$_Vector_val@U?$_Simple_types@W4VkDynamicState@@@std@@@2@$00@std@@QEAA@U_Zero_then_variadic_args_t@1@@Z DD imagerel $LN3
	DD	imagerel $LN3+79
	DD	imagerel $unwind$??$?0$$V@?$_Compressed_pair@V?$allocator@W4VkDynamicState@@@std@@V?$_Vector_val@U?$_Simple_types@W4VkDynamicState@@@std@@@2@$00@std@@QEAA@U_Zero_then_variadic_args_t@1@@Z
pdata	ENDS
;	COMDAT pdata
pdata	SEGMENT
$pdata$??0_Sentry_base@?$basic_ostream@DU?$char_traits@D@std@@@std@@QEAA@AEAV12@@Z DD imagerel $LN4
	DD	imagerel $LN4+148
	DD	imagerel $unwind$??0_Sentry_base@?$basic_ostream@DU?$char_traits@D@std@@@std@@QEAA@AEAV12@@Z
pdata	ENDS
;	COMDAT pdata
pdata	SEGMENT
$pdata$??1_Sentry_base@?$basic_ostream@DU?$char_traits@D@std@@@std@@QEAA@XZ DD imagerel $LN4
	DD	imagerel $LN4+120
	DD	imagerel $unwind$??1_Sentry_base@?$basic_ostream@DU?$char_traits@D@std@@@std@@QEAA@XZ
pdata	ENDS
;	COMDAT pdata
pdata	SEGMENT
$pdata$??0sentry@?$basic_ostream@DU?$char_traits@D@std@@@std@@QEAA@AEAV12@@Z DD imagerel $LN7
	DD	imagerel $LN7+261
	DD	imagerel $unwind$??0sentry@?$basic_ostream@DU?$char_traits@D@std@@@std@@QEAA@AEAV12@@Z
pdata	ENDS
;	COMDAT pdata
pdata	SEGMENT
$pdata$?dtor$0@?0???0sentry@?$basic_ostream@DU?$char_traits@D@std@@@std@@QEAA@AEAV12@@Z@4HA DD imagerel ?dtor$0@?0???0sentry@?$basic_ostream@DU?$char_traits@D@std@@@std@@QEAA@AEAV12@@Z@4HA
	DD	imagerel ?dtor$0@?0???0sentry@?$basic_ostream@DU?$char_traits@D@std@@@std@@QEAA@AEAV12@@Z@4HA+39
	DD	imagerel $unwind$?dtor$0@?0???0sentry@?$basic_ostream@DU?$char_traits@D@std@@@std@@QEAA@AEAV12@@Z@4HA
pdata	ENDS
;	COMDAT pdata
pdata	SEGMENT
$pdata$??1sentry@?$basic_ostream@DU?$char_traits@D@std@@@std@@QEAA@XZ DD imagerel $LN6
	DD	imagerel $LN6+113
	DD	imagerel $unwind$??1sentry@?$basic_ostream@DU?$char_traits@D@std@@@std@@QEAA@XZ
pdata	ENDS
;	COMDAT pdata
pdata	SEGMENT
$pdata$??Bsentry@?$basic_ostream@DU?$char_traits@D@std@@@std@@QEBA_NXZ DD imagerel $LN3
	DD	imagerel $LN3+52
	DD	imagerel $unwind$??Bsentry@?$basic_ostream@DU?$char_traits@D@std@@@std@@QEBA_NXZ
pdata	ENDS
;	COMDAT pdata
pdata	SEGMENT
$pdata$??$min@_K@std@@YAAEB_KAEB_K0@Z DD imagerel $LN5
	DD	imagerel $LN5+119
	DD	imagerel $unwind$??$min@_K@std@@YAAEB_KAEB_K0@Z
pdata	ENDS
;	COMDAT pdata
pdata	SEGMENT
$pdata$??0?$_Container_proxy_ptr12@V?$allocator@U_Container_proxy@std@@@std@@@std@@QEAA@AEAV?$allocator@U_Container_proxy@std@@@1@AEAU_Container_base12@1@@Z DD imagerel $LN3
	DD	imagerel $LN3+184
	DD	imagerel $unwind$??0?$_Container_proxy_ptr12@V?$allocator@U_Container_proxy@std@@@std@@@std@@QEAA@AEAV?$allocator@U_Container_proxy@std@@@1@AEAU_Container_base12@1@@Z
pdata	ENDS
;	COMDAT pdata
pdata	SEGMENT
$pdata$??1?$_Container_proxy_ptr12@V?$allocator@U_Container_proxy@std@@@std@@@std@@QEAA@XZ DD imagerel $LN4
	DD	imagerel $LN4+80
	DD	imagerel $unwind$??1?$_Container_proxy_ptr12@V?$allocator@U_Container_proxy@std@@@std@@@std@@QEAA@XZ
pdata	ENDS
;	COMDAT pdata
pdata	SEGMENT
$pdata$??$_Unfancy@U_Container_proxy@std@@@std@@YAPEAU_Container_proxy@0@PEAU10@@Z DD imagerel $LN3
	DD	imagerel $LN3+48
	DD	imagerel $unwind$??$_Unfancy@U_Container_proxy@std@@@std@@YAPEAU_Container_proxy@0@PEAU10@@Z
pdata	ENDS
;	COMDAT pdata
pdata	SEGMENT
$pdata$??$_Unfancy_maybe_null@UVkVertexInputAttributeDescription@@@std@@YAPEAUVkVertexInputAttributeDescription@@PEAU1@@Z DD imagerel $LN3
	DD	imagerel $LN3+48
	DD	imagerel $unwind$??$_Unfancy_maybe_null@UVkVertexInputAttributeDescription@@@std@@YAPEAUVkVertexInputAttributeDescription@@PEAU1@@Z
pdata	ENDS
;	COMDAT pdata
pdata	SEGMENT
$pdata$??$?0UVkVertexInputAttributeDescription@@@?$allocator@U_Container_proxy@std@@@std@@QEAA@AEBV?$allocator@UVkVertexInputAttributeDescription@@@1@@Z DD imagerel $LN3
	DD	imagerel $LN3+53
	DD	imagerel $unwind$??$?0UVkVertexInputAttributeDescription@@@?$allocator@U_Container_proxy@std@@@std@@QEAA@AEBV?$allocator@UVkVertexInputAttributeDescription@@@1@@Z
pdata	ENDS
;	COMDAT pdata
pdata	SEGMENT
$pdata$??$_Destroy_range@V?$allocator@PEAVRenderObject@@@std@@@std@@YAXPEAPEAVRenderObject@@QEAPEAV1@AEAV?$allocator@PEAVRenderObject@@@0@@Z DD imagerel $LN3
	DD	imagerel $LN3+51
	DD	imagerel $unwind$??$_Destroy_range@V?$allocator@PEAVRenderObject@@@std@@@std@@YAXPEAPEAVRenderObject@@QEAPEAV1@AEAV?$allocator@PEAVRenderObject@@@0@@Z
pdata	ENDS
;	COMDAT pdata
pdata	SEGMENT
$pdata$??$_Destroy_range@V?$allocator@PEAUVkCommandBuffer_T@@@std@@@std@@YAXPEAPEAUVkCommandBuffer_T@@QEAPEAU1@AEAV?$allocator@PEAUVkCommandBuffer_T@@@0@@Z DD imagerel $LN3
	DD	imagerel $LN3+51
	DD	imagerel $unwind$??$_Destroy_range@V?$allocator@PEAUVkCommandBuffer_T@@@std@@@std@@YAXPEAPEAUVkCommandBuffer_T@@QEAPEAU1@AEAV?$allocator@PEAUVkCommandBuffer_T@@@0@@Z
pdata	ENDS
;	COMDAT pdata
pdata	SEGMENT
$pdata$??$_Destroy_range@V?$allocator@UVertex2DTextured@cow@@@std@@@std@@YAXPEAUVertex2DTextured@cow@@QEAU12@AEAV?$allocator@UVertex2DTextured@cow@@@0@@Z DD imagerel $LN3
	DD	imagerel $LN3+51
	DD	imagerel $unwind$??$_Destroy_range@V?$allocator@UVertex2DTextured@cow@@@std@@@std@@YAXPEAUVertex2DTextured@cow@@QEAU12@AEAV?$allocator@UVertex2DTextured@cow@@@0@@Z
pdata	ENDS
;	COMDAT pdata
pdata	SEGMENT
$pdata$??$_Unfancy_maybe_null@UVertex2DTextured@cow@@@std@@YAPEAUVertex2DTextured@cow@@PEAU12@@Z DD imagerel $LN3
	DD	imagerel $LN3+48
	DD	imagerel $unwind$??$_Unfancy_maybe_null@UVertex2DTextured@cow@@@std@@YAPEAUVertex2DTextured@cow@@PEAU12@@Z
pdata	ENDS
;	COMDAT pdata
pdata	SEGMENT
$pdata$??$_Destroy_range@V?$allocator@W4VkDynamicState@@@std@@@std@@YAXPEAW4VkDynamicState@@QEAW41@AEAV?$allocator@W4VkDynamicState@@@0@@Z DD imagerel $LN3
	DD	imagerel $LN3+51
	DD	imagerel $unwind$??$_Destroy_range@V?$allocator@W4VkDynamicState@@@std@@@std@@YAXPEAW4VkDynamicState@@QEAW41@AEAV?$allocator@W4VkDynamicState@@@0@@Z
pdata	ENDS
;	COMDAT pdata
pdata	SEGMENT
$pdata$??$_Allocate@$0BA@U_Default_allocate_traits@std@@$0A@@std@@YAPEAX_K@Z DD imagerel $LN6
	DD	imagerel $LN6+106
	DD	imagerel $unwind$??$_Allocate@$0BA@U_Default_allocate_traits@std@@$0A@@std@@YAPEAX_K@Z
pdata	ENDS
;	COMDAT pdata
pdata	SEGMENT
$pdata$??$_Deallocate@$0BA@$0A@@std@@YAXPEAX_K@Z DD imagerel $LN6
	DD	imagerel $LN6+124
	DD	imagerel $unwind$??$_Deallocate@$0BA@$0A@@std@@YAXPEAX_K@Z
pdata	ENDS
;	COMDAT pdata
pdata	SEGMENT
$pdata$??$_Destroy_range@V?$allocator@UVkVertexInputAttributeDescription@@@std@@@std@@YAXPEAUVkVertexInputAttributeDescription@@QEAU1@AEAV?$allocator@UVkVertexInputAttributeDescription@@@0@@Z DD imagerel $LN3
	DD	imagerel $LN3+51
	DD	imagerel $unwind$??$_Destroy_range@V?$allocator@UVkVertexInputAttributeDescription@@@std@@@std@@YAXPEAUVkVertexInputAttributeDescription@@QEAU1@AEAV?$allocator@UVkVertexInputAttributeDescription@@@0@@Z
pdata	ENDS
;	COMDAT pdata
pdata	SEGMENT
$pdata$??$_Get_size_of_n@$0BA@@std@@YA_K_K@Z DD imagerel $LN4
	DD	imagerel $LN4+91
	DD	imagerel $unwind$??$_Get_size_of_n@$0BA@@std@@YA_K_K@Z
pdata	ENDS
;	COMDAT pdata
pdata	SEGMENT
$pdata$??$addressof@U_Container_proxy@std@@@std@@YAPEAU_Container_proxy@0@AEAU10@@Z DD imagerel $LN3
	DD	imagerel $LN3+48
	DD	imagerel $unwind$??$addressof@U_Container_proxy@std@@@std@@YAPEAU_Container_proxy@0@AEAU10@@Z
pdata	ENDS
;	COMDAT pdata
pdata	SEGMENT
$pdata$??$_Voidify_iter@PEAU_Container_proxy@std@@@std@@YAPEAXPEAU_Container_proxy@0@@Z DD imagerel $LN3
	DD	imagerel $LN3+48
	DD	imagerel $unwind$??$_Voidify_iter@PEAU_Container_proxy@std@@@std@@YAPEAXPEAU_Container_proxy@0@@Z
pdata	ENDS
